(dp1
S'output'
p2
S'<class \'pywintypes.com_error\'> (-2147352567, \'Exception occurred.\', (0, u\'Microsoft Excel\', u"Microsoft Excel cannot access the file \'\\\\\\\\maawtns02\\\\discipline\\\\procurement\\\\MATERIEL\\\\Raw Material\\\\Data Management\\\\Data Management HUD\\\\InformationAssuranceHUD.xlsm\'. There are several possible reasons:\\n\\n\\u2022 The file name or path does not exist.\\n\\u2022 The file is being used by another program.\\n\\u2022 The workbook you are trying to save has the same name as a currently open workbook.", u\'xlmain11.chm\', 0, -2146827284), None)'
p3
sS'layer'
p4
S'D:\\web2py\\source\\web2py\\applications\\web2py_xlchart_dashboard\\controllers/default.py'
p5
sS'code'
p6
S'# -*- coding: utf-8 -*-\n# this file is released under public domain and you can use without limitations\n\n#########################################################################\n## This is a samples controller\n## - index is the default action of any application\n## - user is required for authentication and authorization\n## - download is for downloading files uploaded in the db (does streaming)\n## - call exposes all registered services (none by default)\n#########################################################################\n\n\ndef index():\n    """\n    example action using the internationalization operator T and flash\n    rendered by views/default/index.html or views/generic.html\n\n    if you need a simple wiki simple replace the two lines below with:\n    return auth.wiki()\n    """\n  \n    response.flash = T("Welcome to web2py!")\n    return dict(message=T(\'Hello World\'))\n\ndef add_workbook():\n    grid = SQLFORM.smartgrid(db.workbook)\n    return locals()\n\ndef add_chart():\n    grid = SQLFORM.smartgrid(db.chart)\n    return locals()\n\ndef register_chart_part1():\n    grid = SQLFORM.smartgrid(db.workbook,links = [lambda row: A(T(\'List charts in this workbook\'),_href=URL("default","list_workbook_charts",vars={\'wbid\':row.id})),] )\n    return dict(workbookGrid = grid)\n    \ndef list_workbook_charts():\n    import os\n    wbid = request.vars[\'wbid\']\n    rsPath = db(db.workbook.id == wbid).select(db.workbook.path)\n    wbPath = rsPath[0].path\n    ChartDetails = get_chart(wbPath)\n    chartfiles = []\n    DivCount = 0\n    for ChartDetail in ChartDetails[\'chartdetail\']: \n        DivCount += 1\n        div_name = "div" + str(DivCount)\n        #div_name = ChartDetail[\'sheetname\'].replace(\' \',\'_\') + \'_\' + ChartDetail[\'chartname\'].replace(\' \',\'_\')  \n        chartfiles.append(dict(divname = div_name,chartimage = A(IMG(_src=URL(ChartDetails[\'webfolder\'],str(ChartDetail[\'imagename\'])),_width="200",_height="200"),callback = URL(f=\'registerchart\',vars={\'wbid\':wbid,\'sheetname\':ChartDetail[\'sheetname\'],\'chartname\':ChartDetail[\'chartname\']}), target=div_name)))\n    #for root, dirs, files in os.walk(ChartDetails[\'osfolder\']):\n    #    for file in files:\n    #        chartfiles.append(IMG(_src=URL(ChartDetails[\'webfolder\'],file),_width="200",_height="200"))\n    return dict(chartfiles=chartfiles)\n\ndef get_chart(workbookPath, imageName="XLChart"):\n    import os, time\n    wbPath, wbFile = os.path.split(workbookPath)\n    import pythoncom\n    pythoncom.CoInitialize()\n    from pyxlchart import Pyxlchart\n    \n    ChartObj = Pyxlchart()\n    ChartObj.WorkbookDirectory = wbPath\n    ChartObj.WorkbookFilename = wbFile\n    ChartObj.ImageFilename = imageName\n    timeDir = str(time.time())\n    os.makedirs(os.path.join(request.folder, \'static\\\\images\\\\temp\', timeDir))\n    exportFolder = os.path.join(request.folder, \'static\\\\images\\\\temp\', timeDir)\n    ChartObj.ExportPath =  exportFolder\n    ChartObj.ReplaceWhiteSpaceChar = \'_\'\n    ChartDetailList = ChartObj.start_export()\n    ChartDetails = dict(chartdetail = ChartDetailList, webfolder = os.path.join(\'static/images/temp/\',timeDir),osfolder = exportFolder)\n    return ChartDetails\n\ndef registerchart():\n    chartid = db.chart.insert(chartName=request.vars[\'chartname\'],id_workbook=request.vars[\'wbid\'],worksheet=request.vars[\'sheetname\'])\n    \n    return "Chart registered with id " + str(chartid)\n\ndef user():\n    """\n    exposes:\n    http://..../[app]/default/user/login\n    http://..../[app]/default/user/logout\n    http://..../[app]/default/user/register\n    http://..../[app]/default/user/profile\n    http://..../[app]/default/user/retrieve_password\n    http://..../[app]/default/user/change_password\n    use @auth.requires_login()\n        @auth.requires_membership(\'group name\')\n        @auth.requires_permission(\'read\',\'table name\',record_id)\n    to decorate functions that need access control\n    """\n    return dict(form=auth())\n\n\ndef download():\n    """\n    allows downloading of uploaded files\n    http://..../[app]/default/download/[filename]\n    """\n    return response.download(request, db)\n\n\ndef call():\n    """\n    exposes services. for example:\n    http://..../[app]/default/call/jsonrpc\n    decorate with @services.jsonrpc the functions to expose\n    supports xml, json, xmlrpc, jsonrpc, amfrpc, rss, csv\n    """\n    return service()\n\n\n@auth.requires_signature()\ndef data():\n    """\n    http://..../[app]/default/data/tables\n    http://..../[app]/default/data/create/[table]\n    http://..../[app]/default/data/read/[table]/[id]\n    http://..../[app]/default/data/update/[table]/[id]\n    http://..../[app]/default/data/delete/[table]/[id]\n    http://..../[app]/default/data/select/[table]\n    http://..../[app]/default/data/search/[table]\n    but URLs must be signed, i.e. linked with\n      A(\'table\',_href=URL(\'data/tables\',user_signature=True))\n    or with the signed load operator\n      LOAD(\'default\',\'data.load\',args=\'tables\',ajax=True,user_signature=True)\n    """\n    return dict(form=crud())\n\nresponse._vars=response._caller(list_workbook_charts)\n'
p7
sS'snapshot'
p8
(dp9
S'exception'
p10
(dp11
S'__module__'
p12
S"'pywintypes'"
p13
sS'__getslice__'
p14
S"<method-wrapper '__getslice__' of com_error object>"
p15
sS'__str__'
p16
S"<method-wrapper '__str__' of com_error object>"
p17
sS'__reduce__'
p18
S'<built-in method __reduce__ of com_error object>'
p19
sS'__dict__'
p20
S'{\'argerror\': None, \'excepinfo\': (0, u\'Microsoft Excel\', u"Microsoft Excel cannot access the file \'\\\\\\\\ma... has the same name as a currently open workbook.", u\'xlmain11.chm\', 0, -2146827284), \'hresult\': -2147352567, \'strerror\': \'Exception occurred.\'}'
p21
sS'__sizeof__'
p22
S'<built-in method __sizeof__ of com_error object>'
p23
sS'__weakref__'
p24
S'None'
p25
sS'__init__'
p26
S'<bound method com_error.__init__ of com_error(-2...kbook.", u\'xlmain11.chm\', 0, -2146827284), None)>'
p27
sS'__setattr__'
p28
S"<method-wrapper '__setattr__' of com_error object>"
p29
sS'__reduce_ex__'
p30
S'<built-in method __reduce_ex__ of com_error object>'
p31
sS'__new__'
p32
S'<built-in method __new__ of type object>'
p33
sS'__format__'
p34
S'<built-in method __format__ of com_error object>'
p35
sS'__class__'
p36
S"<class 'pywintypes.com_error'>"
p37
sS'__doc__'
p38
S'None'
p39
sS'__getitem__'
p40
S"<method-wrapper '__getitem__' of com_error object>"
p41
sS'__setstate__'
p42
S'<built-in method __setstate__ of com_error object>'
p43
sS'__getattribute__'
p44
S"<method-wrapper '__getattribute__' of com_error object>"
p45
sS'args'
p46
S'(-2147352567, \'Exception occurred.\', (0, u\'Microsoft Excel\', u"Microsoft Excel cannot access the file \'\\\\\\\\ma... has the same name as a currently open workbook.", u\'xlmain11.chm\', 0, -2146827284), None)'
p47
sS'__subclasshook__'
p48
S'<built-in method __subclasshook__ of type object>'
p49
sS'argerror'
p50
S'None'
p51
sS'__unicode__'
p52
S'<built-in method __unicode__ of com_error object>'
p53
sS'excepinfo'
p54
S'(0, u\'Microsoft Excel\', u"Microsoft Excel cannot access the file \'\\\\\\\\ma... has the same name as a currently open workbook.", u\'xlmain11.chm\', 0, -2146827284)'
p55
sS'hresult'
p56
S'-2147352567'
p57
sS'strerror'
p58
S"'Exception occurred.'"
p59
sS'__delattr__'
p60
S"<method-wrapper '__delattr__' of com_error object>"
p61
sS'__repr__'
p62
S"<method-wrapper '__repr__' of com_error object>"
p63
sS'__hash__'
p64
S"<method-wrapper '__hash__' of com_error object>"
p65
ssS'evalue'
p66
S'(-2147352567, \'Exception occurred.\', (0, u\'Microsoft Excel\', u"Microsoft Excel cannot access the file \'\\\\\\\\maawtns02\\\\discipline\\\\procurement\\\\MATERIEL\\\\Raw Material\\\\Data Management\\\\Data Management HUD\\\\InformationAssuranceHUD.xlsm\'. There are several possible reasons:\\n\\n\\u2022 The file name or path does not exist.\\n\\u2022 The file is being used by another program.\\n\\u2022 The workbook you are trying to save has the same name as a currently open workbook.", u\'xlmain11.chm\', 0, -2146827284), None)'
p67
sS'request'
p68
ccopy_reg
_reconstructor
p69
(cgluon.html
BEAUTIFY
p70
c__builtin__
object
p71
NtRp72
(dp73
S'attributes'
p74
(dp75
sS'components'
p76
(lp77
g69
(cgluon.html
TABLE
p78
g71
NtRp79
(dp80
g74
(dp81
S'level'
p82
I5
ssS'parent'
p83
Nsg76
(lp84
g69
(cgluon.html
TR
p85
g71
NtRp86
(dp87
g74
(dp88
sg83
g79
sg76
(lp89
g69
(cgluon.html
TD
p90
g71
NtRp91
(dp92
g74
(dp93
S'_style'
p94
S'font-weight:bold;vertical-align:top'
p95
ssg83
g86
sg76
(lp96
S'ajax'
p97
asbag69
(g90
g71
NtRp98
(dp99
g74
(dp100
S'_valign'
p101
S'top'
p102
ssg83
g86
sg76
(lp103
S':'
asbag69
(g90
g71
NtRp104
(dp105
g74
(dp106
sg83
g86
sg76
(lp107
g69
(g70
g71
NtRp108
(dp109
g74
(dp110
g82
I5
ssg83
g104
sg76
(lp111
S'False'
p112
asbasbasbag69
(g85
g71
NtRp113
(dp114
g74
(dp115
sg83
g79
sg76
(lp116
g69
(g90
g71
NtRp117
(dp118
g74
(dp119
g94
g95
ssg83
g113
sg76
(lp120
S'application'
p121
asbag69
(g90
g71
NtRp122
(dp123
g74
(dp124
g101
g102
ssg83
g113
sg76
(lp125
S':'
asbag69
(g90
g71
NtRp126
(dp127
g74
(dp128
sg83
g113
sg76
(lp129
g69
(g70
g71
NtRp130
(dp131
g74
(dp132
g82
I5
ssg83
g126
sg76
(lp133
S'web2py_xlchart_dashboard'
p134
asbasbasbag69
(g85
g71
NtRp135
(dp136
g74
(dp137
sg83
g79
sg76
(lp138
g69
(g90
g71
NtRp139
(dp140
g74
(dp141
g94
g95
ssg83
g135
sg76
(lp142
g46
asbag69
(g90
g71
NtRp143
(dp144
g74
(dp145
g101
g102
ssg83
g135
sg76
(lp146
S':'
asbag69
(g90
g71
NtRp147
(dp148
g74
(dp149
sg83
g135
sg76
(lp150
g69
(g70
g71
NtRp151
(dp152
g74
(dp153
g82
I5
ssg83
g147
sg76
(lp154
g69
(g78
g71
NtRp155
(dp156
g74
(dp157
g82
I4
ssg83
Nsg76
(lp158
sbasbasbasbag69
(g85
g71
NtRp159
(dp160
g74
(dp161
sg83
g79
sg76
(lp162
g69
(g90
g71
NtRp163
(dp164
g74
(dp165
g94
g95
ssg83
g159
sg76
(lp166
S'body'
p167
asbag69
(g90
g71
NtRp168
(dp169
g74
(dp170
g101
g102
ssg83
g159
sg76
(lp171
S':'
asbag69
(g90
g71
NtRp172
(dp173
g74
(dp174
sg83
g159
sg76
(lp175
g69
(g70
g71
NtRp176
(dp177
g74
(dp178
g82
I5
ssg83
g172
sg76
(lp179
S'<cStringIO.StringO object at 0x04E8FF60>'
p180
asbasbasbag69
(g85
g71
NtRp181
(dp182
g74
(dp183
sg83
g79
sg76
(lp184
g69
(g90
g71
NtRp185
(dp186
g74
(dp187
g94
g95
ssg83
g181
sg76
(lp188
S'cid'
p189
asbag69
(g90
g71
NtRp190
(dp191
g74
(dp192
g101
g102
ssg83
g181
sg76
(lp193
S':'
asbag69
(g90
g71
NtRp194
(dp195
g74
(dp196
sg83
g181
sg76
(lp197
g69
(g70
g71
NtRp198
(dp199
g74
(dp200
g82
I5
ssg83
g194
sg76
(lp201
S'None'
p202
asbasbasbag69
(g85
g71
NtRp203
(dp204
g74
(dp205
sg83
g79
sg76
(lp206
g69
(g90
g71
NtRp207
(dp208
g74
(dp209
g94
g95
ssg83
g203
sg76
(lp210
S'client'
p211
asbag69
(g90
g71
NtRp212
(dp213
g74
(dp214
g101
g102
ssg83
g203
sg76
(lp215
S':'
asbag69
(g90
g71
NtRp216
(dp217
g74
(dp218
sg83
g203
sg76
(lp219
g69
(g70
g71
NtRp220
(dp221
g74
(dp222
g82
I5
ssg83
g216
sg76
(lp223
S'127.0.0.1'
p224
asbasbasbag69
(g85
g71
NtRp225
(dp226
g74
(dp227
sg83
g79
sg76
(lp228
g69
(g90
g71
NtRp229
(dp230
g74
(dp231
g94
g95
ssg83
g225
sg76
(lp232
S'controller'
p233
asbag69
(g90
g71
NtRp234
(dp235
g74
(dp236
g101
g102
ssg83
g225
sg76
(lp237
S':'
asbag69
(g90
g71
NtRp238
(dp239
g74
(dp240
sg83
g225
sg76
(lp241
g69
(g70
g71
NtRp242
(dp243
g74
(dp244
g82
I5
ssg83
g238
sg76
(lp245
S'default'
p246
asbasbasbag69
(g85
g71
NtRp247
(dp248
g74
(dp249
sg83
g79
sg76
(lp250
g69
(g90
g71
NtRp251
(dp252
g74
(dp253
g94
g95
ssg83
g247
sg76
(lp254
S'cookies'
p255
asbag69
(g90
g71
NtRp256
(dp257
g74
(dp258
g101
g102
ssg83
g247
sg76
(lp259
S':'
asbag69
(g90
g71
NtRp260
(dp261
g74
(dp262
sg83
g247
sg76
(lp263
g69
(g70
g71
NtRp264
(dp265
g74
(dp266
g82
I5
ssg83
g260
sg76
(lp267
g69
(g78
g71
NtRp268
(dp269
g74
(dp270
g82
I4
ssg83
Nsg76
(lp271
g69
(g85
g71
NtRp272
(dp273
g74
(dp274
sg83
g268
sg76
(lp275
g69
(g90
g71
NtRp276
(dp277
g74
(dp278
g94
g95
ssg83
g272
sg76
(lp279
S'session_id_admin'
p280
asbag69
(g90
g71
NtRp281
(dp282
g74
(dp283
g101
g102
ssg83
g272
sg76
(lp284
S':'
asbag69
(g90
g71
NtRp285
(dp286
g74
(dp287
sg83
g272
sg76
(lp288
g69
(g70
g71
NtRp289
(dp290
g74
(dp291
g82
I4
ssg83
g285
sg76
(lp292
S'127.0.0.1-189697a8-de08-4a1c-93cd-ff5044ef6776'
p293
ag69
(g78
g71
NtRp294
(dp295
g74
(dp296
g82
I3
ssg83
Nsg76
(lp297
g69
(g85
g71
NtRp298
(dp299
g74
(dp300
sg83
g294
sg76
(lp301
g69
(g90
g71
NtRp302
(dp303
g74
(dp304
g94
g95
ssg83
g298
sg76
(lp305
S'comment'
p306
asbag69
(g90
g71
NtRp307
(dp308
g74
(dp309
g101
g102
ssg83
g298
sg76
(lp310
S':'
asbag69
(g90
g71
NtRp311
(dp312
g74
(dp313
sg83
g298
sg76
(lp314
g69
(g70
g71
NtRp315
(dp316
g74
(dp317
g82
I3
ssg83
g311
sg76
(lp318
S''
asbasbasbag69
(g85
g71
NtRp319
(dp320
g74
(dp321
sg83
g294
sg76
(lp322
g69
(g90
g71
NtRp323
(dp324
g74
(dp325
g94
g95
ssg83
g319
sg76
(lp326
S'domain'
p327
asbag69
(g90
g71
NtRp328
(dp329
g74
(dp330
g101
g102
ssg83
g319
sg76
(lp331
S':'
asbag69
(g90
g71
NtRp332
(dp333
g74
(dp334
sg83
g319
sg76
(lp335
g69
(g70
g71
NtRp336
(dp337
g74
(dp338
g82
I3
ssg83
g332
sg76
(lp339
S''
asbasbasbag69
(g85
g71
NtRp340
(dp341
g74
(dp342
sg83
g294
sg76
(lp343
g69
(g90
g71
NtRp344
(dp345
g74
(dp346
g94
g95
ssg83
g340
sg76
(lp347
S'expires'
p348
asbag69
(g90
g71
NtRp349
(dp350
g74
(dp351
g101
g102
ssg83
g340
sg76
(lp352
S':'
asbag69
(g90
g71
NtRp353
(dp354
g74
(dp355
sg83
g340
sg76
(lp356
g69
(g70
g71
NtRp357
(dp358
g74
(dp359
g82
I3
ssg83
g353
sg76
(lp360
S''
asbasbasbag69
(g85
g71
NtRp361
(dp362
g74
(dp363
sg83
g294
sg76
(lp364
g69
(g90
g71
NtRp365
(dp366
g74
(dp367
g94
g95
ssg83
g361
sg76
(lp368
S'httponly'
p369
asbag69
(g90
g71
NtRp370
(dp371
g74
(dp372
g101
g102
ssg83
g361
sg76
(lp373
S':'
asbag69
(g90
g71
NtRp374
(dp375
g74
(dp376
sg83
g361
sg76
(lp377
g69
(g70
g71
NtRp378
(dp379
g74
(dp380
g82
I3
ssg83
g374
sg76
(lp381
S''
asbasbasbag69
(g85
g71
NtRp382
(dp383
g74
(dp384
sg83
g294
sg76
(lp385
g69
(g90
g71
NtRp386
(dp387
g74
(dp388
g94
g95
ssg83
g382
sg76
(lp389
S'max-age'
p390
asbag69
(g90
g71
NtRp391
(dp392
g74
(dp393
g101
g102
ssg83
g382
sg76
(lp394
S':'
asbag69
(g90
g71
NtRp395
(dp396
g74
(dp397
sg83
g382
sg76
(lp398
g69
(g70
g71
NtRp399
(dp400
g74
(dp401
g82
I3
ssg83
g395
sg76
(lp402
S''
asbasbasbag69
(g85
g71
NtRp403
(dp404
g74
(dp405
sg83
g294
sg76
(lp406
g69
(g90
g71
NtRp407
(dp408
g74
(dp409
g94
g95
ssg83
g403
sg76
(lp410
S'path'
p411
asbag69
(g90
g71
NtRp412
(dp413
g74
(dp414
g101
g102
ssg83
g403
sg76
(lp415
S':'
asbag69
(g90
g71
NtRp416
(dp417
g74
(dp418
sg83
g403
sg76
(lp419
g69
(g70
g71
NtRp420
(dp421
g74
(dp422
g82
I3
ssg83
g416
sg76
(lp423
S''
asbasbasbag69
(g85
g71
NtRp424
(dp425
g74
(dp426
sg83
g294
sg76
(lp427
g69
(g90
g71
NtRp428
(dp429
g74
(dp430
g94
g95
ssg83
g424
sg76
(lp431
S'secure'
p432
asbag69
(g90
g71
NtRp433
(dp434
g74
(dp435
g101
g102
ssg83
g424
sg76
(lp436
S':'
asbag69
(g90
g71
NtRp437
(dp438
g74
(dp439
sg83
g424
sg76
(lp440
g69
(g70
g71
NtRp441
(dp442
g74
(dp443
g82
I3
ssg83
g437
sg76
(lp444
S''
asbasbasbag69
(g85
g71
NtRp445
(dp446
g74
(dp447
sg83
g294
sg76
(lp448
g69
(g90
g71
NtRp449
(dp450
g74
(dp451
g94
g95
ssg83
g445
sg76
(lp452
S'version'
p453
asbag69
(g90
g71
NtRp454
(dp455
g74
(dp456
g101
g102
ssg83
g445
sg76
(lp457
S':'
asbag69
(g90
g71
NtRp458
(dp459
g74
(dp460
sg83
g445
sg76
(lp461
g69
(g70
g71
NtRp462
(dp463
g74
(dp464
g82
I3
ssg83
g458
sg76
(lp465
S''
asbasbasbasbasbasbasbag69
(g85
g71
NtRp466
(dp467
g74
(dp468
sg83
g268
sg76
(lp469
g69
(g90
g71
NtRp470
(dp471
g74
(dp472
g94
g95
ssg83
g466
sg76
(lp473
S'session_id_web2py_xlchart_dashboard'
p474
asbag69
(g90
g71
NtRp475
(dp476
g74
(dp477
g101
g102
ssg83
g466
sg76
(lp478
S':'
asbag69
(g90
g71
NtRp479
(dp480
g74
(dp481
sg83
g466
sg76
(lp482
g69
(g70
g71
NtRp483
(dp484
g74
(dp485
g82
I4
ssg83
g479
sg76
(lp486
S'127.0.0.1-44a3aeb7-c008-49d5-9b24-ee4003137a90'
p487
ag69
(g78
g71
NtRp488
(dp489
g74
(dp490
g82
I3
ssg83
Nsg76
(lp491
g69
(g85
g71
NtRp492
(dp493
g74
(dp494
sg83
g488
sg76
(lp495
g69
(g90
g71
NtRp496
(dp497
g74
(dp498
g94
g95
ssg83
g492
sg76
(lp499
g306
asbag69
(g90
g71
NtRp500
(dp501
g74
(dp502
g101
g102
ssg83
g492
sg76
(lp503
S':'
asbag69
(g90
g71
NtRp504
(dp505
g74
(dp506
sg83
g492
sg76
(lp507
g69
(g70
g71
NtRp508
(dp509
g74
(dp510
g82
I3
ssg83
g504
sg76
(lp511
S''
asbasbasbag69
(g85
g71
NtRp512
(dp513
g74
(dp514
sg83
g488
sg76
(lp515
g69
(g90
g71
NtRp516
(dp517
g74
(dp518
g94
g95
ssg83
g512
sg76
(lp519
g327
asbag69
(g90
g71
NtRp520
(dp521
g74
(dp522
g101
g102
ssg83
g512
sg76
(lp523
S':'
asbag69
(g90
g71
NtRp524
(dp525
g74
(dp526
sg83
g512
sg76
(lp527
g69
(g70
g71
NtRp528
(dp529
g74
(dp530
g82
I3
ssg83
g524
sg76
(lp531
S''
asbasbasbag69
(g85
g71
NtRp532
(dp533
g74
(dp534
sg83
g488
sg76
(lp535
g69
(g90
g71
NtRp536
(dp537
g74
(dp538
g94
g95
ssg83
g532
sg76
(lp539
g348
asbag69
(g90
g71
NtRp540
(dp541
g74
(dp542
g101
g102
ssg83
g532
sg76
(lp543
S':'
asbag69
(g90
g71
NtRp544
(dp545
g74
(dp546
sg83
g532
sg76
(lp547
g69
(g70
g71
NtRp548
(dp549
g74
(dp550
g82
I3
ssg83
g544
sg76
(lp551
S''
asbasbasbag69
(g85
g71
NtRp552
(dp553
g74
(dp554
sg83
g488
sg76
(lp555
g69
(g90
g71
NtRp556
(dp557
g74
(dp558
g94
g95
ssg83
g552
sg76
(lp559
g369
asbag69
(g90
g71
NtRp560
(dp561
g74
(dp562
g101
g102
ssg83
g552
sg76
(lp563
S':'
asbag69
(g90
g71
NtRp564
(dp565
g74
(dp566
sg83
g552
sg76
(lp567
g69
(g70
g71
NtRp568
(dp569
g74
(dp570
g82
I3
ssg83
g564
sg76
(lp571
S''
asbasbasbag69
(g85
g71
NtRp572
(dp573
g74
(dp574
sg83
g488
sg76
(lp575
g69
(g90
g71
NtRp576
(dp577
g74
(dp578
g94
g95
ssg83
g572
sg76
(lp579
g390
asbag69
(g90
g71
NtRp580
(dp581
g74
(dp582
g101
g102
ssg83
g572
sg76
(lp583
S':'
asbag69
(g90
g71
NtRp584
(dp585
g74
(dp586
sg83
g572
sg76
(lp587
g69
(g70
g71
NtRp588
(dp589
g74
(dp590
g82
I3
ssg83
g584
sg76
(lp591
S''
asbasbasbag69
(g85
g71
NtRp592
(dp593
g74
(dp594
sg83
g488
sg76
(lp595
g69
(g90
g71
NtRp596
(dp597
g74
(dp598
g94
g95
ssg83
g592
sg76
(lp599
g411
asbag69
(g90
g71
NtRp600
(dp601
g74
(dp602
g101
g102
ssg83
g592
sg76
(lp603
S':'
asbag69
(g90
g71
NtRp604
(dp605
g74
(dp606
sg83
g592
sg76
(lp607
g69
(g70
g71
NtRp608
(dp609
g74
(dp610
g82
I3
ssg83
g604
sg76
(lp611
S''
asbasbasbag69
(g85
g71
NtRp612
(dp613
g74
(dp614
sg83
g488
sg76
(lp615
g69
(g90
g71
NtRp616
(dp617
g74
(dp618
g94
g95
ssg83
g612
sg76
(lp619
g432
asbag69
(g90
g71
NtRp620
(dp621
g74
(dp622
g101
g102
ssg83
g612
sg76
(lp623
S':'
asbag69
(g90
g71
NtRp624
(dp625
g74
(dp626
sg83
g612
sg76
(lp627
g69
(g70
g71
NtRp628
(dp629
g74
(dp630
g82
I3
ssg83
g624
sg76
(lp631
S''
asbasbasbag69
(g85
g71
NtRp632
(dp633
g74
(dp634
sg83
g488
sg76
(lp635
g69
(g90
g71
NtRp636
(dp637
g74
(dp638
g94
g95
ssg83
g632
sg76
(lp639
g453
asbag69
(g90
g71
NtRp640
(dp641
g74
(dp642
g101
g102
ssg83
g632
sg76
(lp643
S':'
asbag69
(g90
g71
NtRp644
(dp645
g74
(dp646
sg83
g632
sg76
(lp647
g69
(g70
g71
NtRp648
(dp649
g74
(dp650
g82
I3
ssg83
g644
sg76
(lp651
S''
asbasbasbasbasbasbasbasbasbasbasbag69
(g85
g71
NtRp652
(dp653
g74
(dp654
sg83
g79
sg76
(lp655
g69
(g90
g71
NtRp656
(dp657
g74
(dp658
g94
g95
ssg83
g652
sg76
(lp659
S'env'
p660
asbag69
(g90
g71
NtRp661
(dp662
g74
(dp663
g101
g102
ssg83
g652
sg76
(lp664
S':'
asbag69
(g90
g71
NtRp665
(dp666
g74
(dp667
sg83
g652
sg76
(lp668
g69
(g70
g71
NtRp669
(dp670
g74
(dp671
g82
I5
ssg83
g665
sg76
(lp672
g69
(g78
g71
NtRp673
(dp674
g74
(dp675
g82
I4
ssg83
Nsg76
(lp676
g69
(g85
g71
NtRp677
(dp678
g74
(dp679
sg83
g673
sg76
(lp680
g69
(g90
g71
NtRp681
(dp682
g74
(dp683
g94
g95
ssg83
g677
sg76
(lp684
S'app_folders'
p685
asbag69
(g90
g71
NtRp686
(dp687
g74
(dp688
g101
g102
ssg83
g677
sg76
(lp689
S':'
asbag69
(g90
g71
NtRp690
(dp691
g74
(dp692
sg83
g677
sg76
(lp693
g69
(g70
g71
NtRp694
(dp695
g74
(dp696
g82
I4
ssg83
g690
sg76
(lp697
S"set(['D:\\\\web2py\\\\source\\\\web2py\\\\applications\\\\admin\\\\', 'D:\\\\web2py\\\\source\\\\web2py\\\\applications\\\\welcome\\\\', 'D:\\\\web2py\\\\source\\\\web2py\\\\applications\\\\web2py_xlchart_dashboard\\\\'])"
p698
asbasbasbag69
(g85
g71
NtRp699
(dp700
g74
(dp701
sg83
g673
sg76
(lp702
g69
(g90
g71
NtRp703
(dp704
g74
(dp705
g94
g95
ssg83
g699
sg76
(lp706
S'applications_parent'
p707
asbag69
(g90
g71
NtRp708
(dp709
g74
(dp710
g101
g102
ssg83
g699
sg76
(lp711
S':'
asbag69
(g90
g71
NtRp712
(dp713
g74
(dp714
sg83
g699
sg76
(lp715
g69
(g70
g71
NtRp716
(dp717
g74
(dp718
g82
I4
ssg83
g712
sg76
(lp719
S'D:\\web2py\\source\\web2py'
p720
asbasbasbag69
(g85
g71
NtRp721
(dp722
g74
(dp723
sg83
g673
sg76
(lp724
g69
(g90
g71
NtRp725
(dp726
g74
(dp727
g94
g95
ssg83
g721
sg76
(lp728
S'cmd_args'
p729
asbag69
(g90
g71
NtRp730
(dp731
g74
(dp732
g101
g102
ssg83
g721
sg76
(lp733
S':'
asbag69
(g90
g71
NtRp734
(dp735
g74
(dp736
sg83
g721
sg76
(lp737
g69
(g70
g71
NtRp738
(dp739
g74
(dp740
g82
I4
ssg83
g734
sg76
(lp741
g69
(g78
g71
NtRp742
(dp743
g74
(dp744
g82
I3
ssg83
Nsg76
(lp745
sbasbasbasbag69
(g85
g71
NtRp746
(dp747
g74
(dp748
sg83
g673
sg76
(lp749
g69
(g90
g71
NtRp750
(dp751
g74
(dp752
g94
g95
ssg83
g746
sg76
(lp753
S'cmd_options'
p754
asbag69
(g90
g71
NtRp755
(dp756
g74
(dp757
g101
g102
ssg83
g746
sg76
(lp758
S':'
asbag69
(g90
g71
NtRp759
(dp760
g74
(dp761
sg83
g746
sg76
(lp762
g69
(g70
g71
NtRp763
(dp764
g74
(dp765
g82
I4
ssg83
g759
sg76
(lp766
S"<Values at 0xc77f58: {'verbose': False, 'ip': '127.0.0.1', 'with_scheduler': False, 'ips': ['192.168.0.14'], 'shutdown_timeout': 5, 'taskbar': False, 'port': 8000, 'maxthreads': None, 'softcron': False, 'server_name': 'GLKLAG235327', 'bpython': False, 'nogui': False, 'pid_filename': 'httpserver.pid', 'extcron': False, 'runcron': False, 'run_system_tests': False, 'test': None, 'folder': 'D:\\\\web2py\\\\source\\\\web2py', 'config': '', 'import_models': False, 'winservice': '', 'shell': None, 'run': '', 'log_filename': 'httpserver.log', 'debuglevel': 30, 'args': [''], 'socket_timeout': 5, 'ssl_ca_certificate': None, 'scheduler': None, 'profiler_filename': None, 'ssl_private_key': '', 'scheduler_groups': None, 'password': '<ask>', 'request_queue_size': 5, 'ssl_certificate': '', 'cronjob': False, 'numthreads': None, 'quiet': False, 'interfaces': None, 'minthreads': None, 'timeout': 10, 'plain': False, 'nobanner': False}>"
p767
asbasbasbag69
(g85
g71
NtRp768
(dp769
g74
(dp770
sg83
g673
sg76
(lp771
g69
(g90
g71
NtRp772
(dp773
g74
(dp774
g94
g95
ssg83
g768
sg76
(lp775
S'db_sessions'
p776
asbag69
(g90
g71
NtRp777
(dp778
g74
(dp779
g101
g102
ssg83
g768
sg76
(lp780
S':'
asbag69
(g90
g71
NtRp781
(dp782
g74
(dp783
sg83
g768
sg76
(lp784
g69
(g70
g71
NtRp785
(dp786
g74
(dp787
g82
I4
ssg83
g781
sg76
(lp788
S'set([])'
p789
asbasbasbag69
(g85
g71
NtRp790
(dp791
g74
(dp792
sg83
g673
sg76
(lp793
g69
(g90
g71
NtRp794
(dp795
g74
(dp796
g94
g95
ssg83
g790
sg76
(lp797
S'debugging'
p798
asbag69
(g90
g71
NtRp799
(dp800
g74
(dp801
g101
g102
ssg83
g790
sg76
(lp802
S':'
asbag69
(g90
g71
NtRp803
(dp804
g74
(dp805
sg83
g790
sg76
(lp806
g69
(g70
g71
NtRp807
(dp808
g74
(dp809
g82
I4
ssg83
g803
sg76
(lp810
g112
asbasbasbag69
(g85
g71
NtRp811
(dp812
g74
(dp813
sg83
g673
sg76
(lp814
g69
(g90
g71
NtRp815
(dp816
g74
(dp817
g94
g95
ssg83
g811
sg76
(lp818
S'gluon_parent'
p819
asbag69
(g90
g71
NtRp820
(dp821
g74
(dp822
g101
g102
ssg83
g811
sg76
(lp823
S':'
asbag69
(g90
g71
NtRp824
(dp825
g74
(dp826
sg83
g811
sg76
(lp827
g69
(g70
g71
NtRp828
(dp829
g74
(dp830
g82
I4
ssg83
g824
sg76
(lp831
S'D:\\web2py\\source\\web2py'
p832
asbasbasbag69
(g85
g71
NtRp833
(dp834
g74
(dp835
sg83
g673
sg76
(lp836
g69
(g90
g71
NtRp837
(dp838
g74
(dp839
g94
g95
ssg83
g833
sg76
(lp840
S'http_accept'
p841
asbag69
(g90
g71
NtRp842
(dp843
g74
(dp844
g101
g102
ssg83
g833
sg76
(lp845
S':'
asbag69
(g90
g71
NtRp846
(dp847
g74
(dp848
sg83
g833
sg76
(lp849
g69
(g70
g71
NtRp850
(dp851
g74
(dp852
g82
I4
ssg83
g846
sg76
(lp853
S'text/html,application/xhtml+xml,application/xml;q=0.9,*/*;q=0.8'
p854
asbasbasbag69
(g85
g71
NtRp855
(dp856
g74
(dp857
sg83
g673
sg76
(lp858
g69
(g90
g71
NtRp859
(dp860
g74
(dp861
g94
g95
ssg83
g855
sg76
(lp862
S'http_accept_charset'
p863
asbag69
(g90
g71
NtRp864
(dp865
g74
(dp866
g101
g102
ssg83
g855
sg76
(lp867
S':'
asbag69
(g90
g71
NtRp868
(dp869
g74
(dp870
sg83
g855
sg76
(lp871
g69
(g70
g71
NtRp872
(dp873
g74
(dp874
g82
I4
ssg83
g868
sg76
(lp875
S'ISO-8859-1,utf-8;q=0.7,*;q=0.3'
p876
asbasbasbag69
(g85
g71
NtRp877
(dp878
g74
(dp879
sg83
g673
sg76
(lp880
g69
(g90
g71
NtRp881
(dp882
g74
(dp883
g94
g95
ssg83
g877
sg76
(lp884
S'http_accept_encoding'
p885
asbag69
(g90
g71
NtRp886
(dp887
g74
(dp888
g101
g102
ssg83
g877
sg76
(lp889
S':'
asbag69
(g90
g71
NtRp890
(dp891
g74
(dp892
sg83
g877
sg76
(lp893
g69
(g70
g71
NtRp894
(dp895
g74
(dp896
g82
I4
ssg83
g890
sg76
(lp897
S'gzip,deflate,sdch'
p898
asbasbasbag69
(g85
g71
NtRp899
(dp900
g74
(dp901
sg83
g673
sg76
(lp902
g69
(g90
g71
NtRp903
(dp904
g74
(dp905
g94
g95
ssg83
g899
sg76
(lp906
S'http_accept_language'
p907
asbag69
(g90
g71
NtRp908
(dp909
g74
(dp910
g101
g102
ssg83
g899
sg76
(lp911
S':'
asbag69
(g90
g71
NtRp912
(dp913
g74
(dp914
sg83
g899
sg76
(lp915
g69
(g70
g71
NtRp916
(dp917
g74
(dp918
g82
I4
ssg83
g912
sg76
(lp919
S'en-US,en;q=0.8'
p920
asbasbasbag69
(g85
g71
NtRp921
(dp922
g74
(dp923
sg83
g673
sg76
(lp924
g69
(g90
g71
NtRp925
(dp926
g74
(dp927
g94
g95
ssg83
g921
sg76
(lp928
S'http_connection'
p929
asbag69
(g90
g71
NtRp930
(dp931
g74
(dp932
g101
g102
ssg83
g921
sg76
(lp933
S':'
asbag69
(g90
g71
NtRp934
(dp935
g74
(dp936
sg83
g921
sg76
(lp937
g69
(g70
g71
NtRp938
(dp939
g74
(dp940
g82
I4
ssg83
g934
sg76
(lp941
S'keep-alive'
p942
asbasbasbag69
(g85
g71
NtRp943
(dp944
g74
(dp945
sg83
g673
sg76
(lp946
g69
(g90
g71
NtRp947
(dp948
g74
(dp949
g94
g95
ssg83
g943
sg76
(lp950
S'http_cookie'
p951
asbag69
(g90
g71
NtRp952
(dp953
g74
(dp954
g101
g102
ssg83
g943
sg76
(lp955
S':'
asbag69
(g90
g71
NtRp956
(dp957
g74
(dp958
sg83
g943
sg76
(lp959
g69
(g70
g71
NtRp960
(dp961
g74
(dp962
g82
I4
ssg83
g956
sg76
(lp963
S'session_id_admin=127.0.0.1-189697a8-de08-4a1c-93cd-ff5044ef6776; session_id_web2py_xlchart_dashboard=127.0.0.1-44a3aeb7-c008-49d5-9b24-ee4003137a90'
p964
asbasbasbag69
(g85
g71
NtRp965
(dp966
g74
(dp967
sg83
g673
sg76
(lp968
g69
(g90
g71
NtRp969
(dp970
g74
(dp971
g94
g95
ssg83
g965
sg76
(lp972
S'http_host'
p973
asbag69
(g90
g71
NtRp974
(dp975
g74
(dp976
g101
g102
ssg83
g965
sg76
(lp977
S':'
asbag69
(g90
g71
NtRp978
(dp979
g74
(dp980
sg83
g965
sg76
(lp981
g69
(g70
g71
NtRp982
(dp983
g74
(dp984
g82
I4
ssg83
g978
sg76
(lp985
S'localhost:8000'
p986
asbasbasbag69
(g85
g71
NtRp987
(dp988
g74
(dp989
sg83
g673
sg76
(lp990
g69
(g90
g71
NtRp991
(dp992
g74
(dp993
g94
g95
ssg83
g987
sg76
(lp994
S'http_referer'
p995
asbag69
(g90
g71
NtRp996
(dp997
g74
(dp998
g101
g102
ssg83
g987
sg76
(lp999
S':'
asbag69
(g90
g71
NtRp1000
(dp1001
g74
(dp1002
sg83
g987
sg76
(lp1003
g69
(g70
g71
NtRp1004
(dp1005
g74
(dp1006
g82
I4
ssg83
g1000
sg76
(lp1007
S'http://localhost:8000/web2py_xlchart_dashboard/default/register_chart_part1/workbook/chart.id_workbook/4?_signature=7e35d57451aaa16e313162e218e901b5da02c61a'
p1008
asbasbasbag69
(g85
g71
NtRp1009
(dp1010
g74
(dp1011
sg83
g673
sg76
(lp1012
g69
(g90
g71
NtRp1013
(dp1014
g74
(dp1015
g94
g95
ssg83
g1009
sg76
(lp1016
S'http_user_agent'
p1017
asbag69
(g90
g71
NtRp1018
(dp1019
g74
(dp1020
g101
g102
ssg83
g1009
sg76
(lp1021
S':'
asbag69
(g90
g71
NtRp1022
(dp1023
g74
(dp1024
sg83
g1009
sg76
(lp1025
g69
(g70
g71
NtRp1026
(dp1027
g74
(dp1028
g82
I4
ssg83
g1022
sg76
(lp1029
S'Mozilla/5.0 (Windows NT 5.1) AppleWebKit/537.4 (KHTML, like Gecko) Chrome/22.0.1229.94 Safari/537.4'
p1030
asbasbasbag69
(g85
g71
NtRp1031
(dp1032
g74
(dp1033
sg83
g673
sg76
(lp1034
g69
(g90
g71
NtRp1035
(dp1036
g74
(dp1037
g94
g95
ssg83
g1031
sg76
(lp1038
S'is_jython'
p1039
asbag69
(g90
g71
NtRp1040
(dp1041
g74
(dp1042
g101
g102
ssg83
g1031
sg76
(lp1043
S':'
asbag69
(g90
g71
NtRp1044
(dp1045
g74
(dp1046
sg83
g1031
sg76
(lp1047
g69
(g70
g71
NtRp1048
(dp1049
g74
(dp1050
g82
I4
ssg83
g1044
sg76
(lp1051
g112
asbasbasbag69
(g85
g71
NtRp1052
(dp1053
g74
(dp1054
sg83
g673
sg76
(lp1055
g69
(g90
g71
NtRp1056
(dp1057
g74
(dp1058
g94
g95
ssg83
g1052
sg76
(lp1059
S'is_pypy'
p1060
asbag69
(g90
g71
NtRp1061
(dp1062
g74
(dp1063
g101
g102
ssg83
g1052
sg76
(lp1064
S':'
asbag69
(g90
g71
NtRp1065
(dp1066
g74
(dp1067
sg83
g1052
sg76
(lp1068
g69
(g70
g71
NtRp1069
(dp1070
g74
(dp1071
g82
I4
ssg83
g1065
sg76
(lp1072
g112
asbasbasbag69
(g85
g71
NtRp1073
(dp1074
g74
(dp1075
sg83
g673
sg76
(lp1076
g69
(g90
g71
NtRp1077
(dp1078
g74
(dp1079
g94
g95
ssg83
g1073
sg76
(lp1080
S'local_hosts'
p1081
asbag69
(g90
g71
NtRp1082
(dp1083
g74
(dp1084
g101
g102
ssg83
g1073
sg76
(lp1085
S':'
asbag69
(g90
g71
NtRp1086
(dp1087
g74
(dp1088
sg83
g1073
sg76
(lp1089
g69
(g70
g71
NtRp1090
(dp1091
g74
(dp1092
g82
I4
ssg83
g1086
sg76
(lp1093
g69
(g78
g71
NtRp1094
(dp1095
g74
(dp1096
g82
I3
ssg83
Nsg76
(lp1097
g69
(g85
g71
NtRp1098
(dp1099
g74
(dp1100
sg83
g1094
sg76
(lp1101
g69
(g90
g71
NtRp1102
(dp1103
g74
(dp1104
sg83
g1098
sg76
(lp1105
g69
(g70
g71
NtRp1106
(dp1107
g74
(dp1108
g82
I3
ssg83
g1102
sg76
(lp1109
S'127.0.0.1'
p1110
asbasbasbag69
(g85
g71
NtRp1111
(dp1112
g74
(dp1113
sg83
g1094
sg76
(lp1114
g69
(g90
g71
NtRp1115
(dp1116
g74
(dp1117
sg83
g1111
sg76
(lp1118
g69
(g70
g71
NtRp1119
(dp1120
g74
(dp1121
g82
I3
ssg83
g1115
sg76
(lp1122
S'::ffff:127.0.0.1'
p1123
asbasbasbag69
(g85
g71
NtRp1124
(dp1125
g74
(dp1126
sg83
g1094
sg76
(lp1127
g69
(g90
g71
NtRp1128
(dp1129
g74
(dp1130
sg83
g1124
sg76
(lp1131
g69
(g70
g71
NtRp1132
(dp1133
g74
(dp1134
g82
I3
ssg83
g1128
sg76
(lp1135
S'GLKLAG235327'
p1136
asbasbasbag69
(g85
g71
NtRp1137
(dp1138
g74
(dp1139
sg83
g1094
sg76
(lp1140
g69
(g90
g71
NtRp1141
(dp1142
g74
(dp1143
sg83
g1137
sg76
(lp1144
g69
(g70
g71
NtRp1145
(dp1146
g74
(dp1147
g82
I3
ssg83
g1141
sg76
(lp1148
S'GLKLAG235327'
p1149
asbasbasbag69
(g85
g71
NtRp1150
(dp1151
g74
(dp1152
sg83
g1094
sg76
(lp1153
g69
(g90
g71
NtRp1154
(dp1155
g74
(dp1156
sg83
g1150
sg76
(lp1157
g69
(g70
g71
NtRp1158
(dp1159
g74
(dp1160
g82
I3
ssg83
g1154
sg76
(lp1161
S'192.168.0.14'
p1162
asbasbasbasbasbasbasbag69
(g85
g71
NtRp1163
(dp1164
g74
(dp1165
sg83
g673
sg76
(lp1166
g69
(g90
g71
NtRp1167
(dp1168
g74
(dp1169
g94
g95
ssg83
g1163
sg76
(lp1170
S'path_info'
p1171
asbag69
(g90
g71
NtRp1172
(dp1173
g74
(dp1174
g101
g102
ssg83
g1163
sg76
(lp1175
S':'
asbag69
(g90
g71
NtRp1176
(dp1177
g74
(dp1178
sg83
g1163
sg76
(lp1179
g69
(g70
g71
NtRp1180
(dp1181
g74
(dp1182
g82
I4
ssg83
g1176
sg76
(lp1183
S'/web2py_xlchart_dashboard/default/list_workbook_charts'
p1184
asbasbasbag69
(g85
g71
NtRp1185
(dp1186
g74
(dp1187
sg83
g673
sg76
(lp1188
g69
(g90
g71
NtRp1189
(dp1190
g74
(dp1191
g94
g95
ssg83
g1185
sg76
(lp1192
S'query_string'
p1193
asbag69
(g90
g71
NtRp1194
(dp1195
g74
(dp1196
g101
g102
ssg83
g1185
sg76
(lp1197
S':'
asbag69
(g90
g71
NtRp1198
(dp1199
g74
(dp1200
sg83
g1185
sg76
(lp1201
g69
(g70
g71
NtRp1202
(dp1203
g74
(dp1204
g82
I4
ssg83
g1198
sg76
(lp1205
S'wbid=2'
p1206
asbasbasbag69
(g85
g71
NtRp1207
(dp1208
g74
(dp1209
sg83
g673
sg76
(lp1210
g69
(g90
g71
NtRp1211
(dp1212
g74
(dp1213
g94
g95
ssg83
g1207
sg76
(lp1214
S'remote_addr'
p1215
asbag69
(g90
g71
NtRp1216
(dp1217
g74
(dp1218
g101
g102
ssg83
g1207
sg76
(lp1219
S':'
asbag69
(g90
g71
NtRp1220
(dp1221
g74
(dp1222
sg83
g1207
sg76
(lp1223
g69
(g70
g71
NtRp1224
(dp1225
g74
(dp1226
g82
I4
ssg83
g1220
sg76
(lp1227
g224
asbasbasbag69
(g85
g71
NtRp1228
(dp1229
g74
(dp1230
sg83
g673
sg76
(lp1231
g69
(g90
g71
NtRp1232
(dp1233
g74
(dp1234
g94
g95
ssg83
g1228
sg76
(lp1235
S'remote_port'
p1236
asbag69
(g90
g71
NtRp1237
(dp1238
g74
(dp1239
g101
g102
ssg83
g1228
sg76
(lp1240
S':'
asbag69
(g90
g71
NtRp1241
(dp1242
g74
(dp1243
sg83
g1228
sg76
(lp1244
g69
(g70
g71
NtRp1245
(dp1246
g74
(dp1247
g82
I4
ssg83
g1241
sg76
(lp1248
S'1953'
p1249
asbasbasbag69
(g85
g71
NtRp1250
(dp1251
g74
(dp1252
sg83
g673
sg76
(lp1253
g69
(g90
g71
NtRp1254
(dp1255
g74
(dp1256
g94
g95
ssg83
g1250
sg76
(lp1257
S'request_method'
p1258
asbag69
(g90
g71
NtRp1259
(dp1260
g74
(dp1261
g101
g102
ssg83
g1250
sg76
(lp1262
S':'
asbag69
(g90
g71
NtRp1263
(dp1264
g74
(dp1265
sg83
g1250
sg76
(lp1266
g69
(g70
g71
NtRp1267
(dp1268
g74
(dp1269
g82
I4
ssg83
g1263
sg76
(lp1270
S'GET'
p1271
asbasbasbag69
(g85
g71
NtRp1272
(dp1273
g74
(dp1274
sg83
g673
sg76
(lp1275
g69
(g90
g71
NtRp1276
(dp1277
g74
(dp1278
g94
g95
ssg83
g1272
sg76
(lp1279
S'request_uri'
p1280
asbag69
(g90
g71
NtRp1281
(dp1282
g74
(dp1283
g101
g102
ssg83
g1272
sg76
(lp1284
S':'
asbag69
(g90
g71
NtRp1285
(dp1286
g74
(dp1287
sg83
g1272
sg76
(lp1288
g69
(g70
g71
NtRp1289
(dp1290
g74
(dp1291
g82
I4
ssg83
g1285
sg76
(lp1292
S'/web2py_xlchart_dashboard/default/list_workbook_charts?wbid=2'
p1293
asbasbasbag69
(g85
g71
NtRp1294
(dp1295
g74
(dp1296
sg83
g673
sg76
(lp1297
g69
(g90
g71
NtRp1298
(dp1299
g74
(dp1300
g94
g95
ssg83
g1294
sg76
(lp1301
S'script_name'
p1302
asbag69
(g90
g71
NtRp1303
(dp1304
g74
(dp1305
g101
g102
ssg83
g1294
sg76
(lp1306
S':'
asbag69
(g90
g71
NtRp1307
(dp1308
g74
(dp1309
sg83
g1294
sg76
(lp1310
g69
(g70
g71
NtRp1311
(dp1312
g74
(dp1313
g82
I4
ssg83
g1307
sg76
(lp1314
S''
asbasbasbag69
(g85
g71
NtRp1315
(dp1316
g74
(dp1317
sg83
g673
sg76
(lp1318
g69
(g90
g71
NtRp1319
(dp1320
g74
(dp1321
g94
g95
ssg83
g1315
sg76
(lp1322
S'server_name'
p1323
asbag69
(g90
g71
NtRp1324
(dp1325
g74
(dp1326
g101
g102
ssg83
g1315
sg76
(lp1327
S':'
asbag69
(g90
g71
NtRp1328
(dp1329
g74
(dp1330
sg83
g1315
sg76
(lp1331
g69
(g70
g71
NtRp1332
(dp1333
g74
(dp1334
g82
I4
ssg83
g1328
sg76
(lp1335
g1149
asbasbasbag69
(g85
g71
NtRp1336
(dp1337
g74
(dp1338
sg83
g673
sg76
(lp1339
g69
(g90
g71
NtRp1340
(dp1341
g74
(dp1342
g94
g95
ssg83
g1336
sg76
(lp1343
S'server_port'
p1344
asbag69
(g90
g71
NtRp1345
(dp1346
g74
(dp1347
g101
g102
ssg83
g1336
sg76
(lp1348
S':'
asbag69
(g90
g71
NtRp1349
(dp1350
g74
(dp1351
sg83
g1336
sg76
(lp1352
g69
(g70
g71
NtRp1353
(dp1354
g74
(dp1355
g82
I4
ssg83
g1349
sg76
(lp1356
S'8000'
p1357
asbasbasbag69
(g85
g71
NtRp1358
(dp1359
g74
(dp1360
sg83
g673
sg76
(lp1361
g69
(g90
g71
NtRp1362
(dp1363
g74
(dp1364
g94
g95
ssg83
g1358
sg76
(lp1365
S'server_protocol'
p1366
asbag69
(g90
g71
NtRp1367
(dp1368
g74
(dp1369
g101
g102
ssg83
g1358
sg76
(lp1370
S':'
asbag69
(g90
g71
NtRp1371
(dp1372
g74
(dp1373
sg83
g1358
sg76
(lp1374
g69
(g70
g71
NtRp1375
(dp1376
g74
(dp1377
g82
I4
ssg83
g1371
sg76
(lp1378
S'HTTP/1.1'
p1379
asbasbasbag69
(g85
g71
NtRp1380
(dp1381
g74
(dp1382
sg83
g673
sg76
(lp1383
g69
(g90
g71
NtRp1384
(dp1385
g74
(dp1386
g94
g95
ssg83
g1380
sg76
(lp1387
S'server_software'
p1388
asbag69
(g90
g71
NtRp1389
(dp1390
g74
(dp1391
g101
g102
ssg83
g1380
sg76
(lp1392
S':'
asbag69
(g90
g71
NtRp1393
(dp1394
g74
(dp1395
sg83
g1380
sg76
(lp1396
g69
(g70
g71
NtRp1397
(dp1398
g74
(dp1399
g82
I4
ssg83
g1393
sg76
(lp1400
S'Rocket 1.2.5'
p1401
asbasbasbag69
(g85
g71
NtRp1402
(dp1403
g74
(dp1404
sg83
g673
sg76
(lp1405
g69
(g90
g71
NtRp1406
(dp1407
g74
(dp1408
g94
g95
ssg83
g1402
sg76
(lp1409
S'web2py_path'
p1410
asbag69
(g90
g71
NtRp1411
(dp1412
g74
(dp1413
g101
g102
ssg83
g1402
sg76
(lp1414
S':'
asbag69
(g90
g71
NtRp1415
(dp1416
g74
(dp1417
sg83
g1402
sg76
(lp1418
g69
(g70
g71
NtRp1419
(dp1420
g74
(dp1421
g82
I4
ssg83
g1415
sg76
(lp1422
g720
asbasbasbag69
(g85
g71
NtRp1423
(dp1424
g74
(dp1425
sg83
g673
sg76
(lp1426
g69
(g90
g71
NtRp1427
(dp1428
g74
(dp1429
g94
g95
ssg83
g1423
sg76
(lp1430
S'web2py_version'
p1431
asbag69
(g90
g71
NtRp1432
(dp1433
g74
(dp1434
g101
g102
ssg83
g1423
sg76
(lp1435
S':'
asbag69
(g90
g71
NtRp1436
(dp1437
g74
(dp1438
sg83
g1423
sg76
(lp1439
g69
(g70
g71
NtRp1440
(dp1441
g74
(dp1442
g82
I4
ssg83
g1436
sg76
(lp1443
g69
(g78
g71
NtRp1444
(dp1445
g74
(dp1446
g82
I3
ssg83
Nsg76
(lp1447
g69
(g85
g71
NtRp1448
(dp1449
g74
(dp1450
sg83
g1444
sg76
(lp1451
g69
(g90
g71
NtRp1452
(dp1453
g74
(dp1454
sg83
g1448
sg76
(lp1455
g69
(g70
g71
NtRp1456
(dp1457
g74
(dp1458
g82
I3
ssg83
g1452
sg76
(lp1459
S'2'
asbasbasbag69
(g85
g71
NtRp1460
(dp1461
g74
(dp1462
sg83
g1444
sg76
(lp1463
g69
(g90
g71
NtRp1464
(dp1465
g74
(dp1466
sg83
g1460
sg76
(lp1467
g69
(g70
g71
NtRp1468
(dp1469
g74
(dp1470
g82
I3
ssg83
g1464
sg76
(lp1471
S'2'
asbasbasbag69
(g85
g71
NtRp1472
(dp1473
g74
(dp1474
sg83
g1444
sg76
(lp1475
g69
(g90
g71
NtRp1476
(dp1477
g74
(dp1478
sg83
g1472
sg76
(lp1479
g69
(g70
g71
NtRp1480
(dp1481
g74
(dp1482
g82
I3
ssg83
g1476
sg76
(lp1483
S'1'
asbasbasbag69
(g85
g71
NtRp1484
(dp1485
g74
(dp1486
sg83
g1444
sg76
(lp1487
g69
(g90
g71
NtRp1488
(dp1489
g74
(dp1490
sg83
g1484
sg76
(lp1491
g69
(g70
g71
NtRp1492
(dp1493
g74
(dp1494
g82
I3
ssg83
g1488
sg76
(lp1495
S'datetime.datetime(2012, 10, 21, 16, 57, 4)'
p1496
asbasbasbag69
(g85
g71
NtRp1497
(dp1498
g74
(dp1499
sg83
g1444
sg76
(lp1500
g69
(g90
g71
NtRp1501
(dp1502
g74
(dp1503
sg83
g1497
sg76
(lp1504
g69
(g70
g71
NtRp1505
(dp1506
g74
(dp1507
g82
I3
ssg83
g1501
sg76
(lp1508
S'stable'
p1509
asbasbasbasbasbasbasbag69
(g85
g71
NtRp1510
(dp1511
g74
(dp1512
sg83
g673
sg76
(lp1513
g69
(g90
g71
NtRp1514
(dp1515
g74
(dp1516
g94
g95
ssg83
g1510
sg76
(lp1517
S'wsgi_errors'
p1518
asbag69
(g90
g71
NtRp1519
(dp1520
g74
(dp1521
g101
g102
ssg83
g1510
sg76
(lp1522
S':'
asbag69
(g90
g71
NtRp1523
(dp1524
g74
(dp1525
sg83
g1510
sg76
(lp1526
g69
(g70
g71
NtRp1527
(dp1528
g74
(dp1529
g82
I4
ssg83
g1523
sg76
(lp1530
S"<open file '<stderr>', mode 'w' at 0x00A850D0>"
p1531
asbasbasbag69
(g85
g71
NtRp1532
(dp1533
g74
(dp1534
sg83
g673
sg76
(lp1535
g69
(g90
g71
NtRp1536
(dp1537
g74
(dp1538
g94
g95
ssg83
g1532
sg76
(lp1539
S'wsgi_file_wrapper'
p1540
asbag69
(g90
g71
NtRp1541
(dp1542
g74
(dp1543
g101
g102
ssg83
g1532
sg76
(lp1544
S':'
asbag69
(g90
g71
NtRp1545
(dp1546
g74
(dp1547
sg83
g1532
sg76
(lp1548
g69
(g70
g71
NtRp1549
(dp1550
g74
(dp1551
g82
I4
ssg83
g1545
sg76
(lp1552
S'<class wsgiref.util.FileWrapper at 0x0172EE68>'
p1553
asbasbasbag69
(g85
g71
NtRp1554
(dp1555
g74
(dp1556
sg83
g673
sg76
(lp1557
g69
(g90
g71
NtRp1558
(dp1559
g74
(dp1560
g94
g95
ssg83
g1554
sg76
(lp1561
S'wsgi_input'
p1562
asbag69
(g90
g71
NtRp1563
(dp1564
g74
(dp1565
g101
g102
ssg83
g1554
sg76
(lp1566
S':'
asbag69
(g90
g71
NtRp1567
(dp1568
g74
(dp1569
sg83
g1554
sg76
(lp1570
g69
(g70
g71
NtRp1571
(dp1572
g74
(dp1573
g82
I4
ssg83
g1567
sg76
(lp1574
S'<socket._fileobject object at 0x01ADAF70>'
p1575
asbasbasbag69
(g85
g71
NtRp1576
(dp1577
g74
(dp1578
sg83
g673
sg76
(lp1579
g69
(g90
g71
NtRp1580
(dp1581
g74
(dp1582
g94
g95
ssg83
g1576
sg76
(lp1583
S'wsgi_multiprocess'
p1584
asbag69
(g90
g71
NtRp1585
(dp1586
g74
(dp1587
g101
g102
ssg83
g1576
sg76
(lp1588
S':'
asbag69
(g90
g71
NtRp1589
(dp1590
g74
(dp1591
sg83
g1576
sg76
(lp1592
g69
(g70
g71
NtRp1593
(dp1594
g74
(dp1595
g82
I4
ssg83
g1589
sg76
(lp1596
g112
asbasbasbag69
(g85
g71
NtRp1597
(dp1598
g74
(dp1599
sg83
g673
sg76
(lp1600
g69
(g90
g71
NtRp1601
(dp1602
g74
(dp1603
g94
g95
ssg83
g1597
sg76
(lp1604
S'wsgi_multithread'
p1605
asbag69
(g90
g71
NtRp1606
(dp1607
g74
(dp1608
g101
g102
ssg83
g1597
sg76
(lp1609
S':'
asbag69
(g90
g71
NtRp1610
(dp1611
g74
(dp1612
sg83
g1597
sg76
(lp1613
g69
(g70
g71
NtRp1614
(dp1615
g74
(dp1616
g82
I4
ssg83
g1610
sg76
(lp1617
S'True'
p1618
asbasbasbag69
(g85
g71
NtRp1619
(dp1620
g74
(dp1621
sg83
g673
sg76
(lp1622
g69
(g90
g71
NtRp1623
(dp1624
g74
(dp1625
g94
g95
ssg83
g1619
sg76
(lp1626
S'wsgi_run_once'
p1627
asbag69
(g90
g71
NtRp1628
(dp1629
g74
(dp1630
g101
g102
ssg83
g1619
sg76
(lp1631
S':'
asbag69
(g90
g71
NtRp1632
(dp1633
g74
(dp1634
sg83
g1619
sg76
(lp1635
g69
(g70
g71
NtRp1636
(dp1637
g74
(dp1638
g82
I4
ssg83
g1632
sg76
(lp1639
g112
asbasbasbag69
(g85
g71
NtRp1640
(dp1641
g74
(dp1642
sg83
g673
sg76
(lp1643
g69
(g90
g71
NtRp1644
(dp1645
g74
(dp1646
g94
g95
ssg83
g1640
sg76
(lp1647
S'wsgi_url_scheme'
p1648
asbag69
(g90
g71
NtRp1649
(dp1650
g74
(dp1651
g101
g102
ssg83
g1640
sg76
(lp1652
S':'
asbag69
(g90
g71
NtRp1653
(dp1654
g74
(dp1655
sg83
g1640
sg76
(lp1656
g69
(g70
g71
NtRp1657
(dp1658
g74
(dp1659
g82
I4
ssg83
g1653
sg76
(lp1660
S'http'
p1661
asbasbasbag69
(g85
g71
NtRp1662
(dp1663
g74
(dp1664
sg83
g673
sg76
(lp1665
g69
(g90
g71
NtRp1666
(dp1667
g74
(dp1668
g94
g95
ssg83
g1662
sg76
(lp1669
S'wsgi_version'
p1670
asbag69
(g90
g71
NtRp1671
(dp1672
g74
(dp1673
g101
g102
ssg83
g1662
sg76
(lp1674
S':'
asbag69
(g90
g71
NtRp1675
(dp1676
g74
(dp1677
sg83
g1662
sg76
(lp1678
g69
(g70
g71
NtRp1679
(dp1680
g74
(dp1681
g82
I4
ssg83
g1675
sg76
(lp1682
g69
(g78
g71
NtRp1683
(dp1684
g74
(dp1685
g82
I3
ssg83
Nsg76
(lp1686
g69
(g85
g71
NtRp1687
(dp1688
g74
(dp1689
sg83
g1683
sg76
(lp1690
g69
(g90
g71
NtRp1691
(dp1692
g74
(dp1693
sg83
g1687
sg76
(lp1694
g69
(g70
g71
NtRp1695
(dp1696
g74
(dp1697
g82
I3
ssg83
g1691
sg76
(lp1698
S'1'
asbasbasbag69
(g85
g71
NtRp1699
(dp1700
g74
(dp1701
sg83
g1683
sg76
(lp1702
g69
(g90
g71
NtRp1703
(dp1704
g74
(dp1705
sg83
g1699
sg76
(lp1706
g69
(g70
g71
NtRp1707
(dp1708
g74
(dp1709
g82
I3
ssg83
g1703
sg76
(lp1710
S'0'
asbasbasbasbasbasbasbasbasbasbasbag69
(g85
g71
NtRp1711
(dp1712
g74
(dp1713
sg83
g79
sg76
(lp1714
g69
(g90
g71
NtRp1715
(dp1716
g74
(dp1717
g94
g95
ssg83
g1711
sg76
(lp1718
S'extension'
p1719
asbag69
(g90
g71
NtRp1720
(dp1721
g74
(dp1722
g101
g102
ssg83
g1711
sg76
(lp1723
S':'
asbag69
(g90
g71
NtRp1724
(dp1725
g74
(dp1726
sg83
g1711
sg76
(lp1727
g69
(g70
g71
NtRp1728
(dp1729
g74
(dp1730
g82
I5
ssg83
g1724
sg76
(lp1731
S'html'
p1732
asbasbasbag69
(g85
g71
NtRp1733
(dp1734
g74
(dp1735
sg83
g79
sg76
(lp1736
g69
(g90
g71
NtRp1737
(dp1738
g74
(dp1739
g94
g95
ssg83
g1733
sg76
(lp1740
S'folder'
p1741
asbag69
(g90
g71
NtRp1742
(dp1743
g74
(dp1744
g101
g102
ssg83
g1733
sg76
(lp1745
S':'
asbag69
(g90
g71
NtRp1746
(dp1747
g74
(dp1748
sg83
g1733
sg76
(lp1749
g69
(g70
g71
NtRp1750
(dp1751
g74
(dp1752
g82
I5
ssg83
g1746
sg76
(lp1753
S'D:\\web2py\\source\\web2py\\applications\\web2py_xlchart_dashboard\\'
p1754
asbasbasbag69
(g85
g71
NtRp1755
(dp1756
g74
(dp1757
sg83
g79
sg76
(lp1758
g69
(g90
g71
NtRp1759
(dp1760
g74
(dp1761
g94
g95
ssg83
g1755
sg76
(lp1762
S'function'
p1763
asbag69
(g90
g71
NtRp1764
(dp1765
g74
(dp1766
g101
g102
ssg83
g1755
sg76
(lp1767
S':'
asbag69
(g90
g71
NtRp1768
(dp1769
g74
(dp1770
sg83
g1755
sg76
(lp1771
g69
(g70
g71
NtRp1772
(dp1773
g74
(dp1774
g82
I5
ssg83
g1768
sg76
(lp1775
S'list_workbook_charts'
p1776
asbasbasbag69
(g85
g71
NtRp1777
(dp1778
g74
(dp1779
sg83
g79
sg76
(lp1780
g69
(g90
g71
NtRp1781
(dp1782
g74
(dp1783
g94
g95
ssg83
g1777
sg76
(lp1784
S'get_vars'
p1785
asbag69
(g90
g71
NtRp1786
(dp1787
g74
(dp1788
g101
g102
ssg83
g1777
sg76
(lp1789
S':'
asbag69
(g90
g71
NtRp1790
(dp1791
g74
(dp1792
sg83
g1777
sg76
(lp1793
g69
(g70
g71
NtRp1794
(dp1795
g74
(dp1796
g82
I5
ssg83
g1790
sg76
(lp1797
g69
(g78
g71
NtRp1798
(dp1799
g74
(dp1800
g82
I4
ssg83
Nsg76
(lp1801
g69
(g85
g71
NtRp1802
(dp1803
g74
(dp1804
sg83
g1798
sg76
(lp1805
g69
(g90
g71
NtRp1806
(dp1807
g74
(dp1808
g94
g95
ssg83
g1802
sg76
(lp1809
S'wbid'
p1810
asbag69
(g90
g71
NtRp1811
(dp1812
g74
(dp1813
g101
g102
ssg83
g1802
sg76
(lp1814
S':'
asbag69
(g90
g71
NtRp1815
(dp1816
g74
(dp1817
sg83
g1802
sg76
(lp1818
g69
(g70
g71
NtRp1819
(dp1820
g74
(dp1821
g82
I4
ssg83
g1815
sg76
(lp1822
S'2'
asbasbasbasbasbasbasbag69
(g85
g71
NtRp1823
(dp1824
g74
(dp1825
sg83
g79
sg76
(lp1826
g69
(g90
g71
NtRp1827
(dp1828
g74
(dp1829
g94
g95
ssg83
g1823
sg76
(lp1830
S'global_settings'
p1831
asbag69
(g90
g71
NtRp1832
(dp1833
g74
(dp1834
g101
g102
ssg83
g1823
sg76
(lp1835
S':'
asbag69
(g90
g71
NtRp1836
(dp1837
g74
(dp1838
sg83
g1823
sg76
(lp1839
g69
(g70
g71
NtRp1840
(dp1841
g74
(dp1842
g82
I5
ssg83
g1836
sg76
(lp1843
g69
(g78
g71
NtRp1844
(dp1845
g74
(dp1846
g82
I4
ssg83
Nsg76
(lp1847
g69
(g85
g71
NtRp1848
(dp1849
g74
(dp1850
sg83
g1844
sg76
(lp1851
g69
(g90
g71
NtRp1852
(dp1853
g74
(dp1854
g94
g95
ssg83
g1848
sg76
(lp1855
g685
asbag69
(g90
g71
NtRp1856
(dp1857
g74
(dp1858
g101
g102
ssg83
g1848
sg76
(lp1859
S':'
asbag69
(g90
g71
NtRp1860
(dp1861
g74
(dp1862
sg83
g1848
sg76
(lp1863
g69
(g70
g71
NtRp1864
(dp1865
g74
(dp1866
g82
I4
ssg83
g1860
sg76
(lp1867
S"set(['D:\\\\web2py\\\\source\\\\web2py\\\\applications\\\\admin\\\\', 'D:\\\\web2py\\\\source\\\\web2py\\\\applications\\\\welcome\\\\', 'D:\\\\web2py\\\\source\\\\web2py\\\\applications\\\\web2py_xlchart_dashboard\\\\'])"
p1868
asbasbasbag69
(g85
g71
NtRp1869
(dp1870
g74
(dp1871
sg83
g1844
sg76
(lp1872
g69
(g90
g71
NtRp1873
(dp1874
g74
(dp1875
g94
g95
ssg83
g1869
sg76
(lp1876
g707
asbag69
(g90
g71
NtRp1877
(dp1878
g74
(dp1879
g101
g102
ssg83
g1869
sg76
(lp1880
S':'
asbag69
(g90
g71
NtRp1881
(dp1882
g74
(dp1883
sg83
g1869
sg76
(lp1884
g69
(g70
g71
NtRp1885
(dp1886
g74
(dp1887
g82
I4
ssg83
g1881
sg76
(lp1888
g720
asbasbasbag69
(g85
g71
NtRp1889
(dp1890
g74
(dp1891
sg83
g1844
sg76
(lp1892
g69
(g90
g71
NtRp1893
(dp1894
g74
(dp1895
g94
g95
ssg83
g1889
sg76
(lp1896
g729
asbag69
(g90
g71
NtRp1897
(dp1898
g74
(dp1899
g101
g102
ssg83
g1889
sg76
(lp1900
S':'
asbag69
(g90
g71
NtRp1901
(dp1902
g74
(dp1903
sg83
g1889
sg76
(lp1904
g69
(g70
g71
NtRp1905
(dp1906
g74
(dp1907
g82
I4
ssg83
g1901
sg76
(lp1908
g69
(g78
g71
NtRp1909
(dp1910
g74
(dp1911
g82
I3
ssg83
Nsg76
(lp1912
sbasbasbasbag69
(g85
g71
NtRp1913
(dp1914
g74
(dp1915
sg83
g1844
sg76
(lp1916
g69
(g90
g71
NtRp1917
(dp1918
g74
(dp1919
g94
g95
ssg83
g1913
sg76
(lp1920
g754
asbag69
(g90
g71
NtRp1921
(dp1922
g74
(dp1923
g101
g102
ssg83
g1913
sg76
(lp1924
S':'
asbag69
(g90
g71
NtRp1925
(dp1926
g74
(dp1927
sg83
g1913
sg76
(lp1928
g69
(g70
g71
NtRp1929
(dp1930
g74
(dp1931
g82
I4
ssg83
g1925
sg76
(lp1932
S"<Values at 0xc77f58: {'verbose': False, 'ip': '127.0.0.1', 'with_scheduler': False, 'ips': ['192.168.0.14'], 'shutdown_timeout': 5, 'taskbar': False, 'port': 8000, 'maxthreads': None, 'softcron': False, 'server_name': 'GLKLAG235327', 'bpython': False, 'nogui': False, 'pid_filename': 'httpserver.pid', 'extcron': False, 'runcron': False, 'run_system_tests': False, 'test': None, 'folder': 'D:\\\\web2py\\\\source\\\\web2py', 'config': '', 'import_models': False, 'winservice': '', 'shell': None, 'run': '', 'log_filename': 'httpserver.log', 'debuglevel': 30, 'args': [''], 'socket_timeout': 5, 'ssl_ca_certificate': None, 'scheduler': None, 'profiler_filename': None, 'ssl_private_key': '', 'scheduler_groups': None, 'password': '<ask>', 'request_queue_size': 5, 'ssl_certificate': '', 'cronjob': False, 'numthreads': None, 'quiet': False, 'interfaces': None, 'minthreads': None, 'timeout': 10, 'plain': False, 'nobanner': False}>"
p1933
asbasbasbag69
(g85
g71
NtRp1934
(dp1935
g74
(dp1936
sg83
g1844
sg76
(lp1937
g69
(g90
g71
NtRp1938
(dp1939
g74
(dp1940
g94
g95
ssg83
g1934
sg76
(lp1941
g776
asbag69
(g90
g71
NtRp1942
(dp1943
g74
(dp1944
g101
g102
ssg83
g1934
sg76
(lp1945
S':'
asbag69
(g90
g71
NtRp1946
(dp1947
g74
(dp1948
sg83
g1934
sg76
(lp1949
g69
(g70
g71
NtRp1950
(dp1951
g74
(dp1952
g82
I4
ssg83
g1946
sg76
(lp1953
S'set([])'
p1954
asbasbasbag69
(g85
g71
NtRp1955
(dp1956
g74
(dp1957
sg83
g1844
sg76
(lp1958
g69
(g90
g71
NtRp1959
(dp1960
g74
(dp1961
g94
g95
ssg83
g1955
sg76
(lp1962
g798
asbag69
(g90
g71
NtRp1963
(dp1964
g74
(dp1965
g101
g102
ssg83
g1955
sg76
(lp1966
S':'
asbag69
(g90
g71
NtRp1967
(dp1968
g74
(dp1969
sg83
g1955
sg76
(lp1970
g69
(g70
g71
NtRp1971
(dp1972
g74
(dp1973
g82
I4
ssg83
g1967
sg76
(lp1974
g112
asbasbasbag69
(g85
g71
NtRp1975
(dp1976
g74
(dp1977
sg83
g1844
sg76
(lp1978
g69
(g90
g71
NtRp1979
(dp1980
g74
(dp1981
g94
g95
ssg83
g1975
sg76
(lp1982
g819
asbag69
(g90
g71
NtRp1983
(dp1984
g74
(dp1985
g101
g102
ssg83
g1975
sg76
(lp1986
S':'
asbag69
(g90
g71
NtRp1987
(dp1988
g74
(dp1989
sg83
g1975
sg76
(lp1990
g69
(g70
g71
NtRp1991
(dp1992
g74
(dp1993
g82
I4
ssg83
g1987
sg76
(lp1994
g832
asbasbasbag69
(g85
g71
NtRp1995
(dp1996
g74
(dp1997
sg83
g1844
sg76
(lp1998
g69
(g90
g71
NtRp1999
(dp2000
g74
(dp2001
g94
g95
ssg83
g1995
sg76
(lp2002
g1039
asbag69
(g90
g71
NtRp2003
(dp2004
g74
(dp2005
g101
g102
ssg83
g1995
sg76
(lp2006
S':'
asbag69
(g90
g71
NtRp2007
(dp2008
g74
(dp2009
sg83
g1995
sg76
(lp2010
g69
(g70
g71
NtRp2011
(dp2012
g74
(dp2013
g82
I4
ssg83
g2007
sg76
(lp2014
g112
asbasbasbag69
(g85
g71
NtRp2015
(dp2016
g74
(dp2017
sg83
g1844
sg76
(lp2018
g69
(g90
g71
NtRp2019
(dp2020
g74
(dp2021
g94
g95
ssg83
g2015
sg76
(lp2022
g1060
asbag69
(g90
g71
NtRp2023
(dp2024
g74
(dp2025
g101
g102
ssg83
g2015
sg76
(lp2026
S':'
asbag69
(g90
g71
NtRp2027
(dp2028
g74
(dp2029
sg83
g2015
sg76
(lp2030
g69
(g70
g71
NtRp2031
(dp2032
g74
(dp2033
g82
I4
ssg83
g2027
sg76
(lp2034
g112
asbasbasbag69
(g85
g71
NtRp2035
(dp2036
g74
(dp2037
sg83
g1844
sg76
(lp2038
g69
(g90
g71
NtRp2039
(dp2040
g74
(dp2041
g94
g95
ssg83
g2035
sg76
(lp2042
g1081
asbag69
(g90
g71
NtRp2043
(dp2044
g74
(dp2045
g101
g102
ssg83
g2035
sg76
(lp2046
S':'
asbag69
(g90
g71
NtRp2047
(dp2048
g74
(dp2049
sg83
g2035
sg76
(lp2050
g69
(g70
g71
NtRp2051
(dp2052
g74
(dp2053
g82
I4
ssg83
g2047
sg76
(lp2054
g69
(g78
g71
NtRp2055
(dp2056
g74
(dp2057
g82
I3
ssg83
Nsg76
(lp2058
g69
(g85
g71
NtRp2059
(dp2060
g74
(dp2061
sg83
g2055
sg76
(lp2062
g69
(g90
g71
NtRp2063
(dp2064
g74
(dp2065
sg83
g2059
sg76
(lp2066
g69
(g70
g71
NtRp2067
(dp2068
g74
(dp2069
g82
I3
ssg83
g2063
sg76
(lp2070
g1110
asbasbasbag69
(g85
g71
NtRp2071
(dp2072
g74
(dp2073
sg83
g2055
sg76
(lp2074
g69
(g90
g71
NtRp2075
(dp2076
g74
(dp2077
sg83
g2071
sg76
(lp2078
g69
(g70
g71
NtRp2079
(dp2080
g74
(dp2081
g82
I3
ssg83
g2075
sg76
(lp2082
g1123
asbasbasbag69
(g85
g71
NtRp2083
(dp2084
g74
(dp2085
sg83
g2055
sg76
(lp2086
g69
(g90
g71
NtRp2087
(dp2088
g74
(dp2089
sg83
g2083
sg76
(lp2090
g69
(g70
g71
NtRp2091
(dp2092
g74
(dp2093
g82
I3
ssg83
g2087
sg76
(lp2094
g1136
asbasbasbag69
(g85
g71
NtRp2095
(dp2096
g74
(dp2097
sg83
g2055
sg76
(lp2098
g69
(g90
g71
NtRp2099
(dp2100
g74
(dp2101
sg83
g2095
sg76
(lp2102
g69
(g70
g71
NtRp2103
(dp2104
g74
(dp2105
g82
I3
ssg83
g2099
sg76
(lp2106
g1149
asbasbasbag69
(g85
g71
NtRp2107
(dp2108
g74
(dp2109
sg83
g2055
sg76
(lp2110
g69
(g90
g71
NtRp2111
(dp2112
g74
(dp2113
sg83
g2107
sg76
(lp2114
g69
(g70
g71
NtRp2115
(dp2116
g74
(dp2117
g82
I3
ssg83
g2111
sg76
(lp2118
g1162
asbasbasbasbasbasbasbag69
(g85
g71
NtRp2119
(dp2120
g74
(dp2121
sg83
g1844
sg76
(lp2122
g69
(g90
g71
NtRp2123
(dp2124
g74
(dp2125
g94
g95
ssg83
g2119
sg76
(lp2126
g1431
asbag69
(g90
g71
NtRp2127
(dp2128
g74
(dp2129
g101
g102
ssg83
g2119
sg76
(lp2130
S':'
asbag69
(g90
g71
NtRp2131
(dp2132
g74
(dp2133
sg83
g2119
sg76
(lp2134
g69
(g70
g71
NtRp2135
(dp2136
g74
(dp2137
g82
I4
ssg83
g2131
sg76
(lp2138
g69
(g78
g71
NtRp2139
(dp2140
g74
(dp2141
g82
I3
ssg83
Nsg76
(lp2142
g69
(g85
g71
NtRp2143
(dp2144
g74
(dp2145
sg83
g2139
sg76
(lp2146
g69
(g90
g71
NtRp2147
(dp2148
g74
(dp2149
sg83
g2143
sg76
(lp2150
g69
(g70
g71
NtRp2151
(dp2152
g74
(dp2153
g82
I3
ssg83
g2147
sg76
(lp2154
S'2'
asbasbasbag69
(g85
g71
NtRp2155
(dp2156
g74
(dp2157
sg83
g2139
sg76
(lp2158
g69
(g90
g71
NtRp2159
(dp2160
g74
(dp2161
sg83
g2155
sg76
(lp2162
g69
(g70
g71
NtRp2163
(dp2164
g74
(dp2165
g82
I3
ssg83
g2159
sg76
(lp2166
S'2'
asbasbasbag69
(g85
g71
NtRp2167
(dp2168
g74
(dp2169
sg83
g2139
sg76
(lp2170
g69
(g90
g71
NtRp2171
(dp2172
g74
(dp2173
sg83
g2167
sg76
(lp2174
g69
(g70
g71
NtRp2175
(dp2176
g74
(dp2177
g82
I3
ssg83
g2171
sg76
(lp2178
S'1'
asbasbasbag69
(g85
g71
NtRp2179
(dp2180
g74
(dp2181
sg83
g2139
sg76
(lp2182
g69
(g90
g71
NtRp2183
(dp2184
g74
(dp2185
sg83
g2179
sg76
(lp2186
g69
(g70
g71
NtRp2187
(dp2188
g74
(dp2189
g82
I3
ssg83
g2183
sg76
(lp2190
S'datetime.datetime(2012, 10, 21, 16, 57, 4)'
p2191
asbasbasbag69
(g85
g71
NtRp2192
(dp2193
g74
(dp2194
sg83
g2139
sg76
(lp2195
g69
(g90
g71
NtRp2196
(dp2197
g74
(dp2198
sg83
g2192
sg76
(lp2199
g69
(g70
g71
NtRp2200
(dp2201
g74
(dp2202
g82
I3
ssg83
g2196
sg76
(lp2203
g1509
asbasbasbasbasbasbasbasbasbasbasbag69
(g85
g71
NtRp2204
(dp2205
g74
(dp2206
sg83
g79
sg76
(lp2207
g69
(g90
g71
NtRp2208
(dp2209
g74
(dp2210
g94
g95
ssg83
g2204
sg76
(lp2211
S'is_https'
p2212
asbag69
(g90
g71
NtRp2213
(dp2214
g74
(dp2215
g101
g102
ssg83
g2204
sg76
(lp2216
S':'
asbag69
(g90
g71
NtRp2217
(dp2218
g74
(dp2219
sg83
g2204
sg76
(lp2220
g69
(g70
g71
NtRp2221
(dp2222
g74
(dp2223
g82
I5
ssg83
g2217
sg76
(lp2224
g112
asbasbasbag69
(g85
g71
NtRp2225
(dp2226
g74
(dp2227
sg83
g79
sg76
(lp2228
g69
(g90
g71
NtRp2229
(dp2230
g74
(dp2231
g94
g95
ssg83
g2225
sg76
(lp2232
S'is_local'
p2233
asbag69
(g90
g71
NtRp2234
(dp2235
g74
(dp2236
g101
g102
ssg83
g2225
sg76
(lp2237
S':'
asbag69
(g90
g71
NtRp2238
(dp2239
g74
(dp2240
sg83
g2225
sg76
(lp2241
g69
(g70
g71
NtRp2242
(dp2243
g74
(dp2244
g82
I5
ssg83
g2238
sg76
(lp2245
g1618
asbasbasbag69
(g85
g71
NtRp2246
(dp2247
g74
(dp2248
sg83
g79
sg76
(lp2249
g69
(g90
g71
NtRp2250
(dp2251
g74
(dp2252
g94
g95
ssg83
g2246
sg76
(lp2253
S'is_restful'
p2254
asbag69
(g90
g71
NtRp2255
(dp2256
g74
(dp2257
g101
g102
ssg83
g2246
sg76
(lp2258
S':'
asbag69
(g90
g71
NtRp2259
(dp2260
g74
(dp2261
sg83
g2246
sg76
(lp2262
g69
(g70
g71
NtRp2263
(dp2264
g74
(dp2265
g82
I5
ssg83
g2259
sg76
(lp2266
g112
asbasbasbag69
(g85
g71
NtRp2267
(dp2268
g74
(dp2269
sg83
g79
sg76
(lp2270
g69
(g90
g71
NtRp2271
(dp2272
g74
(dp2273
g94
g95
ssg83
g2267
sg76
(lp2274
S'now'
p2275
asbag69
(g90
g71
NtRp2276
(dp2277
g74
(dp2278
g101
g102
ssg83
g2267
sg76
(lp2279
S':'
asbag69
(g90
g71
NtRp2280
(dp2281
g74
(dp2282
sg83
g2267
sg76
(lp2283
g69
(g70
g71
NtRp2284
(dp2285
g74
(dp2286
g82
I5
ssg83
g2280
sg76
(lp2287
S'datetime.datetime(2012, 11, 5, 20, 52, 27, 156000)'
p2288
asbasbasbag69
(g85
g71
NtRp2289
(dp2290
g74
(dp2291
sg83
g79
sg76
(lp2292
g69
(g90
g71
NtRp2293
(dp2294
g74
(dp2295
g94
g95
ssg83
g2289
sg76
(lp2296
S'post_vars'
p2297
asbag69
(g90
g71
NtRp2298
(dp2299
g74
(dp2300
g101
g102
ssg83
g2289
sg76
(lp2301
S':'
asbag69
(g90
g71
NtRp2302
(dp2303
g74
(dp2304
sg83
g2289
sg76
(lp2305
g69
(g70
g71
NtRp2306
(dp2307
g74
(dp2308
g82
I5
ssg83
g2302
sg76
(lp2309
g69
(g78
g71
NtRp2310
(dp2311
g74
(dp2312
g82
I4
ssg83
Nsg76
(lp2313
sbasbasbasbag69
(g85
g71
NtRp2314
(dp2315
g74
(dp2316
sg83
g79
sg76
(lp2317
g69
(g90
g71
NtRp2318
(dp2319
g74
(dp2320
g94
g95
ssg83
g2314
sg76
(lp2321
S'raw_args'
p2322
asbag69
(g90
g71
NtRp2323
(dp2324
g74
(dp2325
g101
g102
ssg83
g2314
sg76
(lp2326
S':'
asbag69
(g90
g71
NtRp2327
(dp2328
g74
(dp2329
sg83
g2314
sg76
(lp2330
g69
(g70
g71
NtRp2331
(dp2332
g74
(dp2333
g82
I5
ssg83
g2327
sg76
(lp2334
S''
asbasbasbag69
(g85
g71
NtRp2335
(dp2336
g74
(dp2337
sg83
g79
sg76
(lp2338
g69
(g90
g71
NtRp2339
(dp2340
g74
(dp2341
g94
g95
ssg83
g2335
sg76
(lp2342
S'raw_extension'
p2343
asbag69
(g90
g71
NtRp2344
(dp2345
g74
(dp2346
g101
g102
ssg83
g2335
sg76
(lp2347
S':'
asbag69
(g90
g71
NtRp2348
(dp2349
g74
(dp2350
sg83
g2335
sg76
(lp2351
g69
(g70
g71
NtRp2352
(dp2353
g74
(dp2354
g82
I5
ssg83
g2348
sg76
(lp2355
S'None'
p2356
asbasbasbag69
(g85
g71
NtRp2357
(dp2358
g74
(dp2359
sg83
g79
sg76
(lp2360
g69
(g90
g71
NtRp2361
(dp2362
g74
(dp2363
g94
g95
ssg83
g2357
sg76
(lp2364
S'url'
p2365
asbag69
(g90
g71
NtRp2366
(dp2367
g74
(dp2368
g101
g102
ssg83
g2357
sg76
(lp2369
S':'
asbag69
(g90
g71
NtRp2370
(dp2371
g74
(dp2372
sg83
g2357
sg76
(lp2373
g69
(g70
g71
NtRp2374
(dp2375
g74
(dp2376
g82
I5
ssg83
g2370
sg76
(lp2377
g1184
asbasbasbag69
(g85
g71
NtRp2378
(dp2379
g74
(dp2380
sg83
g79
sg76
(lp2381
g69
(g90
g71
NtRp2382
(dp2383
g74
(dp2384
g94
g95
ssg83
g2378
sg76
(lp2385
S'utcnow'
p2386
asbag69
(g90
g71
NtRp2387
(dp2388
g74
(dp2389
g101
g102
ssg83
g2378
sg76
(lp2390
S':'
asbag69
(g90
g71
NtRp2391
(dp2392
g74
(dp2393
sg83
g2378
sg76
(lp2394
g69
(g70
g71
NtRp2395
(dp2396
g74
(dp2397
g82
I5
ssg83
g2391
sg76
(lp2398
S'datetime.datetime(2012, 11, 5, 20, 52, 27, 156000)'
p2399
asbasbasbag69
(g85
g71
NtRp2400
(dp2401
g74
(dp2402
sg83
g79
sg76
(lp2403
g69
(g90
g71
NtRp2404
(dp2405
g74
(dp2406
g94
g95
ssg83
g2400
sg76
(lp2407
S'uuid'
p2408
asbag69
(g90
g71
NtRp2409
(dp2410
g74
(dp2411
g101
g102
ssg83
g2400
sg76
(lp2412
S':'
asbag69
(g90
g71
NtRp2413
(dp2414
g74
(dp2415
sg83
g2400
sg76
(lp2416
g69
(g70
g71
NtRp2417
(dp2418
g74
(dp2419
g82
I5
ssg83
g2413
sg76
(lp2420
S'web2py_xlchart_dashboard/127.0.0.1.2012-11-05.20-52-27.762093fe-d157-406f-ac12-72dc10d6229f'
p2421
asbasbasbag69
(g85
g71
NtRp2422
(dp2423
g74
(dp2424
sg83
g79
sg76
(lp2425
g69
(g90
g71
NtRp2426
(dp2427
g74
(dp2428
g94
g95
ssg83
g2422
sg76
(lp2429
S'vars'
p2430
asbag69
(g90
g71
NtRp2431
(dp2432
g74
(dp2433
g101
g102
ssg83
g2422
sg76
(lp2434
S':'
asbag69
(g90
g71
NtRp2435
(dp2436
g74
(dp2437
sg83
g2422
sg76
(lp2438
g69
(g70
g71
NtRp2439
(dp2440
g74
(dp2441
g82
I5
ssg83
g2435
sg76
(lp2442
g69
(g78
g71
NtRp2443
(dp2444
g74
(dp2445
g82
I4
ssg83
Nsg76
(lp2446
g69
(g85
g71
NtRp2447
(dp2448
g74
(dp2449
sg83
g2443
sg76
(lp2450
g69
(g90
g71
NtRp2451
(dp2452
g74
(dp2453
g94
g95
ssg83
g2447
sg76
(lp2454
g1810
asbag69
(g90
g71
NtRp2455
(dp2456
g74
(dp2457
g101
g102
ssg83
g2447
sg76
(lp2458
S':'
asbag69
(g90
g71
NtRp2459
(dp2460
g74
(dp2461
sg83
g2447
sg76
(lp2462
g69
(g70
g71
NtRp2463
(dp2464
g74
(dp2465
g82
I4
ssg83
g2459
sg76
(lp2466
S'2'
asbasbasbasbasbasbasbag69
(g85
g71
NtRp2467
(dp2468
g74
(dp2469
sg83
g79
sg76
(lp2470
g69
(g90
g71
NtRp2471
(dp2472
g74
(dp2473
g94
g95
ssg83
g2467
sg76
(lp2474
S'wsgi'
p2475
asbag69
(g90
g71
NtRp2476
(dp2477
g74
(dp2478
g101
g102
ssg83
g2467
sg76
(lp2479
S':'
asbag69
(g90
g71
NtRp2480
(dp2481
g74
(dp2482
sg83
g2467
sg76
(lp2483
g69
(g70
g71
NtRp2484
(dp2485
g74
(dp2486
g82
I5
ssg83
g2480
sg76
(lp2487
g69
(g78
g71
NtRp2488
(dp2489
g74
(dp2490
g82
I4
ssg83
Nsg76
(lp2491
g69
(g85
g71
NtRp2492
(dp2493
g74
(dp2494
sg83
g2488
sg76
(lp2495
g69
(g90
g71
NtRp2496
(dp2497
g74
(dp2498
g94
g95
ssg83
g2492
sg76
(lp2499
S'environ'
p2500
asbag69
(g90
g71
NtRp2501
(dp2502
g74
(dp2503
g101
g102
ssg83
g2492
sg76
(lp2504
S':'
asbag69
(g90
g71
NtRp2505
(dp2506
g74
(dp2507
sg83
g2492
sg76
(lp2508
g69
(g70
g71
NtRp2509
(dp2510
g74
(dp2511
g82
I4
ssg83
g2505
sg76
(lp2512
g69
(g78
g71
NtRp2513
(dp2514
g74
(dp2515
g82
I3
ssg83
Nsg76
(lp2516
g69
(g85
g71
NtRp2517
(dp2518
g74
(dp2519
sg83
g2513
sg76
(lp2520
g69
(g90
g71
NtRp2521
(dp2522
g74
(dp2523
g94
g95
ssg83
g2517
sg76
(lp2524
S'HTTP_ACCEPT'
p2525
asbag69
(g90
g71
NtRp2526
(dp2527
g74
(dp2528
g101
g102
ssg83
g2517
sg76
(lp2529
S':'
asbag69
(g90
g71
NtRp2530
(dp2531
g74
(dp2532
sg83
g2517
sg76
(lp2533
g69
(g70
g71
NtRp2534
(dp2535
g74
(dp2536
g82
I3
ssg83
g2530
sg76
(lp2537
g854
asbasbasbag69
(g85
g71
NtRp2538
(dp2539
g74
(dp2540
sg83
g2513
sg76
(lp2541
g69
(g90
g71
NtRp2542
(dp2543
g74
(dp2544
g94
g95
ssg83
g2538
sg76
(lp2545
S'HTTP_ACCEPT_CHARSET'
p2546
asbag69
(g90
g71
NtRp2547
(dp2548
g74
(dp2549
g101
g102
ssg83
g2538
sg76
(lp2550
S':'
asbag69
(g90
g71
NtRp2551
(dp2552
g74
(dp2553
sg83
g2538
sg76
(lp2554
g69
(g70
g71
NtRp2555
(dp2556
g74
(dp2557
g82
I3
ssg83
g2551
sg76
(lp2558
g876
asbasbasbag69
(g85
g71
NtRp2559
(dp2560
g74
(dp2561
sg83
g2513
sg76
(lp2562
g69
(g90
g71
NtRp2563
(dp2564
g74
(dp2565
g94
g95
ssg83
g2559
sg76
(lp2566
S'HTTP_ACCEPT_ENCODING'
p2567
asbag69
(g90
g71
NtRp2568
(dp2569
g74
(dp2570
g101
g102
ssg83
g2559
sg76
(lp2571
S':'
asbag69
(g90
g71
NtRp2572
(dp2573
g74
(dp2574
sg83
g2559
sg76
(lp2575
g69
(g70
g71
NtRp2576
(dp2577
g74
(dp2578
g82
I3
ssg83
g2572
sg76
(lp2579
g898
asbasbasbag69
(g85
g71
NtRp2580
(dp2581
g74
(dp2582
sg83
g2513
sg76
(lp2583
g69
(g90
g71
NtRp2584
(dp2585
g74
(dp2586
g94
g95
ssg83
g2580
sg76
(lp2587
S'HTTP_ACCEPT_LANGUAGE'
p2588
asbag69
(g90
g71
NtRp2589
(dp2590
g74
(dp2591
g101
g102
ssg83
g2580
sg76
(lp2592
S':'
asbag69
(g90
g71
NtRp2593
(dp2594
g74
(dp2595
sg83
g2580
sg76
(lp2596
g69
(g70
g71
NtRp2597
(dp2598
g74
(dp2599
g82
I3
ssg83
g2593
sg76
(lp2600
g920
asbasbasbag69
(g85
g71
NtRp2601
(dp2602
g74
(dp2603
sg83
g2513
sg76
(lp2604
g69
(g90
g71
NtRp2605
(dp2606
g74
(dp2607
g94
g95
ssg83
g2601
sg76
(lp2608
S'HTTP_CONNECTION'
p2609
asbag69
(g90
g71
NtRp2610
(dp2611
g74
(dp2612
g101
g102
ssg83
g2601
sg76
(lp2613
S':'
asbag69
(g90
g71
NtRp2614
(dp2615
g74
(dp2616
sg83
g2601
sg76
(lp2617
g69
(g70
g71
NtRp2618
(dp2619
g74
(dp2620
g82
I3
ssg83
g2614
sg76
(lp2621
g942
asbasbasbag69
(g85
g71
NtRp2622
(dp2623
g74
(dp2624
sg83
g2513
sg76
(lp2625
g69
(g90
g71
NtRp2626
(dp2627
g74
(dp2628
g94
g95
ssg83
g2622
sg76
(lp2629
S'HTTP_COOKIE'
p2630
asbag69
(g90
g71
NtRp2631
(dp2632
g74
(dp2633
g101
g102
ssg83
g2622
sg76
(lp2634
S':'
asbag69
(g90
g71
NtRp2635
(dp2636
g74
(dp2637
sg83
g2622
sg76
(lp2638
g69
(g70
g71
NtRp2639
(dp2640
g74
(dp2641
g82
I3
ssg83
g2635
sg76
(lp2642
g964
asbasbasbag69
(g85
g71
NtRp2643
(dp2644
g74
(dp2645
sg83
g2513
sg76
(lp2646
g69
(g90
g71
NtRp2647
(dp2648
g74
(dp2649
g94
g95
ssg83
g2643
sg76
(lp2650
S'HTTP_HOST'
p2651
asbag69
(g90
g71
NtRp2652
(dp2653
g74
(dp2654
g101
g102
ssg83
g2643
sg76
(lp2655
S':'
asbag69
(g90
g71
NtRp2656
(dp2657
g74
(dp2658
sg83
g2643
sg76
(lp2659
g69
(g70
g71
NtRp2660
(dp2661
g74
(dp2662
g82
I3
ssg83
g2656
sg76
(lp2663
g986
asbasbasbag69
(g85
g71
NtRp2664
(dp2665
g74
(dp2666
sg83
g2513
sg76
(lp2667
g69
(g90
g71
NtRp2668
(dp2669
g74
(dp2670
g94
g95
ssg83
g2664
sg76
(lp2671
S'HTTP_REFERER'
p2672
asbag69
(g90
g71
NtRp2673
(dp2674
g74
(dp2675
g101
g102
ssg83
g2664
sg76
(lp2676
S':'
asbag69
(g90
g71
NtRp2677
(dp2678
g74
(dp2679
sg83
g2664
sg76
(lp2680
g69
(g70
g71
NtRp2681
(dp2682
g74
(dp2683
g82
I3
ssg83
g2677
sg76
(lp2684
g1008
asbasbasbag69
(g85
g71
NtRp2685
(dp2686
g74
(dp2687
sg83
g2513
sg76
(lp2688
g69
(g90
g71
NtRp2689
(dp2690
g74
(dp2691
g94
g95
ssg83
g2685
sg76
(lp2692
S'HTTP_USER_AGENT'
p2693
asbag69
(g90
g71
NtRp2694
(dp2695
g74
(dp2696
g101
g102
ssg83
g2685
sg76
(lp2697
S':'
asbag69
(g90
g71
NtRp2698
(dp2699
g74
(dp2700
sg83
g2685
sg76
(lp2701
g69
(g70
g71
NtRp2702
(dp2703
g74
(dp2704
g82
I3
ssg83
g2698
sg76
(lp2705
g1030
asbasbasbag69
(g85
g71
NtRp2706
(dp2707
g74
(dp2708
sg83
g2513
sg76
(lp2709
g69
(g90
g71
NtRp2710
(dp2711
g74
(dp2712
g94
g95
ssg83
g2706
sg76
(lp2713
S'PATH_INFO'
p2714
asbag69
(g90
g71
NtRp2715
(dp2716
g74
(dp2717
g101
g102
ssg83
g2706
sg76
(lp2718
S':'
asbag69
(g90
g71
NtRp2719
(dp2720
g74
(dp2721
sg83
g2706
sg76
(lp2722
g69
(g70
g71
NtRp2723
(dp2724
g74
(dp2725
g82
I3
ssg83
g2719
sg76
(lp2726
g1184
asbasbasbag69
(g85
g71
NtRp2727
(dp2728
g74
(dp2729
sg83
g2513
sg76
(lp2730
g69
(g90
g71
NtRp2731
(dp2732
g74
(dp2733
g94
g95
ssg83
g2727
sg76
(lp2734
S'QUERY_STRING'
p2735
asbag69
(g90
g71
NtRp2736
(dp2737
g74
(dp2738
g101
g102
ssg83
g2727
sg76
(lp2739
S':'
asbag69
(g90
g71
NtRp2740
(dp2741
g74
(dp2742
sg83
g2727
sg76
(lp2743
g69
(g70
g71
NtRp2744
(dp2745
g74
(dp2746
g82
I3
ssg83
g2740
sg76
(lp2747
g1206
asbasbasbag69
(g85
g71
NtRp2748
(dp2749
g74
(dp2750
sg83
g2513
sg76
(lp2751
g69
(g90
g71
NtRp2752
(dp2753
g74
(dp2754
g94
g95
ssg83
g2748
sg76
(lp2755
S'REMOTE_ADDR'
p2756
asbag69
(g90
g71
NtRp2757
(dp2758
g74
(dp2759
g101
g102
ssg83
g2748
sg76
(lp2760
S':'
asbag69
(g90
g71
NtRp2761
(dp2762
g74
(dp2763
sg83
g2748
sg76
(lp2764
g69
(g70
g71
NtRp2765
(dp2766
g74
(dp2767
g82
I3
ssg83
g2761
sg76
(lp2768
g224
asbasbasbag69
(g85
g71
NtRp2769
(dp2770
g74
(dp2771
sg83
g2513
sg76
(lp2772
g69
(g90
g71
NtRp2773
(dp2774
g74
(dp2775
g94
g95
ssg83
g2769
sg76
(lp2776
S'REMOTE_PORT'
p2777
asbag69
(g90
g71
NtRp2778
(dp2779
g74
(dp2780
g101
g102
ssg83
g2769
sg76
(lp2781
S':'
asbag69
(g90
g71
NtRp2782
(dp2783
g74
(dp2784
sg83
g2769
sg76
(lp2785
g69
(g70
g71
NtRp2786
(dp2787
g74
(dp2788
g82
I3
ssg83
g2782
sg76
(lp2789
g1249
asbasbasbag69
(g85
g71
NtRp2790
(dp2791
g74
(dp2792
sg83
g2513
sg76
(lp2793
g69
(g90
g71
NtRp2794
(dp2795
g74
(dp2796
g94
g95
ssg83
g2790
sg76
(lp2797
S'REQUEST_METHOD'
p2798
asbag69
(g90
g71
NtRp2799
(dp2800
g74
(dp2801
g101
g102
ssg83
g2790
sg76
(lp2802
S':'
asbag69
(g90
g71
NtRp2803
(dp2804
g74
(dp2805
sg83
g2790
sg76
(lp2806
g69
(g70
g71
NtRp2807
(dp2808
g74
(dp2809
g82
I3
ssg83
g2803
sg76
(lp2810
g1271
asbasbasbag69
(g85
g71
NtRp2811
(dp2812
g74
(dp2813
sg83
g2513
sg76
(lp2814
g69
(g90
g71
NtRp2815
(dp2816
g74
(dp2817
g94
g95
ssg83
g2811
sg76
(lp2818
S'REQUEST_URI'
p2819
asbag69
(g90
g71
NtRp2820
(dp2821
g74
(dp2822
g101
g102
ssg83
g2811
sg76
(lp2823
S':'
asbag69
(g90
g71
NtRp2824
(dp2825
g74
(dp2826
sg83
g2811
sg76
(lp2827
g69
(g70
g71
NtRp2828
(dp2829
g74
(dp2830
g82
I3
ssg83
g2824
sg76
(lp2831
g1293
asbasbasbag69
(g85
g71
NtRp2832
(dp2833
g74
(dp2834
sg83
g2513
sg76
(lp2835
g69
(g90
g71
NtRp2836
(dp2837
g74
(dp2838
g94
g95
ssg83
g2832
sg76
(lp2839
S'SCRIPT_NAME'
p2840
asbag69
(g90
g71
NtRp2841
(dp2842
g74
(dp2843
g101
g102
ssg83
g2832
sg76
(lp2844
S':'
asbag69
(g90
g71
NtRp2845
(dp2846
g74
(dp2847
sg83
g2832
sg76
(lp2848
g69
(g70
g71
NtRp2849
(dp2850
g74
(dp2851
g82
I3
ssg83
g2845
sg76
(lp2852
S''
asbasbasbag69
(g85
g71
NtRp2853
(dp2854
g74
(dp2855
sg83
g2513
sg76
(lp2856
g69
(g90
g71
NtRp2857
(dp2858
g74
(dp2859
g94
g95
ssg83
g2853
sg76
(lp2860
S'SERVER_NAME'
p2861
asbag69
(g90
g71
NtRp2862
(dp2863
g74
(dp2864
g101
g102
ssg83
g2853
sg76
(lp2865
S':'
asbag69
(g90
g71
NtRp2866
(dp2867
g74
(dp2868
sg83
g2853
sg76
(lp2869
g69
(g70
g71
NtRp2870
(dp2871
g74
(dp2872
g82
I3
ssg83
g2866
sg76
(lp2873
g1149
asbasbasbag69
(g85
g71
NtRp2874
(dp2875
g74
(dp2876
sg83
g2513
sg76
(lp2877
g69
(g90
g71
NtRp2878
(dp2879
g74
(dp2880
g94
g95
ssg83
g2874
sg76
(lp2881
S'SERVER_PORT'
p2882
asbag69
(g90
g71
NtRp2883
(dp2884
g74
(dp2885
g101
g102
ssg83
g2874
sg76
(lp2886
S':'
asbag69
(g90
g71
NtRp2887
(dp2888
g74
(dp2889
sg83
g2874
sg76
(lp2890
g69
(g70
g71
NtRp2891
(dp2892
g74
(dp2893
g82
I3
ssg83
g2887
sg76
(lp2894
g1357
asbasbasbag69
(g85
g71
NtRp2895
(dp2896
g74
(dp2897
sg83
g2513
sg76
(lp2898
g69
(g90
g71
NtRp2899
(dp2900
g74
(dp2901
g94
g95
ssg83
g2895
sg76
(lp2902
S'SERVER_PROTOCOL'
p2903
asbag69
(g90
g71
NtRp2904
(dp2905
g74
(dp2906
g101
g102
ssg83
g2895
sg76
(lp2907
S':'
asbag69
(g90
g71
NtRp2908
(dp2909
g74
(dp2910
sg83
g2895
sg76
(lp2911
g69
(g70
g71
NtRp2912
(dp2913
g74
(dp2914
g82
I3
ssg83
g2908
sg76
(lp2915
g1379
asbasbasbag69
(g85
g71
NtRp2916
(dp2917
g74
(dp2918
sg83
g2513
sg76
(lp2919
g69
(g90
g71
NtRp2920
(dp2921
g74
(dp2922
g94
g95
ssg83
g2916
sg76
(lp2923
S'SERVER_SOFTWARE'
p2924
asbag69
(g90
g71
NtRp2925
(dp2926
g74
(dp2927
g101
g102
ssg83
g2916
sg76
(lp2928
S':'
asbag69
(g90
g71
NtRp2929
(dp2930
g74
(dp2931
sg83
g2916
sg76
(lp2932
g69
(g70
g71
NtRp2933
(dp2934
g74
(dp2935
g82
I3
ssg83
g2929
sg76
(lp2936
g1401
asbasbasbag69
(g85
g71
NtRp2937
(dp2938
g74
(dp2939
sg83
g2513
sg76
(lp2940
g69
(g90
g71
NtRp2941
(dp2942
g74
(dp2943
g94
g95
ssg83
g2937
sg76
(lp2944
S'wsgi.errors'
p2945
asbag69
(g90
g71
NtRp2946
(dp2947
g74
(dp2948
g101
g102
ssg83
g2937
sg76
(lp2949
S':'
asbag69
(g90
g71
NtRp2950
(dp2951
g74
(dp2952
sg83
g2937
sg76
(lp2953
g69
(g70
g71
NtRp2954
(dp2955
g74
(dp2956
g82
I3
ssg83
g2950
sg76
(lp2957
S"<open file '<stderr>', mode 'w' at 0x00A850D0>"
p2958
asbasbasbag69
(g85
g71
NtRp2959
(dp2960
g74
(dp2961
sg83
g2513
sg76
(lp2962
g69
(g90
g71
NtRp2963
(dp2964
g74
(dp2965
g94
g95
ssg83
g2959
sg76
(lp2966
S'wsgi.file_wrapper'
p2967
asbag69
(g90
g71
NtRp2968
(dp2969
g74
(dp2970
g101
g102
ssg83
g2959
sg76
(lp2971
S':'
asbag69
(g90
g71
NtRp2972
(dp2973
g74
(dp2974
sg83
g2959
sg76
(lp2975
g69
(g70
g71
NtRp2976
(dp2977
g74
(dp2978
g82
I3
ssg83
g2972
sg76
(lp2979
S'<class wsgiref.util.FileWrapper at 0x0172EE68>'
p2980
asbasbasbag69
(g85
g71
NtRp2981
(dp2982
g74
(dp2983
sg83
g2513
sg76
(lp2984
g69
(g90
g71
NtRp2985
(dp2986
g74
(dp2987
g94
g95
ssg83
g2981
sg76
(lp2988
S'wsgi.input'
p2989
asbag69
(g90
g71
NtRp2990
(dp2991
g74
(dp2992
g101
g102
ssg83
g2981
sg76
(lp2993
S':'
asbag69
(g90
g71
NtRp2994
(dp2995
g74
(dp2996
sg83
g2981
sg76
(lp2997
g69
(g70
g71
NtRp2998
(dp2999
g74
(dp3000
g82
I3
ssg83
g2994
sg76
(lp3001
S'<cStringIO.StringO object at 0x04E8FF60>'
p3002
asbasbasbag69
(g85
g71
NtRp3003
(dp3004
g74
(dp3005
sg83
g2513
sg76
(lp3006
g69
(g90
g71
NtRp3007
(dp3008
g74
(dp3009
g94
g95
ssg83
g3003
sg76
(lp3010
S'wsgi.multiprocess'
p3011
asbag69
(g90
g71
NtRp3012
(dp3013
g74
(dp3014
g101
g102
ssg83
g3003
sg76
(lp3015
S':'
asbag69
(g90
g71
NtRp3016
(dp3017
g74
(dp3018
sg83
g3003
sg76
(lp3019
g69
(g70
g71
NtRp3020
(dp3021
g74
(dp3022
g82
I3
ssg83
g3016
sg76
(lp3023
g112
asbasbasbag69
(g85
g71
NtRp3024
(dp3025
g74
(dp3026
sg83
g2513
sg76
(lp3027
g69
(g90
g71
NtRp3028
(dp3029
g74
(dp3030
g94
g95
ssg83
g3024
sg76
(lp3031
S'wsgi.multithread'
p3032
asbag69
(g90
g71
NtRp3033
(dp3034
g74
(dp3035
g101
g102
ssg83
g3024
sg76
(lp3036
S':'
asbag69
(g90
g71
NtRp3037
(dp3038
g74
(dp3039
sg83
g3024
sg76
(lp3040
g69
(g70
g71
NtRp3041
(dp3042
g74
(dp3043
g82
I3
ssg83
g3037
sg76
(lp3044
g1618
asbasbasbag69
(g85
g71
NtRp3045
(dp3046
g74
(dp3047
sg83
g2513
sg76
(lp3048
g69
(g90
g71
NtRp3049
(dp3050
g74
(dp3051
g94
g95
ssg83
g3045
sg76
(lp3052
S'wsgi.run_once'
p3053
asbag69
(g90
g71
NtRp3054
(dp3055
g74
(dp3056
g101
g102
ssg83
g3045
sg76
(lp3057
S':'
asbag69
(g90
g71
NtRp3058
(dp3059
g74
(dp3060
sg83
g3045
sg76
(lp3061
g69
(g70
g71
NtRp3062
(dp3063
g74
(dp3064
g82
I3
ssg83
g3058
sg76
(lp3065
g112
asbasbasbag69
(g85
g71
NtRp3066
(dp3067
g74
(dp3068
sg83
g2513
sg76
(lp3069
g69
(g90
g71
NtRp3070
(dp3071
g74
(dp3072
g94
g95
ssg83
g3066
sg76
(lp3073
S'wsgi.url_scheme'
p3074
asbag69
(g90
g71
NtRp3075
(dp3076
g74
(dp3077
g101
g102
ssg83
g3066
sg76
(lp3078
S':'
asbag69
(g90
g71
NtRp3079
(dp3080
g74
(dp3081
sg83
g3066
sg76
(lp3082
g69
(g70
g71
NtRp3083
(dp3084
g74
(dp3085
g82
I3
ssg83
g3079
sg76
(lp3086
g1661
asbasbasbag69
(g85
g71
NtRp3087
(dp3088
g74
(dp3089
sg83
g2513
sg76
(lp3090
g69
(g90
g71
NtRp3091
(dp3092
g74
(dp3093
g94
g95
ssg83
g3087
sg76
(lp3094
S'wsgi.version'
p3095
asbag69
(g90
g71
NtRp3096
(dp3097
g74
(dp3098
g101
g102
ssg83
g3087
sg76
(lp3099
S':'
asbag69
(g90
g71
NtRp3100
(dp3101
g74
(dp3102
sg83
g3087
sg76
(lp3103
g69
(g70
g71
NtRp3104
(dp3105
g74
(dp3106
g82
I3
ssg83
g3100
sg76
(lp3107
S'1'
asbasbasbasbasbasbasbasbasbasbasbasbasbsS'frames'
p3108
(lp3109
(dp3110
S'file'
p3111
S'D:\\web2py\\source\\web2py\\gluon\\restricted.py'
p3112
sS'dump'
p3113
(dp3114
S'environment'
p3115
S"{'A': <class 'gluon.html.A'>, 'Auth': <class 'gluon.tools.Auth'>, 'B': <class 'gluon.html.B'>, 'BEAUTIFY': <class 'gluon.html.BEAUTIFY'>, 'BODY': <class 'gluon.html.BODY'>, 'BR': <class 'gluon.html.BR'>, 'BUTTON': <class 'gluon.html.BUTTON'>, 'CAT': <class 'gluon.html.CAT'>, 'CENTER': <class 'gluon.html.CENTER'>, 'CLEANUP': <class 'gluon.validators.CLEANUP'>, ...}"
p3116
sS'ccode'
p3117
S'<code object <module> at 0628C0F8, file "D:\\web2...chart_dashboard\\controllers/default.py", line 13>'
p3118
ssS'lnum'
p3119
I212
sS'lines'
p3120
(dp3121
I207
S'    try:'
p3122
sI208
S'        if isinstance(code, types.CodeType):'
p3123
sI209
S'            ccode = code'
p3124
sI210
S'        else:'
p3125
sI211
S'            ccode = compile2(code, layer)'
p3126
sI212
S'        exec ccode in environment'
p3127
sI213
S'    except HTTP:'
p3128
sI214
S'        raise'
p3129
sI215
S'    except RestrictedError:'
p3130
sI216
S'        # do not encapsulate (obfuscate) the original RestrictedError'
p3131
ssS'call'
p3132
S"(code='# -*- coding: utf-8 -*-\\n# this file is released ...nse._vars=response._caller(list_workbook_charts)\\n', environment={'A': <class 'gluon.html.A'>, 'Auth': <class 'gluon.tools.Auth'>, 'B': <class 'gluon.html.B'>, 'BEAUTIFY': <class 'gluon.html.BEAUTIFY'>, 'BODY': <class 'gluon.html.BODY'>, 'BR': <class 'gluon.html.BR'>, 'BUTTON': <class 'gluon.html.BUTTON'>, 'CAT': <class 'gluon.html.CAT'>, 'CENTER': <class 'gluon.html.CENTER'>, 'CLEANUP': <class 'gluon.validators.CLEANUP'>, ...}, layer=r'D:\\web2py\\source\\web2py\\applications\\web2py_xlchart_dashboard\\controllers/default.py')"
p3133
sS'func'
p3134
S'restricted'
p3135
sa(dp3136
g3111
S'D:\\web2py\\source\\web2py\\applications\\web2py_xlchart_dashboard\\controllers\\default.py'
p3137
sg3113
(dp3138
sg3119
I132
sg3120
(dp3139
I128
S"      LOAD('default','data.load',args='tables',ajax=True,user_signature=True)"
p3140
sI129
S'    """'
p3141
sI130
S'    return dict(form=crud())'
p3142
sI121
S'    http://..../[app]/default/data/update/[table]/[id]'
p3143
sI122
S'    http://..../[app]/default/data/delete/[table]/[id]'
p3144
sI123
S'    http://..../[app]/default/data/select/[table]'
p3145
sI124
S'    http://..../[app]/default/data/search/[table]'
p3146
sI125
S'    but URLs must be signed, i.e. linked with'
p3147
sI126
S"      A('table',_href=URL('data/tables',user_signature=True))"
p3148
sI127
S'    or with the signed load operator'
p3149
ssg3132
S'()'
p3150
sg3134
S'<module>'
p3151
sa(dp3152
g3111
S'D:\\web2py\\source\\web2py\\gluon\\globals.py'
p3153
sg3113
(dp3154
S'self'
p3155
S'undefined'
p3156
sS'f'
S'<function list_workbook_charts>'
p3157
ssg3119
I188
sg3120
(dp3158
I192
S''
sI183
S'        self.menu = []             # used by the default view layout'
p3159
sI184
S'        self.files = []            # used by web2py_ajax.html'
p3160
sI185
S'        self.generic_patterns = []  # patterns to allow generic views'
p3161
sI186
S"        self.delimiters = ('{{', '}}')"
p3162
sI187
S'        self._vars = None'
p3163
sI188
S'        self._caller = lambda f: f()'
p3164
sI189
S'        self._view_environment = None'
p3165
sI190
S'        self._custom_commit = None'
p3166
sI191
S'        self._custom_rollback = None'
p3167
ssg3132
S'(f=<function list_workbook_charts>)'
p3168
sg3134
S'<lambda>'
p3169
sa(dp3170
g3111
S'D:\\web2py\\source\\web2py\\applications\\web2py_xlchart_dashboard\\controllers\\default.py'
p3171
sg3113
(dp3172
S'global get_chart'
p3173
S'<function get_chart>'
p3174
sS'wbPath'
p3175
S"r'\\\\maawtns02\\discipline\\procurement\\MATERIEL\\Raw ...\\Data Management HUD\\InformationAssuranceHUD.xlsm'"
p3176
sS'ChartDetails'
p3177
g3156
ssg3119
I42
sg3120
(dp3178
I37
S'def list_workbook_charts():'
p3179
sI38
S'    import os'
p3180
sI39
S"    wbid = request.vars['wbid']"
p3181
sI40
S'    rsPath = db(db.workbook.id == wbid).select(db.workbook.path)'
p3182
sI41
S'    wbPath = rsPath[0].path'
p3183
sI42
S'    ChartDetails = get_chart(wbPath)'
p3184
sI43
S'    chartfiles = []'
p3185
sI44
S'    DivCount = 0'
p3186
sI45
S"    for ChartDetail in ChartDetails['chartdetail']:"
p3187
sI46
S'        DivCount += 1'
p3188
ssg3132
S'()'
p3189
sg3134
S'list_workbook_charts'
p3190
sa(dp3191
g3111
S'D:\\web2py\\source\\web2py\\applications\\web2py_xlchart_dashboard\\controllers\\default.py'
p3192
sg3113
(dp3193
S'ChartDetailList'
p3194
g3156
sS'ChartObj.start_export'
p3195
S'<bound method Pyxlchart.start_export of <applica...rt_dashboard.modules.pyxlchart.Pyxlchart object>>'
p3196
sS'ChartObj'
p3197
S'<applications.web2py_xlchart_dashboard.modules.pyxlchart.Pyxlchart object>'
p3198
ssg3119
I71
sg3120
(dp3199
I66
S'    timeDir = str(time.time())'
p3200
sI67
S"    os.makedirs(os.path.join(request.folder, 'static\\\\images\\\\temp', timeDir))"
p3201
sI68
S"    exportFolder = os.path.join(request.folder, 'static\\\\images\\\\temp', timeDir)"
p3202
sI69
S'    ChartObj.ExportPath =  exportFolder'
p3203
sI70
S"    ChartObj.ReplaceWhiteSpaceChar = '_'"
p3204
sI71
S'    ChartDetailList = ChartObj.start_export()'
p3205
sI72
S"    ChartDetails = dict(chartdetail = ChartDetailList, webfolder = os.path.join('static/images/temp/',timeDir),osfolder = exportFolder)"
p3206
sI73
S'    return ChartDetails'
p3207
sI74
S''
sI75
S'def registerchart():'
p3208
ssg3132
S"(workbookPath=r'\\\\maawtns02\\discipline\\procurement\\MATERIEL\\Raw ...\\Data Management HUD\\InformationAssuranceHUD.xlsm', imageName='XLChart')"
p3209
sg3134
S'get_chart'
p3210
sa(dp3211
g3111
S'D:\\web2py\\source\\web2py\\applications\\web2py_xlchart_dashboard\\modules\\pyxlchart.py'
p3212
sg3113
(dp3213
S'self._export'
p3214
S'<bound method Pyxlchart._export of <applications...rt_dashboard.modules.pyxlchart.Pyxlchart object>>'
p3215
sS'self'
p3216
S'<applications.web2py_xlchart_dashboard.modules.pyxlchart.Pyxlchart object>'
p3217
ssg3119
I36
sg3120
(dp3218
I32
S'    def start_export(self):'
p3219
sI33
S"        if self.WorkbookDirectory == '':"
p3220
sI34
S'            return "WorkbookDirectory not set"'
p3221
sI35
S'        else:'
p3222
sI36
S'            self._export()'
p3223
sI37
S'        return self.ChartDetail'
p3224
sI38
S''
sI39
S'    def _export(self):'
p3225
sI40
S'        """'
p3226
sI31
S'        pass'
p3227
ssg3132
S'(self=<applications.web2py_xlchart_dashboard.modules.pyxlchart.Pyxlchart object>)'
p3228
sg3134
S'start_export'
p3229
sa(dp3230
g3111
S'D:\\web2py\\source\\web2py\\applications\\web2py_xlchart_dashboard\\modules\\pyxlchart.py'
p3231
sg3113
(dp3232
S'excel.Workbooks'
p3233
S'<COMObject <unknown>>'
p3234
sS'wb'
p3235
g3156
sS'self'
p3236
S'<applications.web2py_xlchart_dashboard.modules.pyxlchart.Pyxlchart object>'
p3237
sS'self.WorkbookDirectory'
p3238
S"r'\\\\maawtns02\\discipline\\procurement\\MATERIEL\\Raw Material\\Data Management\\Data Management HUD'"
p3239
sS'excel'
p3240
S'<COMObject excel.application>'
p3241
sS'self.WorkbookFilename'
p3242
S"'InformationAssuranceHUD.xlsm'"
p3243
sS'global os'
p3244
S"<module 'os' from 'd:\\python27\\lib\\os.pyc'>"
p3245
sS'excel.Workbooks.Open'
p3246
S'<bound method CDispatch.Open of <COMObject <unknown>>>'
p3247
sS'os.path.join'
p3248
S'<function join>'
p3249
sS'os.path'
p3250
S"<module 'ntpath' from 'd:\\python27\\lib\\ntpath.pyc'>"
p3251
ssg3119
I45
sg3120
(dp3252
I40
S'        """'
p3253
sI41
S'        Exports Charts as determined by the settings in class variabels.'
p3254
sI42
S'        """'
p3255
sI43
S'        excel = Dispatch("excel.application")'
p3256
sI44
S'        excel.Visible = False'
p3257
sI45
S'        wb = excel.Workbooks.Open(os.path.join(self.WorkbookDirectory ,self.WorkbookFilename))'
p3258
sI46
S'        self._get_Charts_In_Worksheet(wb,self.SheetName,self.ChartName)'
p3259
sI47
S'        if self.WorkbookDirty == True:'
p3260
sI48
S'            wb.Save()'
p3261
sI49
S'        wb.Close(False)'
p3262
ssg3132
S'(self=<applications.web2py_xlchart_dashboard.modules.pyxlchart.Pyxlchart object>)'
p3263
sg3134
S'_export'
p3264
sa(dp3265
g3111
S'D:\\web2py\\source\\web2py\\<COMObject <unknown>>'
p3266
sg3113
(dp3267
sg3119
I8
sg3120
(dp3268
sg3132
S"(self=<COMObject <unknown>>, Filename=r'\\\\maawtns02\\discipline\\procurement\\MATERIEL\\Raw ...\\Data Management HUD\\InformationAssuranceHUD.xlsm', UpdateLinks=<PyOleMissing object>, ReadOnly=<PyOleMissing object>, Format=<PyOleMissing object>, Password=<PyOleMissing object>, WriteResPassword=<PyOleMissing object>, IgnoreReadOnlyRecommended=<PyOleMissing object>, Origin=<PyOleMissing object>, Delimiter=<PyOleMissing object>, Editable=<PyOleMissing object>, Notify=<PyOleMissing object>, Converter=<PyOleMissing object>, AddToMru=<PyOleMissing object>, Local=<PyOleMissing object>, CorruptLoad=<PyOleMissing object>)"
p3269
sg3134
S'Open'
p3270
sasS'pyver'
p3271
S'Python 2.7: d:\\python27\\python.exe'
p3272
sS'session'
p3273
g69
(g70
g71
NtRp3274
(dp3275
g74
(dp3276
sg76
(lp3277
g69
(g78
g71
NtRp3278
(dp3279
g74
(dp3280
g82
I5
ssg83
Nsg76
(lp3281
g69
(g85
g71
NtRp3282
(dp3283
g74
(dp3284
sg83
g3278
sg76
(lp3285
g69
(g90
g71
NtRp3286
(dp3287
g74
(dp3288
g94
g95
ssg83
g3282
sg76
(lp3289
S'auth'
p3290
asbag69
(g90
g71
NtRp3291
(dp3292
g74
(dp3293
g101
g102
ssg83
g3282
sg76
(lp3294
S':'
asbag69
(g90
g71
NtRp3295
(dp3296
g74
(dp3297
sg83
g3282
sg76
(lp3298
g69
(g70
g71
NtRp3299
(dp3300
g74
(dp3301
g82
I5
ssg83
g3295
sg76
(lp3302
g69
(g78
g71
NtRp3303
(dp3304
g74
(dp3305
g82
I4
ssg83
Nsg76
(lp3306
g69
(g85
g71
NtRp3307
(dp3308
g74
(dp3309
sg83
g3303
sg76
(lp3310
g69
(g90
g71
NtRp3311
(dp3312
g74
(dp3313
g94
g95
ssg83
g3307
sg76
(lp3314
S'expiration'
p3315
asbag69
(g90
g71
NtRp3316
(dp3317
g74
(dp3318
g101
g102
ssg83
g3307
sg76
(lp3319
S':'
asbag69
(g90
g71
NtRp3320
(dp3321
g74
(dp3322
sg83
g3307
sg76
(lp3323
g69
(g70
g71
NtRp3324
(dp3325
g74
(dp3326
g82
I4
ssg83
g3320
sg76
(lp3327
S'3600'
p3328
asbasbasbag69
(g85
g71
NtRp3329
(dp3330
g74
(dp3331
sg83
g3303
sg76
(lp3332
g69
(g90
g71
NtRp3333
(dp3334
g74
(dp3335
g94
g95
ssg83
g3329
sg76
(lp3336
S'hmac_key'
p3337
asbag69
(g90
g71
NtRp3338
(dp3339
g74
(dp3340
g101
g102
ssg83
g3329
sg76
(lp3341
S':'
asbag69
(g90
g71
NtRp3342
(dp3343
g74
(dp3344
sg83
g3329
sg76
(lp3345
g69
(g70
g71
NtRp3346
(dp3347
g74
(dp3348
g82
I4
ssg83
g3342
sg76
(lp3349
S'39834112-a800-435f-ae9f-a11f670252db'
p3350
asbasbasbag69
(g85
g71
NtRp3351
(dp3352
g74
(dp3353
sg83
g3303
sg76
(lp3354
g69
(g90
g71
NtRp3355
(dp3356
g74
(dp3357
g94
g95
ssg83
g3351
sg76
(lp3358
S'last_visit'
p3359
asbag69
(g90
g71
NtRp3360
(dp3361
g74
(dp3362
g101
g102
ssg83
g3351
sg76
(lp3363
S':'
asbag69
(g90
g71
NtRp3364
(dp3365
g74
(dp3366
sg83
g3351
sg76
(lp3367
g69
(g70
g71
NtRp3368
(dp3369
g74
(dp3370
g82
I4
ssg83
g3364
sg76
(lp3371
S'datetime.datetime(2012, 11, 5, 20, 51, 54, 781000)'
p3372
asbasbasbag69
(g85
g71
NtRp3373
(dp3374
g74
(dp3375
sg83
g3303
sg76
(lp3376
g69
(g90
g71
NtRp3377
(dp3378
g74
(dp3379
g94
g95
ssg83
g3373
sg76
(lp3380
S'remember'
p3381
asbag69
(g90
g71
NtRp3382
(dp3383
g74
(dp3384
g101
g102
ssg83
g3373
sg76
(lp3385
S':'
asbag69
(g90
g71
NtRp3386
(dp3387
g74
(dp3388
sg83
g3373
sg76
(lp3389
g69
(g70
g71
NtRp3390
(dp3391
g74
(dp3392
g82
I4
ssg83
g3386
sg76
(lp3393
g112
asbasbasbag69
(g85
g71
NtRp3394
(dp3395
g74
(dp3396
sg83
g3303
sg76
(lp3397
g69
(g90
g71
NtRp3398
(dp3399
g74
(dp3400
g94
g95
ssg83
g3394
sg76
(lp3401
S'user'
p3402
asbag69
(g90
g71
NtRp3403
(dp3404
g74
(dp3405
g101
g102
ssg83
g3394
sg76
(lp3406
S':'
asbag69
(g90
g71
NtRp3407
(dp3408
g74
(dp3409
sg83
g3394
sg76
(lp3410
g69
(g70
g71
NtRp3411
(dp3412
g74
(dp3413
g82
I4
ssg83
g3407
sg76
(lp3414
g69
(g78
g71
NtRp3415
(dp3416
g74
(dp3417
g82
I3
ssg83
Nsg76
(lp3418
g69
(g85
g71
NtRp3419
(dp3420
g74
(dp3421
sg83
g3415
sg76
(lp3422
g69
(g90
g71
NtRp3423
(dp3424
g74
(dp3425
g94
g95
ssg83
g3419
sg76
(lp3426
S'email'
p3427
asbag69
(g90
g71
NtRp3428
(dp3429
g74
(dp3430
g101
g102
ssg83
g3419
sg76
(lp3431
S':'
asbag69
(g90
g71
NtRp3432
(dp3433
g74
(dp3434
sg83
g3419
sg76
(lp3435
g69
(g70
g71
NtRp3436
(dp3437
g74
(dp3438
g82
I3
ssg83
g3432
sg76
(lp3439
S'simon.carr2@baesystems.com'
p3440
asbasbasbag69
(g85
g71
NtRp3441
(dp3442
g74
(dp3443
sg83
g3415
sg76
(lp3444
g69
(g90
g71
NtRp3445
(dp3446
g74
(dp3447
g94
g95
ssg83
g3441
sg76
(lp3448
S'first_name'
p3449
asbag69
(g90
g71
NtRp3450
(dp3451
g74
(dp3452
g101
g102
ssg83
g3441
sg76
(lp3453
S':'
asbag69
(g90
g71
NtRp3454
(dp3455
g74
(dp3456
sg83
g3441
sg76
(lp3457
g69
(g70
g71
NtRp3458
(dp3459
g74
(dp3460
g82
I3
ssg83
g3454
sg76
(lp3461
S'Simon'
p3462
asbasbasbag69
(g85
g71
NtRp3463
(dp3464
g74
(dp3465
sg83
g3415
sg76
(lp3466
g69
(g90
g71
NtRp3467
(dp3468
g74
(dp3469
g94
g95
ssg83
g3463
sg76
(lp3470
S'id'
p3471
asbag69
(g90
g71
NtRp3472
(dp3473
g74
(dp3474
g101
g102
ssg83
g3463
sg76
(lp3475
S':'
asbag69
(g90
g71
NtRp3476
(dp3477
g74
(dp3478
sg83
g3463
sg76
(lp3479
g69
(g70
g71
NtRp3480
(dp3481
g74
(dp3482
g82
I3
ssg83
g3476
sg76
(lp3483
S'1'
asbasbasbag69
(g85
g71
NtRp3484
(dp3485
g74
(dp3486
sg83
g3415
sg76
(lp3487
g69
(g90
g71
NtRp3488
(dp3489
g74
(dp3490
g94
g95
ssg83
g3484
sg76
(lp3491
S'last_name'
p3492
asbag69
(g90
g71
NtRp3493
(dp3494
g74
(dp3495
g101
g102
ssg83
g3484
sg76
(lp3496
S':'
asbag69
(g90
g71
NtRp3497
(dp3498
g74
(dp3499
sg83
g3484
sg76
(lp3500
g69
(g70
g71
NtRp3501
(dp3502
g74
(dp3503
g82
I3
ssg83
g3497
sg76
(lp3504
S'Carr'
p3505
asbasbasbag69
(g85
g71
NtRp3506
(dp3507
g74
(dp3508
sg83
g3415
sg76
(lp3509
g69
(g90
g71
NtRp3510
(dp3511
g74
(dp3512
g94
g95
ssg83
g3506
sg76
(lp3513
S'registration_id'
p3514
asbag69
(g90
g71
NtRp3515
(dp3516
g74
(dp3517
g101
g102
ssg83
g3506
sg76
(lp3518
S':'
asbag69
(g90
g71
NtRp3519
(dp3520
g74
(dp3521
sg83
g3506
sg76
(lp3522
g69
(g70
g71
NtRp3523
(dp3524
g74
(dp3525
g82
I3
ssg83
g3519
sg76
(lp3526
S''
asbasbasbag69
(g85
g71
NtRp3527
(dp3528
g74
(dp3529
sg83
g3415
sg76
(lp3530
g69
(g90
g71
NtRp3531
(dp3532
g74
(dp3533
g94
g95
ssg83
g3527
sg76
(lp3534
S'registration_key'
p3535
asbag69
(g90
g71
NtRp3536
(dp3537
g74
(dp3538
g101
g102
ssg83
g3527
sg76
(lp3539
S':'
asbag69
(g90
g71
NtRp3540
(dp3541
g74
(dp3542
sg83
g3527
sg76
(lp3543
g69
(g70
g71
NtRp3544
(dp3545
g74
(dp3546
g82
I3
ssg83
g3540
sg76
(lp3547
S''
asbasbasbag69
(g85
g71
NtRp3548
(dp3549
g74
(dp3550
sg83
g3415
sg76
(lp3551
g69
(g90
g71
NtRp3552
(dp3553
g74
(dp3554
g94
g95
ssg83
g3548
sg76
(lp3555
S'reset_password_key'
p3556
asbag69
(g90
g71
NtRp3557
(dp3558
g74
(dp3559
g101
g102
ssg83
g3548
sg76
(lp3560
S':'
asbag69
(g90
g71
NtRp3561
(dp3562
g74
(dp3563
sg83
g3548
sg76
(lp3564
g69
(g70
g71
NtRp3565
(dp3566
g74
(dp3567
g82
I3
ssg83
g3561
sg76
(lp3568
S''
asbasbasbasbasbasbasbag69
(g85
g71
NtRp3569
(dp3570
g74
(dp3571
sg83
g3303
sg76
(lp3572
g69
(g90
g71
NtRp3573
(dp3574
g74
(dp3575
g94
g95
ssg83
g3569
sg76
(lp3576
S'user_groups'
p3577
asbag69
(g90
g71
NtRp3578
(dp3579
g74
(dp3580
g101
g102
ssg83
g3569
sg76
(lp3581
S':'
asbag69
(g90
g71
NtRp3582
(dp3583
g74
(dp3584
sg83
g3569
sg76
(lp3585
g69
(g70
g71
NtRp3586
(dp3587
g74
(dp3588
g82
I4
ssg83
g3582
sg76
(lp3589
g69
(g78
g71
NtRp3590
(dp3591
g74
(dp3592
g82
I3
ssg83
Nsg76
(lp3593
g69
(g85
g71
NtRp3594
(dp3595
g74
(dp3596
sg83
g3590
sg76
(lp3597
g69
(g90
g71
NtRp3598
(dp3599
g74
(dp3600
g94
g95
ssg83
g3594
sg76
(lp3601
S'1'
asbag69
(g90
g71
NtRp3602
(dp3603
g74
(dp3604
g101
g102
ssg83
g3594
sg76
(lp3605
S':'
asbag69
(g90
g71
NtRp3606
(dp3607
g74
(dp3608
sg83
g3594
sg76
(lp3609
g69
(g70
g71
NtRp3610
(dp3611
g74
(dp3612
g82
I3
ssg83
g3606
sg76
(lp3613
S'user_1'
p3614
asbasbasbasbasbasbasbasbasbasbasbag69
(g85
g71
NtRp3615
(dp3616
g74
(dp3617
sg83
g3278
sg76
(lp3618
g69
(g90
g71
NtRp3619
(dp3620
g74
(dp3621
g94
g95
ssg83
g3615
sg76
(lp3622
S'flash'
p3623
asbag69
(g90
g71
NtRp3624
(dp3625
g74
(dp3626
g101
g102
ssg83
g3615
sg76
(lp3627
S':'
asbag69
(g90
g71
NtRp3628
(dp3629
g74
(dp3630
sg83
g3615
sg76
(lp3631
g69
(g70
g71
NtRp3632
(dp3633
g74
(dp3634
g82
I5
ssg83
g3628
sg76
(lp3635
S'None'
p3636
asbasbasbag69
(g85
g71
NtRp3637
(dp3638
g74
(dp3639
sg83
g3278
sg76
(lp3640
g69
(g90
g71
NtRp3641
(dp3642
g74
(dp3643
g94
g95
ssg83
g3637
sg76
(lp3644
S'last_orderby'
p3645
asbag69
(g90
g71
NtRp3646
(dp3647
g74
(dp3648
g101
g102
ssg83
g3637
sg76
(lp3649
S':'
asbag69
(g90
g71
NtRp3650
(dp3651
g74
(dp3652
sg83
g3637
sg76
(lp3653
g69
(g70
g71
NtRp3654
(dp3655
g74
(dp3656
g82
I5
ssg83
g3650
sg76
(lp3657
S'None'
p3658
asbasbasbag69
(g85
g71
NtRp3659
(dp3660
g74
(dp3661
sg83
g3278
sg76
(lp3662
g69
(g90
g71
NtRp3663
(dp3664
g74
(dp3665
g94
g95
ssg83
g3659
sg76
(lp3666
S'last_query'
p3667
asbag69
(g90
g71
NtRp3668
(dp3669
g74
(dp3670
g101
g102
ssg83
g3659
sg76
(lp3671
S':'
asbag69
(g90
g71
NtRp3672
(dp3673
g74
(dp3674
sg83
g3659
sg76
(lp3675
g69
(g70
g71
NtRp3676
(dp3677
g74
(dp3678
g82
I5
ssg83
g3672
sg76
(lp3679
S'db.chart.id>0'
p3680
asbasbasbasbasbsS'etype'
p3681
S"<class 'pywintypes.com_error'>"
p3682
sS'date'
p3683
S'Mon Nov 05 20:53:02 2012'
p3684
sS'response'
p3685
g69
(g70
g71
NtRp3686
(dp3687
g74
(dp3688
sg76
(lp3689
g69
(g78
g71
NtRp3690
(dp3691
g74
(dp3692
g82
I5
ssg83
Nsg76
(lp3693
g69
(g85
g71
NtRp3694
(dp3695
g74
(dp3696
sg83
g3690
sg76
(lp3697
g69
(g90
g71
NtRp3698
(dp3699
g74
(dp3700
g94
g95
ssg83
g3694
sg76
(lp3701
g167
asbag69
(g90
g71
NtRp3702
(dp3703
g74
(dp3704
g101
g102
ssg83
g3694
sg76
(lp3705
S':'
asbag69
(g90
g71
NtRp3706
(dp3707
g74
(dp3708
sg83
g3694
sg76
(lp3709
g69
(g70
g71
NtRp3710
(dp3711
g74
(dp3712
g82
I5
ssg83
g3706
sg76
(lp3713
S'<cStringIO.StringO object at 0x05029380>'
p3714
asbasbasbag69
(g85
g71
NtRp3715
(dp3716
g74
(dp3717
sg83
g3690
sg76
(lp3718
g69
(g90
g71
NtRp3719
(dp3720
g74
(dp3721
g94
g95
ssg83
g3715
sg76
(lp3722
g255
asbag69
(g90
g71
NtRp3723
(dp3724
g74
(dp3725
g101
g102
ssg83
g3715
sg76
(lp3726
S':'
asbag69
(g90
g71
NtRp3727
(dp3728
g74
(dp3729
sg83
g3715
sg76
(lp3730
g69
(g70
g71
NtRp3731
(dp3732
g74
(dp3733
g82
I5
ssg83
g3727
sg76
(lp3734
g69
(g78
g71
NtRp3735
(dp3736
g74
(dp3737
g82
I4
ssg83
Nsg76
(lp3738
g69
(g85
g71
NtRp3739
(dp3740
g74
(dp3741
sg83
g3735
sg76
(lp3742
g69
(g90
g71
NtRp3743
(dp3744
g74
(dp3745
g94
g95
ssg83
g3739
sg76
(lp3746
S'session_id_web2py_xlchart_dashboard'
p3747
asbag69
(g90
g71
NtRp3748
(dp3749
g74
(dp3750
g101
g102
ssg83
g3739
sg76
(lp3751
S':'
asbag69
(g90
g71
NtRp3752
(dp3753
g74
(dp3754
sg83
g3739
sg76
(lp3755
g69
(g70
g71
NtRp3756
(dp3757
g74
(dp3758
g82
I4
ssg83
g3752
sg76
(lp3759
g487
ag69
(g78
g71
NtRp3760
(dp3761
g74
(dp3762
g82
I3
ssg83
Nsg76
(lp3763
g69
(g85
g71
NtRp3764
(dp3765
g74
(dp3766
sg83
g3760
sg76
(lp3767
g69
(g90
g71
NtRp3768
(dp3769
g74
(dp3770
g94
g95
ssg83
g3764
sg76
(lp3771
g306
asbag69
(g90
g71
NtRp3772
(dp3773
g74
(dp3774
g101
g102
ssg83
g3764
sg76
(lp3775
S':'
asbag69
(g90
g71
NtRp3776
(dp3777
g74
(dp3778
sg83
g3764
sg76
(lp3779
g69
(g70
g71
NtRp3780
(dp3781
g74
(dp3782
g82
I3
ssg83
g3776
sg76
(lp3783
S''
asbasbasbag69
(g85
g71
NtRp3784
(dp3785
g74
(dp3786
sg83
g3760
sg76
(lp3787
g69
(g90
g71
NtRp3788
(dp3789
g74
(dp3790
g94
g95
ssg83
g3784
sg76
(lp3791
g327
asbag69
(g90
g71
NtRp3792
(dp3793
g74
(dp3794
g101
g102
ssg83
g3784
sg76
(lp3795
S':'
asbag69
(g90
g71
NtRp3796
(dp3797
g74
(dp3798
sg83
g3784
sg76
(lp3799
g69
(g70
g71
NtRp3800
(dp3801
g74
(dp3802
g82
I3
ssg83
g3796
sg76
(lp3803
S''
asbasbasbag69
(g85
g71
NtRp3804
(dp3805
g74
(dp3806
sg83
g3760
sg76
(lp3807
g69
(g90
g71
NtRp3808
(dp3809
g74
(dp3810
g94
g95
ssg83
g3804
sg76
(lp3811
g348
asbag69
(g90
g71
NtRp3812
(dp3813
g74
(dp3814
g101
g102
ssg83
g3804
sg76
(lp3815
S':'
asbag69
(g90
g71
NtRp3816
(dp3817
g74
(dp3818
sg83
g3804
sg76
(lp3819
g69
(g70
g71
NtRp3820
(dp3821
g74
(dp3822
g82
I3
ssg83
g3816
sg76
(lp3823
S''
asbasbasbag69
(g85
g71
NtRp3824
(dp3825
g74
(dp3826
sg83
g3760
sg76
(lp3827
g69
(g90
g71
NtRp3828
(dp3829
g74
(dp3830
g94
g95
ssg83
g3824
sg76
(lp3831
g369
asbag69
(g90
g71
NtRp3832
(dp3833
g74
(dp3834
g101
g102
ssg83
g3824
sg76
(lp3835
S':'
asbag69
(g90
g71
NtRp3836
(dp3837
g74
(dp3838
sg83
g3824
sg76
(lp3839
g69
(g70
g71
NtRp3840
(dp3841
g74
(dp3842
g82
I3
ssg83
g3836
sg76
(lp3843
S''
asbasbasbag69
(g85
g71
NtRp3844
(dp3845
g74
(dp3846
sg83
g3760
sg76
(lp3847
g69
(g90
g71
NtRp3848
(dp3849
g74
(dp3850
g94
g95
ssg83
g3844
sg76
(lp3851
g390
asbag69
(g90
g71
NtRp3852
(dp3853
g74
(dp3854
g101
g102
ssg83
g3844
sg76
(lp3855
S':'
asbag69
(g90
g71
NtRp3856
(dp3857
g74
(dp3858
sg83
g3844
sg76
(lp3859
g69
(g70
g71
NtRp3860
(dp3861
g74
(dp3862
g82
I3
ssg83
g3856
sg76
(lp3863
S''
asbasbasbag69
(g85
g71
NtRp3864
(dp3865
g74
(dp3866
sg83
g3760
sg76
(lp3867
g69
(g90
g71
NtRp3868
(dp3869
g74
(dp3870
g94
g95
ssg83
g3864
sg76
(lp3871
g411
asbag69
(g90
g71
NtRp3872
(dp3873
g74
(dp3874
g101
g102
ssg83
g3864
sg76
(lp3875
S':'
asbag69
(g90
g71
NtRp3876
(dp3877
g74
(dp3878
sg83
g3864
sg76
(lp3879
g69
(g70
g71
NtRp3880
(dp3881
g74
(dp3882
g82
I3
ssg83
g3876
sg76
(lp3883
S'/'
asbasbasbag69
(g85
g71
NtRp3884
(dp3885
g74
(dp3886
sg83
g3760
sg76
(lp3887
g69
(g90
g71
NtRp3888
(dp3889
g74
(dp3890
g94
g95
ssg83
g3884
sg76
(lp3891
g432
asbag69
(g90
g71
NtRp3892
(dp3893
g74
(dp3894
g101
g102
ssg83
g3884
sg76
(lp3895
S':'
asbag69
(g90
g71
NtRp3896
(dp3897
g74
(dp3898
sg83
g3884
sg76
(lp3899
g69
(g70
g71
NtRp3900
(dp3901
g74
(dp3902
g82
I3
ssg83
g3896
sg76
(lp3903
S''
asbasbasbag69
(g85
g71
NtRp3904
(dp3905
g74
(dp3906
sg83
g3760
sg76
(lp3907
g69
(g90
g71
NtRp3908
(dp3909
g74
(dp3910
g94
g95
ssg83
g3904
sg76
(lp3911
g453
asbag69
(g90
g71
NtRp3912
(dp3913
g74
(dp3914
g101
g102
ssg83
g3904
sg76
(lp3915
S':'
asbag69
(g90
g71
NtRp3916
(dp3917
g74
(dp3918
sg83
g3904
sg76
(lp3919
g69
(g70
g71
NtRp3920
(dp3921
g74
(dp3922
g82
I3
ssg83
g3916
sg76
(lp3923
S''
asbasbasbasbasbasbasbasbasbasbasbag69
(g85
g71
NtRp3924
(dp3925
g74
(dp3926
sg83
g3690
sg76
(lp3927
g69
(g90
g71
NtRp3928
(dp3929
g74
(dp3930
g94
g95
ssg83
g3924
sg76
(lp3931
S'delimiters'
p3932
asbag69
(g90
g71
NtRp3933
(dp3934
g74
(dp3935
g101
g102
ssg83
g3924
sg76
(lp3936
S':'
asbag69
(g90
g71
NtRp3937
(dp3938
g74
(dp3939
sg83
g3924
sg76
(lp3940
g69
(g70
g71
NtRp3941
(dp3942
g74
(dp3943
g82
I5
ssg83
g3937
sg76
(lp3944
g69
(g78
g71
NtRp3945
(dp3946
g74
(dp3947
g82
I4
ssg83
Nsg76
(lp3948
g69
(g85
g71
NtRp3949
(dp3950
g74
(dp3951
sg83
g3945
sg76
(lp3952
g69
(g90
g71
NtRp3953
(dp3954
g74
(dp3955
sg83
g3949
sg76
(lp3956
g69
(g70
g71
NtRp3957
(dp3958
g74
(dp3959
g82
I4
ssg83
g3953
sg76
(lp3960
S'{{'
p3961
asbasbasbag69
(g85
g71
NtRp3962
(dp3963
g74
(dp3964
sg83
g3945
sg76
(lp3965
g69
(g90
g71
NtRp3966
(dp3967
g74
(dp3968
sg83
g3962
sg76
(lp3969
g69
(g70
g71
NtRp3970
(dp3971
g74
(dp3972
g82
I4
ssg83
g3966
sg76
(lp3973
S'}}'
p3974
asbasbasbasbasbasbasbag69
(g85
g71
NtRp3975
(dp3976
g74
(dp3977
sg83
g3690
sg76
(lp3978
g69
(g90
g71
NtRp3979
(dp3980
g74
(dp3981
g94
g95
ssg83
g3975
sg76
(lp3982
S'files'
p3983
asbag69
(g90
g71
NtRp3984
(dp3985
g74
(dp3986
g101
g102
ssg83
g3975
sg76
(lp3987
S':'
asbag69
(g90
g71
NtRp3988
(dp3989
g74
(dp3990
sg83
g3975
sg76
(lp3991
g69
(g70
g71
NtRp3992
(dp3993
g74
(dp3994
g82
I5
ssg83
g3988
sg76
(lp3995
g69
(g78
g71
NtRp3996
(dp3997
g74
(dp3998
g82
I4
ssg83
Nsg76
(lp3999
sbasbasbasbag69
(g85
g71
NtRp4000
(dp4001
g74
(dp4002
sg83
g3690
sg76
(lp4003
g69
(g90
g71
NtRp4004
(dp4005
g74
(dp4006
g94
g95
ssg83
g4000
sg76
(lp4007
S'flash'
p4008
asbag69
(g90
g71
NtRp4009
(dp4010
g74
(dp4011
g101
g102
ssg83
g4000
sg76
(lp4012
S':'
asbag69
(g90
g71
NtRp4013
(dp4014
g74
(dp4015
sg83
g4000
sg76
(lp4016
g69
(g70
g71
NtRp4017
(dp4018
g74
(dp4019
g82
I5
ssg83
g4013
sg76
(lp4020
S''
asbasbasbag69
(g85
g71
NtRp4021
(dp4022
g74
(dp4023
sg83
g3690
sg76
(lp4024
g69
(g90
g71
NtRp4025
(dp4026
g74
(dp4027
g94
g95
ssg83
g4021
sg76
(lp4028
S'generic_patterns'
p4029
asbag69
(g90
g71
NtRp4030
(dp4031
g74
(dp4032
g101
g102
ssg83
g4021
sg76
(lp4033
S':'
asbag69
(g90
g71
NtRp4034
(dp4035
g74
(dp4036
sg83
g4021
sg76
(lp4037
g69
(g70
g71
NtRp4038
(dp4039
g74
(dp4040
g82
I5
ssg83
g4034
sg76
(lp4041
g69
(g78
g71
NtRp4042
(dp4043
g74
(dp4044
g82
I4
ssg83
Nsg76
(lp4045
g69
(g85
g71
NtRp4046
(dp4047
g74
(dp4048
sg83
g4042
sg76
(lp4049
g69
(g90
g71
NtRp4050
(dp4051
g74
(dp4052
sg83
g4046
sg76
(lp4053
g69
(g70
g71
NtRp4054
(dp4055
g74
(dp4056
g82
I4
ssg83
g4050
sg76
(lp4057
S'*'
asbasbasbasbasbasbasbag69
(g85
g71
NtRp4058
(dp4059
g74
(dp4060
sg83
g3690
sg76
(lp4061
g69
(g90
g71
NtRp4062
(dp4063
g74
(dp4064
g94
g95
ssg83
g4058
sg76
(lp4065
S'google_analytics_id'
p4066
asbag69
(g90
g71
NtRp4067
(dp4068
g74
(dp4069
g101
g102
ssg83
g4058
sg76
(lp4070
S':'
asbag69
(g90
g71
NtRp4071
(dp4072
g74
(dp4073
sg83
g4058
sg76
(lp4074
g69
(g70
g71
NtRp4075
(dp4076
g74
(dp4077
g82
I5
ssg83
g4071
sg76
(lp4078
S'None'
p4079
asbasbasbag69
(g85
g71
NtRp4080
(dp4081
g74
(dp4082
sg83
g3690
sg76
(lp4083
g69
(g90
g71
NtRp4084
(dp4085
g74
(dp4086
g94
g95
ssg83
g4080
sg76
(lp4087
S'headers'
p4088
asbag69
(g90
g71
NtRp4089
(dp4090
g74
(dp4091
g101
g102
ssg83
g4080
sg76
(lp4092
S':'
asbag69
(g90
g71
NtRp4093
(dp4094
g74
(dp4095
sg83
g4080
sg76
(lp4096
g69
(g70
g71
NtRp4097
(dp4098
g74
(dp4099
g82
I5
ssg83
g4093
sg76
(lp4100
g69
(g78
g71
NtRp4101
(dp4102
g74
(dp4103
g82
I4
ssg83
Nsg76
(lp4104
g69
(g85
g71
NtRp4105
(dp4106
g74
(dp4107
sg83
g4101
sg76
(lp4108
g69
(g90
g71
NtRp4109
(dp4110
g74
(dp4111
g94
g95
ssg83
g4105
sg76
(lp4112
S'X-Powered-By'
p4113
asbag69
(g90
g71
NtRp4114
(dp4115
g74
(dp4116
g101
g102
ssg83
g4105
sg76
(lp4117
S':'
asbag69
(g90
g71
NtRp4118
(dp4119
g74
(dp4120
sg83
g4105
sg76
(lp4121
g69
(g70
g71
NtRp4122
(dp4123
g74
(dp4124
g82
I4
ssg83
g4118
sg76
(lp4125
S'web2py'
p4126
asbasbasbasbasbasbasbag69
(g85
g71
NtRp4127
(dp4128
g74
(dp4129
sg83
g3690
sg76
(lp4130
g69
(g90
g71
NtRp4131
(dp4132
g74
(dp4133
g94
g95
ssg83
g4127
sg76
(lp4134
S'menu'
p4135
asbag69
(g90
g71
NtRp4136
(dp4137
g74
(dp4138
g101
g102
ssg83
g4127
sg76
(lp4139
S':'
asbag69
(g90
g71
NtRp4140
(dp4141
g74
(dp4142
sg83
g4127
sg76
(lp4143
g69
(g70
g71
NtRp4144
(dp4145
g74
(dp4146
g82
I5
ssg83
g4140
sg76
(lp4147
g69
(g78
g71
NtRp4148
(dp4149
g74
(dp4150
g82
I4
ssg83
Nsg76
(lp4151
g69
(g85
g71
NtRp4152
(dp4153
g74
(dp4154
sg83
g4148
sg76
(lp4155
g69
(g90
g71
NtRp4156
(dp4157
g74
(dp4158
sg83
g4152
sg76
(lp4159
g69
(g70
g71
NtRp4160
(dp4161
g74
(dp4162
g82
I4
ssg83
g4156
sg76
(lp4163
g69
(g78
g71
NtRp4164
(dp4165
g74
(dp4166
g82
I3
ssg83
Nsg76
(lp4167
g69
(g85
g71
NtRp4168
(dp4169
g74
(dp4170
sg83
g4164
sg76
(lp4171
g69
(g90
g71
NtRp4172
(dp4173
g74
(dp4174
sg83
g4168
sg76
(lp4175
g69
(g70
g71
NtRp4176
(dp4177
g74
(dp4178
g82
I3
ssg83
g4172
sg76
(lp4179
cgluon.languages
lazyT_unpickle
p4180
(S's\x04\x00\x00\x00Home'
tRp4181
asbasbasbag69
(g85
g71
NtRp4182
(dp4183
g74
(dp4184
sg83
g4164
sg76
(lp4185
g69
(g90
g71
NtRp4186
(dp4187
g74
(dp4188
sg83
g4182
sg76
(lp4189
g69
(g70
g71
NtRp4190
(dp4191
g74
(dp4192
g82
I3
ssg83
g4186
sg76
(lp4193
g112
asbasbasbag69
(g85
g71
NtRp4194
(dp4195
g74
(dp4196
sg83
g4164
sg76
(lp4197
g69
(g90
g71
NtRp4198
(dp4199
g74
(dp4200
sg83
g4194
sg76
(lp4201
g69
(g70
g71
NtRp4202
(dp4203
g74
(dp4204
g82
I3
ssg83
g4198
sg76
(lp4205
S'/web2py_xlchart_dashboard/default/index'
p4206
asbasbasbag69
(g85
g71
NtRp4207
(dp4208
g74
(dp4209
sg83
g4164
sg76
(lp4210
g69
(g90
g71
NtRp4211
(dp4212
g74
(dp4213
sg83
g4207
sg76
(lp4214
g69
(g70
g71
NtRp4215
(dp4216
g74
(dp4217
g82
I3
ssg83
g4211
sg76
(lp4218
g69
(g78
g71
NtRp4219
(dp4220
g74
(dp4221
g82
I2
ssg83
Nsg76
(lp4222
sbasbasbasbasbasbasbasbag69
(g85
g71
NtRp4223
(dp4224
g74
(dp4225
sg83
g4148
sg76
(lp4226
g69
(g90
g71
NtRp4227
(dp4228
g74
(dp4229
sg83
g4223
sg76
(lp4230
g69
(g70
g71
NtRp4231
(dp4232
g74
(dp4233
g82
I4
ssg83
g4227
sg76
(lp4234
g69
(g78
g71
NtRp4235
(dp4236
g74
(dp4237
g82
I3
ssg83
Nsg76
(lp4238
g69
(g85
g71
NtRp4239
(dp4240
g74
(dp4241
sg83
g4235
sg76
(lp4242
g69
(g90
g71
NtRp4243
(dp4244
g74
(dp4245
sg83
g4239
sg76
(lp4246
g69
(g70
g71
NtRp4247
(dp4248
g74
(dp4249
g82
I3
ssg83
g4243
sg76
(lp4250
g69
(cgluon.html
SPAN
p4251
g71
NtRp4252
(dp4253
g74
(dp4254
S'_class'
p4255
S'highlighted'
p4256
ssg83
Nsg76
(lp4257
g4126
asbasbasbasbag69
(g85
g71
NtRp4258
(dp4259
g74
(dp4260
sg83
g4235
sg76
(lp4261
g69
(g90
g71
NtRp4262
(dp4263
g74
(dp4264
sg83
g4258
sg76
(lp4265
g69
(g70
g71
NtRp4266
(dp4267
g74
(dp4268
g82
I3
ssg83
g4262
sg76
(lp4269
g112
asbasbasbag69
(g85
g71
NtRp4270
(dp4271
g74
(dp4272
sg83
g4235
sg76
(lp4273
g69
(g90
g71
NtRp4274
(dp4275
g74
(dp4276
sg83
g4270
sg76
(lp4277
g69
(g70
g71
NtRp4278
(dp4279
g74
(dp4280
g82
I3
ssg83
g4274
sg76
(lp4281
S'http://web2py.com'
p4282
asbasbasbag69
(g85
g71
NtRp4283
(dp4284
g74
(dp4285
sg83
g4235
sg76
(lp4286
g69
(g90
g71
NtRp4287
(dp4288
g74
(dp4289
sg83
g4283
sg76
(lp4290
g69
(g70
g71
NtRp4291
(dp4292
g74
(dp4293
g82
I3
ssg83
g4287
sg76
(lp4294
g69
(g78
g71
NtRp4295
(dp4296
g74
(dp4297
g82
I2
ssg83
Nsg76
(lp4298
g69
(g85
g71
NtRp4299
(dp4300
g74
(dp4301
sg83
g4295
sg76
(lp4302
g69
(g90
g71
NtRp4303
(dp4304
g74
(dp4305
sg83
g4299
sg76
(lp4306
g69
(g70
g71
NtRp4307
(dp4308
g74
(dp4309
g82
I2
ssg83
g4303
sg76
(lp4310
g69
(g78
g71
NtRp4311
(dp4312
g74
(dp4313
g82
I1
ssg83
Nsg76
(lp4314
g69
(g85
g71
NtRp4315
(dp4316
g74
(dp4317
sg83
g4311
sg76
(lp4318
g69
(g90
g71
NtRp4319
(dp4320
g74
(dp4321
sg83
g4315
sg76
(lp4322
g69
(g70
g71
NtRp4323
(dp4324
g74
(dp4325
g82
I1
ssg83
g4319
sg76
(lp4326
g4180
(S's\x08\x00\x00\x00My Sites'
tRp4327
asbasbasbag69
(g85
g71
NtRp4328
(dp4329
g74
(dp4330
sg83
g4311
sg76
(lp4331
g69
(g90
g71
NtRp4332
(dp4333
g74
(dp4334
sg83
g4328
sg76
(lp4335
g69
(g70
g71
NtRp4336
(dp4337
g74
(dp4338
g82
I1
ssg83
g4332
sg76
(lp4339
I00
asbasbasbag69
(g85
g71
NtRp4340
(dp4341
g74
(dp4342
sg83
g4311
sg76
(lp4343
g69
(g90
g71
NtRp4344
(dp4345
g74
(dp4346
sg83
g4340
sg76
(lp4347
g69
(g70
g71
NtRp4348
(dp4349
g74
(dp4350
g82
I1
ssg83
g4344
sg76
(lp4351
S'/admin/default/site'
p4352
asbasbasbasbasbasbasbag69
(g85
g71
NtRp4353
(dp4354
g74
(dp4355
sg83
g4295
sg76
(lp4356
g69
(g90
g71
NtRp4357
(dp4358
g74
(dp4359
sg83
g4353
sg76
(lp4360
g69
(g70
g71
NtRp4361
(dp4362
g74
(dp4363
g82
I2
ssg83
g4357
sg76
(lp4364
g69
(g78
g71
NtRp4365
(dp4366
g74
(dp4367
g82
I1
ssg83
Nsg76
(lp4368
g69
(g85
g71
NtRp4369
(dp4370
g74
(dp4371
sg83
g4365
sg76
(lp4372
g69
(g90
g71
NtRp4373
(dp4374
g74
(dp4375
sg83
g4369
sg76
(lp4376
g69
(g70
g71
NtRp4377
(dp4378
g74
(dp4379
g82
I1
ssg83
g4373
sg76
(lp4380
g4180
(S's\x08\x00\x00\x00This App'
tRp4381
asbasbasbag69
(g85
g71
NtRp4382
(dp4383
g74
(dp4384
sg83
g4365
sg76
(lp4385
g69
(g90
g71
NtRp4386
(dp4387
g74
(dp4388
sg83
g4382
sg76
(lp4389
g69
(g70
g71
NtRp4390
(dp4391
g74
(dp4392
g82
I1
ssg83
g4386
sg76
(lp4393
I00
asbasbasbag69
(g85
g71
NtRp4394
(dp4395
g74
(dp4396
sg83
g4365
sg76
(lp4397
g69
(g90
g71
NtRp4398
(dp4399
g74
(dp4400
sg83
g4394
sg76
(lp4401
g69
(g70
g71
NtRp4402
(dp4403
g74
(dp4404
g82
I1
ssg83
g4398
sg76
(lp4405
S'/admin/default/design/web2py_xlchart_dashboard'
p4406
asbasbasbag69
(g85
g71
NtRp4407
(dp4408
g74
(dp4409
sg83
g4365
sg76
(lp4410
g69
(g90
g71
NtRp4411
(dp4412
g74
(dp4413
sg83
g4407
sg76
(lp4414
g69
(g70
g71
NtRp4415
(dp4416
g74
(dp4417
g82
I1
ssg83
g4411
sg76
(lp4418
(lp4419
(g4180
(S's\n\x00\x00\x00Controller'
tRp4420
I00
S'/admin/default/edit/web2py_xlchart_dashboard/controllers/default.py'
tp4421
a(g4180
(S's\x04\x00\x00\x00View'
tRp4422
I00
S'/admin/default/edit/web2py_xlchart_dashboard/views/default/list_workbook_charts.html'
tp4423
a(g4180
(S's\x06\x00\x00\x00Layout'
tRp4424
I00
S'/admin/default/edit/web2py_xlchart_dashboard/views/layout.html'
tp4425
a(g4180
(S's\n\x00\x00\x00Stylesheet'
tRp4426
I00
S'/admin/default/edit/web2py_xlchart_dashboard/static/css/web2py.css'
tp4427
a(g4180
(S's\x08\x00\x00\x00DB Model'
tRp4428
I00
S'/admin/default/edit/web2py_xlchart_dashboard/models/db.py'
tp4429
a(g4180
(S's\n\x00\x00\x00Menu Model'
tRp4430
I00
S'/admin/default/edit/web2py_xlchart_dashboard/models/menu.py'
tp4431
a(g4180
(S's\x08\x00\x00\x00Database'
tRp4432
I00
S'/web2py_xlchart_dashboard/appadmin/index'
tp4433
a(g4180
(S's\x06\x00\x00\x00Errors'
tRp4434
I00
S'/admin/default/errors/web2py_xlchart_dashboard'
tp4435
a(g4180
(S's\x05\x00\x00\x00About'
tRp4436
I00
S'/admin/default/about/web2py_xlchart_dashboard'
tp4437
aasbasbasbasbasbasbasbag69
(g85
g71
NtRp4438
(dp4439
g74
(dp4440
sg83
g4295
sg76
(lp4441
g69
(g90
g71
NtRp4442
(dp4443
g74
(dp4444
sg83
g4438
sg76
(lp4445
g69
(g70
g71
NtRp4446
(dp4447
g74
(dp4448
g82
I2
ssg83
g4442
sg76
(lp4449
g69
(g78
g71
NtRp4450
(dp4451
g74
(dp4452
g82
I1
ssg83
Nsg76
(lp4453
g69
(g85
g71
NtRp4454
(dp4455
g74
(dp4456
sg83
g4450
sg76
(lp4457
g69
(g90
g71
NtRp4458
(dp4459
g74
(dp4460
sg83
g4454
sg76
(lp4461
g69
(g70
g71
NtRp4462
(dp4463
g74
(dp4464
g82
I1
ssg83
g4458
sg76
(lp4465
S'web2py.com'
p4466
asbasbasbag69
(g85
g71
NtRp4467
(dp4468
g74
(dp4469
sg83
g4450
sg76
(lp4470
g69
(g90
g71
NtRp4471
(dp4472
g74
(dp4473
sg83
g4467
sg76
(lp4474
g69
(g70
g71
NtRp4475
(dp4476
g74
(dp4477
g82
I1
ssg83
g4471
sg76
(lp4478
I00
asbasbasbag69
(g85
g71
NtRp4479
(dp4480
g74
(dp4481
sg83
g4450
sg76
(lp4482
g69
(g90
g71
NtRp4483
(dp4484
g74
(dp4485
sg83
g4479
sg76
(lp4486
g69
(g70
g71
NtRp4487
(dp4488
g74
(dp4489
g82
I1
ssg83
g4483
sg76
(lp4490
S'http://www.web2py.com'
p4491
asbasbasbag69
(g85
g71
NtRp4492
(dp4493
g74
(dp4494
sg83
g4450
sg76
(lp4495
g69
(g90
g71
NtRp4496
(dp4497
g74
(dp4498
sg83
g4492
sg76
(lp4499
g69
(g70
g71
NtRp4500
(dp4501
g74
(dp4502
g82
I1
ssg83
g4496
sg76
(lp4503
(lp4504
(g4180
(S's\x08\x00\x00\x00Download'
tRp4505
I00
S'http://www.web2py.com/examples/default/download'
p4506
tp4507
a(g4180
(S's\x07\x00\x00\x00Support'
tRp4508
I00
S'http://www.web2py.com/examples/default/support'
p4509
tp4510
a(g4180
(S's\x04\x00\x00\x00Demo'
tRp4511
I00
S'http://web2py.com/demo_admin'
p4512
tp4513
a(g4180
(S's\x0e\x00\x00\x00Quick Examples'
tRp4514
I00
S'http://web2py.com/examples/default/examples'
p4515
tp4516
a(g4180
(S's\x03\x00\x00\x00FAQ'
tRp4517
I00
S'http://web2py.com/AlterEgo'
p4518
tp4519
a(g4180
(S's\x06\x00\x00\x00Videos'
tRp4520
I00
S'http://www.web2py.com/examples/default/videos/'
p4521
tp4522
a(g4180
(S's\x11\x00\x00\x00Free Applications'
tRp4523
I00
S'http://web2py.com/appliances'
p4524
tp4525
a(g4180
(S's\x07\x00\x00\x00Plugins'
tRp4526
I00
S'http://web2py.com/plugins'
p4527
tp4528
a(g4180
(S's\x07\x00\x00\x00Layouts'
tRp4529
I00
S'http://web2py.com/layouts'
p4530
tp4531
a(g4180
(S's\x07\x00\x00\x00Recipes'
tRp4532
I00
S'http://web2pyslices.com/'
p4533
tp4534
a(g4180
(S's\x08\x00\x00\x00Semantic'
tRp4535
I00
S'http://web2py.com/semantic'
p4536
tp4537
aasbasbasbasbasbasbasbag69
(g85
g71
NtRp4538
(dp4539
g74
(dp4540
sg83
g4295
sg76
(lp4541
g69
(g90
g71
NtRp4542
(dp4543
g74
(dp4544
sg83
g4538
sg76
(lp4545
g69
(g70
g71
NtRp4546
(dp4547
g74
(dp4548
g82
I2
ssg83
g4542
sg76
(lp4549
g69
(g78
g71
NtRp4550
(dp4551
g74
(dp4552
g82
I1
ssg83
Nsg76
(lp4553
g69
(g85
g71
NtRp4554
(dp4555
g74
(dp4556
sg83
g4550
sg76
(lp4557
g69
(g90
g71
NtRp4558
(dp4559
g74
(dp4560
sg83
g4554
sg76
(lp4561
g69
(g70
g71
NtRp4562
(dp4563
g74
(dp4564
g82
I1
ssg83
g4558
sg76
(lp4565
g4180
(S's\r\x00\x00\x00Documentation'
tRp4566
asbasbasbag69
(g85
g71
NtRp4567
(dp4568
g74
(dp4569
sg83
g4550
sg76
(lp4570
g69
(g90
g71
NtRp4571
(dp4572
g74
(dp4573
sg83
g4567
sg76
(lp4574
g69
(g70
g71
NtRp4575
(dp4576
g74
(dp4577
g82
I1
ssg83
g4571
sg76
(lp4578
I00
asbasbasbag69
(g85
g71
NtRp4579
(dp4580
g74
(dp4581
sg83
g4550
sg76
(lp4582
g69
(g90
g71
NtRp4583
(dp4584
g74
(dp4585
sg83
g4579
sg76
(lp4586
g69
(g70
g71
NtRp4587
(dp4588
g74
(dp4589
g82
I1
ssg83
g4583
sg76
(lp4590
S'http://www.web2py.com/book'
p4591
asbasbasbag69
(g85
g71
NtRp4592
(dp4593
g74
(dp4594
sg83
g4550
sg76
(lp4595
g69
(g90
g71
NtRp4596
(dp4597
g74
(dp4598
sg83
g4592
sg76
(lp4599
g69
(g70
g71
NtRp4600
(dp4601
g74
(dp4602
g82
I1
ssg83
g4596
sg76
(lp4603
(lp4604
(g4180
(S's\x07\x00\x00\x00Preface'
tRp4605
I00
S'http://www.web2py.com/book/default/chapter/00'
p4606
tp4607
a(g4180
(S's\x0c\x00\x00\x00Introduction'
tRp4608
I00
S'http://www.web2py.com/book/default/chapter/01'
p4609
tp4610
a(g4180
(S's\x06\x00\x00\x00Python'
tRp4611
I00
S'http://www.web2py.com/book/default/chapter/02'
p4612
tp4613
a(g4180
(S's\x08\x00\x00\x00Overview'
tRp4614
I00
S'http://www.web2py.com/book/default/chapter/03'
p4615
tp4616
a(g4180
(S's\x08\x00\x00\x00The Core'
tRp4617
I00
S'http://www.web2py.com/book/default/chapter/04'
p4618
tp4619
a(g4180
(S's\t\x00\x00\x00The Views'
tRp4620
I00
S'http://www.web2py.com/book/default/chapter/05'
p4621
tp4622
a(g4180
(S's\x08\x00\x00\x00Database'
tRp4623
I00
S'http://www.web2py.com/book/default/chapter/06'
p4624
tp4625
a(g4180
(S's\x14\x00\x00\x00Forms and Validators'
tRp4626
I00
S'http://www.web2py.com/book/default/chapter/07'
p4627
tp4628
a(g4180
(S's\r\x00\x00\x00Email and SMS'
tRp4629
I00
S'http://www.web2py.com/book/default/chapter/08'
p4630
tp4631
a(g4180
(S's\x0e\x00\x00\x00Access Control'
tRp4632
I00
S'http://www.web2py.com/book/default/chapter/09'
p4633
tp4634
a(g4180
(S's\x08\x00\x00\x00Services'
tRp4635
I00
S'http://www.web2py.com/book/default/chapter/10'
p4636
tp4637
a(g4180
(S's\x0c\x00\x00\x00Ajax Recipes'
tRp4638
I00
S'http://www.web2py.com/book/default/chapter/11'
p4639
tp4640
a(g4180
(S's\x16\x00\x00\x00Components and Plugins'
tRp4641
I00
S'http://www.web2py.com/book/default/chapter/12'
p4642
tp4643
a(g4180
(S's\x12\x00\x00\x00Deployment Recipes'
tRp4644
I00
S'http://www.web2py.com/book/default/chapter/13'
p4645
tp4646
a(g4180
(S's\r\x00\x00\x00Other Recipes'
tRp4647
I00
S'http://www.web2py.com/book/default/chapter/14'
p4648
tp4649
a(g4180
(S's\r\x00\x00\x00Buy this book'
tRp4650
I00
S'http://stores.lulu.com/web2py'
p4651
tp4652
aasbasbasbasbasbasbasbag69
(g85
g71
NtRp4653
(dp4654
g74
(dp4655
sg83
g4295
sg76
(lp4656
g69
(g90
g71
NtRp4657
(dp4658
g74
(dp4659
sg83
g4653
sg76
(lp4660
g69
(g70
g71
NtRp4661
(dp4662
g74
(dp4663
g82
I2
ssg83
g4657
sg76
(lp4664
g69
(g78
g71
NtRp4665
(dp4666
g74
(dp4667
g82
I1
ssg83
Nsg76
(lp4668
g69
(g85
g71
NtRp4669
(dp4670
g74
(dp4671
sg83
g4665
sg76
(lp4672
g69
(g90
g71
NtRp4673
(dp4674
g74
(dp4675
sg83
g4669
sg76
(lp4676
g69
(g70
g71
NtRp4677
(dp4678
g74
(dp4679
g82
I1
ssg83
g4673
sg76
(lp4680
g4180
(S's\t\x00\x00\x00Community'
tRp4681
asbasbasbag69
(g85
g71
NtRp4682
(dp4683
g74
(dp4684
sg83
g4665
sg76
(lp4685
g69
(g90
g71
NtRp4686
(dp4687
g74
(dp4688
sg83
g4682
sg76
(lp4689
g69
(g70
g71
NtRp4690
(dp4691
g74
(dp4692
g82
I1
ssg83
g4686
sg76
(lp4693
I00
asbasbasbag69
(g85
g71
NtRp4694
(dp4695
g74
(dp4696
sg83
g4665
sg76
(lp4697
g69
(g90
g71
NtRp4698
(dp4699
g74
(dp4700
sg83
g4694
sg76
(lp4701
g69
(g70
g71
NtRp4702
(dp4703
g74
(dp4704
g82
I1
ssg83
g4698
sg76
(lp4705
Nasbasbasbag69
(g85
g71
NtRp4706
(dp4707
g74
(dp4708
sg83
g4665
sg76
(lp4709
g69
(g90
g71
NtRp4710
(dp4711
g74
(dp4712
sg83
g4706
sg76
(lp4713
g69
(g70
g71
NtRp4714
(dp4715
g74
(dp4716
g82
I1
ssg83
g4710
sg76
(lp4717
(lp4718
(g4180
(S's\x06\x00\x00\x00Groups'
tRp4719
I00
S'http://www.web2py.com/examples/default/usergroups'
p4720
tp4721
a(g4180
(S's\x07\x00\x00\x00Twitter'
tRp4722
I00
S'http://twitter.com/web2py'
p4723
tp4724
a(g4180
(S's\t\x00\x00\x00Live Chat'
tRp4725
I00
S'http://webchat.freenode.net/?channels=web2py'
p4726
tp4727
aasbasbasbasbasbasbasbag69
(g85
g71
NtRp4728
(dp4729
g74
(dp4730
sg83
g4295
sg76
(lp4731
g69
(g90
g71
NtRp4732
(dp4733
g74
(dp4734
sg83
g4728
sg76
(lp4735
g69
(g70
g71
NtRp4736
(dp4737
g74
(dp4738
g82
I2
ssg83
g4732
sg76
(lp4739
g69
(g78
g71
NtRp4740
(dp4741
g74
(dp4742
g82
I1
ssg83
Nsg76
(lp4743
g69
(g85
g71
NtRp4744
(dp4745
g74
(dp4746
sg83
g4740
sg76
(lp4747
g69
(g90
g71
NtRp4748
(dp4749
g74
(dp4750
sg83
g4744
sg76
(lp4751
g69
(g70
g71
NtRp4752
(dp4753
g74
(dp4754
g82
I1
ssg83
g4748
sg76
(lp4755
g4180
(S's\x07\x00\x00\x00Plugins'
tRp4756
asbasbasbag69
(g85
g71
NtRp4757
(dp4758
g74
(dp4759
sg83
g4740
sg76
(lp4760
g69
(g90
g71
NtRp4761
(dp4762
g74
(dp4763
sg83
g4757
sg76
(lp4764
g69
(g70
g71
NtRp4765
(dp4766
g74
(dp4767
g82
I1
ssg83
g4761
sg76
(lp4768
I00
asbasbasbag69
(g85
g71
NtRp4769
(dp4770
g74
(dp4771
sg83
g4740
sg76
(lp4772
g69
(g90
g71
NtRp4773
(dp4774
g74
(dp4775
sg83
g4769
sg76
(lp4776
g69
(g70
g71
NtRp4777
(dp4778
g74
(dp4779
g82
I1
ssg83
g4773
sg76
(lp4780
Nasbasbasbag69
(g85
g71
NtRp4781
(dp4782
g74
(dp4783
sg83
g4740
sg76
(lp4784
g69
(g90
g71
NtRp4785
(dp4786
g74
(dp4787
sg83
g4781
sg76
(lp4788
g69
(g70
g71
NtRp4789
(dp4790
g74
(dp4791
g82
I1
ssg83
g4785
sg76
(lp4792
(lp4793
(S'plugin_wiki'
p4794
I00
S'http://web2py.com/examples/default/download'
p4795
tp4796
a(g4180
(S's\r\x00\x00\x00Other Plugins'
tRp4797
I00
g4527
tp4798
a(g4180
(S's\x0e\x00\x00\x00Layout Plugins'
tRp4799
I00
g4530
tp4800
aasbasbasbasbasbasbasbasbasbasbasbasbasbasbasbasbasbasbasbag69
(g85
g71
NtRp4801
(dp4802
g74
(dp4803
sg83
g3690
sg76
(lp4804
g69
(g90
g71
NtRp4805
(dp4806
g74
(dp4807
g94
g95
ssg83
g4801
sg76
(lp4808
S'meta'
p4809
asbag69
(g90
g71
NtRp4810
(dp4811
g74
(dp4812
g101
g102
ssg83
g4801
sg76
(lp4813
S':'
asbag69
(g90
g71
NtRp4814
(dp4815
g74
(dp4816
sg83
g4801
sg76
(lp4817
g69
(g70
g71
NtRp4818
(dp4819
g74
(dp4820
g82
I5
ssg83
g4814
sg76
(lp4821
g69
(g78
g71
NtRp4822
(dp4823
g74
(dp4824
g82
I4
ssg83
Nsg76
(lp4825
g69
(g85
g71
NtRp4826
(dp4827
g74
(dp4828
sg83
g4822
sg76
(lp4829
g69
(g90
g71
NtRp4830
(dp4831
g74
(dp4832
g94
g95
ssg83
g4826
sg76
(lp4833
S'author'
p4834
asbag69
(g90
g71
NtRp4835
(dp4836
g74
(dp4837
g101
g102
ssg83
g4826
sg76
(lp4838
S':'
asbag69
(g90
g71
NtRp4839
(dp4840
g74
(dp4841
sg83
g4826
sg76
(lp4842
g69
(g70
g71
NtRp4843
(dp4844
g74
(dp4845
g82
I4
ssg83
g4839
sg76
(lp4846
S'Your Name <you@example.com>'
p4847
asbasbasbag69
(g85
g71
NtRp4848
(dp4849
g74
(dp4850
sg83
g4822
sg76
(lp4851
g69
(g90
g71
NtRp4852
(dp4853
g74
(dp4854
g94
g95
ssg83
g4848
sg76
(lp4855
S'description'
p4856
asbag69
(g90
g71
NtRp4857
(dp4858
g74
(dp4859
g101
g102
ssg83
g4848
sg76
(lp4860
S':'
asbag69
(g90
g71
NtRp4861
(dp4862
g74
(dp4863
sg83
g4848
sg76
(lp4864
g69
(g70
g71
NtRp4865
(dp4866
g74
(dp4867
g82
I4
ssg83
g4861
sg76
(lp4868
S'a cool new app'
p4869
asbasbasbag69
(g85
g71
NtRp4870
(dp4871
g74
(dp4872
sg83
g4822
sg76
(lp4873
g69
(g90
g71
NtRp4874
(dp4875
g74
(dp4876
g94
g95
ssg83
g4870
sg76
(lp4877
S'generator'
p4878
asbag69
(g90
g71
NtRp4879
(dp4880
g74
(dp4881
g101
g102
ssg83
g4870
sg76
(lp4882
S':'
asbag69
(g90
g71
NtRp4883
(dp4884
g74
(dp4885
sg83
g4870
sg76
(lp4886
g69
(g70
g71
NtRp4887
(dp4888
g74
(dp4889
g82
I4
ssg83
g4883
sg76
(lp4890
S'Web2py Web Framework'
p4891
asbasbasbag69
(g85
g71
NtRp4892
(dp4893
g74
(dp4894
sg83
g4822
sg76
(lp4895
g69
(g90
g71
NtRp4896
(dp4897
g74
(dp4898
g94
g95
ssg83
g4892
sg76
(lp4899
S'keywords'
p4900
asbag69
(g90
g71
NtRp4901
(dp4902
g74
(dp4903
g101
g102
ssg83
g4892
sg76
(lp4904
S':'
asbag69
(g90
g71
NtRp4905
(dp4906
g74
(dp4907
sg83
g4892
sg76
(lp4908
g69
(g70
g71
NtRp4909
(dp4910
g74
(dp4911
g82
I4
ssg83
g4905
sg76
(lp4912
S'web2py, python, framework'
p4913
asbasbasbasbasbasbasbag69
(g85
g71
NtRp4914
(dp4915
g74
(dp4916
sg83
g3690
sg76
(lp4917
g69
(g90
g71
NtRp4918
(dp4919
g74
(dp4920
g94
g95
ssg83
g4914
sg76
(lp4921
S'models_to_run'
p4922
asbag69
(g90
g71
NtRp4923
(dp4924
g74
(dp4925
g101
g102
ssg83
g4914
sg76
(lp4926
S':'
asbag69
(g90
g71
NtRp4927
(dp4928
g74
(dp4929
sg83
g4914
sg76
(lp4930
g69
(g70
g71
NtRp4931
(dp4932
g74
(dp4933
g82
I5
ssg83
g4927
sg76
(lp4934
g69
(g78
g71
NtRp4935
(dp4936
g74
(dp4937
g82
I4
ssg83
Nsg76
(lp4938
g69
(g85
g71
NtRp4939
(dp4940
g74
(dp4941
sg83
g4935
sg76
(lp4942
g69
(g90
g71
NtRp4943
(dp4944
g74
(dp4945
sg83
g4939
sg76
(lp4946
g69
(g70
g71
NtRp4947
(dp4948
g74
(dp4949
g82
I4
ssg83
g4943
sg76
(lp4950
S'^\\w+\\.py$'
p4951
asbasbasbag69
(g85
g71
NtRp4952
(dp4953
g74
(dp4954
sg83
g4935
sg76
(lp4955
g69
(g90
g71
NtRp4956
(dp4957
g74
(dp4958
sg83
g4952
sg76
(lp4959
g69
(g70
g71
NtRp4960
(dp4961
g74
(dp4962
g82
I4
ssg83
g4956
sg76
(lp4963
S'^default/\\w+\\.py$'
p4964
asbasbasbag69
(g85
g71
NtRp4965
(dp4966
g74
(dp4967
sg83
g4935
sg76
(lp4968
g69
(g90
g71
NtRp4969
(dp4970
g74
(dp4971
sg83
g4965
sg76
(lp4972
g69
(g70
g71
NtRp4973
(dp4974
g74
(dp4975
g82
I4
ssg83
g4969
sg76
(lp4976
S'^default/list_workbook_charts/\\w+\\.py$'
p4977
asbasbasbasbasbasbasbag69
(g85
g71
NtRp4978
(dp4979
g74
(dp4980
sg83
g3690
sg76
(lp4981
g69
(g90
g71
NtRp4982
(dp4983
g74
(dp4984
g94
g95
ssg83
g4978
sg76
(lp4985
S'postprocessing'
p4986
asbag69
(g90
g71
NtRp4987
(dp4988
g74
(dp4989
g101
g102
ssg83
g4978
sg76
(lp4990
S':'
asbag69
(g90
g71
NtRp4991
(dp4992
g74
(dp4993
sg83
g4978
sg76
(lp4994
g69
(g70
g71
NtRp4995
(dp4996
g74
(dp4997
g82
I5
ssg83
g4991
sg76
(lp4998
g69
(g78
g71
NtRp4999
(dp5000
g74
(dp5001
g82
I4
ssg83
Nsg76
(lp5002
sbasbasbasbag69
(g85
g71
NtRp5003
(dp5004
g74
(dp5005
sg83
g3690
sg76
(lp5006
g69
(g90
g71
NtRp5007
(dp5008
g74
(dp5009
g94
g95
ssg83
g5003
sg76
(lp5010
S'session_cookie_expires'
p5011
asbag69
(g90
g71
NtRp5012
(dp5013
g74
(dp5014
g101
g102
ssg83
g5003
sg76
(lp5015
S':'
asbag69
(g90
g71
NtRp5016
(dp5017
g74
(dp5018
sg83
g5003
sg76
(lp5019
g69
(g70
g71
NtRp5020
(dp5021
g74
(dp5022
g82
I5
ssg83
g5016
sg76
(lp5023
S'None'
p5024
asbasbasbag69
(g85
g71
NtRp5025
(dp5026
g74
(dp5027
sg83
g3690
sg76
(lp5028
g69
(g90
g71
NtRp5029
(dp5030
g74
(dp5031
g94
g95
ssg83
g5025
sg76
(lp5032
S'session_data_name'
p5033
asbag69
(g90
g71
NtRp5034
(dp5035
g74
(dp5036
g101
g102
ssg83
g5025
sg76
(lp5037
S':'
asbag69
(g90
g71
NtRp5038
(dp5039
g74
(dp5040
sg83
g5025
sg76
(lp5041
g69
(g70
g71
NtRp5042
(dp5043
g74
(dp5044
g82
I5
ssg83
g5038
sg76
(lp5045
S'session_data_web2py_xlchart_dashboard'
p5046
asbasbasbag69
(g85
g71
NtRp5047
(dp5048
g74
(dp5049
sg83
g3690
sg76
(lp5050
g69
(g90
g71
NtRp5051
(dp5052
g74
(dp5053
g94
g95
ssg83
g5047
sg76
(lp5054
S'session_file'
p5055
asbag69
(g90
g71
NtRp5056
(dp5057
g74
(dp5058
g101
g102
ssg83
g5047
sg76
(lp5059
S':'
asbag69
(g90
g71
NtRp5060
(dp5061
g74
(dp5062
sg83
g5047
sg76
(lp5063
g69
(g70
g71
NtRp5064
(dp5065
g74
(dp5066
g82
I5
ssg83
g5060
sg76
(lp5067
S"<open file 'D:\\web2py\\source\\web2py\\applications\\web2py_xlchart_dashboard\\sessions\\127.0.0.1-44a3aeb7-c008-49d5-9b24-ee4003137a90', mode 'rb+' at 0x01CB9B20>"
p5068
asbasbasbag69
(g85
g71
NtRp5069
(dp5070
g74
(dp5071
sg83
g3690
sg76
(lp5072
g69
(g90
g71
NtRp5073
(dp5074
g74
(dp5075
g94
g95
ssg83
g5069
sg76
(lp5076
S'session_filename'
p5077
asbag69
(g90
g71
NtRp5078
(dp5079
g74
(dp5080
g101
g102
ssg83
g5069
sg76
(lp5081
S':'
asbag69
(g90
g71
NtRp5082
(dp5083
g74
(dp5084
sg83
g5069
sg76
(lp5085
g69
(g70
g71
NtRp5086
(dp5087
g74
(dp5088
g82
I5
ssg83
g5082
sg76
(lp5089
S'D:\\web2py\\source\\web2py\\applications\\web2py_xlchart_dashboard\\sessions\\127.0.0.1-44a3aeb7-c008-49d5-9b24-ee4003137a90'
p5090
asbasbasbag69
(g85
g71
NtRp5091
(dp5092
g74
(dp5093
sg83
g3690
sg76
(lp5094
g69
(g90
g71
NtRp5095
(dp5096
g74
(dp5097
g94
g95
ssg83
g5091
sg76
(lp5098
S'session_id'
p5099
asbag69
(g90
g71
NtRp5100
(dp5101
g74
(dp5102
g101
g102
ssg83
g5091
sg76
(lp5103
S':'
asbag69
(g90
g71
NtRp5104
(dp5105
g74
(dp5106
sg83
g5091
sg76
(lp5107
g69
(g70
g71
NtRp5108
(dp5109
g74
(dp5110
g82
I5
ssg83
g5104
sg76
(lp5111
g487
asbasbasbag69
(g85
g71
NtRp5112
(dp5113
g74
(dp5114
sg83
g3690
sg76
(lp5115
g69
(g90
g71
NtRp5116
(dp5117
g74
(dp5118
g94
g95
ssg83
g5112
sg76
(lp5119
S'session_id_name'
p5120
asbag69
(g90
g71
NtRp5121
(dp5122
g74
(dp5123
g101
g102
ssg83
g5112
sg76
(lp5124
S':'
asbag69
(g90
g71
NtRp5125
(dp5126
g74
(dp5127
sg83
g5112
sg76
(lp5128
g69
(g70
g71
NtRp5129
(dp5130
g74
(dp5131
g82
I5
ssg83
g5125
sg76
(lp5132
g3747
asbasbasbag69
(g85
g71
NtRp5133
(dp5134
g74
(dp5135
sg83
g3690
sg76
(lp5136
g69
(g90
g71
NtRp5137
(dp5138
g74
(dp5139
g94
g95
ssg83
g5133
sg76
(lp5140
S'session_locked'
p5141
asbag69
(g90
g71
NtRp5142
(dp5143
g74
(dp5144
g101
g102
ssg83
g5133
sg76
(lp5145
S':'
asbag69
(g90
g71
NtRp5146
(dp5147
g74
(dp5148
sg83
g5133
sg76
(lp5149
g69
(g70
g71
NtRp5150
(dp5151
g74
(dp5152
g82
I5
ssg83
g5146
sg76
(lp5153
g1618
asbasbasbag69
(g85
g71
NtRp5154
(dp5155
g74
(dp5156
sg83
g3690
sg76
(lp5157
g69
(g90
g71
NtRp5158
(dp5159
g74
(dp5160
g94
g95
ssg83
g5154
sg76
(lp5161
S'session_new'
p5162
asbag69
(g90
g71
NtRp5163
(dp5164
g74
(dp5165
g101
g102
ssg83
g5154
sg76
(lp5166
S':'
asbag69
(g90
g71
NtRp5167
(dp5168
g74
(dp5169
sg83
g5154
sg76
(lp5170
g69
(g70
g71
NtRp5171
(dp5172
g74
(dp5173
g82
I5
ssg83
g5167
sg76
(lp5174
g112
asbasbasbag69
(g85
g71
NtRp5175
(dp5176
g74
(dp5177
sg83
g3690
sg76
(lp5178
g69
(g90
g71
NtRp5179
(dp5180
g74
(dp5181
g94
g95
ssg83
g5175
sg76
(lp5182
S'session_storage_type'
p5183
asbag69
(g90
g71
NtRp5184
(dp5185
g74
(dp5186
g101
g102
ssg83
g5175
sg76
(lp5187
S':'
asbag69
(g90
g71
NtRp5188
(dp5189
g74
(dp5190
sg83
g5175
sg76
(lp5191
g69
(g70
g71
NtRp5192
(dp5193
g74
(dp5194
g82
I5
ssg83
g5188
sg76
(lp5195
g3111
asbasbasbag69
(g85
g71
NtRp5196
(dp5197
g74
(dp5198
sg83
g3690
sg76
(lp5199
g69
(g90
g71
NtRp5200
(dp5201
g74
(dp5202
g94
g95
ssg83
g5196
sg76
(lp5203
S'status'
p5204
asbag69
(g90
g71
NtRp5205
(dp5206
g74
(dp5207
g101
g102
ssg83
g5196
sg76
(lp5208
S':'
asbag69
(g90
g71
NtRp5209
(dp5210
g74
(dp5211
sg83
g5196
sg76
(lp5212
g69
(g70
g71
NtRp5213
(dp5214
g74
(dp5215
g82
I5
ssg83
g5209
sg76
(lp5216
S'200'
p5217
asbasbasbag69
(g85
g71
NtRp5218
(dp5219
g74
(dp5220
sg83
g3690
sg76
(lp5221
g69
(g90
g71
NtRp5222
(dp5223
g74
(dp5224
g94
g95
ssg83
g5218
sg76
(lp5225
S'subtitle'
p5226
asbag69
(g90
g71
NtRp5227
(dp5228
g74
(dp5229
g101
g102
ssg83
g5218
sg76
(lp5230
S':'
asbag69
(g90
g71
NtRp5231
(dp5232
g74
(dp5233
sg83
g5218
sg76
(lp5234
g69
(g70
g71
NtRp5235
(dp5236
g74
(dp5237
g82
I5
ssg83
g5231
sg76
(lp5238
g4180
(S's\r\x00\x00\x00customize me!'
tRp5239
asbasbasbag69
(g85
g71
NtRp5240
(dp5241
g74
(dp5242
sg83
g3690
sg76
(lp5243
g69
(g90
g71
NtRp5244
(dp5245
g74
(dp5246
g94
g95
ssg83
g5240
sg76
(lp5247
S'title'
p5248
asbag69
(g90
g71
NtRp5249
(dp5250
g74
(dp5251
g101
g102
ssg83
g5240
sg76
(lp5252
S':'
asbag69
(g90
g71
NtRp5253
(dp5254
g74
(dp5255
sg83
g5240
sg76
(lp5256
g69
(g70
g71
NtRp5257
(dp5258
g74
(dp5259
g82
I5
ssg83
g5253
sg76
(lp5260
S'Web2py Xlchart Dashboard'
p5261
asbasbasbag69
(g85
g71
NtRp5262
(dp5263
g74
(dp5264
sg83
g3690
sg76
(lp5265
g69
(g90
g71
NtRp5266
(dp5267
g74
(dp5268
g94
g95
ssg83
g5262
sg76
(lp5269
S'view'
p5270
asbag69
(g90
g71
NtRp5271
(dp5272
g74
(dp5273
g101
g102
ssg83
g5262
sg76
(lp5274
S':'
asbag69
(g90
g71
NtRp5275
(dp5276
g74
(dp5277
sg83
g5262
sg76
(lp5278
g69
(g70
g71
NtRp5279
(dp5280
g74
(dp5281
g82
I5
ssg83
g5275
sg76
(lp5282
S'default/list_workbook_charts.html'
p5283
asbasbasbasbasbsS'locals'
p5284
(dp5285
S'Origin'
p5286
S'<PyOleMissing object>'
p5287
sS'Password'
p5288
S'<PyOleMissing object>'
p5289
sS'IgnoreReadOnlyRecommended'
p5290
S'<PyOleMissing object>'
p5291
sS'Converter'
p5292
S'<PyOleMissing object>'
p5293
sS'Format'
p5294
S'<PyOleMissing object>'
p5295
sS'AddToMru'
p5296
S'<PyOleMissing object>'
p5297
sS'self'
p5298
S'<COMObject <unknown>>'
p5299
sS'Editable'
p5300
S'<PyOleMissing object>'
p5301
sS'WriteResPassword'
p5302
S'<PyOleMissing object>'
p5303
sS'UpdateLinks'
p5304
S'<PyOleMissing object>'
p5305
sS'CorruptLoad'
p5306
S'<PyOleMissing object>'
p5307
sS'ReadOnly'
p5308
S'<PyOleMissing object>'
p5309
sS'Notify'
p5310
S'<PyOleMissing object>'
p5311
sS'Delimiter'
p5312
S'<PyOleMissing object>'
p5313
sS'Filename'
p5314
S"r'\\\\maawtns02\\discipline\\procurement\\MATERIEL\\Raw ...\\Data Management HUD\\InformationAssuranceHUD.xlsm'"
p5315
sS'Local'
p5316
S'<PyOleMissing object>'
p5317
sssS'traceback'
p5318
S'Traceback (most recent call last):\n  File "D:\\web2py\\source\\web2py\\gluon\\restricted.py", line 212, in restricted\n    exec ccode in environment\n  File "D:\\web2py\\source\\web2py\\applications\\web2py_xlchart_dashboard\\controllers/default.py", line 132, in <module>\n  File "D:\\web2py\\source\\web2py\\gluon\\globals.py", line 188, in <lambda>\n    self._caller = lambda f: f()\n  File "D:\\web2py\\source\\web2py\\applications\\web2py_xlchart_dashboard\\controllers/default.py", line 42, in list_workbook_charts\n    ChartDetails = get_chart(wbPath)\n  File "D:\\web2py\\source\\web2py\\applications\\web2py_xlchart_dashboard\\controllers/default.py", line 71, in get_chart\n    ChartDetailList = ChartObj.start_export()\n  File "applications\\web2py_xlchart_dashboard\\modules\\pyxlchart.py", line 36, in start_export\n    self._export()\n  File "applications\\web2py_xlchart_dashboard\\modules\\pyxlchart.py", line 45, in _export\n    wb = excel.Workbooks.Open(os.path.join(self.WorkbookDirectory ,self.WorkbookFilename))\n  File "<COMObject <unknown>>", line 8, in Open\ncom_error: (-2147352567, \'Exception occurred.\', (0, u\'Microsoft Excel\', u"Microsoft Excel cannot access the file \'\\\\\\\\maawtns02\\\\discipline\\\\procurement\\\\MATERIEL\\\\Raw Material\\\\Data Management\\\\Data Management HUD\\\\InformationAssuranceHUD.xlsm\'. There are several possible reasons:\\n\\n\\u2022 The file name or path does not exist.\\n\\u2022 The file is being used by another program.\\n\\u2022 The workbook you are trying to save has the same name as a currently open workbook.", u\'xlmain11.chm\', 0, -2146827284), None)\n'
p5319
s.