(dp1
S'output'
p2
S"<type 'exceptions.SyntaxError'> Field is_user does not belong to the table"
p3
sS'layer'
p4
S'D:\\web2py\\source\\web2py\\applications\\web2py_xlchart_dashboard\\controllers/charts.py'
p5
sS'code'
p6
S'# coding: utf8\n# try something like\ndef index(): \n    return dict(message="hello from charts.py")\n    \ndef user_charts():\n    mycharts = db(db.user_chart.id_user == auth.user_id).select()\n    allcharts = db(db.chart).select()\n    return dict(mycharts = mycharts,allcharts = allcharts)\n\ndef subscribe_form():\n    \n    form = SQLFORM(db.user_chart,fields=[\'title\',\'description\'],hidden=dict(id_chart=request.vars[\'id_chart\'][0]))\n    form.vars.id_chart = request.vars[\'id_chart\'][1]\n    form.vars.is_user = auth.user_id\n    if form.process().accepted:\n        response.flash = \'form accepted\'\n    elif form.errors:\n        response.flash = \'form has errors\'\n    else:\n        response.flash = \'please fill out the form\'\n    return form\n\ndef subscribe():\n    pass\n    \ndef download():\n    return response.download(request, db)\n\nresponse._vars=response._caller(subscribe_form)\n'
p7
sS'snapshot'
p8
(dp9
S'exception'
p10
(dp11
S'__getslice__'
p12
S"<method-wrapper '__getslice__' of exceptions.SyntaxError object>"
p13
sS'text'
p14
S'None'
p15
sS'__str__'
p16
S"<method-wrapper '__str__' of exceptions.SyntaxError object>"
p17
sS'__reduce__'
p18
S'<built-in method __reduce__ of exceptions.SyntaxError object>'
p19
sS'__dict__'
p20
S'{}'
p21
sS'__sizeof__'
p22
S'<built-in method __sizeof__ of exceptions.SyntaxError object>'
p23
sS'__init__'
p24
S"<method-wrapper '__init__' of exceptions.SyntaxError object>"
p25
sS'__setattr__'
p26
S"<method-wrapper '__setattr__' of exceptions.SyntaxError object>"
p27
sS'__reduce_ex__'
p28
S'<built-in method __reduce_ex__ of exceptions.SyntaxError object>'
p29
sS'__new__'
p30
S'<built-in method __new__ of type object>'
p31
sS'__format__'
p32
S'<built-in method __format__ of exceptions.SyntaxError object>'
p33
sS'__class__'
p34
S"<type 'exceptions.SyntaxError'>"
p35
sS'filename'
p36
S'None'
p37
sS'lineno'
p38
S'None'
p39
sS'msg'
p40
S"'Field is_user does not belong to the table'"
p41
sS'__doc__'
p42
S"'Invalid syntax.'"
p43
sS'__getitem__'
p44
S"<method-wrapper '__getitem__' of exceptions.SyntaxError object>"
p45
sS'__setstate__'
p46
S'<built-in method __setstate__ of exceptions.SyntaxError object>'
p47
sS'__getattribute__'
p48
S"<method-wrapper '__getattribute__' of exceptions.SyntaxError object>"
p49
sS'print_file_and_line'
p50
S'None'
p51
sS'args'
p52
S"('Field is_user does not belong to the table',)"
p53
sS'__subclasshook__'
p54
S'<built-in method __subclasshook__ of type object>'
p55
sS'offset'
p56
S'None'
p57
sS'__unicode__'
p58
S'<built-in method __unicode__ of exceptions.SyntaxError object>'
p59
sS'__delattr__'
p60
S"<method-wrapper '__delattr__' of exceptions.SyntaxError object>"
p61
sS'__repr__'
p62
S"<method-wrapper '__repr__' of exceptions.SyntaxError object>"
p63
sS'__hash__'
p64
S"<method-wrapper '__hash__' of exceptions.SyntaxError object>"
p65
ssS'evalue'
p66
S'Field is_user does not belong to the table'
p67
sS'request'
p68
ccopy_reg
_reconstructor
p69
(cgluon.html
BEAUTIFY
p70
c__builtin__
object
p71
NtRp72
(dp73
S'attributes'
p74
(dp75
sS'components'
p76
(lp77
g69
(cgluon.html
TABLE
p78
g71
NtRp79
(dp80
g74
(dp81
S'level'
p82
I5
ssS'parent'
p83
Nsg76
(lp84
g69
(cgluon.html
TR
p85
g71
NtRp86
(dp87
g74
(dp88
sg83
g79
sg76
(lp89
g69
(cgluon.html
TD
p90
g71
NtRp91
(dp92
g74
(dp93
S'_style'
p94
S'font-weight:bold;vertical-align:top'
p95
ssg83
g86
sg76
(lp96
S'ajax'
p97
asbag69
(g90
g71
NtRp98
(dp99
g74
(dp100
S'_valign'
p101
S'top'
p102
ssg83
g86
sg76
(lp103
S':'
asbag69
(g90
g71
NtRp104
(dp105
g74
(dp106
sg83
g86
sg76
(lp107
g69
(g70
g71
NtRp108
(dp109
g74
(dp110
g82
I5
ssg83
g104
sg76
(lp111
S'True'
p112
asbasbasbag69
(g85
g71
NtRp113
(dp114
g74
(dp115
sg83
g79
sg76
(lp116
g69
(g90
g71
NtRp117
(dp118
g74
(dp119
g94
g95
ssg83
g113
sg76
(lp120
S'application'
p121
asbag69
(g90
g71
NtRp122
(dp123
g74
(dp124
g101
g102
ssg83
g113
sg76
(lp125
S':'
asbag69
(g90
g71
NtRp126
(dp127
g74
(dp128
sg83
g113
sg76
(lp129
g69
(g70
g71
NtRp130
(dp131
g74
(dp132
g82
I5
ssg83
g126
sg76
(lp133
S'web2py_xlchart_dashboard'
p134
asbasbasbag69
(g85
g71
NtRp135
(dp136
g74
(dp137
sg83
g79
sg76
(lp138
g69
(g90
g71
NtRp139
(dp140
g74
(dp141
g94
g95
ssg83
g135
sg76
(lp142
g52
asbag69
(g90
g71
NtRp143
(dp144
g74
(dp145
g101
g102
ssg83
g135
sg76
(lp146
S':'
asbag69
(g90
g71
NtRp147
(dp148
g74
(dp149
sg83
g135
sg76
(lp150
g69
(g70
g71
NtRp151
(dp152
g74
(dp153
g82
I5
ssg83
g147
sg76
(lp154
g69
(g78
g71
NtRp155
(dp156
g74
(dp157
g82
I4
ssg83
Nsg76
(lp158
sbasbasbasbag69
(g85
g71
NtRp159
(dp160
g74
(dp161
sg83
g79
sg76
(lp162
g69
(g90
g71
NtRp163
(dp164
g74
(dp165
g94
g95
ssg83
g159
sg76
(lp166
S'body'
p167
asbag69
(g90
g71
NtRp168
(dp169
g74
(dp170
g101
g102
ssg83
g159
sg76
(lp171
S':'
asbag69
(g90
g71
NtRp172
(dp173
g74
(dp174
sg83
g159
sg76
(lp175
g69
(g70
g71
NtRp176
(dp177
g74
(dp178
g82
I5
ssg83
g172
sg76
(lp179
S"<open file '<fdopen>', mode 'w+b' at 0x04B90F40>"
p180
asbasbasbag69
(g85
g71
NtRp181
(dp182
g74
(dp183
sg83
g79
sg76
(lp184
g69
(g90
g71
NtRp185
(dp186
g74
(dp187
g94
g95
ssg83
g181
sg76
(lp188
S'cid'
p189
asbag69
(g90
g71
NtRp190
(dp191
g74
(dp192
g101
g102
ssg83
g181
sg76
(lp193
S':'
asbag69
(g90
g71
NtRp194
(dp195
g74
(dp196
sg83
g181
sg76
(lp197
g69
(g70
g71
NtRp198
(dp199
g74
(dp200
g82
I5
ssg83
g194
sg76
(lp201
S'pyxl1352146819_09'
p202
asbasbasbag69
(g85
g71
NtRp203
(dp204
g74
(dp205
sg83
g79
sg76
(lp206
g69
(g90
g71
NtRp207
(dp208
g74
(dp209
g94
g95
ssg83
g203
sg76
(lp210
S'client'
p211
asbag69
(g90
g71
NtRp212
(dp213
g74
(dp214
g101
g102
ssg83
g203
sg76
(lp215
S':'
asbag69
(g90
g71
NtRp216
(dp217
g74
(dp218
sg83
g203
sg76
(lp219
g69
(g70
g71
NtRp220
(dp221
g74
(dp222
g82
I5
ssg83
g216
sg76
(lp223
S'127.0.0.1'
p224
asbasbasbag69
(g85
g71
NtRp225
(dp226
g74
(dp227
sg83
g79
sg76
(lp228
g69
(g90
g71
NtRp229
(dp230
g74
(dp231
g94
g95
ssg83
g225
sg76
(lp232
S'controller'
p233
asbag69
(g90
g71
NtRp234
(dp235
g74
(dp236
g101
g102
ssg83
g225
sg76
(lp237
S':'
asbag69
(g90
g71
NtRp238
(dp239
g74
(dp240
sg83
g225
sg76
(lp241
g69
(g70
g71
NtRp242
(dp243
g74
(dp244
g82
I5
ssg83
g238
sg76
(lp245
S'charts'
p246
asbasbasbag69
(g85
g71
NtRp247
(dp248
g74
(dp249
sg83
g79
sg76
(lp250
g69
(g90
g71
NtRp251
(dp252
g74
(dp253
g94
g95
ssg83
g247
sg76
(lp254
S'cookies'
p255
asbag69
(g90
g71
NtRp256
(dp257
g74
(dp258
g101
g102
ssg83
g247
sg76
(lp259
S':'
asbag69
(g90
g71
NtRp260
(dp261
g74
(dp262
sg83
g247
sg76
(lp263
g69
(g70
g71
NtRp264
(dp265
g74
(dp266
g82
I5
ssg83
g260
sg76
(lp267
g69
(g78
g71
NtRp268
(dp269
g74
(dp270
g82
I4
ssg83
Nsg76
(lp271
g69
(g85
g71
NtRp272
(dp273
g74
(dp274
sg83
g268
sg76
(lp275
g69
(g90
g71
NtRp276
(dp277
g74
(dp278
g94
g95
ssg83
g272
sg76
(lp279
S'session_id_admin'
p280
asbag69
(g90
g71
NtRp281
(dp282
g74
(dp283
g101
g102
ssg83
g272
sg76
(lp284
S':'
asbag69
(g90
g71
NtRp285
(dp286
g74
(dp287
sg83
g272
sg76
(lp288
g69
(g70
g71
NtRp289
(dp290
g74
(dp291
g82
I4
ssg83
g285
sg76
(lp292
S'127.0.0.1-480fa34f-5c98-43dd-a208-33fad76d92d0'
p293
ag69
(g78
g71
NtRp294
(dp295
g74
(dp296
g82
I3
ssg83
Nsg76
(lp297
g69
(g85
g71
NtRp298
(dp299
g74
(dp300
sg83
g294
sg76
(lp301
g69
(g90
g71
NtRp302
(dp303
g74
(dp304
g94
g95
ssg83
g298
sg76
(lp305
S'comment'
p306
asbag69
(g90
g71
NtRp307
(dp308
g74
(dp309
g101
g102
ssg83
g298
sg76
(lp310
S':'
asbag69
(g90
g71
NtRp311
(dp312
g74
(dp313
sg83
g298
sg76
(lp314
g69
(g70
g71
NtRp315
(dp316
g74
(dp317
g82
I3
ssg83
g311
sg76
(lp318
S''
asbasbasbag69
(g85
g71
NtRp319
(dp320
g74
(dp321
sg83
g294
sg76
(lp322
g69
(g90
g71
NtRp323
(dp324
g74
(dp325
g94
g95
ssg83
g319
sg76
(lp326
S'domain'
p327
asbag69
(g90
g71
NtRp328
(dp329
g74
(dp330
g101
g102
ssg83
g319
sg76
(lp331
S':'
asbag69
(g90
g71
NtRp332
(dp333
g74
(dp334
sg83
g319
sg76
(lp335
g69
(g70
g71
NtRp336
(dp337
g74
(dp338
g82
I3
ssg83
g332
sg76
(lp339
S''
asbasbasbag69
(g85
g71
NtRp340
(dp341
g74
(dp342
sg83
g294
sg76
(lp343
g69
(g90
g71
NtRp344
(dp345
g74
(dp346
g94
g95
ssg83
g340
sg76
(lp347
S'expires'
p348
asbag69
(g90
g71
NtRp349
(dp350
g74
(dp351
g101
g102
ssg83
g340
sg76
(lp352
S':'
asbag69
(g90
g71
NtRp353
(dp354
g74
(dp355
sg83
g340
sg76
(lp356
g69
(g70
g71
NtRp357
(dp358
g74
(dp359
g82
I3
ssg83
g353
sg76
(lp360
S''
asbasbasbag69
(g85
g71
NtRp361
(dp362
g74
(dp363
sg83
g294
sg76
(lp364
g69
(g90
g71
NtRp365
(dp366
g74
(dp367
g94
g95
ssg83
g361
sg76
(lp368
S'httponly'
p369
asbag69
(g90
g71
NtRp370
(dp371
g74
(dp372
g101
g102
ssg83
g361
sg76
(lp373
S':'
asbag69
(g90
g71
NtRp374
(dp375
g74
(dp376
sg83
g361
sg76
(lp377
g69
(g70
g71
NtRp378
(dp379
g74
(dp380
g82
I3
ssg83
g374
sg76
(lp381
S''
asbasbasbag69
(g85
g71
NtRp382
(dp383
g74
(dp384
sg83
g294
sg76
(lp385
g69
(g90
g71
NtRp386
(dp387
g74
(dp388
g94
g95
ssg83
g382
sg76
(lp389
S'max-age'
p390
asbag69
(g90
g71
NtRp391
(dp392
g74
(dp393
g101
g102
ssg83
g382
sg76
(lp394
S':'
asbag69
(g90
g71
NtRp395
(dp396
g74
(dp397
sg83
g382
sg76
(lp398
g69
(g70
g71
NtRp399
(dp400
g74
(dp401
g82
I3
ssg83
g395
sg76
(lp402
S''
asbasbasbag69
(g85
g71
NtRp403
(dp404
g74
(dp405
sg83
g294
sg76
(lp406
g69
(g90
g71
NtRp407
(dp408
g74
(dp409
g94
g95
ssg83
g403
sg76
(lp410
S'path'
p411
asbag69
(g90
g71
NtRp412
(dp413
g74
(dp414
g101
g102
ssg83
g403
sg76
(lp415
S':'
asbag69
(g90
g71
NtRp416
(dp417
g74
(dp418
sg83
g403
sg76
(lp419
g69
(g70
g71
NtRp420
(dp421
g74
(dp422
g82
I3
ssg83
g416
sg76
(lp423
S''
asbasbasbag69
(g85
g71
NtRp424
(dp425
g74
(dp426
sg83
g294
sg76
(lp427
g69
(g90
g71
NtRp428
(dp429
g74
(dp430
g94
g95
ssg83
g424
sg76
(lp431
S'secure'
p432
asbag69
(g90
g71
NtRp433
(dp434
g74
(dp435
g101
g102
ssg83
g424
sg76
(lp436
S':'
asbag69
(g90
g71
NtRp437
(dp438
g74
(dp439
sg83
g424
sg76
(lp440
g69
(g70
g71
NtRp441
(dp442
g74
(dp443
g82
I3
ssg83
g437
sg76
(lp444
S''
asbasbasbag69
(g85
g71
NtRp445
(dp446
g74
(dp447
sg83
g294
sg76
(lp448
g69
(g90
g71
NtRp449
(dp450
g74
(dp451
g94
g95
ssg83
g445
sg76
(lp452
S'version'
p453
asbag69
(g90
g71
NtRp454
(dp455
g74
(dp456
g101
g102
ssg83
g445
sg76
(lp457
S':'
asbag69
(g90
g71
NtRp458
(dp459
g74
(dp460
sg83
g445
sg76
(lp461
g69
(g70
g71
NtRp462
(dp463
g74
(dp464
g82
I3
ssg83
g458
sg76
(lp465
S''
asbasbasbasbasbasbasbag69
(g85
g71
NtRp466
(dp467
g74
(dp468
sg83
g268
sg76
(lp469
g69
(g90
g71
NtRp470
(dp471
g74
(dp472
g94
g95
ssg83
g466
sg76
(lp473
S'session_id_web2py_xlchart_dashboard'
p474
asbag69
(g90
g71
NtRp475
(dp476
g74
(dp477
g101
g102
ssg83
g466
sg76
(lp478
S':'
asbag69
(g90
g71
NtRp479
(dp480
g74
(dp481
sg83
g466
sg76
(lp482
g69
(g70
g71
NtRp483
(dp484
g74
(dp485
g82
I4
ssg83
g479
sg76
(lp486
S'127.0.0.1-c53b418b-4944-4d07-915c-a998b8630125'
p487
ag69
(g78
g71
NtRp488
(dp489
g74
(dp490
g82
I3
ssg83
Nsg76
(lp491
g69
(g85
g71
NtRp492
(dp493
g74
(dp494
sg83
g488
sg76
(lp495
g69
(g90
g71
NtRp496
(dp497
g74
(dp498
g94
g95
ssg83
g492
sg76
(lp499
g306
asbag69
(g90
g71
NtRp500
(dp501
g74
(dp502
g101
g102
ssg83
g492
sg76
(lp503
S':'
asbag69
(g90
g71
NtRp504
(dp505
g74
(dp506
sg83
g492
sg76
(lp507
g69
(g70
g71
NtRp508
(dp509
g74
(dp510
g82
I3
ssg83
g504
sg76
(lp511
S''
asbasbasbag69
(g85
g71
NtRp512
(dp513
g74
(dp514
sg83
g488
sg76
(lp515
g69
(g90
g71
NtRp516
(dp517
g74
(dp518
g94
g95
ssg83
g512
sg76
(lp519
g327
asbag69
(g90
g71
NtRp520
(dp521
g74
(dp522
g101
g102
ssg83
g512
sg76
(lp523
S':'
asbag69
(g90
g71
NtRp524
(dp525
g74
(dp526
sg83
g512
sg76
(lp527
g69
(g70
g71
NtRp528
(dp529
g74
(dp530
g82
I3
ssg83
g524
sg76
(lp531
S''
asbasbasbag69
(g85
g71
NtRp532
(dp533
g74
(dp534
sg83
g488
sg76
(lp535
g69
(g90
g71
NtRp536
(dp537
g74
(dp538
g94
g95
ssg83
g532
sg76
(lp539
g348
asbag69
(g90
g71
NtRp540
(dp541
g74
(dp542
g101
g102
ssg83
g532
sg76
(lp543
S':'
asbag69
(g90
g71
NtRp544
(dp545
g74
(dp546
sg83
g532
sg76
(lp547
g69
(g70
g71
NtRp548
(dp549
g74
(dp550
g82
I3
ssg83
g544
sg76
(lp551
S''
asbasbasbag69
(g85
g71
NtRp552
(dp553
g74
(dp554
sg83
g488
sg76
(lp555
g69
(g90
g71
NtRp556
(dp557
g74
(dp558
g94
g95
ssg83
g552
sg76
(lp559
g369
asbag69
(g90
g71
NtRp560
(dp561
g74
(dp562
g101
g102
ssg83
g552
sg76
(lp563
S':'
asbag69
(g90
g71
NtRp564
(dp565
g74
(dp566
sg83
g552
sg76
(lp567
g69
(g70
g71
NtRp568
(dp569
g74
(dp570
g82
I3
ssg83
g564
sg76
(lp571
S''
asbasbasbag69
(g85
g71
NtRp572
(dp573
g74
(dp574
sg83
g488
sg76
(lp575
g69
(g90
g71
NtRp576
(dp577
g74
(dp578
g94
g95
ssg83
g572
sg76
(lp579
g390
asbag69
(g90
g71
NtRp580
(dp581
g74
(dp582
g101
g102
ssg83
g572
sg76
(lp583
S':'
asbag69
(g90
g71
NtRp584
(dp585
g74
(dp586
sg83
g572
sg76
(lp587
g69
(g70
g71
NtRp588
(dp589
g74
(dp590
g82
I3
ssg83
g584
sg76
(lp591
S''
asbasbasbag69
(g85
g71
NtRp592
(dp593
g74
(dp594
sg83
g488
sg76
(lp595
g69
(g90
g71
NtRp596
(dp597
g74
(dp598
g94
g95
ssg83
g592
sg76
(lp599
g411
asbag69
(g90
g71
NtRp600
(dp601
g74
(dp602
g101
g102
ssg83
g592
sg76
(lp603
S':'
asbag69
(g90
g71
NtRp604
(dp605
g74
(dp606
sg83
g592
sg76
(lp607
g69
(g70
g71
NtRp608
(dp609
g74
(dp610
g82
I3
ssg83
g604
sg76
(lp611
S''
asbasbasbag69
(g85
g71
NtRp612
(dp613
g74
(dp614
sg83
g488
sg76
(lp615
g69
(g90
g71
NtRp616
(dp617
g74
(dp618
g94
g95
ssg83
g612
sg76
(lp619
g432
asbag69
(g90
g71
NtRp620
(dp621
g74
(dp622
g101
g102
ssg83
g612
sg76
(lp623
S':'
asbag69
(g90
g71
NtRp624
(dp625
g74
(dp626
sg83
g612
sg76
(lp627
g69
(g70
g71
NtRp628
(dp629
g74
(dp630
g82
I3
ssg83
g624
sg76
(lp631
S''
asbasbasbag69
(g85
g71
NtRp632
(dp633
g74
(dp634
sg83
g488
sg76
(lp635
g69
(g90
g71
NtRp636
(dp637
g74
(dp638
g94
g95
ssg83
g632
sg76
(lp639
g453
asbag69
(g90
g71
NtRp640
(dp641
g74
(dp642
g101
g102
ssg83
g632
sg76
(lp643
S':'
asbag69
(g90
g71
NtRp644
(dp645
g74
(dp646
sg83
g632
sg76
(lp647
g69
(g70
g71
NtRp648
(dp649
g74
(dp650
g82
I3
ssg83
g644
sg76
(lp651
S''
asbasbasbasbasbasbasbasbasbasbasbag69
(g85
g71
NtRp652
(dp653
g74
(dp654
sg83
g79
sg76
(lp655
g69
(g90
g71
NtRp656
(dp657
g74
(dp658
g94
g95
ssg83
g652
sg76
(lp659
S'env'
p660
asbag69
(g90
g71
NtRp661
(dp662
g74
(dp663
g101
g102
ssg83
g652
sg76
(lp664
S':'
asbag69
(g90
g71
NtRp665
(dp666
g74
(dp667
sg83
g652
sg76
(lp668
g69
(g70
g71
NtRp669
(dp670
g74
(dp671
g82
I5
ssg83
g665
sg76
(lp672
g69
(g78
g71
NtRp673
(dp674
g74
(dp675
g82
I4
ssg83
Nsg76
(lp676
g69
(g85
g71
NtRp677
(dp678
g74
(dp679
sg83
g673
sg76
(lp680
g69
(g90
g71
NtRp681
(dp682
g74
(dp683
g94
g95
ssg83
g677
sg76
(lp684
S'app_folders'
p685
asbag69
(g90
g71
NtRp686
(dp687
g74
(dp688
g101
g102
ssg83
g677
sg76
(lp689
S':'
asbag69
(g90
g71
NtRp690
(dp691
g74
(dp692
sg83
g677
sg76
(lp693
g69
(g70
g71
NtRp694
(dp695
g74
(dp696
g82
I4
ssg83
g690
sg76
(lp697
S"set(['D:\\\\web2py\\\\source\\\\web2py\\\\applications\\\\admin\\\\', 'D:\\\\web2py\\\\source\\\\web2py\\\\applications\\\\welcome\\\\', 'D:\\\\web2py\\\\source\\\\web2py\\\\applications\\\\web2py_xlchart_dashboard\\\\'])"
p698
asbasbasbag69
(g85
g71
NtRp699
(dp700
g74
(dp701
sg83
g673
sg76
(lp702
g69
(g90
g71
NtRp703
(dp704
g74
(dp705
g94
g95
ssg83
g699
sg76
(lp706
S'applications_parent'
p707
asbag69
(g90
g71
NtRp708
(dp709
g74
(dp710
g101
g102
ssg83
g699
sg76
(lp711
S':'
asbag69
(g90
g71
NtRp712
(dp713
g74
(dp714
sg83
g699
sg76
(lp715
g69
(g70
g71
NtRp716
(dp717
g74
(dp718
g82
I4
ssg83
g712
sg76
(lp719
S'D:\\web2py\\source\\web2py'
p720
asbasbasbag69
(g85
g71
NtRp721
(dp722
g74
(dp723
sg83
g673
sg76
(lp724
g69
(g90
g71
NtRp725
(dp726
g74
(dp727
g94
g95
ssg83
g721
sg76
(lp728
S'cmd_args'
p729
asbag69
(g90
g71
NtRp730
(dp731
g74
(dp732
g101
g102
ssg83
g721
sg76
(lp733
S':'
asbag69
(g90
g71
NtRp734
(dp735
g74
(dp736
sg83
g721
sg76
(lp737
g69
(g70
g71
NtRp738
(dp739
g74
(dp740
g82
I4
ssg83
g734
sg76
(lp741
g69
(g78
g71
NtRp742
(dp743
g74
(dp744
g82
I3
ssg83
Nsg76
(lp745
sbasbasbasbag69
(g85
g71
NtRp746
(dp747
g74
(dp748
sg83
g673
sg76
(lp749
g69
(g90
g71
NtRp750
(dp751
g74
(dp752
g94
g95
ssg83
g746
sg76
(lp753
S'cmd_options'
p754
asbag69
(g90
g71
NtRp755
(dp756
g74
(dp757
g101
g102
ssg83
g746
sg76
(lp758
S':'
asbag69
(g90
g71
NtRp759
(dp760
g74
(dp761
sg83
g746
sg76
(lp762
g69
(g70
g71
NtRp763
(dp764
g74
(dp765
g82
I4
ssg83
g759
sg76
(lp766
S"<Values at 0xc78f58: {'verbose': False, 'ip': '127.0.0.1', 'with_scheduler': False, 'ips': ['192.168.0.14'], 'shutdown_timeout': 5, 'taskbar': False, 'port': 8000, 'maxthreads': None, 'softcron': False, 'server_name': 'GLKLAG235327', 'bpython': False, 'nogui': False, 'pid_filename': 'httpserver.pid', 'extcron': False, 'runcron': False, 'run_system_tests': False, 'test': None, 'folder': 'D:\\\\web2py\\\\source\\\\web2py', 'config': '', 'import_models': False, 'winservice': '', 'shell': None, 'run': '', 'log_filename': 'httpserver.log', 'debuglevel': 30, 'args': [''], 'socket_timeout': 5, 'ssl_ca_certificate': None, 'scheduler': None, 'profiler_filename': None, 'ssl_private_key': '', 'scheduler_groups': None, 'password': '<ask>', 'request_queue_size': 5, 'ssl_certificate': '', 'cronjob': False, 'numthreads': None, 'quiet': False, 'interfaces': None, 'minthreads': None, 'timeout': 10, 'plain': False, 'nobanner': False}>"
p767
asbasbasbag69
(g85
g71
NtRp768
(dp769
g74
(dp770
sg83
g673
sg76
(lp771
g69
(g90
g71
NtRp772
(dp773
g74
(dp774
g94
g95
ssg83
g768
sg76
(lp775
S'content_length'
p776
asbag69
(g90
g71
NtRp777
(dp778
g74
(dp779
g101
g102
ssg83
g768
sg76
(lp780
S':'
asbag69
(g90
g71
NtRp781
(dp782
g74
(dp783
sg83
g768
sg76
(lp784
g69
(g70
g71
NtRp785
(dp786
g74
(dp787
g82
I4
ssg83
g781
sg76
(lp788
S'114'
p789
asbasbasbag69
(g85
g71
NtRp790
(dp791
g74
(dp792
sg83
g673
sg76
(lp793
g69
(g90
g71
NtRp794
(dp795
g74
(dp796
g94
g95
ssg83
g790
sg76
(lp797
S'content_type'
p798
asbag69
(g90
g71
NtRp799
(dp800
g74
(dp801
g101
g102
ssg83
g790
sg76
(lp802
S':'
asbag69
(g90
g71
NtRp803
(dp804
g74
(dp805
sg83
g790
sg76
(lp806
g69
(g70
g71
NtRp807
(dp808
g74
(dp809
g82
I4
ssg83
g803
sg76
(lp810
S'application/x-www-form-urlencoded; charset=UTF-8'
p811
asbasbasbag69
(g85
g71
NtRp812
(dp813
g74
(dp814
sg83
g673
sg76
(lp815
g69
(g90
g71
NtRp816
(dp817
g74
(dp818
g94
g95
ssg83
g812
sg76
(lp819
S'db_sessions'
p820
asbag69
(g90
g71
NtRp821
(dp822
g74
(dp823
g101
g102
ssg83
g812
sg76
(lp824
S':'
asbag69
(g90
g71
NtRp825
(dp826
g74
(dp827
sg83
g812
sg76
(lp828
g69
(g70
g71
NtRp829
(dp830
g74
(dp831
g82
I4
ssg83
g825
sg76
(lp832
S'set([])'
p833
asbasbasbag69
(g85
g71
NtRp834
(dp835
g74
(dp836
sg83
g673
sg76
(lp837
g69
(g90
g71
NtRp838
(dp839
g74
(dp840
g94
g95
ssg83
g834
sg76
(lp841
S'debugging'
p842
asbag69
(g90
g71
NtRp843
(dp844
g74
(dp845
g101
g102
ssg83
g834
sg76
(lp846
S':'
asbag69
(g90
g71
NtRp847
(dp848
g74
(dp849
sg83
g834
sg76
(lp850
g69
(g70
g71
NtRp851
(dp852
g74
(dp853
g82
I4
ssg83
g847
sg76
(lp854
S'False'
p855
asbasbasbag69
(g85
g71
NtRp856
(dp857
g74
(dp858
sg83
g673
sg76
(lp859
g69
(g90
g71
NtRp860
(dp861
g74
(dp862
g94
g95
ssg83
g856
sg76
(lp863
S'gluon_parent'
p864
asbag69
(g90
g71
NtRp865
(dp866
g74
(dp867
g101
g102
ssg83
g856
sg76
(lp868
S':'
asbag69
(g90
g71
NtRp869
(dp870
g74
(dp871
sg83
g856
sg76
(lp872
g69
(g70
g71
NtRp873
(dp874
g74
(dp875
g82
I4
ssg83
g869
sg76
(lp876
S'D:\\web2py\\source\\web2py'
p877
asbasbasbag69
(g85
g71
NtRp878
(dp879
g74
(dp880
sg83
g673
sg76
(lp881
g69
(g90
g71
NtRp882
(dp883
g74
(dp884
g94
g95
ssg83
g878
sg76
(lp885
S'http_accept'
p886
asbag69
(g90
g71
NtRp887
(dp888
g74
(dp889
g101
g102
ssg83
g878
sg76
(lp890
S':'
asbag69
(g90
g71
NtRp891
(dp892
g74
(dp893
sg83
g878
sg76
(lp894
g69
(g70
g71
NtRp895
(dp896
g74
(dp897
g82
I4
ssg83
g891
sg76
(lp898
S'*/*'
p899
asbasbasbag69
(g85
g71
NtRp900
(dp901
g74
(dp902
sg83
g673
sg76
(lp903
g69
(g90
g71
NtRp904
(dp905
g74
(dp906
g94
g95
ssg83
g900
sg76
(lp907
S'http_accept_charset'
p908
asbag69
(g90
g71
NtRp909
(dp910
g74
(dp911
g101
g102
ssg83
g900
sg76
(lp912
S':'
asbag69
(g90
g71
NtRp913
(dp914
g74
(dp915
sg83
g900
sg76
(lp916
g69
(g70
g71
NtRp917
(dp918
g74
(dp919
g82
I4
ssg83
g913
sg76
(lp920
S'ISO-8859-1,utf-8;q=0.7,*;q=0.3'
p921
asbasbasbag69
(g85
g71
NtRp922
(dp923
g74
(dp924
sg83
g673
sg76
(lp925
g69
(g90
g71
NtRp926
(dp927
g74
(dp928
g94
g95
ssg83
g922
sg76
(lp929
S'http_accept_encoding'
p930
asbag69
(g90
g71
NtRp931
(dp932
g74
(dp933
g101
g102
ssg83
g922
sg76
(lp934
S':'
asbag69
(g90
g71
NtRp935
(dp936
g74
(dp937
sg83
g922
sg76
(lp938
g69
(g70
g71
NtRp939
(dp940
g74
(dp941
g82
I4
ssg83
g935
sg76
(lp942
S'gzip,deflate,sdch'
p943
asbasbasbag69
(g85
g71
NtRp944
(dp945
g74
(dp946
sg83
g673
sg76
(lp947
g69
(g90
g71
NtRp948
(dp949
g74
(dp950
g94
g95
ssg83
g944
sg76
(lp951
S'http_accept_language'
p952
asbag69
(g90
g71
NtRp953
(dp954
g74
(dp955
g101
g102
ssg83
g944
sg76
(lp956
S':'
asbag69
(g90
g71
NtRp957
(dp958
g74
(dp959
sg83
g944
sg76
(lp960
g69
(g70
g71
NtRp961
(dp962
g74
(dp963
g82
I4
ssg83
g957
sg76
(lp964
S'en-US,en;q=0.8'
p965
asbasbasbag69
(g85
g71
NtRp966
(dp967
g74
(dp968
sg83
g673
sg76
(lp969
g69
(g90
g71
NtRp970
(dp971
g74
(dp972
g94
g95
ssg83
g966
sg76
(lp973
S'http_connection'
p974
asbag69
(g90
g71
NtRp975
(dp976
g74
(dp977
g101
g102
ssg83
g966
sg76
(lp978
S':'
asbag69
(g90
g71
NtRp979
(dp980
g74
(dp981
sg83
g966
sg76
(lp982
g69
(g70
g71
NtRp983
(dp984
g74
(dp985
g82
I4
ssg83
g979
sg76
(lp986
S'keep-alive'
p987
asbasbasbag69
(g85
g71
NtRp988
(dp989
g74
(dp990
sg83
g673
sg76
(lp991
g69
(g90
g71
NtRp992
(dp993
g74
(dp994
g94
g95
ssg83
g988
sg76
(lp995
S'http_content_length'
p996
asbag69
(g90
g71
NtRp997
(dp998
g74
(dp999
g101
g102
ssg83
g988
sg76
(lp1000
S':'
asbag69
(g90
g71
NtRp1001
(dp1002
g74
(dp1003
sg83
g988
sg76
(lp1004
g69
(g70
g71
NtRp1005
(dp1006
g74
(dp1007
g82
I4
ssg83
g1001
sg76
(lp1008
g789
asbasbasbag69
(g85
g71
NtRp1009
(dp1010
g74
(dp1011
sg83
g673
sg76
(lp1012
g69
(g90
g71
NtRp1013
(dp1014
g74
(dp1015
g94
g95
ssg83
g1009
sg76
(lp1016
S'http_content_type'
p1017
asbag69
(g90
g71
NtRp1018
(dp1019
g74
(dp1020
g101
g102
ssg83
g1009
sg76
(lp1021
S':'
asbag69
(g90
g71
NtRp1022
(dp1023
g74
(dp1024
sg83
g1009
sg76
(lp1025
g69
(g70
g71
NtRp1026
(dp1027
g74
(dp1028
g82
I4
ssg83
g1022
sg76
(lp1029
g811
asbasbasbag69
(g85
g71
NtRp1030
(dp1031
g74
(dp1032
sg83
g673
sg76
(lp1033
g69
(g90
g71
NtRp1034
(dp1035
g74
(dp1036
g94
g95
ssg83
g1030
sg76
(lp1037
S'http_cookie'
p1038
asbag69
(g90
g71
NtRp1039
(dp1040
g74
(dp1041
g101
g102
ssg83
g1030
sg76
(lp1042
S':'
asbag69
(g90
g71
NtRp1043
(dp1044
g74
(dp1045
sg83
g1030
sg76
(lp1046
g69
(g70
g71
NtRp1047
(dp1048
g74
(dp1049
g82
I4
ssg83
g1043
sg76
(lp1050
S'session_id_admin=127.0.0.1-480fa34f-5c98-43dd-a208-33fad76d92d0; session_id_web2py_xlchart_dashboard=127.0.0.1-c53b418b-4944-4d07-915c-a998b8630125'
p1051
asbasbasbag69
(g85
g71
NtRp1052
(dp1053
g74
(dp1054
sg83
g673
sg76
(lp1055
g69
(g90
g71
NtRp1056
(dp1057
g74
(dp1058
g94
g95
ssg83
g1052
sg76
(lp1059
S'http_host'
p1060
asbag69
(g90
g71
NtRp1061
(dp1062
g74
(dp1063
g101
g102
ssg83
g1052
sg76
(lp1064
S':'
asbag69
(g90
g71
NtRp1065
(dp1066
g74
(dp1067
sg83
g1052
sg76
(lp1068
g69
(g70
g71
NtRp1069
(dp1070
g74
(dp1071
g82
I4
ssg83
g1065
sg76
(lp1072
S'localhost:8000'
p1073
asbasbasbag69
(g85
g71
NtRp1074
(dp1075
g74
(dp1076
sg83
g673
sg76
(lp1077
g69
(g90
g71
NtRp1078
(dp1079
g74
(dp1080
g94
g95
ssg83
g1074
sg76
(lp1081
S'http_origin'
p1082
asbag69
(g90
g71
NtRp1083
(dp1084
g74
(dp1085
g101
g102
ssg83
g1074
sg76
(lp1086
S':'
asbag69
(g90
g71
NtRp1087
(dp1088
g74
(dp1089
sg83
g1074
sg76
(lp1090
g69
(g70
g71
NtRp1091
(dp1092
g74
(dp1093
g82
I4
ssg83
g1087
sg76
(lp1094
S'http://localhost:8000'
p1095
asbasbasbag69
(g85
g71
NtRp1096
(dp1097
g74
(dp1098
sg83
g673
sg76
(lp1099
g69
(g90
g71
NtRp1100
(dp1101
g74
(dp1102
g94
g95
ssg83
g1096
sg76
(lp1103
S'http_referer'
p1104
asbag69
(g90
g71
NtRp1105
(dp1106
g74
(dp1107
g101
g102
ssg83
g1096
sg76
(lp1108
S':'
asbag69
(g90
g71
NtRp1109
(dp1110
g74
(dp1111
sg83
g1096
sg76
(lp1112
g69
(g70
g71
NtRp1113
(dp1114
g74
(dp1115
g82
I4
ssg83
g1109
sg76
(lp1116
S'http://localhost:8000/web2py_xlchart_dashboard/charts/user_charts'
p1117
asbasbasbag69
(g85
g71
NtRp1118
(dp1119
g74
(dp1120
sg83
g673
sg76
(lp1121
g69
(g90
g71
NtRp1122
(dp1123
g74
(dp1124
g94
g95
ssg83
g1118
sg76
(lp1125
S'http_user_agent'
p1126
asbag69
(g90
g71
NtRp1127
(dp1128
g74
(dp1129
g101
g102
ssg83
g1118
sg76
(lp1130
S':'
asbag69
(g90
g71
NtRp1131
(dp1132
g74
(dp1133
sg83
g1118
sg76
(lp1134
g69
(g70
g71
NtRp1135
(dp1136
g74
(dp1137
g82
I4
ssg83
g1131
sg76
(lp1138
S'Mozilla/5.0 (Windows NT 5.1) AppleWebKit/537.4 (KHTML, like Gecko) Chrome/22.0.1229.94 Safari/537.4'
p1139
asbasbasbag69
(g85
g71
NtRp1140
(dp1141
g74
(dp1142
sg83
g673
sg76
(lp1143
g69
(g90
g71
NtRp1144
(dp1145
g74
(dp1146
g94
g95
ssg83
g1140
sg76
(lp1147
S'http_web2py_component_element'
p1148
asbag69
(g90
g71
NtRp1149
(dp1150
g74
(dp1151
g101
g102
ssg83
g1140
sg76
(lp1152
S':'
asbag69
(g90
g71
NtRp1153
(dp1154
g74
(dp1155
sg83
g1140
sg76
(lp1156
g69
(g70
g71
NtRp1157
(dp1158
g74
(dp1159
g82
I4
ssg83
g1153
sg76
(lp1160
g202
asbasbasbag69
(g85
g71
NtRp1161
(dp1162
g74
(dp1163
sg83
g673
sg76
(lp1164
g69
(g90
g71
NtRp1165
(dp1166
g74
(dp1167
g94
g95
ssg83
g1161
sg76
(lp1168
S'http_web2py_component_location'
p1169
asbag69
(g90
g71
NtRp1170
(dp1171
g74
(dp1172
g101
g102
ssg83
g1161
sg76
(lp1173
S':'
asbag69
(g90
g71
NtRp1174
(dp1175
g74
(dp1176
sg83
g1161
sg76
(lp1177
g69
(g70
g71
NtRp1178
(dp1179
g74
(dp1180
g82
I4
ssg83
g1174
sg76
(lp1181
S'http://localhost:8000/web2py_xlchart_dashboard/charts/user_charts'
p1182
asbasbasbag69
(g85
g71
NtRp1183
(dp1184
g74
(dp1185
sg83
g673
sg76
(lp1186
g69
(g90
g71
NtRp1187
(dp1188
g74
(dp1189
g94
g95
ssg83
g1183
sg76
(lp1190
S'http_x_requested_with'
p1191
asbag69
(g90
g71
NtRp1192
(dp1193
g74
(dp1194
g101
g102
ssg83
g1183
sg76
(lp1195
S':'
asbag69
(g90
g71
NtRp1196
(dp1197
g74
(dp1198
sg83
g1183
sg76
(lp1199
g69
(g70
g71
NtRp1200
(dp1201
g74
(dp1202
g82
I4
ssg83
g1196
sg76
(lp1203
S'XMLHttpRequest'
p1204
asbasbasbag69
(g85
g71
NtRp1205
(dp1206
g74
(dp1207
sg83
g673
sg76
(lp1208
g69
(g90
g71
NtRp1209
(dp1210
g74
(dp1211
g94
g95
ssg83
g1205
sg76
(lp1212
S'is_jython'
p1213
asbag69
(g90
g71
NtRp1214
(dp1215
g74
(dp1216
g101
g102
ssg83
g1205
sg76
(lp1217
S':'
asbag69
(g90
g71
NtRp1218
(dp1219
g74
(dp1220
sg83
g1205
sg76
(lp1221
g69
(g70
g71
NtRp1222
(dp1223
g74
(dp1224
g82
I4
ssg83
g1218
sg76
(lp1225
g855
asbasbasbag69
(g85
g71
NtRp1226
(dp1227
g74
(dp1228
sg83
g673
sg76
(lp1229
g69
(g90
g71
NtRp1230
(dp1231
g74
(dp1232
g94
g95
ssg83
g1226
sg76
(lp1233
S'is_pypy'
p1234
asbag69
(g90
g71
NtRp1235
(dp1236
g74
(dp1237
g101
g102
ssg83
g1226
sg76
(lp1238
S':'
asbag69
(g90
g71
NtRp1239
(dp1240
g74
(dp1241
sg83
g1226
sg76
(lp1242
g69
(g70
g71
NtRp1243
(dp1244
g74
(dp1245
g82
I4
ssg83
g1239
sg76
(lp1246
g855
asbasbasbag69
(g85
g71
NtRp1247
(dp1248
g74
(dp1249
sg83
g673
sg76
(lp1250
g69
(g90
g71
NtRp1251
(dp1252
g74
(dp1253
g94
g95
ssg83
g1247
sg76
(lp1254
S'local_hosts'
p1255
asbag69
(g90
g71
NtRp1256
(dp1257
g74
(dp1258
g101
g102
ssg83
g1247
sg76
(lp1259
S':'
asbag69
(g90
g71
NtRp1260
(dp1261
g74
(dp1262
sg83
g1247
sg76
(lp1263
g69
(g70
g71
NtRp1264
(dp1265
g74
(dp1266
g82
I4
ssg83
g1260
sg76
(lp1267
g69
(g78
g71
NtRp1268
(dp1269
g74
(dp1270
g82
I3
ssg83
Nsg76
(lp1271
g69
(g85
g71
NtRp1272
(dp1273
g74
(dp1274
sg83
g1268
sg76
(lp1275
g69
(g90
g71
NtRp1276
(dp1277
g74
(dp1278
sg83
g1272
sg76
(lp1279
g69
(g70
g71
NtRp1280
(dp1281
g74
(dp1282
g82
I3
ssg83
g1276
sg76
(lp1283
S'127.0.0.1'
p1284
asbasbasbag69
(g85
g71
NtRp1285
(dp1286
g74
(dp1287
sg83
g1268
sg76
(lp1288
g69
(g90
g71
NtRp1289
(dp1290
g74
(dp1291
sg83
g1285
sg76
(lp1292
g69
(g70
g71
NtRp1293
(dp1294
g74
(dp1295
g82
I3
ssg83
g1289
sg76
(lp1296
S'::ffff:127.0.0.1'
p1297
asbasbasbag69
(g85
g71
NtRp1298
(dp1299
g74
(dp1300
sg83
g1268
sg76
(lp1301
g69
(g90
g71
NtRp1302
(dp1303
g74
(dp1304
sg83
g1298
sg76
(lp1305
g69
(g70
g71
NtRp1306
(dp1307
g74
(dp1308
g82
I3
ssg83
g1302
sg76
(lp1309
S'GLKLAG235327'
p1310
asbasbasbag69
(g85
g71
NtRp1311
(dp1312
g74
(dp1313
sg83
g1268
sg76
(lp1314
g69
(g90
g71
NtRp1315
(dp1316
g74
(dp1317
sg83
g1311
sg76
(lp1318
g69
(g70
g71
NtRp1319
(dp1320
g74
(dp1321
g82
I3
ssg83
g1315
sg76
(lp1322
S'GLKLAG235327'
p1323
asbasbasbag69
(g85
g71
NtRp1324
(dp1325
g74
(dp1326
sg83
g1268
sg76
(lp1327
g69
(g90
g71
NtRp1328
(dp1329
g74
(dp1330
sg83
g1324
sg76
(lp1331
g69
(g70
g71
NtRp1332
(dp1333
g74
(dp1334
g82
I3
ssg83
g1328
sg76
(lp1335
S'192.168.0.14'
p1336
asbasbasbasbasbasbasbag69
(g85
g71
NtRp1337
(dp1338
g74
(dp1339
sg83
g673
sg76
(lp1340
g69
(g90
g71
NtRp1341
(dp1342
g74
(dp1343
g94
g95
ssg83
g1337
sg76
(lp1344
S'path_info'
p1345
asbag69
(g90
g71
NtRp1346
(dp1347
g74
(dp1348
g101
g102
ssg83
g1337
sg76
(lp1349
S':'
asbag69
(g90
g71
NtRp1350
(dp1351
g74
(dp1352
sg83
g1337
sg76
(lp1353
g69
(g70
g71
NtRp1354
(dp1355
g74
(dp1356
g82
I4
ssg83
g1350
sg76
(lp1357
S'/web2py_xlchart_dashboard/charts/subscribe_form'
p1358
asbasbasbag69
(g85
g71
NtRp1359
(dp1360
g74
(dp1361
sg83
g673
sg76
(lp1362
g69
(g90
g71
NtRp1363
(dp1364
g74
(dp1365
g94
g95
ssg83
g1359
sg76
(lp1366
S'query_string'
p1367
asbag69
(g90
g71
NtRp1368
(dp1369
g74
(dp1370
g101
g102
ssg83
g1359
sg76
(lp1371
S':'
asbag69
(g90
g71
NtRp1372
(dp1373
g74
(dp1374
sg83
g1359
sg76
(lp1375
g69
(g70
g71
NtRp1376
(dp1377
g74
(dp1378
g82
I4
ssg83
g1372
sg76
(lp1379
S'id_chart=12'
p1380
asbasbasbag69
(g85
g71
NtRp1381
(dp1382
g74
(dp1383
sg83
g673
sg76
(lp1384
g69
(g90
g71
NtRp1385
(dp1386
g74
(dp1387
g94
g95
ssg83
g1381
sg76
(lp1388
S'remote_addr'
p1389
asbag69
(g90
g71
NtRp1390
(dp1391
g74
(dp1392
g101
g102
ssg83
g1381
sg76
(lp1393
S':'
asbag69
(g90
g71
NtRp1394
(dp1395
g74
(dp1396
sg83
g1381
sg76
(lp1397
g69
(g70
g71
NtRp1398
(dp1399
g74
(dp1400
g82
I4
ssg83
g1394
sg76
(lp1401
g224
asbasbasbag69
(g85
g71
NtRp1402
(dp1403
g74
(dp1404
sg83
g673
sg76
(lp1405
g69
(g90
g71
NtRp1406
(dp1407
g74
(dp1408
g94
g95
ssg83
g1402
sg76
(lp1409
S'remote_port'
p1410
asbag69
(g90
g71
NtRp1411
(dp1412
g74
(dp1413
g101
g102
ssg83
g1402
sg76
(lp1414
S':'
asbag69
(g90
g71
NtRp1415
(dp1416
g74
(dp1417
sg83
g1402
sg76
(lp1418
g69
(g70
g71
NtRp1419
(dp1420
g74
(dp1421
g82
I4
ssg83
g1415
sg76
(lp1422
S'3894'
p1423
asbasbasbag69
(g85
g71
NtRp1424
(dp1425
g74
(dp1426
sg83
g673
sg76
(lp1427
g69
(g90
g71
NtRp1428
(dp1429
g74
(dp1430
g94
g95
ssg83
g1424
sg76
(lp1431
S'request_method'
p1432
asbag69
(g90
g71
NtRp1433
(dp1434
g74
(dp1435
g101
g102
ssg83
g1424
sg76
(lp1436
S':'
asbag69
(g90
g71
NtRp1437
(dp1438
g74
(dp1439
sg83
g1424
sg76
(lp1440
g69
(g70
g71
NtRp1441
(dp1442
g74
(dp1443
g82
I4
ssg83
g1437
sg76
(lp1444
S'POST'
p1445
asbasbasbag69
(g85
g71
NtRp1446
(dp1447
g74
(dp1448
sg83
g673
sg76
(lp1449
g69
(g90
g71
NtRp1450
(dp1451
g74
(dp1452
g94
g95
ssg83
g1446
sg76
(lp1453
S'request_uri'
p1454
asbag69
(g90
g71
NtRp1455
(dp1456
g74
(dp1457
g101
g102
ssg83
g1446
sg76
(lp1458
S':'
asbag69
(g90
g71
NtRp1459
(dp1460
g74
(dp1461
sg83
g1446
sg76
(lp1462
g69
(g70
g71
NtRp1463
(dp1464
g74
(dp1465
g82
I4
ssg83
g1459
sg76
(lp1466
S'/web2py_xlchart_dashboard/charts/subscribe_form?id_chart=12'
p1467
asbasbasbag69
(g85
g71
NtRp1468
(dp1469
g74
(dp1470
sg83
g673
sg76
(lp1471
g69
(g90
g71
NtRp1472
(dp1473
g74
(dp1474
g94
g95
ssg83
g1468
sg76
(lp1475
S'script_name'
p1476
asbag69
(g90
g71
NtRp1477
(dp1478
g74
(dp1479
g101
g102
ssg83
g1468
sg76
(lp1480
S':'
asbag69
(g90
g71
NtRp1481
(dp1482
g74
(dp1483
sg83
g1468
sg76
(lp1484
g69
(g70
g71
NtRp1485
(dp1486
g74
(dp1487
g82
I4
ssg83
g1481
sg76
(lp1488
S''
asbasbasbag69
(g85
g71
NtRp1489
(dp1490
g74
(dp1491
sg83
g673
sg76
(lp1492
g69
(g90
g71
NtRp1493
(dp1494
g74
(dp1495
g94
g95
ssg83
g1489
sg76
(lp1496
S'server_name'
p1497
asbag69
(g90
g71
NtRp1498
(dp1499
g74
(dp1500
g101
g102
ssg83
g1489
sg76
(lp1501
S':'
asbag69
(g90
g71
NtRp1502
(dp1503
g74
(dp1504
sg83
g1489
sg76
(lp1505
g69
(g70
g71
NtRp1506
(dp1507
g74
(dp1508
g82
I4
ssg83
g1502
sg76
(lp1509
g1323
asbasbasbag69
(g85
g71
NtRp1510
(dp1511
g74
(dp1512
sg83
g673
sg76
(lp1513
g69
(g90
g71
NtRp1514
(dp1515
g74
(dp1516
g94
g95
ssg83
g1510
sg76
(lp1517
S'server_port'
p1518
asbag69
(g90
g71
NtRp1519
(dp1520
g74
(dp1521
g101
g102
ssg83
g1510
sg76
(lp1522
S':'
asbag69
(g90
g71
NtRp1523
(dp1524
g74
(dp1525
sg83
g1510
sg76
(lp1526
g69
(g70
g71
NtRp1527
(dp1528
g74
(dp1529
g82
I4
ssg83
g1523
sg76
(lp1530
S'8000'
p1531
asbasbasbag69
(g85
g71
NtRp1532
(dp1533
g74
(dp1534
sg83
g673
sg76
(lp1535
g69
(g90
g71
NtRp1536
(dp1537
g74
(dp1538
g94
g95
ssg83
g1532
sg76
(lp1539
S'server_protocol'
p1540
asbag69
(g90
g71
NtRp1541
(dp1542
g74
(dp1543
g101
g102
ssg83
g1532
sg76
(lp1544
S':'
asbag69
(g90
g71
NtRp1545
(dp1546
g74
(dp1547
sg83
g1532
sg76
(lp1548
g69
(g70
g71
NtRp1549
(dp1550
g74
(dp1551
g82
I4
ssg83
g1545
sg76
(lp1552
S'HTTP/1.1'
p1553
asbasbasbag69
(g85
g71
NtRp1554
(dp1555
g74
(dp1556
sg83
g673
sg76
(lp1557
g69
(g90
g71
NtRp1558
(dp1559
g74
(dp1560
g94
g95
ssg83
g1554
sg76
(lp1561
S'server_software'
p1562
asbag69
(g90
g71
NtRp1563
(dp1564
g74
(dp1565
g101
g102
ssg83
g1554
sg76
(lp1566
S':'
asbag69
(g90
g71
NtRp1567
(dp1568
g74
(dp1569
sg83
g1554
sg76
(lp1570
g69
(g70
g71
NtRp1571
(dp1572
g74
(dp1573
g82
I4
ssg83
g1567
sg76
(lp1574
S'Rocket 1.2.5'
p1575
asbasbasbag69
(g85
g71
NtRp1576
(dp1577
g74
(dp1578
sg83
g673
sg76
(lp1579
g69
(g90
g71
NtRp1580
(dp1581
g74
(dp1582
g94
g95
ssg83
g1576
sg76
(lp1583
S'web2py_path'
p1584
asbag69
(g90
g71
NtRp1585
(dp1586
g74
(dp1587
g101
g102
ssg83
g1576
sg76
(lp1588
S':'
asbag69
(g90
g71
NtRp1589
(dp1590
g74
(dp1591
sg83
g1576
sg76
(lp1592
g69
(g70
g71
NtRp1593
(dp1594
g74
(dp1595
g82
I4
ssg83
g1589
sg76
(lp1596
g720
asbasbasbag69
(g85
g71
NtRp1597
(dp1598
g74
(dp1599
sg83
g673
sg76
(lp1600
g69
(g90
g71
NtRp1601
(dp1602
g74
(dp1603
g94
g95
ssg83
g1597
sg76
(lp1604
S'web2py_version'
p1605
asbag69
(g90
g71
NtRp1606
(dp1607
g74
(dp1608
g101
g102
ssg83
g1597
sg76
(lp1609
S':'
asbag69
(g90
g71
NtRp1610
(dp1611
g74
(dp1612
sg83
g1597
sg76
(lp1613
g69
(g70
g71
NtRp1614
(dp1615
g74
(dp1616
g82
I4
ssg83
g1610
sg76
(lp1617
g69
(g78
g71
NtRp1618
(dp1619
g74
(dp1620
g82
I3
ssg83
Nsg76
(lp1621
g69
(g85
g71
NtRp1622
(dp1623
g74
(dp1624
sg83
g1618
sg76
(lp1625
g69
(g90
g71
NtRp1626
(dp1627
g74
(dp1628
sg83
g1622
sg76
(lp1629
g69
(g70
g71
NtRp1630
(dp1631
g74
(dp1632
g82
I3
ssg83
g1626
sg76
(lp1633
S'2'
asbasbasbag69
(g85
g71
NtRp1634
(dp1635
g74
(dp1636
sg83
g1618
sg76
(lp1637
g69
(g90
g71
NtRp1638
(dp1639
g74
(dp1640
sg83
g1634
sg76
(lp1641
g69
(g70
g71
NtRp1642
(dp1643
g74
(dp1644
g82
I3
ssg83
g1638
sg76
(lp1645
S'2'
asbasbasbag69
(g85
g71
NtRp1646
(dp1647
g74
(dp1648
sg83
g1618
sg76
(lp1649
g69
(g90
g71
NtRp1650
(dp1651
g74
(dp1652
sg83
g1646
sg76
(lp1653
g69
(g70
g71
NtRp1654
(dp1655
g74
(dp1656
g82
I3
ssg83
g1650
sg76
(lp1657
S'1'
asbasbasbag69
(g85
g71
NtRp1658
(dp1659
g74
(dp1660
sg83
g1618
sg76
(lp1661
g69
(g90
g71
NtRp1662
(dp1663
g74
(dp1664
sg83
g1658
sg76
(lp1665
g69
(g70
g71
NtRp1666
(dp1667
g74
(dp1668
g82
I3
ssg83
g1662
sg76
(lp1669
S'datetime.datetime(2012, 10, 21, 16, 57, 4)'
p1670
asbasbasbag69
(g85
g71
NtRp1671
(dp1672
g74
(dp1673
sg83
g1618
sg76
(lp1674
g69
(g90
g71
NtRp1675
(dp1676
g74
(dp1677
sg83
g1671
sg76
(lp1678
g69
(g70
g71
NtRp1679
(dp1680
g74
(dp1681
g82
I3
ssg83
g1675
sg76
(lp1682
S'stable'
p1683
asbasbasbasbasbasbasbag69
(g85
g71
NtRp1684
(dp1685
g74
(dp1686
sg83
g673
sg76
(lp1687
g69
(g90
g71
NtRp1688
(dp1689
g74
(dp1690
g94
g95
ssg83
g1684
sg76
(lp1691
S'wsgi_errors'
p1692
asbag69
(g90
g71
NtRp1693
(dp1694
g74
(dp1695
g101
g102
ssg83
g1684
sg76
(lp1696
S':'
asbag69
(g90
g71
NtRp1697
(dp1698
g74
(dp1699
sg83
g1684
sg76
(lp1700
g69
(g70
g71
NtRp1701
(dp1702
g74
(dp1703
g82
I4
ssg83
g1697
sg76
(lp1704
S"<open file '<stderr>', mode 'w' at 0x00A850D0>"
p1705
asbasbasbag69
(g85
g71
NtRp1706
(dp1707
g74
(dp1708
sg83
g673
sg76
(lp1709
g69
(g90
g71
NtRp1710
(dp1711
g74
(dp1712
g94
g95
ssg83
g1706
sg76
(lp1713
S'wsgi_file_wrapper'
p1714
asbag69
(g90
g71
NtRp1715
(dp1716
g74
(dp1717
g101
g102
ssg83
g1706
sg76
(lp1718
S':'
asbag69
(g90
g71
NtRp1719
(dp1720
g74
(dp1721
sg83
g1706
sg76
(lp1722
g69
(g70
g71
NtRp1723
(dp1724
g74
(dp1725
g82
I4
ssg83
g1719
sg76
(lp1726
S'<class wsgiref.util.FileWrapper at 0x0172EE68>'
p1727
asbasbasbag69
(g85
g71
NtRp1728
(dp1729
g74
(dp1730
sg83
g673
sg76
(lp1731
g69
(g90
g71
NtRp1732
(dp1733
g74
(dp1734
g94
g95
ssg83
g1728
sg76
(lp1735
S'wsgi_input'
p1736
asbag69
(g90
g71
NtRp1737
(dp1738
g74
(dp1739
g101
g102
ssg83
g1728
sg76
(lp1740
S':'
asbag69
(g90
g71
NtRp1741
(dp1742
g74
(dp1743
sg83
g1728
sg76
(lp1744
g69
(g70
g71
NtRp1745
(dp1746
g74
(dp1747
g82
I4
ssg83
g1741
sg76
(lp1748
S'<socket._fileobject object at 0x05C21630>'
p1749
asbasbasbag69
(g85
g71
NtRp1750
(dp1751
g74
(dp1752
sg83
g673
sg76
(lp1753
g69
(g90
g71
NtRp1754
(dp1755
g74
(dp1756
g94
g95
ssg83
g1750
sg76
(lp1757
S'wsgi_multiprocess'
p1758
asbag69
(g90
g71
NtRp1759
(dp1760
g74
(dp1761
g101
g102
ssg83
g1750
sg76
(lp1762
S':'
asbag69
(g90
g71
NtRp1763
(dp1764
g74
(dp1765
sg83
g1750
sg76
(lp1766
g69
(g70
g71
NtRp1767
(dp1768
g74
(dp1769
g82
I4
ssg83
g1763
sg76
(lp1770
g855
asbasbasbag69
(g85
g71
NtRp1771
(dp1772
g74
(dp1773
sg83
g673
sg76
(lp1774
g69
(g90
g71
NtRp1775
(dp1776
g74
(dp1777
g94
g95
ssg83
g1771
sg76
(lp1778
S'wsgi_multithread'
p1779
asbag69
(g90
g71
NtRp1780
(dp1781
g74
(dp1782
g101
g102
ssg83
g1771
sg76
(lp1783
S':'
asbag69
(g90
g71
NtRp1784
(dp1785
g74
(dp1786
sg83
g1771
sg76
(lp1787
g69
(g70
g71
NtRp1788
(dp1789
g74
(dp1790
g82
I4
ssg83
g1784
sg76
(lp1791
g112
asbasbasbag69
(g85
g71
NtRp1792
(dp1793
g74
(dp1794
sg83
g673
sg76
(lp1795
g69
(g90
g71
NtRp1796
(dp1797
g74
(dp1798
g94
g95
ssg83
g1792
sg76
(lp1799
S'wsgi_run_once'
p1800
asbag69
(g90
g71
NtRp1801
(dp1802
g74
(dp1803
g101
g102
ssg83
g1792
sg76
(lp1804
S':'
asbag69
(g90
g71
NtRp1805
(dp1806
g74
(dp1807
sg83
g1792
sg76
(lp1808
g69
(g70
g71
NtRp1809
(dp1810
g74
(dp1811
g82
I4
ssg83
g1805
sg76
(lp1812
g855
asbasbasbag69
(g85
g71
NtRp1813
(dp1814
g74
(dp1815
sg83
g673
sg76
(lp1816
g69
(g90
g71
NtRp1817
(dp1818
g74
(dp1819
g94
g95
ssg83
g1813
sg76
(lp1820
S'wsgi_url_scheme'
p1821
asbag69
(g90
g71
NtRp1822
(dp1823
g74
(dp1824
g101
g102
ssg83
g1813
sg76
(lp1825
S':'
asbag69
(g90
g71
NtRp1826
(dp1827
g74
(dp1828
sg83
g1813
sg76
(lp1829
g69
(g70
g71
NtRp1830
(dp1831
g74
(dp1832
g82
I4
ssg83
g1826
sg76
(lp1833
S'http'
p1834
asbasbasbag69
(g85
g71
NtRp1835
(dp1836
g74
(dp1837
sg83
g673
sg76
(lp1838
g69
(g90
g71
NtRp1839
(dp1840
g74
(dp1841
g94
g95
ssg83
g1835
sg76
(lp1842
S'wsgi_version'
p1843
asbag69
(g90
g71
NtRp1844
(dp1845
g74
(dp1846
g101
g102
ssg83
g1835
sg76
(lp1847
S':'
asbag69
(g90
g71
NtRp1848
(dp1849
g74
(dp1850
sg83
g1835
sg76
(lp1851
g69
(g70
g71
NtRp1852
(dp1853
g74
(dp1854
g82
I4
ssg83
g1848
sg76
(lp1855
g69
(g78
g71
NtRp1856
(dp1857
g74
(dp1858
g82
I3
ssg83
Nsg76
(lp1859
g69
(g85
g71
NtRp1860
(dp1861
g74
(dp1862
sg83
g1856
sg76
(lp1863
g69
(g90
g71
NtRp1864
(dp1865
g74
(dp1866
sg83
g1860
sg76
(lp1867
g69
(g70
g71
NtRp1868
(dp1869
g74
(dp1870
g82
I3
ssg83
g1864
sg76
(lp1871
S'1'
asbasbasbag69
(g85
g71
NtRp1872
(dp1873
g74
(dp1874
sg83
g1856
sg76
(lp1875
g69
(g90
g71
NtRp1876
(dp1877
g74
(dp1878
sg83
g1872
sg76
(lp1879
g69
(g70
g71
NtRp1880
(dp1881
g74
(dp1882
g82
I3
ssg83
g1876
sg76
(lp1883
S'0'
asbasbasbasbasbasbasbasbasbasbasbag69
(g85
g71
NtRp1884
(dp1885
g74
(dp1886
sg83
g79
sg76
(lp1887
g69
(g90
g71
NtRp1888
(dp1889
g74
(dp1890
g94
g95
ssg83
g1884
sg76
(lp1891
S'extension'
p1892
asbag69
(g90
g71
NtRp1893
(dp1894
g74
(dp1895
g101
g102
ssg83
g1884
sg76
(lp1896
S':'
asbag69
(g90
g71
NtRp1897
(dp1898
g74
(dp1899
sg83
g1884
sg76
(lp1900
g69
(g70
g71
NtRp1901
(dp1902
g74
(dp1903
g82
I5
ssg83
g1897
sg76
(lp1904
S'html'
p1905
asbasbasbag69
(g85
g71
NtRp1906
(dp1907
g74
(dp1908
sg83
g79
sg76
(lp1909
g69
(g90
g71
NtRp1910
(dp1911
g74
(dp1912
g94
g95
ssg83
g1906
sg76
(lp1913
S'folder'
p1914
asbag69
(g90
g71
NtRp1915
(dp1916
g74
(dp1917
g101
g102
ssg83
g1906
sg76
(lp1918
S':'
asbag69
(g90
g71
NtRp1919
(dp1920
g74
(dp1921
sg83
g1906
sg76
(lp1922
g69
(g70
g71
NtRp1923
(dp1924
g74
(dp1925
g82
I5
ssg83
g1919
sg76
(lp1926
S'D:\\web2py\\source\\web2py\\applications\\web2py_xlchart_dashboard\\'
p1927
asbasbasbag69
(g85
g71
NtRp1928
(dp1929
g74
(dp1930
sg83
g79
sg76
(lp1931
g69
(g90
g71
NtRp1932
(dp1933
g74
(dp1934
g94
g95
ssg83
g1928
sg76
(lp1935
S'function'
p1936
asbag69
(g90
g71
NtRp1937
(dp1938
g74
(dp1939
g101
g102
ssg83
g1928
sg76
(lp1940
S':'
asbag69
(g90
g71
NtRp1941
(dp1942
g74
(dp1943
sg83
g1928
sg76
(lp1944
g69
(g70
g71
NtRp1945
(dp1946
g74
(dp1947
g82
I5
ssg83
g1941
sg76
(lp1948
S'subscribe_form'
p1949
asbasbasbag69
(g85
g71
NtRp1950
(dp1951
g74
(dp1952
sg83
g79
sg76
(lp1953
g69
(g90
g71
NtRp1954
(dp1955
g74
(dp1956
g94
g95
ssg83
g1950
sg76
(lp1957
S'get_vars'
p1958
asbag69
(g90
g71
NtRp1959
(dp1960
g74
(dp1961
g101
g102
ssg83
g1950
sg76
(lp1962
S':'
asbag69
(g90
g71
NtRp1963
(dp1964
g74
(dp1965
sg83
g1950
sg76
(lp1966
g69
(g70
g71
NtRp1967
(dp1968
g74
(dp1969
g82
I5
ssg83
g1963
sg76
(lp1970
g69
(g78
g71
NtRp1971
(dp1972
g74
(dp1973
g82
I4
ssg83
Nsg76
(lp1974
g69
(g85
g71
NtRp1975
(dp1976
g74
(dp1977
sg83
g1971
sg76
(lp1978
g69
(g90
g71
NtRp1979
(dp1980
g74
(dp1981
g94
g95
ssg83
g1975
sg76
(lp1982
S'id_chart'
p1983
asbag69
(g90
g71
NtRp1984
(dp1985
g74
(dp1986
g101
g102
ssg83
g1975
sg76
(lp1987
S':'
asbag69
(g90
g71
NtRp1988
(dp1989
g74
(dp1990
sg83
g1975
sg76
(lp1991
g69
(g70
g71
NtRp1992
(dp1993
g74
(dp1994
g82
I4
ssg83
g1988
sg76
(lp1995
S'12'
p1996
asbasbasbasbasbasbasbag69
(g85
g71
NtRp1997
(dp1998
g74
(dp1999
sg83
g79
sg76
(lp2000
g69
(g90
g71
NtRp2001
(dp2002
g74
(dp2003
g94
g95
ssg83
g1997
sg76
(lp2004
S'global_settings'
p2005
asbag69
(g90
g71
NtRp2006
(dp2007
g74
(dp2008
g101
g102
ssg83
g1997
sg76
(lp2009
S':'
asbag69
(g90
g71
NtRp2010
(dp2011
g74
(dp2012
sg83
g1997
sg76
(lp2013
g69
(g70
g71
NtRp2014
(dp2015
g74
(dp2016
g82
I5
ssg83
g2010
sg76
(lp2017
g69
(g78
g71
NtRp2018
(dp2019
g74
(dp2020
g82
I4
ssg83
Nsg76
(lp2021
g69
(g85
g71
NtRp2022
(dp2023
g74
(dp2024
sg83
g2018
sg76
(lp2025
g69
(g90
g71
NtRp2026
(dp2027
g74
(dp2028
g94
g95
ssg83
g2022
sg76
(lp2029
g685
asbag69
(g90
g71
NtRp2030
(dp2031
g74
(dp2032
g101
g102
ssg83
g2022
sg76
(lp2033
S':'
asbag69
(g90
g71
NtRp2034
(dp2035
g74
(dp2036
sg83
g2022
sg76
(lp2037
g69
(g70
g71
NtRp2038
(dp2039
g74
(dp2040
g82
I4
ssg83
g2034
sg76
(lp2041
S"set(['D:\\\\web2py\\\\source\\\\web2py\\\\applications\\\\admin\\\\', 'D:\\\\web2py\\\\source\\\\web2py\\\\applications\\\\welcome\\\\', 'D:\\\\web2py\\\\source\\\\web2py\\\\applications\\\\web2py_xlchart_dashboard\\\\'])"
p2042
asbasbasbag69
(g85
g71
NtRp2043
(dp2044
g74
(dp2045
sg83
g2018
sg76
(lp2046
g69
(g90
g71
NtRp2047
(dp2048
g74
(dp2049
g94
g95
ssg83
g2043
sg76
(lp2050
g707
asbag69
(g90
g71
NtRp2051
(dp2052
g74
(dp2053
g101
g102
ssg83
g2043
sg76
(lp2054
S':'
asbag69
(g90
g71
NtRp2055
(dp2056
g74
(dp2057
sg83
g2043
sg76
(lp2058
g69
(g70
g71
NtRp2059
(dp2060
g74
(dp2061
g82
I4
ssg83
g2055
sg76
(lp2062
g720
asbasbasbag69
(g85
g71
NtRp2063
(dp2064
g74
(dp2065
sg83
g2018
sg76
(lp2066
g69
(g90
g71
NtRp2067
(dp2068
g74
(dp2069
g94
g95
ssg83
g2063
sg76
(lp2070
g729
asbag69
(g90
g71
NtRp2071
(dp2072
g74
(dp2073
g101
g102
ssg83
g2063
sg76
(lp2074
S':'
asbag69
(g90
g71
NtRp2075
(dp2076
g74
(dp2077
sg83
g2063
sg76
(lp2078
g69
(g70
g71
NtRp2079
(dp2080
g74
(dp2081
g82
I4
ssg83
g2075
sg76
(lp2082
g69
(g78
g71
NtRp2083
(dp2084
g74
(dp2085
g82
I3
ssg83
Nsg76
(lp2086
sbasbasbasbag69
(g85
g71
NtRp2087
(dp2088
g74
(dp2089
sg83
g2018
sg76
(lp2090
g69
(g90
g71
NtRp2091
(dp2092
g74
(dp2093
g94
g95
ssg83
g2087
sg76
(lp2094
g754
asbag69
(g90
g71
NtRp2095
(dp2096
g74
(dp2097
g101
g102
ssg83
g2087
sg76
(lp2098
S':'
asbag69
(g90
g71
NtRp2099
(dp2100
g74
(dp2101
sg83
g2087
sg76
(lp2102
g69
(g70
g71
NtRp2103
(dp2104
g74
(dp2105
g82
I4
ssg83
g2099
sg76
(lp2106
S"<Values at 0xc78f58: {'verbose': False, 'ip': '127.0.0.1', 'with_scheduler': False, 'ips': ['192.168.0.14'], 'shutdown_timeout': 5, 'taskbar': False, 'port': 8000, 'maxthreads': None, 'softcron': False, 'server_name': 'GLKLAG235327', 'bpython': False, 'nogui': False, 'pid_filename': 'httpserver.pid', 'extcron': False, 'runcron': False, 'run_system_tests': False, 'test': None, 'folder': 'D:\\\\web2py\\\\source\\\\web2py', 'config': '', 'import_models': False, 'winservice': '', 'shell': None, 'run': '', 'log_filename': 'httpserver.log', 'debuglevel': 30, 'args': [''], 'socket_timeout': 5, 'ssl_ca_certificate': None, 'scheduler': None, 'profiler_filename': None, 'ssl_private_key': '', 'scheduler_groups': None, 'password': '<ask>', 'request_queue_size': 5, 'ssl_certificate': '', 'cronjob': False, 'numthreads': None, 'quiet': False, 'interfaces': None, 'minthreads': None, 'timeout': 10, 'plain': False, 'nobanner': False}>"
p2107
asbasbasbag69
(g85
g71
NtRp2108
(dp2109
g74
(dp2110
sg83
g2018
sg76
(lp2111
g69
(g90
g71
NtRp2112
(dp2113
g74
(dp2114
g94
g95
ssg83
g2108
sg76
(lp2115
g820
asbag69
(g90
g71
NtRp2116
(dp2117
g74
(dp2118
g101
g102
ssg83
g2108
sg76
(lp2119
S':'
asbag69
(g90
g71
NtRp2120
(dp2121
g74
(dp2122
sg83
g2108
sg76
(lp2123
g69
(g70
g71
NtRp2124
(dp2125
g74
(dp2126
g82
I4
ssg83
g2120
sg76
(lp2127
S'set([])'
p2128
asbasbasbag69
(g85
g71
NtRp2129
(dp2130
g74
(dp2131
sg83
g2018
sg76
(lp2132
g69
(g90
g71
NtRp2133
(dp2134
g74
(dp2135
g94
g95
ssg83
g2129
sg76
(lp2136
g842
asbag69
(g90
g71
NtRp2137
(dp2138
g74
(dp2139
g101
g102
ssg83
g2129
sg76
(lp2140
S':'
asbag69
(g90
g71
NtRp2141
(dp2142
g74
(dp2143
sg83
g2129
sg76
(lp2144
g69
(g70
g71
NtRp2145
(dp2146
g74
(dp2147
g82
I4
ssg83
g2141
sg76
(lp2148
g855
asbasbasbag69
(g85
g71
NtRp2149
(dp2150
g74
(dp2151
sg83
g2018
sg76
(lp2152
g69
(g90
g71
NtRp2153
(dp2154
g74
(dp2155
g94
g95
ssg83
g2149
sg76
(lp2156
g864
asbag69
(g90
g71
NtRp2157
(dp2158
g74
(dp2159
g101
g102
ssg83
g2149
sg76
(lp2160
S':'
asbag69
(g90
g71
NtRp2161
(dp2162
g74
(dp2163
sg83
g2149
sg76
(lp2164
g69
(g70
g71
NtRp2165
(dp2166
g74
(dp2167
g82
I4
ssg83
g2161
sg76
(lp2168
g877
asbasbasbag69
(g85
g71
NtRp2169
(dp2170
g74
(dp2171
sg83
g2018
sg76
(lp2172
g69
(g90
g71
NtRp2173
(dp2174
g74
(dp2175
g94
g95
ssg83
g2169
sg76
(lp2176
g1213
asbag69
(g90
g71
NtRp2177
(dp2178
g74
(dp2179
g101
g102
ssg83
g2169
sg76
(lp2180
S':'
asbag69
(g90
g71
NtRp2181
(dp2182
g74
(dp2183
sg83
g2169
sg76
(lp2184
g69
(g70
g71
NtRp2185
(dp2186
g74
(dp2187
g82
I4
ssg83
g2181
sg76
(lp2188
g855
asbasbasbag69
(g85
g71
NtRp2189
(dp2190
g74
(dp2191
sg83
g2018
sg76
(lp2192
g69
(g90
g71
NtRp2193
(dp2194
g74
(dp2195
g94
g95
ssg83
g2189
sg76
(lp2196
g1234
asbag69
(g90
g71
NtRp2197
(dp2198
g74
(dp2199
g101
g102
ssg83
g2189
sg76
(lp2200
S':'
asbag69
(g90
g71
NtRp2201
(dp2202
g74
(dp2203
sg83
g2189
sg76
(lp2204
g69
(g70
g71
NtRp2205
(dp2206
g74
(dp2207
g82
I4
ssg83
g2201
sg76
(lp2208
g855
asbasbasbag69
(g85
g71
NtRp2209
(dp2210
g74
(dp2211
sg83
g2018
sg76
(lp2212
g69
(g90
g71
NtRp2213
(dp2214
g74
(dp2215
g94
g95
ssg83
g2209
sg76
(lp2216
g1255
asbag69
(g90
g71
NtRp2217
(dp2218
g74
(dp2219
g101
g102
ssg83
g2209
sg76
(lp2220
S':'
asbag69
(g90
g71
NtRp2221
(dp2222
g74
(dp2223
sg83
g2209
sg76
(lp2224
g69
(g70
g71
NtRp2225
(dp2226
g74
(dp2227
g82
I4
ssg83
g2221
sg76
(lp2228
g69
(g78
g71
NtRp2229
(dp2230
g74
(dp2231
g82
I3
ssg83
Nsg76
(lp2232
g69
(g85
g71
NtRp2233
(dp2234
g74
(dp2235
sg83
g2229
sg76
(lp2236
g69
(g90
g71
NtRp2237
(dp2238
g74
(dp2239
sg83
g2233
sg76
(lp2240
g69
(g70
g71
NtRp2241
(dp2242
g74
(dp2243
g82
I3
ssg83
g2237
sg76
(lp2244
g1284
asbasbasbag69
(g85
g71
NtRp2245
(dp2246
g74
(dp2247
sg83
g2229
sg76
(lp2248
g69
(g90
g71
NtRp2249
(dp2250
g74
(dp2251
sg83
g2245
sg76
(lp2252
g69
(g70
g71
NtRp2253
(dp2254
g74
(dp2255
g82
I3
ssg83
g2249
sg76
(lp2256
g1297
asbasbasbag69
(g85
g71
NtRp2257
(dp2258
g74
(dp2259
sg83
g2229
sg76
(lp2260
g69
(g90
g71
NtRp2261
(dp2262
g74
(dp2263
sg83
g2257
sg76
(lp2264
g69
(g70
g71
NtRp2265
(dp2266
g74
(dp2267
g82
I3
ssg83
g2261
sg76
(lp2268
g1310
asbasbasbag69
(g85
g71
NtRp2269
(dp2270
g74
(dp2271
sg83
g2229
sg76
(lp2272
g69
(g90
g71
NtRp2273
(dp2274
g74
(dp2275
sg83
g2269
sg76
(lp2276
g69
(g70
g71
NtRp2277
(dp2278
g74
(dp2279
g82
I3
ssg83
g2273
sg76
(lp2280
g1323
asbasbasbag69
(g85
g71
NtRp2281
(dp2282
g74
(dp2283
sg83
g2229
sg76
(lp2284
g69
(g90
g71
NtRp2285
(dp2286
g74
(dp2287
sg83
g2281
sg76
(lp2288
g69
(g70
g71
NtRp2289
(dp2290
g74
(dp2291
g82
I3
ssg83
g2285
sg76
(lp2292
g1336
asbasbasbasbasbasbasbag69
(g85
g71
NtRp2293
(dp2294
g74
(dp2295
sg83
g2018
sg76
(lp2296
g69
(g90
g71
NtRp2297
(dp2298
g74
(dp2299
g94
g95
ssg83
g2293
sg76
(lp2300
g1605
asbag69
(g90
g71
NtRp2301
(dp2302
g74
(dp2303
g101
g102
ssg83
g2293
sg76
(lp2304
S':'
asbag69
(g90
g71
NtRp2305
(dp2306
g74
(dp2307
sg83
g2293
sg76
(lp2308
g69
(g70
g71
NtRp2309
(dp2310
g74
(dp2311
g82
I4
ssg83
g2305
sg76
(lp2312
g69
(g78
g71
NtRp2313
(dp2314
g74
(dp2315
g82
I3
ssg83
Nsg76
(lp2316
g69
(g85
g71
NtRp2317
(dp2318
g74
(dp2319
sg83
g2313
sg76
(lp2320
g69
(g90
g71
NtRp2321
(dp2322
g74
(dp2323
sg83
g2317
sg76
(lp2324
g69
(g70
g71
NtRp2325
(dp2326
g74
(dp2327
g82
I3
ssg83
g2321
sg76
(lp2328
S'2'
asbasbasbag69
(g85
g71
NtRp2329
(dp2330
g74
(dp2331
sg83
g2313
sg76
(lp2332
g69
(g90
g71
NtRp2333
(dp2334
g74
(dp2335
sg83
g2329
sg76
(lp2336
g69
(g70
g71
NtRp2337
(dp2338
g74
(dp2339
g82
I3
ssg83
g2333
sg76
(lp2340
S'2'
asbasbasbag69
(g85
g71
NtRp2341
(dp2342
g74
(dp2343
sg83
g2313
sg76
(lp2344
g69
(g90
g71
NtRp2345
(dp2346
g74
(dp2347
sg83
g2341
sg76
(lp2348
g69
(g70
g71
NtRp2349
(dp2350
g74
(dp2351
g82
I3
ssg83
g2345
sg76
(lp2352
S'1'
asbasbasbag69
(g85
g71
NtRp2353
(dp2354
g74
(dp2355
sg83
g2313
sg76
(lp2356
g69
(g90
g71
NtRp2357
(dp2358
g74
(dp2359
sg83
g2353
sg76
(lp2360
g69
(g70
g71
NtRp2361
(dp2362
g74
(dp2363
g82
I3
ssg83
g2357
sg76
(lp2364
S'datetime.datetime(2012, 10, 21, 16, 57, 4)'
p2365
asbasbasbag69
(g85
g71
NtRp2366
(dp2367
g74
(dp2368
sg83
g2313
sg76
(lp2369
g69
(g90
g71
NtRp2370
(dp2371
g74
(dp2372
sg83
g2366
sg76
(lp2373
g69
(g70
g71
NtRp2374
(dp2375
g74
(dp2376
g82
I3
ssg83
g2370
sg76
(lp2377
g1683
asbasbasbasbasbasbasbasbasbasbasbag69
(g85
g71
NtRp2378
(dp2379
g74
(dp2380
sg83
g79
sg76
(lp2381
g69
(g90
g71
NtRp2382
(dp2383
g74
(dp2384
g94
g95
ssg83
g2378
sg76
(lp2385
S'is_https'
p2386
asbag69
(g90
g71
NtRp2387
(dp2388
g74
(dp2389
g101
g102
ssg83
g2378
sg76
(lp2390
S':'
asbag69
(g90
g71
NtRp2391
(dp2392
g74
(dp2393
sg83
g2378
sg76
(lp2394
g69
(g70
g71
NtRp2395
(dp2396
g74
(dp2397
g82
I5
ssg83
g2391
sg76
(lp2398
g855
asbasbasbag69
(g85
g71
NtRp2399
(dp2400
g74
(dp2401
sg83
g79
sg76
(lp2402
g69
(g90
g71
NtRp2403
(dp2404
g74
(dp2405
g94
g95
ssg83
g2399
sg76
(lp2406
S'is_local'
p2407
asbag69
(g90
g71
NtRp2408
(dp2409
g74
(dp2410
g101
g102
ssg83
g2399
sg76
(lp2411
S':'
asbag69
(g90
g71
NtRp2412
(dp2413
g74
(dp2414
sg83
g2399
sg76
(lp2415
g69
(g70
g71
NtRp2416
(dp2417
g74
(dp2418
g82
I5
ssg83
g2412
sg76
(lp2419
g112
asbasbasbag69
(g85
g71
NtRp2420
(dp2421
g74
(dp2422
sg83
g79
sg76
(lp2423
g69
(g90
g71
NtRp2424
(dp2425
g74
(dp2426
g94
g95
ssg83
g2420
sg76
(lp2427
S'is_restful'
p2428
asbag69
(g90
g71
NtRp2429
(dp2430
g74
(dp2431
g101
g102
ssg83
g2420
sg76
(lp2432
S':'
asbag69
(g90
g71
NtRp2433
(dp2434
g74
(dp2435
sg83
g2420
sg76
(lp2436
g69
(g70
g71
NtRp2437
(dp2438
g74
(dp2439
g82
I5
ssg83
g2433
sg76
(lp2440
g855
asbasbasbag69
(g85
g71
NtRp2441
(dp2442
g74
(dp2443
sg83
g79
sg76
(lp2444
g69
(g90
g71
NtRp2445
(dp2446
g74
(dp2447
g94
g95
ssg83
g2441
sg76
(lp2448
S'now'
p2449
asbag69
(g90
g71
NtRp2450
(dp2451
g74
(dp2452
g101
g102
ssg83
g2441
sg76
(lp2453
S':'
asbag69
(g90
g71
NtRp2454
(dp2455
g74
(dp2456
sg83
g2441
sg76
(lp2457
g69
(g70
g71
NtRp2458
(dp2459
g74
(dp2460
g82
I5
ssg83
g2454
sg76
(lp2461
S'datetime.datetime(2012, 11, 7, 22, 52, 56, 203000)'
p2462
asbasbasbag69
(g85
g71
NtRp2463
(dp2464
g74
(dp2465
sg83
g79
sg76
(lp2466
g69
(g90
g71
NtRp2467
(dp2468
g74
(dp2469
g94
g95
ssg83
g2463
sg76
(lp2470
S'post_vars'
p2471
asbag69
(g90
g71
NtRp2472
(dp2473
g74
(dp2474
g101
g102
ssg83
g2463
sg76
(lp2475
S':'
asbag69
(g90
g71
NtRp2476
(dp2477
g74
(dp2478
sg83
g2463
sg76
(lp2479
g69
(g70
g71
NtRp2480
(dp2481
g74
(dp2482
g82
I5
ssg83
g2476
sg76
(lp2483
g69
(g78
g71
NtRp2484
(dp2485
g74
(dp2486
g82
I4
ssg83
Nsg76
(lp2487
g69
(g85
g71
NtRp2488
(dp2489
g74
(dp2490
sg83
g2484
sg76
(lp2491
g69
(g90
g71
NtRp2492
(dp2493
g74
(dp2494
g94
g95
ssg83
g2488
sg76
(lp2495
S'description'
p2496
asbag69
(g90
g71
NtRp2497
(dp2498
g74
(dp2499
g101
g102
ssg83
g2488
sg76
(lp2500
S':'
asbag69
(g90
g71
NtRp2501
(dp2502
g74
(dp2503
sg83
g2488
sg76
(lp2504
g69
(g70
g71
NtRp2505
(dp2506
g74
(dp2507
g82
I4
ssg83
g2501
sg76
(lp2508
S'Test'
p2509
asbasbasbag69
(g85
g71
NtRp2510
(dp2511
g74
(dp2512
sg83
g2484
sg76
(lp2513
g69
(g90
g71
NtRp2514
(dp2515
g74
(dp2516
g94
g95
ssg83
g2510
sg76
(lp2517
S'id_chart'
p2518
asbag69
(g90
g71
NtRp2519
(dp2520
g74
(dp2521
g101
g102
ssg83
g2510
sg76
(lp2522
S':'
asbag69
(g90
g71
NtRp2523
(dp2524
g74
(dp2525
sg83
g2510
sg76
(lp2526
g69
(g70
g71
NtRp2527
(dp2528
g74
(dp2529
g82
I4
ssg83
g2523
sg76
(lp2530
S'1'
asbasbasbag69
(g85
g71
NtRp2531
(dp2532
g74
(dp2533
sg83
g2484
sg76
(lp2534
g69
(g90
g71
NtRp2535
(dp2536
g74
(dp2537
g94
g95
ssg83
g2531
sg76
(lp2538
S'title'
p2539
asbag69
(g90
g71
NtRp2540
(dp2541
g74
(dp2542
g101
g102
ssg83
g2531
sg76
(lp2543
S':'
asbag69
(g90
g71
NtRp2544
(dp2545
g74
(dp2546
sg83
g2531
sg76
(lp2547
g69
(g70
g71
NtRp2548
(dp2549
g74
(dp2550
g82
I4
ssg83
g2544
sg76
(lp2551
S'Test'
p2552
asbasbasbasbasbasbasbag69
(g85
g71
NtRp2553
(dp2554
g74
(dp2555
sg83
g79
sg76
(lp2556
g69
(g90
g71
NtRp2557
(dp2558
g74
(dp2559
g94
g95
ssg83
g2553
sg76
(lp2560
S'raw_args'
p2561
asbag69
(g90
g71
NtRp2562
(dp2563
g74
(dp2564
g101
g102
ssg83
g2553
sg76
(lp2565
S':'
asbag69
(g90
g71
NtRp2566
(dp2567
g74
(dp2568
sg83
g2553
sg76
(lp2569
g69
(g70
g71
NtRp2570
(dp2571
g74
(dp2572
g82
I5
ssg83
g2566
sg76
(lp2573
S''
asbasbasbag69
(g85
g71
NtRp2574
(dp2575
g74
(dp2576
sg83
g79
sg76
(lp2577
g69
(g90
g71
NtRp2578
(dp2579
g74
(dp2580
g94
g95
ssg83
g2574
sg76
(lp2581
S'raw_extension'
p2582
asbag69
(g90
g71
NtRp2583
(dp2584
g74
(dp2585
g101
g102
ssg83
g2574
sg76
(lp2586
S':'
asbag69
(g90
g71
NtRp2587
(dp2588
g74
(dp2589
sg83
g2574
sg76
(lp2590
g69
(g70
g71
NtRp2591
(dp2592
g74
(dp2593
g82
I5
ssg83
g2587
sg76
(lp2594
S'None'
p2595
asbasbasbag69
(g85
g71
NtRp2596
(dp2597
g74
(dp2598
sg83
g79
sg76
(lp2599
g69
(g90
g71
NtRp2600
(dp2601
g74
(dp2602
g94
g95
ssg83
g2596
sg76
(lp2603
S'url'
p2604
asbag69
(g90
g71
NtRp2605
(dp2606
g74
(dp2607
g101
g102
ssg83
g2596
sg76
(lp2608
S':'
asbag69
(g90
g71
NtRp2609
(dp2610
g74
(dp2611
sg83
g2596
sg76
(lp2612
g69
(g70
g71
NtRp2613
(dp2614
g74
(dp2615
g82
I5
ssg83
g2609
sg76
(lp2616
g1358
asbasbasbag69
(g85
g71
NtRp2617
(dp2618
g74
(dp2619
sg83
g79
sg76
(lp2620
g69
(g90
g71
NtRp2621
(dp2622
g74
(dp2623
g94
g95
ssg83
g2617
sg76
(lp2624
S'utcnow'
p2625
asbag69
(g90
g71
NtRp2626
(dp2627
g74
(dp2628
g101
g102
ssg83
g2617
sg76
(lp2629
S':'
asbag69
(g90
g71
NtRp2630
(dp2631
g74
(dp2632
sg83
g2617
sg76
(lp2633
g69
(g70
g71
NtRp2634
(dp2635
g74
(dp2636
g82
I5
ssg83
g2630
sg76
(lp2637
S'datetime.datetime(2012, 11, 7, 22, 52, 56, 203000)'
p2638
asbasbasbag69
(g85
g71
NtRp2639
(dp2640
g74
(dp2641
sg83
g79
sg76
(lp2642
g69
(g90
g71
NtRp2643
(dp2644
g74
(dp2645
g94
g95
ssg83
g2639
sg76
(lp2646
S'uuid'
p2647
asbag69
(g90
g71
NtRp2648
(dp2649
g74
(dp2650
g101
g102
ssg83
g2639
sg76
(lp2651
S':'
asbag69
(g90
g71
NtRp2652
(dp2653
g74
(dp2654
sg83
g2639
sg76
(lp2655
g69
(g70
g71
NtRp2656
(dp2657
g74
(dp2658
g82
I5
ssg83
g2652
sg76
(lp2659
S'web2py_xlchart_dashboard/127.0.0.1.2012-11-07.22-52-56.413cc8cd-5cdb-4dcc-a1a8-53f78f791620'
p2660
asbasbasbag69
(g85
g71
NtRp2661
(dp2662
g74
(dp2663
sg83
g79
sg76
(lp2664
g69
(g90
g71
NtRp2665
(dp2666
g74
(dp2667
g94
g95
ssg83
g2661
sg76
(lp2668
S'vars'
p2669
asbag69
(g90
g71
NtRp2670
(dp2671
g74
(dp2672
g101
g102
ssg83
g2661
sg76
(lp2673
S':'
asbag69
(g90
g71
NtRp2674
(dp2675
g74
(dp2676
sg83
g2661
sg76
(lp2677
g69
(g70
g71
NtRp2678
(dp2679
g74
(dp2680
g82
I5
ssg83
g2674
sg76
(lp2681
g69
(g78
g71
NtRp2682
(dp2683
g74
(dp2684
g82
I4
ssg83
Nsg76
(lp2685
g69
(g85
g71
NtRp2686
(dp2687
g74
(dp2688
sg83
g2682
sg76
(lp2689
g69
(g90
g71
NtRp2690
(dp2691
g74
(dp2692
g94
g95
ssg83
g2686
sg76
(lp2693
g2496
asbag69
(g90
g71
NtRp2694
(dp2695
g74
(dp2696
g101
g102
ssg83
g2686
sg76
(lp2697
S':'
asbag69
(g90
g71
NtRp2698
(dp2699
g74
(dp2700
sg83
g2686
sg76
(lp2701
g69
(g70
g71
NtRp2702
(dp2703
g74
(dp2704
g82
I4
ssg83
g2698
sg76
(lp2705
g2509
asbasbasbag69
(g85
g71
NtRp2706
(dp2707
g74
(dp2708
sg83
g2682
sg76
(lp2709
g69
(g90
g71
NtRp2710
(dp2711
g74
(dp2712
g94
g95
ssg83
g2706
sg76
(lp2713
g1983
asbag69
(g90
g71
NtRp2714
(dp2715
g74
(dp2716
g101
g102
ssg83
g2706
sg76
(lp2717
S':'
asbag69
(g90
g71
NtRp2718
(dp2719
g74
(dp2720
sg83
g2706
sg76
(lp2721
g69
(g70
g71
NtRp2722
(dp2723
g74
(dp2724
g82
I4
ssg83
g2718
sg76
(lp2725
g69
(g78
g71
NtRp2726
(dp2727
g74
(dp2728
g82
I3
ssg83
Nsg76
(lp2729
g69
(g85
g71
NtRp2730
(dp2731
g74
(dp2732
sg83
g2726
sg76
(lp2733
g69
(g90
g71
NtRp2734
(dp2735
g74
(dp2736
sg83
g2730
sg76
(lp2737
g69
(g70
g71
NtRp2738
(dp2739
g74
(dp2740
g82
I3
ssg83
g2734
sg76
(lp2741
S'1'
asbasbasbag69
(g85
g71
NtRp2742
(dp2743
g74
(dp2744
sg83
g2726
sg76
(lp2745
g69
(g90
g71
NtRp2746
(dp2747
g74
(dp2748
sg83
g2742
sg76
(lp2749
g69
(g70
g71
NtRp2750
(dp2751
g74
(dp2752
g82
I3
ssg83
g2746
sg76
(lp2753
S'12'
p2754
asbasbasbasbasbasbasbag69
(g85
g71
NtRp2755
(dp2756
g74
(dp2757
sg83
g2682
sg76
(lp2758
g69
(g90
g71
NtRp2759
(dp2760
g74
(dp2761
g94
g95
ssg83
g2755
sg76
(lp2762
g2539
asbag69
(g90
g71
NtRp2763
(dp2764
g74
(dp2765
g101
g102
ssg83
g2755
sg76
(lp2766
S':'
asbag69
(g90
g71
NtRp2767
(dp2768
g74
(dp2769
sg83
g2755
sg76
(lp2770
g69
(g70
g71
NtRp2771
(dp2772
g74
(dp2773
g82
I4
ssg83
g2767
sg76
(lp2774
g2552
asbasbasbasbasbasbasbag69
(g85
g71
NtRp2775
(dp2776
g74
(dp2777
sg83
g79
sg76
(lp2778
g69
(g90
g71
NtRp2779
(dp2780
g74
(dp2781
g94
g95
ssg83
g2775
sg76
(lp2782
S'wsgi'
p2783
asbag69
(g90
g71
NtRp2784
(dp2785
g74
(dp2786
g101
g102
ssg83
g2775
sg76
(lp2787
S':'
asbag69
(g90
g71
NtRp2788
(dp2789
g74
(dp2790
sg83
g2775
sg76
(lp2791
g69
(g70
g71
NtRp2792
(dp2793
g74
(dp2794
g82
I5
ssg83
g2788
sg76
(lp2795
g69
(g78
g71
NtRp2796
(dp2797
g74
(dp2798
g82
I4
ssg83
Nsg76
(lp2799
g69
(g85
g71
NtRp2800
(dp2801
g74
(dp2802
sg83
g2796
sg76
(lp2803
g69
(g90
g71
NtRp2804
(dp2805
g74
(dp2806
g94
g95
ssg83
g2800
sg76
(lp2807
S'environ'
p2808
asbag69
(g90
g71
NtRp2809
(dp2810
g74
(dp2811
g101
g102
ssg83
g2800
sg76
(lp2812
S':'
asbag69
(g90
g71
NtRp2813
(dp2814
g74
(dp2815
sg83
g2800
sg76
(lp2816
g69
(g70
g71
NtRp2817
(dp2818
g74
(dp2819
g82
I4
ssg83
g2813
sg76
(lp2820
g69
(g78
g71
NtRp2821
(dp2822
g74
(dp2823
g82
I3
ssg83
Nsg76
(lp2824
g69
(g85
g71
NtRp2825
(dp2826
g74
(dp2827
sg83
g2821
sg76
(lp2828
g69
(g90
g71
NtRp2829
(dp2830
g74
(dp2831
g94
g95
ssg83
g2825
sg76
(lp2832
S'CONTENT_LENGTH'
p2833
asbag69
(g90
g71
NtRp2834
(dp2835
g74
(dp2836
g101
g102
ssg83
g2825
sg76
(lp2837
S':'
asbag69
(g90
g71
NtRp2838
(dp2839
g74
(dp2840
sg83
g2825
sg76
(lp2841
g69
(g70
g71
NtRp2842
(dp2843
g74
(dp2844
g82
I3
ssg83
g2838
sg76
(lp2845
g789
asbasbasbag69
(g85
g71
NtRp2846
(dp2847
g74
(dp2848
sg83
g2821
sg76
(lp2849
g69
(g90
g71
NtRp2850
(dp2851
g74
(dp2852
g94
g95
ssg83
g2846
sg76
(lp2853
S'CONTENT_TYPE'
p2854
asbag69
(g90
g71
NtRp2855
(dp2856
g74
(dp2857
g101
g102
ssg83
g2846
sg76
(lp2858
S':'
asbag69
(g90
g71
NtRp2859
(dp2860
g74
(dp2861
sg83
g2846
sg76
(lp2862
g69
(g70
g71
NtRp2863
(dp2864
g74
(dp2865
g82
I3
ssg83
g2859
sg76
(lp2866
g811
asbasbasbag69
(g85
g71
NtRp2867
(dp2868
g74
(dp2869
sg83
g2821
sg76
(lp2870
g69
(g90
g71
NtRp2871
(dp2872
g74
(dp2873
g94
g95
ssg83
g2867
sg76
(lp2874
S'HTTP_ACCEPT'
p2875
asbag69
(g90
g71
NtRp2876
(dp2877
g74
(dp2878
g101
g102
ssg83
g2867
sg76
(lp2879
S':'
asbag69
(g90
g71
NtRp2880
(dp2881
g74
(dp2882
sg83
g2867
sg76
(lp2883
g69
(g70
g71
NtRp2884
(dp2885
g74
(dp2886
g82
I3
ssg83
g2880
sg76
(lp2887
g899
asbasbasbag69
(g85
g71
NtRp2888
(dp2889
g74
(dp2890
sg83
g2821
sg76
(lp2891
g69
(g90
g71
NtRp2892
(dp2893
g74
(dp2894
g94
g95
ssg83
g2888
sg76
(lp2895
S'HTTP_ACCEPT_CHARSET'
p2896
asbag69
(g90
g71
NtRp2897
(dp2898
g74
(dp2899
g101
g102
ssg83
g2888
sg76
(lp2900
S':'
asbag69
(g90
g71
NtRp2901
(dp2902
g74
(dp2903
sg83
g2888
sg76
(lp2904
g69
(g70
g71
NtRp2905
(dp2906
g74
(dp2907
g82
I3
ssg83
g2901
sg76
(lp2908
g921
asbasbasbag69
(g85
g71
NtRp2909
(dp2910
g74
(dp2911
sg83
g2821
sg76
(lp2912
g69
(g90
g71
NtRp2913
(dp2914
g74
(dp2915
g94
g95
ssg83
g2909
sg76
(lp2916
S'HTTP_ACCEPT_ENCODING'
p2917
asbag69
(g90
g71
NtRp2918
(dp2919
g74
(dp2920
g101
g102
ssg83
g2909
sg76
(lp2921
S':'
asbag69
(g90
g71
NtRp2922
(dp2923
g74
(dp2924
sg83
g2909
sg76
(lp2925
g69
(g70
g71
NtRp2926
(dp2927
g74
(dp2928
g82
I3
ssg83
g2922
sg76
(lp2929
g943
asbasbasbag69
(g85
g71
NtRp2930
(dp2931
g74
(dp2932
sg83
g2821
sg76
(lp2933
g69
(g90
g71
NtRp2934
(dp2935
g74
(dp2936
g94
g95
ssg83
g2930
sg76
(lp2937
S'HTTP_ACCEPT_LANGUAGE'
p2938
asbag69
(g90
g71
NtRp2939
(dp2940
g74
(dp2941
g101
g102
ssg83
g2930
sg76
(lp2942
S':'
asbag69
(g90
g71
NtRp2943
(dp2944
g74
(dp2945
sg83
g2930
sg76
(lp2946
g69
(g70
g71
NtRp2947
(dp2948
g74
(dp2949
g82
I3
ssg83
g2943
sg76
(lp2950
g965
asbasbasbag69
(g85
g71
NtRp2951
(dp2952
g74
(dp2953
sg83
g2821
sg76
(lp2954
g69
(g90
g71
NtRp2955
(dp2956
g74
(dp2957
g94
g95
ssg83
g2951
sg76
(lp2958
S'HTTP_CONNECTION'
p2959
asbag69
(g90
g71
NtRp2960
(dp2961
g74
(dp2962
g101
g102
ssg83
g2951
sg76
(lp2963
S':'
asbag69
(g90
g71
NtRp2964
(dp2965
g74
(dp2966
sg83
g2951
sg76
(lp2967
g69
(g70
g71
NtRp2968
(dp2969
g74
(dp2970
g82
I3
ssg83
g2964
sg76
(lp2971
g987
asbasbasbag69
(g85
g71
NtRp2972
(dp2973
g74
(dp2974
sg83
g2821
sg76
(lp2975
g69
(g90
g71
NtRp2976
(dp2977
g74
(dp2978
g94
g95
ssg83
g2972
sg76
(lp2979
S'HTTP_CONTENT_LENGTH'
p2980
asbag69
(g90
g71
NtRp2981
(dp2982
g74
(dp2983
g101
g102
ssg83
g2972
sg76
(lp2984
S':'
asbag69
(g90
g71
NtRp2985
(dp2986
g74
(dp2987
sg83
g2972
sg76
(lp2988
g69
(g70
g71
NtRp2989
(dp2990
g74
(dp2991
g82
I3
ssg83
g2985
sg76
(lp2992
g789
asbasbasbag69
(g85
g71
NtRp2993
(dp2994
g74
(dp2995
sg83
g2821
sg76
(lp2996
g69
(g90
g71
NtRp2997
(dp2998
g74
(dp2999
g94
g95
ssg83
g2993
sg76
(lp3000
S'HTTP_CONTENT_TYPE'
p3001
asbag69
(g90
g71
NtRp3002
(dp3003
g74
(dp3004
g101
g102
ssg83
g2993
sg76
(lp3005
S':'
asbag69
(g90
g71
NtRp3006
(dp3007
g74
(dp3008
sg83
g2993
sg76
(lp3009
g69
(g70
g71
NtRp3010
(dp3011
g74
(dp3012
g82
I3
ssg83
g3006
sg76
(lp3013
g811
asbasbasbag69
(g85
g71
NtRp3014
(dp3015
g74
(dp3016
sg83
g2821
sg76
(lp3017
g69
(g90
g71
NtRp3018
(dp3019
g74
(dp3020
g94
g95
ssg83
g3014
sg76
(lp3021
S'HTTP_COOKIE'
p3022
asbag69
(g90
g71
NtRp3023
(dp3024
g74
(dp3025
g101
g102
ssg83
g3014
sg76
(lp3026
S':'
asbag69
(g90
g71
NtRp3027
(dp3028
g74
(dp3029
sg83
g3014
sg76
(lp3030
g69
(g70
g71
NtRp3031
(dp3032
g74
(dp3033
g82
I3
ssg83
g3027
sg76
(lp3034
g1051
asbasbasbag69
(g85
g71
NtRp3035
(dp3036
g74
(dp3037
sg83
g2821
sg76
(lp3038
g69
(g90
g71
NtRp3039
(dp3040
g74
(dp3041
g94
g95
ssg83
g3035
sg76
(lp3042
S'HTTP_HOST'
p3043
asbag69
(g90
g71
NtRp3044
(dp3045
g74
(dp3046
g101
g102
ssg83
g3035
sg76
(lp3047
S':'
asbag69
(g90
g71
NtRp3048
(dp3049
g74
(dp3050
sg83
g3035
sg76
(lp3051
g69
(g70
g71
NtRp3052
(dp3053
g74
(dp3054
g82
I3
ssg83
g3048
sg76
(lp3055
g1073
asbasbasbag69
(g85
g71
NtRp3056
(dp3057
g74
(dp3058
sg83
g2821
sg76
(lp3059
g69
(g90
g71
NtRp3060
(dp3061
g74
(dp3062
g94
g95
ssg83
g3056
sg76
(lp3063
S'HTTP_ORIGIN'
p3064
asbag69
(g90
g71
NtRp3065
(dp3066
g74
(dp3067
g101
g102
ssg83
g3056
sg76
(lp3068
S':'
asbag69
(g90
g71
NtRp3069
(dp3070
g74
(dp3071
sg83
g3056
sg76
(lp3072
g69
(g70
g71
NtRp3073
(dp3074
g74
(dp3075
g82
I3
ssg83
g3069
sg76
(lp3076
g1095
asbasbasbag69
(g85
g71
NtRp3077
(dp3078
g74
(dp3079
sg83
g2821
sg76
(lp3080
g69
(g90
g71
NtRp3081
(dp3082
g74
(dp3083
g94
g95
ssg83
g3077
sg76
(lp3084
S'HTTP_REFERER'
p3085
asbag69
(g90
g71
NtRp3086
(dp3087
g74
(dp3088
g101
g102
ssg83
g3077
sg76
(lp3089
S':'
asbag69
(g90
g71
NtRp3090
(dp3091
g74
(dp3092
sg83
g3077
sg76
(lp3093
g69
(g70
g71
NtRp3094
(dp3095
g74
(dp3096
g82
I3
ssg83
g3090
sg76
(lp3097
g1117
asbasbasbag69
(g85
g71
NtRp3098
(dp3099
g74
(dp3100
sg83
g2821
sg76
(lp3101
g69
(g90
g71
NtRp3102
(dp3103
g74
(dp3104
g94
g95
ssg83
g3098
sg76
(lp3105
S'HTTP_USER_AGENT'
p3106
asbag69
(g90
g71
NtRp3107
(dp3108
g74
(dp3109
g101
g102
ssg83
g3098
sg76
(lp3110
S':'
asbag69
(g90
g71
NtRp3111
(dp3112
g74
(dp3113
sg83
g3098
sg76
(lp3114
g69
(g70
g71
NtRp3115
(dp3116
g74
(dp3117
g82
I3
ssg83
g3111
sg76
(lp3118
g1139
asbasbasbag69
(g85
g71
NtRp3119
(dp3120
g74
(dp3121
sg83
g2821
sg76
(lp3122
g69
(g90
g71
NtRp3123
(dp3124
g74
(dp3125
g94
g95
ssg83
g3119
sg76
(lp3126
S'HTTP_WEB2PY_COMPONENT_ELEMENT'
p3127
asbag69
(g90
g71
NtRp3128
(dp3129
g74
(dp3130
g101
g102
ssg83
g3119
sg76
(lp3131
S':'
asbag69
(g90
g71
NtRp3132
(dp3133
g74
(dp3134
sg83
g3119
sg76
(lp3135
g69
(g70
g71
NtRp3136
(dp3137
g74
(dp3138
g82
I3
ssg83
g3132
sg76
(lp3139
g202
asbasbasbag69
(g85
g71
NtRp3140
(dp3141
g74
(dp3142
sg83
g2821
sg76
(lp3143
g69
(g90
g71
NtRp3144
(dp3145
g74
(dp3146
g94
g95
ssg83
g3140
sg76
(lp3147
S'HTTP_WEB2PY_COMPONENT_LOCATION'
p3148
asbag69
(g90
g71
NtRp3149
(dp3150
g74
(dp3151
g101
g102
ssg83
g3140
sg76
(lp3152
S':'
asbag69
(g90
g71
NtRp3153
(dp3154
g74
(dp3155
sg83
g3140
sg76
(lp3156
g69
(g70
g71
NtRp3157
(dp3158
g74
(dp3159
g82
I3
ssg83
g3153
sg76
(lp3160
g1182
asbasbasbag69
(g85
g71
NtRp3161
(dp3162
g74
(dp3163
sg83
g2821
sg76
(lp3164
g69
(g90
g71
NtRp3165
(dp3166
g74
(dp3167
g94
g95
ssg83
g3161
sg76
(lp3168
S'HTTP_X_REQUESTED_WITH'
p3169
asbag69
(g90
g71
NtRp3170
(dp3171
g74
(dp3172
g101
g102
ssg83
g3161
sg76
(lp3173
S':'
asbag69
(g90
g71
NtRp3174
(dp3175
g74
(dp3176
sg83
g3161
sg76
(lp3177
g69
(g70
g71
NtRp3178
(dp3179
g74
(dp3180
g82
I3
ssg83
g3174
sg76
(lp3181
g1204
asbasbasbag69
(g85
g71
NtRp3182
(dp3183
g74
(dp3184
sg83
g2821
sg76
(lp3185
g69
(g90
g71
NtRp3186
(dp3187
g74
(dp3188
g94
g95
ssg83
g3182
sg76
(lp3189
S'PATH_INFO'
p3190
asbag69
(g90
g71
NtRp3191
(dp3192
g74
(dp3193
g101
g102
ssg83
g3182
sg76
(lp3194
S':'
asbag69
(g90
g71
NtRp3195
(dp3196
g74
(dp3197
sg83
g3182
sg76
(lp3198
g69
(g70
g71
NtRp3199
(dp3200
g74
(dp3201
g82
I3
ssg83
g3195
sg76
(lp3202
g1358
asbasbasbag69
(g85
g71
NtRp3203
(dp3204
g74
(dp3205
sg83
g2821
sg76
(lp3206
g69
(g90
g71
NtRp3207
(dp3208
g74
(dp3209
g94
g95
ssg83
g3203
sg76
(lp3210
S'QUERY_STRING'
p3211
asbag69
(g90
g71
NtRp3212
(dp3213
g74
(dp3214
g101
g102
ssg83
g3203
sg76
(lp3215
S':'
asbag69
(g90
g71
NtRp3216
(dp3217
g74
(dp3218
sg83
g3203
sg76
(lp3219
g69
(g70
g71
NtRp3220
(dp3221
g74
(dp3222
g82
I3
ssg83
g3216
sg76
(lp3223
g1380
asbasbasbag69
(g85
g71
NtRp3224
(dp3225
g74
(dp3226
sg83
g2821
sg76
(lp3227
g69
(g90
g71
NtRp3228
(dp3229
g74
(dp3230
g94
g95
ssg83
g3224
sg76
(lp3231
S'REMOTE_ADDR'
p3232
asbag69
(g90
g71
NtRp3233
(dp3234
g74
(dp3235
g101
g102
ssg83
g3224
sg76
(lp3236
S':'
asbag69
(g90
g71
NtRp3237
(dp3238
g74
(dp3239
sg83
g3224
sg76
(lp3240
g69
(g70
g71
NtRp3241
(dp3242
g74
(dp3243
g82
I3
ssg83
g3237
sg76
(lp3244
g224
asbasbasbag69
(g85
g71
NtRp3245
(dp3246
g74
(dp3247
sg83
g2821
sg76
(lp3248
g69
(g90
g71
NtRp3249
(dp3250
g74
(dp3251
g94
g95
ssg83
g3245
sg76
(lp3252
S'REMOTE_PORT'
p3253
asbag69
(g90
g71
NtRp3254
(dp3255
g74
(dp3256
g101
g102
ssg83
g3245
sg76
(lp3257
S':'
asbag69
(g90
g71
NtRp3258
(dp3259
g74
(dp3260
sg83
g3245
sg76
(lp3261
g69
(g70
g71
NtRp3262
(dp3263
g74
(dp3264
g82
I3
ssg83
g3258
sg76
(lp3265
g1423
asbasbasbag69
(g85
g71
NtRp3266
(dp3267
g74
(dp3268
sg83
g2821
sg76
(lp3269
g69
(g90
g71
NtRp3270
(dp3271
g74
(dp3272
g94
g95
ssg83
g3266
sg76
(lp3273
S'REQUEST_METHOD'
p3274
asbag69
(g90
g71
NtRp3275
(dp3276
g74
(dp3277
g101
g102
ssg83
g3266
sg76
(lp3278
S':'
asbag69
(g90
g71
NtRp3279
(dp3280
g74
(dp3281
sg83
g3266
sg76
(lp3282
g69
(g70
g71
NtRp3283
(dp3284
g74
(dp3285
g82
I3
ssg83
g3279
sg76
(lp3286
g1445
asbasbasbag69
(g85
g71
NtRp3287
(dp3288
g74
(dp3289
sg83
g2821
sg76
(lp3290
g69
(g90
g71
NtRp3291
(dp3292
g74
(dp3293
g94
g95
ssg83
g3287
sg76
(lp3294
S'REQUEST_URI'
p3295
asbag69
(g90
g71
NtRp3296
(dp3297
g74
(dp3298
g101
g102
ssg83
g3287
sg76
(lp3299
S':'
asbag69
(g90
g71
NtRp3300
(dp3301
g74
(dp3302
sg83
g3287
sg76
(lp3303
g69
(g70
g71
NtRp3304
(dp3305
g74
(dp3306
g82
I3
ssg83
g3300
sg76
(lp3307
g1467
asbasbasbag69
(g85
g71
NtRp3308
(dp3309
g74
(dp3310
sg83
g2821
sg76
(lp3311
g69
(g90
g71
NtRp3312
(dp3313
g74
(dp3314
g94
g95
ssg83
g3308
sg76
(lp3315
S'SCRIPT_NAME'
p3316
asbag69
(g90
g71
NtRp3317
(dp3318
g74
(dp3319
g101
g102
ssg83
g3308
sg76
(lp3320
S':'
asbag69
(g90
g71
NtRp3321
(dp3322
g74
(dp3323
sg83
g3308
sg76
(lp3324
g69
(g70
g71
NtRp3325
(dp3326
g74
(dp3327
g82
I3
ssg83
g3321
sg76
(lp3328
S''
asbasbasbag69
(g85
g71
NtRp3329
(dp3330
g74
(dp3331
sg83
g2821
sg76
(lp3332
g69
(g90
g71
NtRp3333
(dp3334
g74
(dp3335
g94
g95
ssg83
g3329
sg76
(lp3336
S'SERVER_NAME'
p3337
asbag69
(g90
g71
NtRp3338
(dp3339
g74
(dp3340
g101
g102
ssg83
g3329
sg76
(lp3341
S':'
asbag69
(g90
g71
NtRp3342
(dp3343
g74
(dp3344
sg83
g3329
sg76
(lp3345
g69
(g70
g71
NtRp3346
(dp3347
g74
(dp3348
g82
I3
ssg83
g3342
sg76
(lp3349
g1323
asbasbasbag69
(g85
g71
NtRp3350
(dp3351
g74
(dp3352
sg83
g2821
sg76
(lp3353
g69
(g90
g71
NtRp3354
(dp3355
g74
(dp3356
g94
g95
ssg83
g3350
sg76
(lp3357
S'SERVER_PORT'
p3358
asbag69
(g90
g71
NtRp3359
(dp3360
g74
(dp3361
g101
g102
ssg83
g3350
sg76
(lp3362
S':'
asbag69
(g90
g71
NtRp3363
(dp3364
g74
(dp3365
sg83
g3350
sg76
(lp3366
g69
(g70
g71
NtRp3367
(dp3368
g74
(dp3369
g82
I3
ssg83
g3363
sg76
(lp3370
g1531
asbasbasbag69
(g85
g71
NtRp3371
(dp3372
g74
(dp3373
sg83
g2821
sg76
(lp3374
g69
(g90
g71
NtRp3375
(dp3376
g74
(dp3377
g94
g95
ssg83
g3371
sg76
(lp3378
S'SERVER_PROTOCOL'
p3379
asbag69
(g90
g71
NtRp3380
(dp3381
g74
(dp3382
g101
g102
ssg83
g3371
sg76
(lp3383
S':'
asbag69
(g90
g71
NtRp3384
(dp3385
g74
(dp3386
sg83
g3371
sg76
(lp3387
g69
(g70
g71
NtRp3388
(dp3389
g74
(dp3390
g82
I3
ssg83
g3384
sg76
(lp3391
g1553
asbasbasbag69
(g85
g71
NtRp3392
(dp3393
g74
(dp3394
sg83
g2821
sg76
(lp3395
g69
(g90
g71
NtRp3396
(dp3397
g74
(dp3398
g94
g95
ssg83
g3392
sg76
(lp3399
S'SERVER_SOFTWARE'
p3400
asbag69
(g90
g71
NtRp3401
(dp3402
g74
(dp3403
g101
g102
ssg83
g3392
sg76
(lp3404
S':'
asbag69
(g90
g71
NtRp3405
(dp3406
g74
(dp3407
sg83
g3392
sg76
(lp3408
g69
(g70
g71
NtRp3409
(dp3410
g74
(dp3411
g82
I3
ssg83
g3405
sg76
(lp3412
g1575
asbasbasbag69
(g85
g71
NtRp3413
(dp3414
g74
(dp3415
sg83
g2821
sg76
(lp3416
g69
(g90
g71
NtRp3417
(dp3418
g74
(dp3419
g94
g95
ssg83
g3413
sg76
(lp3420
S'wsgi.errors'
p3421
asbag69
(g90
g71
NtRp3422
(dp3423
g74
(dp3424
g101
g102
ssg83
g3413
sg76
(lp3425
S':'
asbag69
(g90
g71
NtRp3426
(dp3427
g74
(dp3428
sg83
g3413
sg76
(lp3429
g69
(g70
g71
NtRp3430
(dp3431
g74
(dp3432
g82
I3
ssg83
g3426
sg76
(lp3433
S"<open file '<stderr>', mode 'w' at 0x00A850D0>"
p3434
asbasbasbag69
(g85
g71
NtRp3435
(dp3436
g74
(dp3437
sg83
g2821
sg76
(lp3438
g69
(g90
g71
NtRp3439
(dp3440
g74
(dp3441
g94
g95
ssg83
g3435
sg76
(lp3442
S'wsgi.file_wrapper'
p3443
asbag69
(g90
g71
NtRp3444
(dp3445
g74
(dp3446
g101
g102
ssg83
g3435
sg76
(lp3447
S':'
asbag69
(g90
g71
NtRp3448
(dp3449
g74
(dp3450
sg83
g3435
sg76
(lp3451
g69
(g70
g71
NtRp3452
(dp3453
g74
(dp3454
g82
I3
ssg83
g3448
sg76
(lp3455
S'<class wsgiref.util.FileWrapper at 0x0172EE68>'
p3456
asbasbasbag69
(g85
g71
NtRp3457
(dp3458
g74
(dp3459
sg83
g2821
sg76
(lp3460
g69
(g90
g71
NtRp3461
(dp3462
g74
(dp3463
g94
g95
ssg83
g3457
sg76
(lp3464
S'wsgi.input'
p3465
asbag69
(g90
g71
NtRp3466
(dp3467
g74
(dp3468
g101
g102
ssg83
g3457
sg76
(lp3469
S':'
asbag69
(g90
g71
NtRp3470
(dp3471
g74
(dp3472
sg83
g3457
sg76
(lp3473
g69
(g70
g71
NtRp3474
(dp3475
g74
(dp3476
g82
I3
ssg83
g3470
sg76
(lp3477
S"<open file '<fdopen>', mode 'w+b' at 0x04B90F40>"
p3478
asbasbasbag69
(g85
g71
NtRp3479
(dp3480
g74
(dp3481
sg83
g2821
sg76
(lp3482
g69
(g90
g71
NtRp3483
(dp3484
g74
(dp3485
g94
g95
ssg83
g3479
sg76
(lp3486
S'wsgi.multiprocess'
p3487
asbag69
(g90
g71
NtRp3488
(dp3489
g74
(dp3490
g101
g102
ssg83
g3479
sg76
(lp3491
S':'
asbag69
(g90
g71
NtRp3492
(dp3493
g74
(dp3494
sg83
g3479
sg76
(lp3495
g69
(g70
g71
NtRp3496
(dp3497
g74
(dp3498
g82
I3
ssg83
g3492
sg76
(lp3499
g855
asbasbasbag69
(g85
g71
NtRp3500
(dp3501
g74
(dp3502
sg83
g2821
sg76
(lp3503
g69
(g90
g71
NtRp3504
(dp3505
g74
(dp3506
g94
g95
ssg83
g3500
sg76
(lp3507
S'wsgi.multithread'
p3508
asbag69
(g90
g71
NtRp3509
(dp3510
g74
(dp3511
g101
g102
ssg83
g3500
sg76
(lp3512
S':'
asbag69
(g90
g71
NtRp3513
(dp3514
g74
(dp3515
sg83
g3500
sg76
(lp3516
g69
(g70
g71
NtRp3517
(dp3518
g74
(dp3519
g82
I3
ssg83
g3513
sg76
(lp3520
g112
asbasbasbag69
(g85
g71
NtRp3521
(dp3522
g74
(dp3523
sg83
g2821
sg76
(lp3524
g69
(g90
g71
NtRp3525
(dp3526
g74
(dp3527
g94
g95
ssg83
g3521
sg76
(lp3528
S'wsgi.run_once'
p3529
asbag69
(g90
g71
NtRp3530
(dp3531
g74
(dp3532
g101
g102
ssg83
g3521
sg76
(lp3533
S':'
asbag69
(g90
g71
NtRp3534
(dp3535
g74
(dp3536
sg83
g3521
sg76
(lp3537
g69
(g70
g71
NtRp3538
(dp3539
g74
(dp3540
g82
I3
ssg83
g3534
sg76
(lp3541
g855
asbasbasbag69
(g85
g71
NtRp3542
(dp3543
g74
(dp3544
sg83
g2821
sg76
(lp3545
g69
(g90
g71
NtRp3546
(dp3547
g74
(dp3548
g94
g95
ssg83
g3542
sg76
(lp3549
S'wsgi.url_scheme'
p3550
asbag69
(g90
g71
NtRp3551
(dp3552
g74
(dp3553
g101
g102
ssg83
g3542
sg76
(lp3554
S':'
asbag69
(g90
g71
NtRp3555
(dp3556
g74
(dp3557
sg83
g3542
sg76
(lp3558
g69
(g70
g71
NtRp3559
(dp3560
g74
(dp3561
g82
I3
ssg83
g3555
sg76
(lp3562
g1834
asbasbasbag69
(g85
g71
NtRp3563
(dp3564
g74
(dp3565
sg83
g2821
sg76
(lp3566
g69
(g90
g71
NtRp3567
(dp3568
g74
(dp3569
g94
g95
ssg83
g3563
sg76
(lp3570
S'wsgi.version'
p3571
asbag69
(g90
g71
NtRp3572
(dp3573
g74
(dp3574
g101
g102
ssg83
g3563
sg76
(lp3575
S':'
asbag69
(g90
g71
NtRp3576
(dp3577
g74
(dp3578
sg83
g3563
sg76
(lp3579
g69
(g70
g71
NtRp3580
(dp3581
g74
(dp3582
g82
I3
ssg83
g3576
sg76
(lp3583
S'1'
asbasbasbasbasbasbasbasbasbasbasbasbasbsS'frames'
p3584
(lp3585
(dp3586
S'file'
p3587
S'D:\\web2py\\source\\web2py\\gluon\\restricted.py'
p3588
sS'dump'
p3589
(dp3590
S'environment'
p3591
S"{'A': <class 'gluon.html.A'>, 'Auth': <class 'gluon.tools.Auth'>, 'B': <class 'gluon.html.B'>, 'BEAUTIFY': <class 'gluon.html.BEAUTIFY'>, 'BODY': <class 'gluon.html.BODY'>, 'BR': <class 'gluon.html.BR'>, 'BUTTON': <class 'gluon.html.BUTTON'>, 'CAT': <class 'gluon.html.CAT'>, 'CENTER': <class 'gluon.html.CENTER'>, 'CLEANUP': <class 'gluon.validators.CLEANUP'>, ...}"
p3592
sS'ccode'
p3593
S'<code object <module> at 050FB578, file "D:\\web2...xlchart_dashboard\\controllers/charts.py", line 3>'
p3594
ssS'lnum'
p3595
I212
sS'lines'
p3596
(dp3597
I207
S'    try:'
p3598
sI208
S'        if isinstance(code, types.CodeType):'
p3599
sI209
S'            ccode = code'
p3600
sI210
S'        else:'
p3601
sI211
S'            ccode = compile2(code, layer)'
p3602
sI212
S'        exec ccode in environment'
p3603
sI213
S'    except HTTP:'
p3604
sI214
S'        raise'
p3605
sI215
S'    except RestrictedError:'
p3606
sI216
S'        # do not encapsulate (obfuscate) the original RestrictedError'
p3607
ssS'call'
p3608
S"(code='# coding: utf8\\n# try something like\\ndef index():...\\nresponse._vars=response._caller(subscribe_form)\\n', environment={'A': <class 'gluon.html.A'>, 'Auth': <class 'gluon.tools.Auth'>, 'B': <class 'gluon.html.B'>, 'BEAUTIFY': <class 'gluon.html.BEAUTIFY'>, 'BODY': <class 'gluon.html.BODY'>, 'BR': <class 'gluon.html.BR'>, 'BUTTON': <class 'gluon.html.BUTTON'>, 'CAT': <class 'gluon.html.CAT'>, 'CENTER': <class 'gluon.html.CENTER'>, 'CLEANUP': <class 'gluon.validators.CLEANUP'>, ...}, layer=r'D:\\web2py\\source\\web2py\\applications\\web2py_xlchart_dashboard\\controllers/charts.py')"
p3609
sS'func'
p3610
S'restricted'
p3611
sa(dp3612
g3587
S'D:\\web2py\\source\\web2py\\applications\\web2py_xlchart_dashboard\\controllers\\charts.py'
p3613
sg3589
(dp3614
sg3595
I30
sg3596
(dp3615
I19
S"        response.flash = 'form has errors'"
p3616
sI20
S'    else:'
p3617
sI21
S"        response.flash = 'please fill out the form'"
p3618
sI22
S'    return form'
p3619
sI23
S''
sI24
S'def subscribe():'
p3620
sI25
S'    pass'
p3621
sI26
S''
sI27
S'def download():'
p3622
sI28
S'    return response.download(request, db)'
p3623
ssg3608
S'()'
p3624
sg3610
S'<module>'
p3625
sa(dp3626
g3587
S'D:\\web2py\\source\\web2py\\gluon\\globals.py'
p3627
sg3589
(dp3628
S'self'
p3629
S'undefined'
p3630
sS'f'
S'<function subscribe_form>'
p3631
ssg3595
I188
sg3596
(dp3632
I192
S''
sI183
S'        self.menu = []             # used by the default view layout'
p3633
sI184
S'        self.files = []            # used by web2py_ajax.html'
p3634
sI185
S'        self.generic_patterns = []  # patterns to allow generic views'
p3635
sI186
S"        self.delimiters = ('{{', '}}')"
p3636
sI187
S'        self._vars = None'
p3637
sI188
S'        self._caller = lambda f: f()'
p3638
sI189
S'        self._view_environment = None'
p3639
sI190
S'        self._custom_commit = None'
p3640
sI191
S'        self._custom_rollback = None'
p3641
ssg3608
S'(f=<function subscribe_form>)'
p3642
sg3610
S'<lambda>'
p3643
sa(dp3644
g3587
S'D:\\web2py\\source\\web2py\\applications\\web2py_xlchart_dashboard\\controllers\\charts.py'
p3645
sg3589
(dp3646
sg3595
I16
sg3596
(dp3647
I11
S'def subscribe_form():'
p3648
sI12
S''
sI13
S"    form = SQLFORM(db.user_chart,fields=['title','description'],hidden=dict(id_chart=request.vars['id_chart'][0]))"
p3649
sI14
S"    form.vars.id_chart = request.vars['id_chart'][1]"
p3650
sI15
S'    form.vars.is_user = auth.user_id'
p3651
sI16
S'    if form.process().accepted:'
p3652
sI17
S"        response.flash = 'form accepted'"
p3653
sI18
S'    elif form.errors:'
p3654
sI19
S"        response.flash = 'form has errors'"
p3655
sI20
S'    else:'
p3656
ssg3608
S'()'
p3657
sg3610
S'subscribe_form'
p3658
sa(dp3659
g3587
S'D:\\web2py\\source\\web2py\\gluon\\html.py'
p3660
sg3589
(dp3661
S'self'
p3662
S'<gluon.sqlhtml.SQLFORM object>'
p3663
sS'self.validate'
p3664
S'<bound method SQLFORM.validate of <gluon.sqlhtml.SQLFORM object>>'
p3665
sS'kwargs'
p3666
S"{'dbio': True}"
p3667
ssg3595
I2170
sg3596
(dp3668
I2165
S'        def action():'
p3669
sI2166
S'            return dict(form=SQLFORM(db.table).process(onsuccess=my_callback)'
p3670
sI2167
S'        """'
p3671
sI2168
S"        kwargs['dbio'] = kwargs.get('dbio', True)"
p3672
sI2169
S'                                    # necessary for SQLHTML forms'
p3673
sI2170
S'        self.validate(**kwargs)'
p3674
sI2171
S'        return self'
p3675
sI2172
S''
sI2173
S'    REDIRECT_JS = "window.location=\'%s\';return false"'
p3676
sI2174
S''
ssg3608
S"(self=<gluon.sqlhtml.SQLFORM object>, **kwargs={'dbio': True})"
p3677
sg3610
S'process'
p3678
sa(dp3679
g3587
S'D:\\web2py\\source\\web2py\\gluon\\html.py'
p3680
sg3589
(dp3681
S'self'
p3682
S'<gluon.sqlhtml.SQLFORM object>'
p3683
sS'self.accepts'
p3684
S'<bound method SQLFORM.accepts of <gluon.sqlhtml.SQLFORM object>>'
p3685
sS'kwargs'
p3686
S"{'dbio': True, 'request_vars': <Storage {'_formkey': '985493dd-47d9-4fff-9785-a...create', 'id_chart': '1', 'description': 'Test'}>, 'session': <Storage {'_formkey[user_chart/12]': '23b4d77a-c...art/4]': 'fde9186d-ab92-486e-a506-7d29730e5f53'}>}"
p3687
ssg3595
I2109
sg3596
(dp3688
I2112
S'                    current.session.flash = message_onsuccess'
p3689
sI2113
S'                else:'
p3690
sI2104
S"        for key in ('message_onsuccess', 'message_onfailure', 'onsuccess',"
p3691
sI2105
S"                    'onfailure', 'next', 'message_onchange', 'onchange'):"
p3692
sI2106
S'            if key in kwargs:'
p3693
sI2107
S'                del kwargs[key]'
p3694
sI2108
S''
sI2109
S'        if self.accepts(**kwargs):'
p3695
sI2110
S"            if onsuccess == 'flash':"
p3696
sI2111
S'                if next:'
p3697
ssg3608
S"(self=<gluon.sqlhtml.SQLFORM object>, **kwargs={'dbio': True, 'request_vars': <Storage {'_formkey': '985493dd-47d9-4fff-9785-a...create', 'id_chart': '1', 'description': 'Test'}>, 'session': <Storage {'_formkey[user_chart/12]': '23b4d77a-c...art/4]': 'fde9186d-ab92-486e-a506-7d29730e5f53'}>})"
p3698
sg3610
S'validate'
p3699
sa(dp3700
g3587
S'D:\\web2py\\source\\web2py\\gluon\\sqlhtml.py'
p3701
sg3589
(dp3702
S'self.vars.id'
p3703
S'None'
p3704
sS'fields'
p3705
S"{'description': 'Test', 'id_chart': '12', 'is_user': None, 'title': 'Test'}"
p3706
sS'self'
p3707
S'<gluon.sqlhtml.SQLFORM object>'
p3708
sS'self.vars'
p3709
S"<Storage {'is_user': None, 'description': 'Test', 'id_chart': '12', 'title': 'Test'}>"
p3710
sS'self.table.insert'
p3711
S'<bound method Table.insert of <Table user_chart (id,id_user,id_chart,title,description)>>'
p3712
sS'self.table'
p3713
S'<Table user_chart (id,id_user,id_chart,title,description)>'
p3714
ssg3595
I1475
sg3596
(dp3715
I1472
S'                        self.table._db(self.table._id == self.record['
p3716
sI1473
S'                                       self.id_field_name]).update(**fields)'
p3717
sI1474
S'                else:'
p3718
sI1475
S'                    self.vars.id = self.table.insert(**fields)'
p3719
sI1476
S'        self.accepted = ret'
p3720
sI1477
S'        return ret'
p3721
sI1478
S''
sI1479
S'    AUTOTYPES = {'
p3722
sI1470
S'                    self.vars.id = self.record[self.id_field_name]'
p3723
sI1471
S'                    if fields:'
p3724
ssg3608
S"(self=<gluon.sqlhtml.SQLFORM object>, request_vars=<Storage {'_formkey': '985493dd-47d9-4fff-9785-a...create', 'id_chart': '1', 'description': 'Test'}>, session=<Storage {'_formkey[user_chart/12]': '23b4d77a-c...art/4]': 'fde9186d-ab92-486e-a506-7d29730e5f53'}>, formname='user_chart/create', keepvalues=False, onvalidation=None, dbio=True, hideerror=False, detect_record_change=False, **kwargs={})"
p3725
sg3610
S'accepts'
p3726
sa(dp3727
g3587
S'D:\\web2py\\source\\web2py\\gluon\\dal.py'
p3728
sg3589
(dp3729
S'self._listify'
p3730
S'<bound method Table._listify of <Table user_chart (id,id_user,id_chart,title,description)>>'
p3731
sS'fields'
p3732
S"{'description': 'Test', 'id_chart': '12', 'is_user': None, 'title': 'Test'}"
p3733
sS'self'
p3734
S'<Table user_chart (id,id_user,id_chart,title,description)>'
p3735
sS'ret'
p3736
g3630
sS'self._db._adapter'
p3737
S'<gluon.dal.SQLiteAdapter object>'
p3738
sS'self._db._adapter.insert'
p3739
S'<bound method SQLiteAdapter.insert of <gluon.dal.SQLiteAdapter object>>'
p3740
sS'self._db'
p3741
S'<DAL uri="sqlite://storage.sqlite">'
p3742
ssg3595
I7806
sg3596
(dp3743
I7808
S'            fields = Row(fields)'
p3744
sI7809
S'            [f(fields,ret) for f in self._after_insert]'
p3745
sI7810
S'        return ret'
p3746
sI7801
S'        return self._db._adapter._insert(self,self._listify(fields))'
p3747
sI7802
S''
sI7803
S'    def insert(self, **fields):'
p3748
sI7804
S'        self._attempt_upload(fields)'
p3749
sI7805
S'        if any(f(fields) for f in self._before_insert): return 0'
p3750
sI7806
S'        ret =  self._db._adapter.insert(self,self._listify(fields))'
p3751
sI7807
S'        if ret and self._after_insert:'
p3752
ssg3608
S"(self=<Table user_chart (id,id_user,id_chart,title,description)>, **fields={'description': 'Test', 'id_chart': '12', 'is_user': None, 'title': 'Test'})"
p3753
sg3610
S'insert'
p3754
sa(dp3755
g3587
S'D:\\web2py\\source\\web2py\\gluon\\dal.py'
p3756
sg3589
(dp3757
S'name'
p3758
S"'is_user'"
p3759
ssg3595
I7744
sg3596
(dp3760
I7744
S"                        'Field %s does not belong to the table' % name"
p3761
sI7745
S'            else:'
p3762
sI7746
S'                field = self[name]'
p3763
sI7747
S'                value = fields[name]'
p3764
sI7748
S'                if field.filter_in:'
p3765
sI7739
S'        # store all fields passed as input in new_fields'
p3766
sI7740
S'        for name in fields:'
p3767
sI7741
S'            if not name in self.fields:'
p3768
sI7742
S"                if name != 'id':"
p3769
sI7743
S'                    raise SyntaxError, \\'
p3770
ssg3608
S"(self=<Table user_chart (id,id_user,id_chart,title,description)>, fields={'description': 'Test', 'id_chart': '12', 'is_user': None, 'title': 'Test'}, update=False)"
p3771
sg3610
S'_listify'
p3772
sasS'pyver'
p3773
S'Python 2.7: d:\\python27\\python.exe'
p3774
sS'session'
p3775
g69
(g70
g71
NtRp3776
(dp3777
g74
(dp3778
sg76
(lp3779
g69
(g78
g71
NtRp3780
(dp3781
g74
(dp3782
g82
I5
ssg83
Nsg76
(lp3783
g69
(g85
g71
NtRp3784
(dp3785
g74
(dp3786
sg83
g3780
sg76
(lp3787
g69
(g90
g71
NtRp3788
(dp3789
g74
(dp3790
g94
g95
ssg83
g3784
sg76
(lp3791
S'flash'
p3792
asbag69
(g90
g71
NtRp3793
(dp3794
g74
(dp3795
g101
g102
ssg83
g3784
sg76
(lp3796
S':'
asbag69
(g90
g71
NtRp3797
(dp3798
g74
(dp3799
sg83
g3784
sg76
(lp3800
g69
(g70
g71
NtRp3801
(dp3802
g74
(dp3803
g82
I5
ssg83
g3797
sg76
(lp3804
S'None'
p3805
asbasbasbag69
(g85
g71
NtRp3806
(dp3807
g74
(dp3808
sg83
g3780
sg76
(lp3809
g69
(g90
g71
NtRp3810
(dp3811
g74
(dp3812
g94
g95
ssg83
g3806
sg76
(lp3813
S'last_orderby'
p3814
asbag69
(g90
g71
NtRp3815
(dp3816
g74
(dp3817
g101
g102
ssg83
g3806
sg76
(lp3818
S':'
asbag69
(g90
g71
NtRp3819
(dp3820
g74
(dp3821
sg83
g3806
sg76
(lp3822
g69
(g70
g71
NtRp3823
(dp3824
g74
(dp3825
g82
I5
ssg83
g3819
sg76
(lp3826
S'None'
p3827
asbasbasbag69
(g85
g71
NtRp3828
(dp3829
g74
(dp3830
sg83
g3780
sg76
(lp3831
g69
(g90
g71
NtRp3832
(dp3833
g74
(dp3834
g94
g95
ssg83
g3828
sg76
(lp3835
S'last_query'
p3836
asbag69
(g90
g71
NtRp3837
(dp3838
g74
(dp3839
g101
g102
ssg83
g3828
sg76
(lp3840
S':'
asbag69
(g90
g71
NtRp3841
(dp3842
g74
(dp3843
sg83
g3828
sg76
(lp3844
g69
(g70
g71
NtRp3845
(dp3846
g74
(dp3847
g82
I5
ssg83
g3841
sg76
(lp3848
S'db.user_chart.id>0'
p3849
asbasbasbasbasbsS'etype'
p3850
S"<type 'exceptions.SyntaxError'>"
p3851
sS'date'
p3852
S'Wed Nov 07 22:52:56 2012'
p3853
sS'response'
p3854
g69
(g70
g71
NtRp3855
(dp3856
g74
(dp3857
sg76
(lp3858
g69
(g78
g71
NtRp3859
(dp3860
g74
(dp3861
g82
I5
ssg83
Nsg76
(lp3862
g69
(g85
g71
NtRp3863
(dp3864
g74
(dp3865
sg83
g3859
sg76
(lp3866
g69
(g90
g71
NtRp3867
(dp3868
g74
(dp3869
g94
g95
ssg83
g3863
sg76
(lp3870
g167
asbag69
(g90
g71
NtRp3871
(dp3872
g74
(dp3873
g101
g102
ssg83
g3863
sg76
(lp3874
S':'
asbag69
(g90
g71
NtRp3875
(dp3876
g74
(dp3877
sg83
g3863
sg76
(lp3878
g69
(g70
g71
NtRp3879
(dp3880
g74
(dp3881
g82
I5
ssg83
g3875
sg76
(lp3882
S'<cStringIO.StringO object at 0x04D68D00>'
p3883
asbasbasbag69
(g85
g71
NtRp3884
(dp3885
g74
(dp3886
sg83
g3859
sg76
(lp3887
g69
(g90
g71
NtRp3888
(dp3889
g74
(dp3890
g94
g95
ssg83
g3884
sg76
(lp3891
g255
asbag69
(g90
g71
NtRp3892
(dp3893
g74
(dp3894
g101
g102
ssg83
g3884
sg76
(lp3895
S':'
asbag69
(g90
g71
NtRp3896
(dp3897
g74
(dp3898
sg83
g3884
sg76
(lp3899
g69
(g70
g71
NtRp3900
(dp3901
g74
(dp3902
g82
I5
ssg83
g3896
sg76
(lp3903
g69
(g78
g71
NtRp3904
(dp3905
g74
(dp3906
g82
I4
ssg83
Nsg76
(lp3907
g69
(g85
g71
NtRp3908
(dp3909
g74
(dp3910
sg83
g3904
sg76
(lp3911
g69
(g90
g71
NtRp3912
(dp3913
g74
(dp3914
g94
g95
ssg83
g3908
sg76
(lp3915
S'session_id_web2py_xlchart_dashboard'
p3916
asbag69
(g90
g71
NtRp3917
(dp3918
g74
(dp3919
g101
g102
ssg83
g3908
sg76
(lp3920
S':'
asbag69
(g90
g71
NtRp3921
(dp3922
g74
(dp3923
sg83
g3908
sg76
(lp3924
g69
(g70
g71
NtRp3925
(dp3926
g74
(dp3927
g82
I4
ssg83
g3921
sg76
(lp3928
g487
ag69
(g78
g71
NtRp3929
(dp3930
g74
(dp3931
g82
I3
ssg83
Nsg76
(lp3932
g69
(g85
g71
NtRp3933
(dp3934
g74
(dp3935
sg83
g3929
sg76
(lp3936
g69
(g90
g71
NtRp3937
(dp3938
g74
(dp3939
g94
g95
ssg83
g3933
sg76
(lp3940
g306
asbag69
(g90
g71
NtRp3941
(dp3942
g74
(dp3943
g101
g102
ssg83
g3933
sg76
(lp3944
S':'
asbag69
(g90
g71
NtRp3945
(dp3946
g74
(dp3947
sg83
g3933
sg76
(lp3948
g69
(g70
g71
NtRp3949
(dp3950
g74
(dp3951
g82
I3
ssg83
g3945
sg76
(lp3952
S''
asbasbasbag69
(g85
g71
NtRp3953
(dp3954
g74
(dp3955
sg83
g3929
sg76
(lp3956
g69
(g90
g71
NtRp3957
(dp3958
g74
(dp3959
g94
g95
ssg83
g3953
sg76
(lp3960
g327
asbag69
(g90
g71
NtRp3961
(dp3962
g74
(dp3963
g101
g102
ssg83
g3953
sg76
(lp3964
S':'
asbag69
(g90
g71
NtRp3965
(dp3966
g74
(dp3967
sg83
g3953
sg76
(lp3968
g69
(g70
g71
NtRp3969
(dp3970
g74
(dp3971
g82
I3
ssg83
g3965
sg76
(lp3972
S''
asbasbasbag69
(g85
g71
NtRp3973
(dp3974
g74
(dp3975
sg83
g3929
sg76
(lp3976
g69
(g90
g71
NtRp3977
(dp3978
g74
(dp3979
g94
g95
ssg83
g3973
sg76
(lp3980
g348
asbag69
(g90
g71
NtRp3981
(dp3982
g74
(dp3983
g101
g102
ssg83
g3973
sg76
(lp3984
S':'
asbag69
(g90
g71
NtRp3985
(dp3986
g74
(dp3987
sg83
g3973
sg76
(lp3988
g69
(g70
g71
NtRp3989
(dp3990
g74
(dp3991
g82
I3
ssg83
g3985
sg76
(lp3992
S''
asbasbasbag69
(g85
g71
NtRp3993
(dp3994
g74
(dp3995
sg83
g3929
sg76
(lp3996
g69
(g90
g71
NtRp3997
(dp3998
g74
(dp3999
g94
g95
ssg83
g3993
sg76
(lp4000
g369
asbag69
(g90
g71
NtRp4001
(dp4002
g74
(dp4003
g101
g102
ssg83
g3993
sg76
(lp4004
S':'
asbag69
(g90
g71
NtRp4005
(dp4006
g74
(dp4007
sg83
g3993
sg76
(lp4008
g69
(g70
g71
NtRp4009
(dp4010
g74
(dp4011
g82
I3
ssg83
g4005
sg76
(lp4012
S''
asbasbasbag69
(g85
g71
NtRp4013
(dp4014
g74
(dp4015
sg83
g3929
sg76
(lp4016
g69
(g90
g71
NtRp4017
(dp4018
g74
(dp4019
g94
g95
ssg83
g4013
sg76
(lp4020
g390
asbag69
(g90
g71
NtRp4021
(dp4022
g74
(dp4023
g101
g102
ssg83
g4013
sg76
(lp4024
S':'
asbag69
(g90
g71
NtRp4025
(dp4026
g74
(dp4027
sg83
g4013
sg76
(lp4028
g69
(g70
g71
NtRp4029
(dp4030
g74
(dp4031
g82
I3
ssg83
g4025
sg76
(lp4032
S''
asbasbasbag69
(g85
g71
NtRp4033
(dp4034
g74
(dp4035
sg83
g3929
sg76
(lp4036
g69
(g90
g71
NtRp4037
(dp4038
g74
(dp4039
g94
g95
ssg83
g4033
sg76
(lp4040
g411
asbag69
(g90
g71
NtRp4041
(dp4042
g74
(dp4043
g101
g102
ssg83
g4033
sg76
(lp4044
S':'
asbag69
(g90
g71
NtRp4045
(dp4046
g74
(dp4047
sg83
g4033
sg76
(lp4048
g69
(g70
g71
NtRp4049
(dp4050
g74
(dp4051
g82
I3
ssg83
g4045
sg76
(lp4052
S'/'
asbasbasbag69
(g85
g71
NtRp4053
(dp4054
g74
(dp4055
sg83
g3929
sg76
(lp4056
g69
(g90
g71
NtRp4057
(dp4058
g74
(dp4059
g94
g95
ssg83
g4053
sg76
(lp4060
g432
asbag69
(g90
g71
NtRp4061
(dp4062
g74
(dp4063
g101
g102
ssg83
g4053
sg76
(lp4064
S':'
asbag69
(g90
g71
NtRp4065
(dp4066
g74
(dp4067
sg83
g4053
sg76
(lp4068
g69
(g70
g71
NtRp4069
(dp4070
g74
(dp4071
g82
I3
ssg83
g4065
sg76
(lp4072
S''
asbasbasbag69
(g85
g71
NtRp4073
(dp4074
g74
(dp4075
sg83
g3929
sg76
(lp4076
g69
(g90
g71
NtRp4077
(dp4078
g74
(dp4079
g94
g95
ssg83
g4073
sg76
(lp4080
g453
asbag69
(g90
g71
NtRp4081
(dp4082
g74
(dp4083
g101
g102
ssg83
g4073
sg76
(lp4084
S':'
asbag69
(g90
g71
NtRp4085
(dp4086
g74
(dp4087
sg83
g4073
sg76
(lp4088
g69
(g70
g71
NtRp4089
(dp4090
g74
(dp4091
g82
I3
ssg83
g4085
sg76
(lp4092
S''
asbasbasbasbasbasbasbasbasbasbasbag69
(g85
g71
NtRp4093
(dp4094
g74
(dp4095
sg83
g3859
sg76
(lp4096
g69
(g90
g71
NtRp4097
(dp4098
g74
(dp4099
g94
g95
ssg83
g4093
sg76
(lp4100
S'delimiters'
p4101
asbag69
(g90
g71
NtRp4102
(dp4103
g74
(dp4104
g101
g102
ssg83
g4093
sg76
(lp4105
S':'
asbag69
(g90
g71
NtRp4106
(dp4107
g74
(dp4108
sg83
g4093
sg76
(lp4109
g69
(g70
g71
NtRp4110
(dp4111
g74
(dp4112
g82
I5
ssg83
g4106
sg76
(lp4113
g69
(g78
g71
NtRp4114
(dp4115
g74
(dp4116
g82
I4
ssg83
Nsg76
(lp4117
g69
(g85
g71
NtRp4118
(dp4119
g74
(dp4120
sg83
g4114
sg76
(lp4121
g69
(g90
g71
NtRp4122
(dp4123
g74
(dp4124
sg83
g4118
sg76
(lp4125
g69
(g70
g71
NtRp4126
(dp4127
g74
(dp4128
g82
I4
ssg83
g4122
sg76
(lp4129
S'{{'
p4130
asbasbasbag69
(g85
g71
NtRp4131
(dp4132
g74
(dp4133
sg83
g4114
sg76
(lp4134
g69
(g90
g71
NtRp4135
(dp4136
g74
(dp4137
sg83
g4131
sg76
(lp4138
g69
(g70
g71
NtRp4139
(dp4140
g74
(dp4141
g82
I4
ssg83
g4135
sg76
(lp4142
S'}}'
p4143
asbasbasbasbasbasbasbag69
(g85
g71
NtRp4144
(dp4145
g74
(dp4146
sg83
g3859
sg76
(lp4147
g69
(g90
g71
NtRp4148
(dp4149
g74
(dp4150
g94
g95
ssg83
g4144
sg76
(lp4151
S'files'
p4152
asbag69
(g90
g71
NtRp4153
(dp4154
g74
(dp4155
g101
g102
ssg83
g4144
sg76
(lp4156
S':'
asbag69
(g90
g71
NtRp4157
(dp4158
g74
(dp4159
sg83
g4144
sg76
(lp4160
g69
(g70
g71
NtRp4161
(dp4162
g74
(dp4163
g82
I5
ssg83
g4157
sg76
(lp4164
g69
(g78
g71
NtRp4165
(dp4166
g74
(dp4167
g82
I4
ssg83
Nsg76
(lp4168
sbasbasbasbag69
(g85
g71
NtRp4169
(dp4170
g74
(dp4171
sg83
g3859
sg76
(lp4172
g69
(g90
g71
NtRp4173
(dp4174
g74
(dp4175
g94
g95
ssg83
g4169
sg76
(lp4176
S'flash'
p4177
asbag69
(g90
g71
NtRp4178
(dp4179
g74
(dp4180
g101
g102
ssg83
g4169
sg76
(lp4181
S':'
asbag69
(g90
g71
NtRp4182
(dp4183
g74
(dp4184
sg83
g4169
sg76
(lp4185
g69
(g70
g71
NtRp4186
(dp4187
g74
(dp4188
g82
I5
ssg83
g4182
sg76
(lp4189
S''
asbasbasbag69
(g85
g71
NtRp4190
(dp4191
g74
(dp4192
sg83
g3859
sg76
(lp4193
g69
(g90
g71
NtRp4194
(dp4195
g74
(dp4196
g94
g95
ssg83
g4190
sg76
(lp4197
S'generic_patterns'
p4198
asbag69
(g90
g71
NtRp4199
(dp4200
g74
(dp4201
g101
g102
ssg83
g4190
sg76
(lp4202
S':'
asbag69
(g90
g71
NtRp4203
(dp4204
g74
(dp4205
sg83
g4190
sg76
(lp4206
g69
(g70
g71
NtRp4207
(dp4208
g74
(dp4209
g82
I5
ssg83
g4203
sg76
(lp4210
g69
(g78
g71
NtRp4211
(dp4212
g74
(dp4213
g82
I4
ssg83
Nsg76
(lp4214
g69
(g85
g71
NtRp4215
(dp4216
g74
(dp4217
sg83
g4211
sg76
(lp4218
g69
(g90
g71
NtRp4219
(dp4220
g74
(dp4221
sg83
g4215
sg76
(lp4222
g69
(g70
g71
NtRp4223
(dp4224
g74
(dp4225
g82
I4
ssg83
g4219
sg76
(lp4226
S'*'
asbasbasbasbasbasbasbag69
(g85
g71
NtRp4227
(dp4228
g74
(dp4229
sg83
g3859
sg76
(lp4230
g69
(g90
g71
NtRp4231
(dp4232
g74
(dp4233
g94
g95
ssg83
g4227
sg76
(lp4234
S'google_analytics_id'
p4235
asbag69
(g90
g71
NtRp4236
(dp4237
g74
(dp4238
g101
g102
ssg83
g4227
sg76
(lp4239
S':'
asbag69
(g90
g71
NtRp4240
(dp4241
g74
(dp4242
sg83
g4227
sg76
(lp4243
g69
(g70
g71
NtRp4244
(dp4245
g74
(dp4246
g82
I5
ssg83
g4240
sg76
(lp4247
S'None'
p4248
asbasbasbag69
(g85
g71
NtRp4249
(dp4250
g74
(dp4251
sg83
g3859
sg76
(lp4252
g69
(g90
g71
NtRp4253
(dp4254
g74
(dp4255
g94
g95
ssg83
g4249
sg76
(lp4256
S'headers'
p4257
asbag69
(g90
g71
NtRp4258
(dp4259
g74
(dp4260
g101
g102
ssg83
g4249
sg76
(lp4261
S':'
asbag69
(g90
g71
NtRp4262
(dp4263
g74
(dp4264
sg83
g4249
sg76
(lp4265
g69
(g70
g71
NtRp4266
(dp4267
g74
(dp4268
g82
I5
ssg83
g4262
sg76
(lp4269
g69
(g78
g71
NtRp4270
(dp4271
g74
(dp4272
g82
I4
ssg83
Nsg76
(lp4273
g69
(g85
g71
NtRp4274
(dp4275
g74
(dp4276
sg83
g4270
sg76
(lp4277
g69
(g90
g71
NtRp4278
(dp4279
g74
(dp4280
g94
g95
ssg83
g4274
sg76
(lp4281
S'X-Powered-By'
p4282
asbag69
(g90
g71
NtRp4283
(dp4284
g74
(dp4285
g101
g102
ssg83
g4274
sg76
(lp4286
S':'
asbag69
(g90
g71
NtRp4287
(dp4288
g74
(dp4289
sg83
g4274
sg76
(lp4290
g69
(g70
g71
NtRp4291
(dp4292
g74
(dp4293
g82
I4
ssg83
g4287
sg76
(lp4294
S'web2py'
p4295
asbasbasbasbasbasbasbag69
(g85
g71
NtRp4296
(dp4297
g74
(dp4298
sg83
g3859
sg76
(lp4299
g69
(g90
g71
NtRp4300
(dp4301
g74
(dp4302
g94
g95
ssg83
g4296
sg76
(lp4303
S'menu'
p4304
asbag69
(g90
g71
NtRp4305
(dp4306
g74
(dp4307
g101
g102
ssg83
g4296
sg76
(lp4308
S':'
asbag69
(g90
g71
NtRp4309
(dp4310
g74
(dp4311
sg83
g4296
sg76
(lp4312
g69
(g70
g71
NtRp4313
(dp4314
g74
(dp4315
g82
I5
ssg83
g4309
sg76
(lp4316
g69
(g78
g71
NtRp4317
(dp4318
g74
(dp4319
g82
I4
ssg83
Nsg76
(lp4320
g69
(g85
g71
NtRp4321
(dp4322
g74
(dp4323
sg83
g4317
sg76
(lp4324
g69
(g90
g71
NtRp4325
(dp4326
g74
(dp4327
sg83
g4321
sg76
(lp4328
g69
(g70
g71
NtRp4329
(dp4330
g74
(dp4331
g82
I4
ssg83
g4325
sg76
(lp4332
g69
(g78
g71
NtRp4333
(dp4334
g74
(dp4335
g82
I3
ssg83
Nsg76
(lp4336
g69
(g85
g71
NtRp4337
(dp4338
g74
(dp4339
sg83
g4333
sg76
(lp4340
g69
(g90
g71
NtRp4341
(dp4342
g74
(dp4343
sg83
g4337
sg76
(lp4344
g69
(g70
g71
NtRp4345
(dp4346
g74
(dp4347
g82
I3
ssg83
g4341
sg76
(lp4348
cgluon.languages
lazyT_unpickle
p4349
(S't\t\x00\x00\x00Dashboard'
tRp4350
asbasbasbag69
(g85
g71
NtRp4351
(dp4352
g74
(dp4353
sg83
g4333
sg76
(lp4354
g69
(g90
g71
NtRp4355
(dp4356
g74
(dp4357
sg83
g4351
sg76
(lp4358
g69
(g70
g71
NtRp4359
(dp4360
g74
(dp4361
g82
I3
ssg83
g4355
sg76
(lp4362
g855
asbasbasbag69
(g85
g71
NtRp4363
(dp4364
g74
(dp4365
sg83
g4333
sg76
(lp4366
g69
(g90
g71
NtRp4367
(dp4368
g74
(dp4369
sg83
g4363
sg76
(lp4370
g69
(g70
g71
NtRp4371
(dp4372
g74
(dp4373
g82
I3
ssg83
g4367
sg76
(lp4374
S'/web2py_xlchart_dashboard/default/index'
p4375
asbasbasbag69
(g85
g71
NtRp4376
(dp4377
g74
(dp4378
sg83
g4333
sg76
(lp4379
g69
(g90
g71
NtRp4380
(dp4381
g74
(dp4382
sg83
g4376
sg76
(lp4383
g69
(g70
g71
NtRp4384
(dp4385
g74
(dp4386
g82
I3
ssg83
g4380
sg76
(lp4387
g69
(g78
g71
NtRp4388
(dp4389
g74
(dp4390
g82
I2
ssg83
Nsg76
(lp4391
g69
(g85
g71
NtRp4392
(dp4393
g74
(dp4394
sg83
g4388
sg76
(lp4395
g69
(g90
g71
NtRp4396
(dp4397
g74
(dp4398
sg83
g4392
sg76
(lp4399
g69
(g70
g71
NtRp4400
(dp4401
g74
(dp4402
g82
I2
ssg83
g4396
sg76
(lp4403
g69
(g78
g71
NtRp4404
(dp4405
g74
(dp4406
g82
I1
ssg83
Nsg76
(lp4407
g69
(g85
g71
NtRp4408
(dp4409
g74
(dp4410
sg83
g4404
sg76
(lp4411
g69
(g90
g71
NtRp4412
(dp4413
g74
(dp4414
sg83
g4408
sg76
(lp4415
g69
(g70
g71
NtRp4416
(dp4417
g74
(dp4418
g82
I1
ssg83
g4412
sg76
(lp4419
g4349
(S's\x0c\x00\x00\x00My Dashboard'
tRp4420
asbasbasbag69
(g85
g71
NtRp4421
(dp4422
g74
(dp4423
sg83
g4404
sg76
(lp4424
g69
(g90
g71
NtRp4425
(dp4426
g74
(dp4427
sg83
g4421
sg76
(lp4428
g69
(g70
g71
NtRp4429
(dp4430
g74
(dp4431
g82
I1
ssg83
g4425
sg76
(lp4432
I00
asbasbasbag69
(g85
g71
NtRp4433
(dp4434
g74
(dp4435
sg83
g4404
sg76
(lp4436
g69
(g90
g71
NtRp4437
(dp4438
g74
(dp4439
sg83
g4433
sg76
(lp4440
g69
(g70
g71
NtRp4441
(dp4442
g74
(dp4443
g82
I1
ssg83
g4437
sg76
(lp4444
S'/web2py_xlchart_dashboard/default/index'
p4445
asbasbasbag69
(g85
g71
NtRp4446
(dp4447
g74
(dp4448
sg83
g4404
sg76
(lp4449
g69
(g90
g71
NtRp4450
(dp4451
g74
(dp4452
sg83
g4446
sg76
(lp4453
g69
(g70
g71
NtRp4454
(dp4455
g74
(dp4456
g82
I1
ssg83
g4450
sg76
(lp4457
(lp4458
(g4349
(S's\x11\x00\x00\x00Manage Dashboards'
tRp4459
I00
S'/web2py_xlchart_dashboard/dashboard/manage_dashboard'
tp4460
a(g4349
(S's\r\x00\x00\x00Add Dashboard'
tRp4461
I00
S'/web2py_xlchart_dashboard/default/add_workbook'
tp4462
a(g4349
(S's\x0f\x00\x00\x00Manage Projects'
tRp4463
I00
S'/web2py_xlchart_dashboard/default/add_workbook'
tp4464
a(g4349
(S's\x0b\x00\x00\x00Add Project'
tRp4465
I00
S'/web2py_xlchart_dashboard/default/add_workbook'
tp4466
aasbasbasbasbasbasbasbag69
(g85
g71
NtRp4467
(dp4468
g74
(dp4469
sg83
g4388
sg76
(lp4470
g69
(g90
g71
NtRp4471
(dp4472
g74
(dp4473
sg83
g4467
sg76
(lp4474
g69
(g70
g71
NtRp4475
(dp4476
g74
(dp4477
g82
I2
ssg83
g4471
sg76
(lp4478
g69
(g78
g71
NtRp4479
(dp4480
g74
(dp4481
g82
I1
ssg83
Nsg76
(lp4482
g69
(g85
g71
NtRp4483
(dp4484
g74
(dp4485
sg83
g4479
sg76
(lp4486
g69
(g90
g71
NtRp4487
(dp4488
g74
(dp4489
sg83
g4483
sg76
(lp4490
g69
(g70
g71
NtRp4491
(dp4492
g74
(dp4493
g82
I1
ssg83
g4487
sg76
(lp4494
g4349
(S't\t\x00\x00\x00Workbooks'
tRp4495
asbasbasbag69
(g85
g71
NtRp4496
(dp4497
g74
(dp4498
sg83
g4479
sg76
(lp4499
g69
(g90
g71
NtRp4500
(dp4501
g74
(dp4502
sg83
g4496
sg76
(lp4503
g69
(g70
g71
NtRp4504
(dp4505
g74
(dp4506
g82
I1
ssg83
g4500
sg76
(lp4507
I00
asbasbasbag69
(g85
g71
NtRp4508
(dp4509
g74
(dp4510
sg83
g4479
sg76
(lp4511
g69
(g90
g71
NtRp4512
(dp4513
g74
(dp4514
sg83
g4508
sg76
(lp4515
g69
(g70
g71
NtRp4516
(dp4517
g74
(dp4518
g82
I1
ssg83
g4512
sg76
(lp4519
S'/web2py_xlchart_dashboard/default/index'
p4520
asbasbasbag69
(g85
g71
NtRp4521
(dp4522
g74
(dp4523
sg83
g4479
sg76
(lp4524
g69
(g90
g71
NtRp4525
(dp4526
g74
(dp4527
sg83
g4521
sg76
(lp4528
g69
(g70
g71
NtRp4529
(dp4530
g74
(dp4531
g82
I1
ssg83
g4525
sg76
(lp4532
(lp4533
(g4349
(S's\x0c\x00\x00\x00Add Workbook'
tRp4534
I00
S'/web2py_xlchart_dashboard/default/add_workbook'
tp4535
aasbasbasbasbasbasbasbasbasbasbasbasbasbasbasbag69
(g85
g71
NtRp4536
(dp4537
g74
(dp4538
sg83
g4317
sg76
(lp4539
g69
(g90
g71
NtRp4540
(dp4541
g74
(dp4542
sg83
g4536
sg76
(lp4543
g69
(g70
g71
NtRp4544
(dp4545
g74
(dp4546
g82
I4
ssg83
g4540
sg76
(lp4547
g69
(g78
g71
NtRp4548
(dp4549
g74
(dp4550
g82
I3
ssg83
Nsg76
(lp4551
g69
(g85
g71
NtRp4552
(dp4553
g74
(dp4554
sg83
g4548
sg76
(lp4555
g69
(g90
g71
NtRp4556
(dp4557
g74
(dp4558
sg83
g4552
sg76
(lp4559
g69
(g70
g71
NtRp4560
(dp4561
g74
(dp4562
g82
I3
ssg83
g4556
sg76
(lp4563
g69
(cgluon.html
SPAN
p4564
g71
NtRp4565
(dp4566
g74
(dp4567
S'_class'
p4568
S'highlighted'
p4569
ssg83
Nsg76
(lp4570
g4295
asbasbasbasbag69
(g85
g71
NtRp4571
(dp4572
g74
(dp4573
sg83
g4548
sg76
(lp4574
g69
(g90
g71
NtRp4575
(dp4576
g74
(dp4577
sg83
g4571
sg76
(lp4578
g69
(g70
g71
NtRp4579
(dp4580
g74
(dp4581
g82
I3
ssg83
g4575
sg76
(lp4582
g855
asbasbasbag69
(g85
g71
NtRp4583
(dp4584
g74
(dp4585
sg83
g4548
sg76
(lp4586
g69
(g90
g71
NtRp4587
(dp4588
g74
(dp4589
sg83
g4583
sg76
(lp4590
g69
(g70
g71
NtRp4591
(dp4592
g74
(dp4593
g82
I3
ssg83
g4587
sg76
(lp4594
S'http://web2py.com'
p4595
asbasbasbag69
(g85
g71
NtRp4596
(dp4597
g74
(dp4598
sg83
g4548
sg76
(lp4599
g69
(g90
g71
NtRp4600
(dp4601
g74
(dp4602
sg83
g4596
sg76
(lp4603
g69
(g70
g71
NtRp4604
(dp4605
g74
(dp4606
g82
I3
ssg83
g4600
sg76
(lp4607
g69
(g78
g71
NtRp4608
(dp4609
g74
(dp4610
g82
I2
ssg83
Nsg76
(lp4611
g69
(g85
g71
NtRp4612
(dp4613
g74
(dp4614
sg83
g4608
sg76
(lp4615
g69
(g90
g71
NtRp4616
(dp4617
g74
(dp4618
sg83
g4612
sg76
(lp4619
g69
(g70
g71
NtRp4620
(dp4621
g74
(dp4622
g82
I2
ssg83
g4616
sg76
(lp4623
g69
(g78
g71
NtRp4624
(dp4625
g74
(dp4626
g82
I1
ssg83
Nsg76
(lp4627
g69
(g85
g71
NtRp4628
(dp4629
g74
(dp4630
sg83
g4624
sg76
(lp4631
g69
(g90
g71
NtRp4632
(dp4633
g74
(dp4634
sg83
g4628
sg76
(lp4635
g69
(g70
g71
NtRp4636
(dp4637
g74
(dp4638
g82
I1
ssg83
g4632
sg76
(lp4639
g4349
(S's\x08\x00\x00\x00My Sites'
tRp4640
asbasbasbag69
(g85
g71
NtRp4641
(dp4642
g74
(dp4643
sg83
g4624
sg76
(lp4644
g69
(g90
g71
NtRp4645
(dp4646
g74
(dp4647
sg83
g4641
sg76
(lp4648
g69
(g70
g71
NtRp4649
(dp4650
g74
(dp4651
g82
I1
ssg83
g4645
sg76
(lp4652
I00
asbasbasbag69
(g85
g71
NtRp4653
(dp4654
g74
(dp4655
sg83
g4624
sg76
(lp4656
g69
(g90
g71
NtRp4657
(dp4658
g74
(dp4659
sg83
g4653
sg76
(lp4660
g69
(g70
g71
NtRp4661
(dp4662
g74
(dp4663
g82
I1
ssg83
g4657
sg76
(lp4664
S'/admin/default/site'
p4665
asbasbasbasbasbasbasbag69
(g85
g71
NtRp4666
(dp4667
g74
(dp4668
sg83
g4608
sg76
(lp4669
g69
(g90
g71
NtRp4670
(dp4671
g74
(dp4672
sg83
g4666
sg76
(lp4673
g69
(g70
g71
NtRp4674
(dp4675
g74
(dp4676
g82
I2
ssg83
g4670
sg76
(lp4677
g69
(g78
g71
NtRp4678
(dp4679
g74
(dp4680
g82
I1
ssg83
Nsg76
(lp4681
g69
(g85
g71
NtRp4682
(dp4683
g74
(dp4684
sg83
g4678
sg76
(lp4685
g69
(g90
g71
NtRp4686
(dp4687
g74
(dp4688
sg83
g4682
sg76
(lp4689
g69
(g70
g71
NtRp4690
(dp4691
g74
(dp4692
g82
I1
ssg83
g4686
sg76
(lp4693
g4349
(S's\x08\x00\x00\x00This App'
tRp4694
asbasbasbag69
(g85
g71
NtRp4695
(dp4696
g74
(dp4697
sg83
g4678
sg76
(lp4698
g69
(g90
g71
NtRp4699
(dp4700
g74
(dp4701
sg83
g4695
sg76
(lp4702
g69
(g70
g71
NtRp4703
(dp4704
g74
(dp4705
g82
I1
ssg83
g4699
sg76
(lp4706
I00
asbasbasbag69
(g85
g71
NtRp4707
(dp4708
g74
(dp4709
sg83
g4678
sg76
(lp4710
g69
(g90
g71
NtRp4711
(dp4712
g74
(dp4713
sg83
g4707
sg76
(lp4714
g69
(g70
g71
NtRp4715
(dp4716
g74
(dp4717
g82
I1
ssg83
g4711
sg76
(lp4718
S'/admin/default/design/web2py_xlchart_dashboard'
p4719
asbasbasbag69
(g85
g71
NtRp4720
(dp4721
g74
(dp4722
sg83
g4678
sg76
(lp4723
g69
(g90
g71
NtRp4724
(dp4725
g74
(dp4726
sg83
g4720
sg76
(lp4727
g69
(g70
g71
NtRp4728
(dp4729
g74
(dp4730
g82
I1
ssg83
g4724
sg76
(lp4731
(lp4732
(g4349
(S's\n\x00\x00\x00Controller'
tRp4733
I00
S'/admin/default/edit/web2py_xlchart_dashboard/controllers/charts.py'
tp4734
a(g4349
(S's\x04\x00\x00\x00View'
tRp4735
I00
S'/admin/default/edit/web2py_xlchart_dashboard/views/charts/subscribe_form.html'
tp4736
a(g4349
(S's\x06\x00\x00\x00Layout'
tRp4737
I00
S'/admin/default/edit/web2py_xlchart_dashboard/views/layout.html'
tp4738
a(g4349
(S's\n\x00\x00\x00Stylesheet'
tRp4739
I00
S'/admin/default/edit/web2py_xlchart_dashboard/static/css/web2py.css'
tp4740
a(g4349
(S's\x08\x00\x00\x00DB Model'
tRp4741
I00
S'/admin/default/edit/web2py_xlchart_dashboard/models/db.py'
tp4742
a(g4349
(S's\n\x00\x00\x00Menu Model'
tRp4743
I00
S'/admin/default/edit/web2py_xlchart_dashboard/models/menu.py'
tp4744
a(g4349
(S's\x08\x00\x00\x00Database'
tRp4745
I00
S'/web2py_xlchart_dashboard/appadmin/index'
tp4746
a(g4349
(S's\x06\x00\x00\x00Errors'
tRp4747
I00
S'/admin/default/errors/web2py_xlchart_dashboard'
tp4748
a(g4349
(S's\x05\x00\x00\x00About'
tRp4749
I00
S'/admin/default/about/web2py_xlchart_dashboard'
tp4750
aasbasbasbasbasbasbasbag69
(g85
g71
NtRp4751
(dp4752
g74
(dp4753
sg83
g4608
sg76
(lp4754
g69
(g90
g71
NtRp4755
(dp4756
g74
(dp4757
sg83
g4751
sg76
(lp4758
g69
(g70
g71
NtRp4759
(dp4760
g74
(dp4761
g82
I2
ssg83
g4755
sg76
(lp4762
g69
(g78
g71
NtRp4763
(dp4764
g74
(dp4765
g82
I1
ssg83
Nsg76
(lp4766
g69
(g85
g71
NtRp4767
(dp4768
g74
(dp4769
sg83
g4763
sg76
(lp4770
g69
(g90
g71
NtRp4771
(dp4772
g74
(dp4773
sg83
g4767
sg76
(lp4774
g69
(g70
g71
NtRp4775
(dp4776
g74
(dp4777
g82
I1
ssg83
g4771
sg76
(lp4778
S'web2py.com'
p4779
asbasbasbag69
(g85
g71
NtRp4780
(dp4781
g74
(dp4782
sg83
g4763
sg76
(lp4783
g69
(g90
g71
NtRp4784
(dp4785
g74
(dp4786
sg83
g4780
sg76
(lp4787
g69
(g70
g71
NtRp4788
(dp4789
g74
(dp4790
g82
I1
ssg83
g4784
sg76
(lp4791
I00
asbasbasbag69
(g85
g71
NtRp4792
(dp4793
g74
(dp4794
sg83
g4763
sg76
(lp4795
g69
(g90
g71
NtRp4796
(dp4797
g74
(dp4798
sg83
g4792
sg76
(lp4799
g69
(g70
g71
NtRp4800
(dp4801
g74
(dp4802
g82
I1
ssg83
g4796
sg76
(lp4803
S'http://www.web2py.com'
p4804
asbasbasbag69
(g85
g71
NtRp4805
(dp4806
g74
(dp4807
sg83
g4763
sg76
(lp4808
g69
(g90
g71
NtRp4809
(dp4810
g74
(dp4811
sg83
g4805
sg76
(lp4812
g69
(g70
g71
NtRp4813
(dp4814
g74
(dp4815
g82
I1
ssg83
g4809
sg76
(lp4816
(lp4817
(g4349
(S's\x08\x00\x00\x00Download'
tRp4818
I00
S'http://www.web2py.com/examples/default/download'
p4819
tp4820
a(g4349
(S's\x07\x00\x00\x00Support'
tRp4821
I00
S'http://www.web2py.com/examples/default/support'
p4822
tp4823
a(g4349
(S's\x04\x00\x00\x00Demo'
tRp4824
I00
S'http://web2py.com/demo_admin'
p4825
tp4826
a(g4349
(S's\x0e\x00\x00\x00Quick Examples'
tRp4827
I00
S'http://web2py.com/examples/default/examples'
p4828
tp4829
a(g4349
(S's\x03\x00\x00\x00FAQ'
tRp4830
I00
S'http://web2py.com/AlterEgo'
p4831
tp4832
a(g4349
(S's\x06\x00\x00\x00Videos'
tRp4833
I00
S'http://www.web2py.com/examples/default/videos/'
p4834
tp4835
a(g4349
(S's\x11\x00\x00\x00Free Applications'
tRp4836
I00
S'http://web2py.com/appliances'
p4837
tp4838
a(g4349
(S's\x07\x00\x00\x00Plugins'
tRp4839
I00
S'http://web2py.com/plugins'
p4840
tp4841
a(g4349
(S's\x07\x00\x00\x00Layouts'
tRp4842
I00
S'http://web2py.com/layouts'
p4843
tp4844
a(g4349
(S's\x07\x00\x00\x00Recipes'
tRp4845
I00
S'http://web2pyslices.com/'
p4846
tp4847
a(g4349
(S's\x08\x00\x00\x00Semantic'
tRp4848
I00
S'http://web2py.com/semantic'
p4849
tp4850
aasbasbasbasbasbasbasbag69
(g85
g71
NtRp4851
(dp4852
g74
(dp4853
sg83
g4608
sg76
(lp4854
g69
(g90
g71
NtRp4855
(dp4856
g74
(dp4857
sg83
g4851
sg76
(lp4858
g69
(g70
g71
NtRp4859
(dp4860
g74
(dp4861
g82
I2
ssg83
g4855
sg76
(lp4862
g69
(g78
g71
NtRp4863
(dp4864
g74
(dp4865
g82
I1
ssg83
Nsg76
(lp4866
g69
(g85
g71
NtRp4867
(dp4868
g74
(dp4869
sg83
g4863
sg76
(lp4870
g69
(g90
g71
NtRp4871
(dp4872
g74
(dp4873
sg83
g4867
sg76
(lp4874
g69
(g70
g71
NtRp4875
(dp4876
g74
(dp4877
g82
I1
ssg83
g4871
sg76
(lp4878
g4349
(S's\r\x00\x00\x00Documentation'
tRp4879
asbasbasbag69
(g85
g71
NtRp4880
(dp4881
g74
(dp4882
sg83
g4863
sg76
(lp4883
g69
(g90
g71
NtRp4884
(dp4885
g74
(dp4886
sg83
g4880
sg76
(lp4887
g69
(g70
g71
NtRp4888
(dp4889
g74
(dp4890
g82
I1
ssg83
g4884
sg76
(lp4891
I00
asbasbasbag69
(g85
g71
NtRp4892
(dp4893
g74
(dp4894
sg83
g4863
sg76
(lp4895
g69
(g90
g71
NtRp4896
(dp4897
g74
(dp4898
sg83
g4892
sg76
(lp4899
g69
(g70
g71
NtRp4900
(dp4901
g74
(dp4902
g82
I1
ssg83
g4896
sg76
(lp4903
S'http://www.web2py.com/book'
p4904
asbasbasbag69
(g85
g71
NtRp4905
(dp4906
g74
(dp4907
sg83
g4863
sg76
(lp4908
g69
(g90
g71
NtRp4909
(dp4910
g74
(dp4911
sg83
g4905
sg76
(lp4912
g69
(g70
g71
NtRp4913
(dp4914
g74
(dp4915
g82
I1
ssg83
g4909
sg76
(lp4916
(lp4917
(g4349
(S's\x07\x00\x00\x00Preface'
tRp4918
I00
S'http://www.web2py.com/book/default/chapter/00'
p4919
tp4920
a(g4349
(S's\x0c\x00\x00\x00Introduction'
tRp4921
I00
S'http://www.web2py.com/book/default/chapter/01'
p4922
tp4923
a(g4349
(S's\x06\x00\x00\x00Python'
tRp4924
I00
S'http://www.web2py.com/book/default/chapter/02'
p4925
tp4926
a(g4349
(S's\x08\x00\x00\x00Overview'
tRp4927
I00
S'http://www.web2py.com/book/default/chapter/03'
p4928
tp4929
a(g4349
(S's\x08\x00\x00\x00The Core'
tRp4930
I00
S'http://www.web2py.com/book/default/chapter/04'
p4931
tp4932
a(g4349
(S's\t\x00\x00\x00The Views'
tRp4933
I00
S'http://www.web2py.com/book/default/chapter/05'
p4934
tp4935
a(g4349
(S's\x08\x00\x00\x00Database'
tRp4936
I00
S'http://www.web2py.com/book/default/chapter/06'
p4937
tp4938
a(g4349
(S's\x14\x00\x00\x00Forms and Validators'
tRp4939
I00
S'http://www.web2py.com/book/default/chapter/07'
p4940
tp4941
a(g4349
(S's\r\x00\x00\x00Email and SMS'
tRp4942
I00
S'http://www.web2py.com/book/default/chapter/08'
p4943
tp4944
a(g4349
(S's\x0e\x00\x00\x00Access Control'
tRp4945
I00
S'http://www.web2py.com/book/default/chapter/09'
p4946
tp4947
a(g4349
(S's\x08\x00\x00\x00Services'
tRp4948
I00
S'http://www.web2py.com/book/default/chapter/10'
p4949
tp4950
a(g4349
(S's\x0c\x00\x00\x00Ajax Recipes'
tRp4951
I00
S'http://www.web2py.com/book/default/chapter/11'
p4952
tp4953
a(g4349
(S's\x16\x00\x00\x00Components and Plugins'
tRp4954
I00
S'http://www.web2py.com/book/default/chapter/12'
p4955
tp4956
a(g4349
(S's\x12\x00\x00\x00Deployment Recipes'
tRp4957
I00
S'http://www.web2py.com/book/default/chapter/13'
p4958
tp4959
a(g4349
(S's\r\x00\x00\x00Other Recipes'
tRp4960
I00
S'http://www.web2py.com/book/default/chapter/14'
p4961
tp4962
a(g4349
(S's\r\x00\x00\x00Buy this book'
tRp4963
I00
S'http://stores.lulu.com/web2py'
p4964
tp4965
aasbasbasbasbasbasbasbag69
(g85
g71
NtRp4966
(dp4967
g74
(dp4968
sg83
g4608
sg76
(lp4969
g69
(g90
g71
NtRp4970
(dp4971
g74
(dp4972
sg83
g4966
sg76
(lp4973
g69
(g70
g71
NtRp4974
(dp4975
g74
(dp4976
g82
I2
ssg83
g4970
sg76
(lp4977
g69
(g78
g71
NtRp4978
(dp4979
g74
(dp4980
g82
I1
ssg83
Nsg76
(lp4981
g69
(g85
g71
NtRp4982
(dp4983
g74
(dp4984
sg83
g4978
sg76
(lp4985
g69
(g90
g71
NtRp4986
(dp4987
g74
(dp4988
sg83
g4982
sg76
(lp4989
g69
(g70
g71
NtRp4990
(dp4991
g74
(dp4992
g82
I1
ssg83
g4986
sg76
(lp4993
g4349
(S's\t\x00\x00\x00Community'
tRp4994
asbasbasbag69
(g85
g71
NtRp4995
(dp4996
g74
(dp4997
sg83
g4978
sg76
(lp4998
g69
(g90
g71
NtRp4999
(dp5000
g74
(dp5001
sg83
g4995
sg76
(lp5002
g69
(g70
g71
NtRp5003
(dp5004
g74
(dp5005
g82
I1
ssg83
g4999
sg76
(lp5006
I00
asbasbasbag69
(g85
g71
NtRp5007
(dp5008
g74
(dp5009
sg83
g4978
sg76
(lp5010
g69
(g90
g71
NtRp5011
(dp5012
g74
(dp5013
sg83
g5007
sg76
(lp5014
g69
(g70
g71
NtRp5015
(dp5016
g74
(dp5017
g82
I1
ssg83
g5011
sg76
(lp5018
Nasbasbasbag69
(g85
g71
NtRp5019
(dp5020
g74
(dp5021
sg83
g4978
sg76
(lp5022
g69
(g90
g71
NtRp5023
(dp5024
g74
(dp5025
sg83
g5019
sg76
(lp5026
g69
(g70
g71
NtRp5027
(dp5028
g74
(dp5029
g82
I1
ssg83
g5023
sg76
(lp5030
(lp5031
(g4349
(S's\x06\x00\x00\x00Groups'
tRp5032
I00
S'http://www.web2py.com/examples/default/usergroups'
p5033
tp5034
a(g4349
(S's\x07\x00\x00\x00Twitter'
tRp5035
I00
S'http://twitter.com/web2py'
p5036
tp5037
a(g4349
(S's\t\x00\x00\x00Live Chat'
tRp5038
I00
S'http://webchat.freenode.net/?channels=web2py'
p5039
tp5040
aasbasbasbasbasbasbasbag69
(g85
g71
NtRp5041
(dp5042
g74
(dp5043
sg83
g4608
sg76
(lp5044
g69
(g90
g71
NtRp5045
(dp5046
g74
(dp5047
sg83
g5041
sg76
(lp5048
g69
(g70
g71
NtRp5049
(dp5050
g74
(dp5051
g82
I2
ssg83
g5045
sg76
(lp5052
g69
(g78
g71
NtRp5053
(dp5054
g74
(dp5055
g82
I1
ssg83
Nsg76
(lp5056
g69
(g85
g71
NtRp5057
(dp5058
g74
(dp5059
sg83
g5053
sg76
(lp5060
g69
(g90
g71
NtRp5061
(dp5062
g74
(dp5063
sg83
g5057
sg76
(lp5064
g69
(g70
g71
NtRp5065
(dp5066
g74
(dp5067
g82
I1
ssg83
g5061
sg76
(lp5068
g4349
(S's\x07\x00\x00\x00Plugins'
tRp5069
asbasbasbag69
(g85
g71
NtRp5070
(dp5071
g74
(dp5072
sg83
g5053
sg76
(lp5073
g69
(g90
g71
NtRp5074
(dp5075
g74
(dp5076
sg83
g5070
sg76
(lp5077
g69
(g70
g71
NtRp5078
(dp5079
g74
(dp5080
g82
I1
ssg83
g5074
sg76
(lp5081
I00
asbasbasbag69
(g85
g71
NtRp5082
(dp5083
g74
(dp5084
sg83
g5053
sg76
(lp5085
g69
(g90
g71
NtRp5086
(dp5087
g74
(dp5088
sg83
g5082
sg76
(lp5089
g69
(g70
g71
NtRp5090
(dp5091
g74
(dp5092
g82
I1
ssg83
g5086
sg76
(lp5093
Nasbasbasbag69
(g85
g71
NtRp5094
(dp5095
g74
(dp5096
sg83
g5053
sg76
(lp5097
g69
(g90
g71
NtRp5098
(dp5099
g74
(dp5100
sg83
g5094
sg76
(lp5101
g69
(g70
g71
NtRp5102
(dp5103
g74
(dp5104
g82
I1
ssg83
g5098
sg76
(lp5105
(lp5106
(S'plugin_wiki'
p5107
I00
S'http://web2py.com/examples/default/download'
p5108
tp5109
a(g4349
(S's\r\x00\x00\x00Other Plugins'
tRp5110
I00
g4840
tp5111
a(g4349
(S's\x0e\x00\x00\x00Layout Plugins'
tRp5112
I00
g4843
tp5113
aasbasbasbasbasbasbasbasbasbasbasbasbasbasbasbasbasbasbasbag69
(g85
g71
NtRp5114
(dp5115
g74
(dp5116
sg83
g3859
sg76
(lp5117
g69
(g90
g71
NtRp5118
(dp5119
g74
(dp5120
g94
g95
ssg83
g5114
sg76
(lp5121
S'meta'
p5122
asbag69
(g90
g71
NtRp5123
(dp5124
g74
(dp5125
g101
g102
ssg83
g5114
sg76
(lp5126
S':'
asbag69
(g90
g71
NtRp5127
(dp5128
g74
(dp5129
sg83
g5114
sg76
(lp5130
g69
(g70
g71
NtRp5131
(dp5132
g74
(dp5133
g82
I5
ssg83
g5127
sg76
(lp5134
g69
(g78
g71
NtRp5135
(dp5136
g74
(dp5137
g82
I4
ssg83
Nsg76
(lp5138
g69
(g85
g71
NtRp5139
(dp5140
g74
(dp5141
sg83
g5135
sg76
(lp5142
g69
(g90
g71
NtRp5143
(dp5144
g74
(dp5145
g94
g95
ssg83
g5139
sg76
(lp5146
S'author'
p5147
asbag69
(g90
g71
NtRp5148
(dp5149
g74
(dp5150
g101
g102
ssg83
g5139
sg76
(lp5151
S':'
asbag69
(g90
g71
NtRp5152
(dp5153
g74
(dp5154
sg83
g5139
sg76
(lp5155
g69
(g70
g71
NtRp5156
(dp5157
g74
(dp5158
g82
I4
ssg83
g5152
sg76
(lp5159
S'Your Name <you@example.com>'
p5160
asbasbasbag69
(g85
g71
NtRp5161
(dp5162
g74
(dp5163
sg83
g5135
sg76
(lp5164
g69
(g90
g71
NtRp5165
(dp5166
g74
(dp5167
g94
g95
ssg83
g5161
sg76
(lp5168
S'description'
p5169
asbag69
(g90
g71
NtRp5170
(dp5171
g74
(dp5172
g101
g102
ssg83
g5161
sg76
(lp5173
S':'
asbag69
(g90
g71
NtRp5174
(dp5175
g74
(dp5176
sg83
g5161
sg76
(lp5177
g69
(g70
g71
NtRp5178
(dp5179
g74
(dp5180
g82
I4
ssg83
g5174
sg76
(lp5181
S'a cool new app'
p5182
asbasbasbag69
(g85
g71
NtRp5183
(dp5184
g74
(dp5185
sg83
g5135
sg76
(lp5186
g69
(g90
g71
NtRp5187
(dp5188
g74
(dp5189
g94
g95
ssg83
g5183
sg76
(lp5190
S'generator'
p5191
asbag69
(g90
g71
NtRp5192
(dp5193
g74
(dp5194
g101
g102
ssg83
g5183
sg76
(lp5195
S':'
asbag69
(g90
g71
NtRp5196
(dp5197
g74
(dp5198
sg83
g5183
sg76
(lp5199
g69
(g70
g71
NtRp5200
(dp5201
g74
(dp5202
g82
I4
ssg83
g5196
sg76
(lp5203
S'Web2py Web Framework'
p5204
asbasbasbag69
(g85
g71
NtRp5205
(dp5206
g74
(dp5207
sg83
g5135
sg76
(lp5208
g69
(g90
g71
NtRp5209
(dp5210
g74
(dp5211
g94
g95
ssg83
g5205
sg76
(lp5212
S'keywords'
p5213
asbag69
(g90
g71
NtRp5214
(dp5215
g74
(dp5216
g101
g102
ssg83
g5205
sg76
(lp5217
S':'
asbag69
(g90
g71
NtRp5218
(dp5219
g74
(dp5220
sg83
g5205
sg76
(lp5221
g69
(g70
g71
NtRp5222
(dp5223
g74
(dp5224
g82
I4
ssg83
g5218
sg76
(lp5225
S'web2py, python, framework'
p5226
asbasbasbasbasbasbasbag69
(g85
g71
NtRp5227
(dp5228
g74
(dp5229
sg83
g3859
sg76
(lp5230
g69
(g90
g71
NtRp5231
(dp5232
g74
(dp5233
g94
g95
ssg83
g5227
sg76
(lp5234
S'models_to_run'
p5235
asbag69
(g90
g71
NtRp5236
(dp5237
g74
(dp5238
g101
g102
ssg83
g5227
sg76
(lp5239
S':'
asbag69
(g90
g71
NtRp5240
(dp5241
g74
(dp5242
sg83
g5227
sg76
(lp5243
g69
(g70
g71
NtRp5244
(dp5245
g74
(dp5246
g82
I5
ssg83
g5240
sg76
(lp5247
g69
(g78
g71
NtRp5248
(dp5249
g74
(dp5250
g82
I4
ssg83
Nsg76
(lp5251
g69
(g85
g71
NtRp5252
(dp5253
g74
(dp5254
sg83
g5248
sg76
(lp5255
g69
(g90
g71
NtRp5256
(dp5257
g74
(dp5258
sg83
g5252
sg76
(lp5259
g69
(g70
g71
NtRp5260
(dp5261
g74
(dp5262
g82
I4
ssg83
g5256
sg76
(lp5263
S'^\\w+\\.py$'
p5264
asbasbasbag69
(g85
g71
NtRp5265
(dp5266
g74
(dp5267
sg83
g5248
sg76
(lp5268
g69
(g90
g71
NtRp5269
(dp5270
g74
(dp5271
sg83
g5265
sg76
(lp5272
g69
(g70
g71
NtRp5273
(dp5274
g74
(dp5275
g82
I4
ssg83
g5269
sg76
(lp5276
S'^charts/\\w+\\.py$'
p5277
asbasbasbag69
(g85
g71
NtRp5278
(dp5279
g74
(dp5280
sg83
g5248
sg76
(lp5281
g69
(g90
g71
NtRp5282
(dp5283
g74
(dp5284
sg83
g5278
sg76
(lp5285
g69
(g70
g71
NtRp5286
(dp5287
g74
(dp5288
g82
I4
ssg83
g5282
sg76
(lp5289
S'^charts/subscribe_form/\\w+\\.py$'
p5290
asbasbasbasbasbasbasbag69
(g85
g71
NtRp5291
(dp5292
g74
(dp5293
sg83
g3859
sg76
(lp5294
g69
(g90
g71
NtRp5295
(dp5296
g74
(dp5297
g94
g95
ssg83
g5291
sg76
(lp5298
S'postprocessing'
p5299
asbag69
(g90
g71
NtRp5300
(dp5301
g74
(dp5302
g101
g102
ssg83
g5291
sg76
(lp5303
S':'
asbag69
(g90
g71
NtRp5304
(dp5305
g74
(dp5306
sg83
g5291
sg76
(lp5307
g69
(g70
g71
NtRp5308
(dp5309
g74
(dp5310
g82
I5
ssg83
g5304
sg76
(lp5311
g69
(g78
g71
NtRp5312
(dp5313
g74
(dp5314
g82
I4
ssg83
Nsg76
(lp5315
sbasbasbasbag69
(g85
g71
NtRp5316
(dp5317
g74
(dp5318
sg83
g3859
sg76
(lp5319
g69
(g90
g71
NtRp5320
(dp5321
g74
(dp5322
g94
g95
ssg83
g5316
sg76
(lp5323
S'session_cookie_expires'
p5324
asbag69
(g90
g71
NtRp5325
(dp5326
g74
(dp5327
g101
g102
ssg83
g5316
sg76
(lp5328
S':'
asbag69
(g90
g71
NtRp5329
(dp5330
g74
(dp5331
sg83
g5316
sg76
(lp5332
g69
(g70
g71
NtRp5333
(dp5334
g74
(dp5335
g82
I5
ssg83
g5329
sg76
(lp5336
S'None'
p5337
asbasbasbag69
(g85
g71
NtRp5338
(dp5339
g74
(dp5340
sg83
g3859
sg76
(lp5341
g69
(g90
g71
NtRp5342
(dp5343
g74
(dp5344
g94
g95
ssg83
g5338
sg76
(lp5345
S'session_data_name'
p5346
asbag69
(g90
g71
NtRp5347
(dp5348
g74
(dp5349
g101
g102
ssg83
g5338
sg76
(lp5350
S':'
asbag69
(g90
g71
NtRp5351
(dp5352
g74
(dp5353
sg83
g5338
sg76
(lp5354
g69
(g70
g71
NtRp5355
(dp5356
g74
(dp5357
g82
I5
ssg83
g5351
sg76
(lp5358
S'session_data_web2py_xlchart_dashboard'
p5359
asbasbasbag69
(g85
g71
NtRp5360
(dp5361
g74
(dp5362
sg83
g3859
sg76
(lp5363
g69
(g90
g71
NtRp5364
(dp5365
g74
(dp5366
g94
g95
ssg83
g5360
sg76
(lp5367
S'session_file'
p5368
asbag69
(g90
g71
NtRp5369
(dp5370
g74
(dp5371
g101
g102
ssg83
g5360
sg76
(lp5372
S':'
asbag69
(g90
g71
NtRp5373
(dp5374
g74
(dp5375
sg83
g5360
sg76
(lp5376
g69
(g70
g71
NtRp5377
(dp5378
g74
(dp5379
g82
I5
ssg83
g5373
sg76
(lp5380
S"<open file 'D:\\web2py\\source\\web2py\\applications\\web2py_xlchart_dashboard\\sessions\\127.0.0.1-c53b418b-4944-4d07-915c-a998b8630125', mode 'rb+' at 0x04B90288>"
p5381
asbasbasbag69
(g85
g71
NtRp5382
(dp5383
g74
(dp5384
sg83
g3859
sg76
(lp5385
g69
(g90
g71
NtRp5386
(dp5387
g74
(dp5388
g94
g95
ssg83
g5382
sg76
(lp5389
S'session_filename'
p5390
asbag69
(g90
g71
NtRp5391
(dp5392
g74
(dp5393
g101
g102
ssg83
g5382
sg76
(lp5394
S':'
asbag69
(g90
g71
NtRp5395
(dp5396
g74
(dp5397
sg83
g5382
sg76
(lp5398
g69
(g70
g71
NtRp5399
(dp5400
g74
(dp5401
g82
I5
ssg83
g5395
sg76
(lp5402
S'D:\\web2py\\source\\web2py\\applications\\web2py_xlchart_dashboard\\sessions\\127.0.0.1-c53b418b-4944-4d07-915c-a998b8630125'
p5403
asbasbasbag69
(g85
g71
NtRp5404
(dp5405
g74
(dp5406
sg83
g3859
sg76
(lp5407
g69
(g90
g71
NtRp5408
(dp5409
g74
(dp5410
g94
g95
ssg83
g5404
sg76
(lp5411
S'session_id'
p5412
asbag69
(g90
g71
NtRp5413
(dp5414
g74
(dp5415
g101
g102
ssg83
g5404
sg76
(lp5416
S':'
asbag69
(g90
g71
NtRp5417
(dp5418
g74
(dp5419
sg83
g5404
sg76
(lp5420
g69
(g70
g71
NtRp5421
(dp5422
g74
(dp5423
g82
I5
ssg83
g5417
sg76
(lp5424
g487
asbasbasbag69
(g85
g71
NtRp5425
(dp5426
g74
(dp5427
sg83
g3859
sg76
(lp5428
g69
(g90
g71
NtRp5429
(dp5430
g74
(dp5431
g94
g95
ssg83
g5425
sg76
(lp5432
S'session_id_name'
p5433
asbag69
(g90
g71
NtRp5434
(dp5435
g74
(dp5436
g101
g102
ssg83
g5425
sg76
(lp5437
S':'
asbag69
(g90
g71
NtRp5438
(dp5439
g74
(dp5440
sg83
g5425
sg76
(lp5441
g69
(g70
g71
NtRp5442
(dp5443
g74
(dp5444
g82
I5
ssg83
g5438
sg76
(lp5445
g3916
asbasbasbag69
(g85
g71
NtRp5446
(dp5447
g74
(dp5448
sg83
g3859
sg76
(lp5449
g69
(g90
g71
NtRp5450
(dp5451
g74
(dp5452
g94
g95
ssg83
g5446
sg76
(lp5453
S'session_locked'
p5454
asbag69
(g90
g71
NtRp5455
(dp5456
g74
(dp5457
g101
g102
ssg83
g5446
sg76
(lp5458
S':'
asbag69
(g90
g71
NtRp5459
(dp5460
g74
(dp5461
sg83
g5446
sg76
(lp5462
g69
(g70
g71
NtRp5463
(dp5464
g74
(dp5465
g82
I5
ssg83
g5459
sg76
(lp5466
g112
asbasbasbag69
(g85
g71
NtRp5467
(dp5468
g74
(dp5469
sg83
g3859
sg76
(lp5470
g69
(g90
g71
NtRp5471
(dp5472
g74
(dp5473
g94
g95
ssg83
g5467
sg76
(lp5474
S'session_new'
p5475
asbag69
(g90
g71
NtRp5476
(dp5477
g74
(dp5478
g101
g102
ssg83
g5467
sg76
(lp5479
S':'
asbag69
(g90
g71
NtRp5480
(dp5481
g74
(dp5482
sg83
g5467
sg76
(lp5483
g69
(g70
g71
NtRp5484
(dp5485
g74
(dp5486
g82
I5
ssg83
g5480
sg76
(lp5487
g855
asbasbasbag69
(g85
g71
NtRp5488
(dp5489
g74
(dp5490
sg83
g3859
sg76
(lp5491
g69
(g90
g71
NtRp5492
(dp5493
g74
(dp5494
g94
g95
ssg83
g5488
sg76
(lp5495
S'session_storage_type'
p5496
asbag69
(g90
g71
NtRp5497
(dp5498
g74
(dp5499
g101
g102
ssg83
g5488
sg76
(lp5500
S':'
asbag69
(g90
g71
NtRp5501
(dp5502
g74
(dp5503
sg83
g5488
sg76
(lp5504
g69
(g70
g71
NtRp5505
(dp5506
g74
(dp5507
g82
I5
ssg83
g5501
sg76
(lp5508
g3587
asbasbasbag69
(g85
g71
NtRp5509
(dp5510
g74
(dp5511
sg83
g3859
sg76
(lp5512
g69
(g90
g71
NtRp5513
(dp5514
g74
(dp5515
g94
g95
ssg83
g5509
sg76
(lp5516
S'status'
p5517
asbag69
(g90
g71
NtRp5518
(dp5519
g74
(dp5520
g101
g102
ssg83
g5509
sg76
(lp5521
S':'
asbag69
(g90
g71
NtRp5522
(dp5523
g74
(dp5524
sg83
g5509
sg76
(lp5525
g69
(g70
g71
NtRp5526
(dp5527
g74
(dp5528
g82
I5
ssg83
g5522
sg76
(lp5529
S'200'
p5530
asbasbasbag69
(g85
g71
NtRp5531
(dp5532
g74
(dp5533
sg83
g3859
sg76
(lp5534
g69
(g90
g71
NtRp5535
(dp5536
g74
(dp5537
g94
g95
ssg83
g5531
sg76
(lp5538
S'subtitle'
p5539
asbag69
(g90
g71
NtRp5540
(dp5541
g74
(dp5542
g101
g102
ssg83
g5531
sg76
(lp5543
S':'
asbag69
(g90
g71
NtRp5544
(dp5545
g74
(dp5546
sg83
g5531
sg76
(lp5547
g69
(g70
g71
NtRp5548
(dp5549
g74
(dp5550
g82
I5
ssg83
g5544
sg76
(lp5551
g4349
(S's\r\x00\x00\x00customize me!'
tRp5552
asbasbasbag69
(g85
g71
NtRp5553
(dp5554
g74
(dp5555
sg83
g3859
sg76
(lp5556
g69
(g90
g71
NtRp5557
(dp5558
g74
(dp5559
g94
g95
ssg83
g5553
sg76
(lp5560
S'title'
p5561
asbag69
(g90
g71
NtRp5562
(dp5563
g74
(dp5564
g101
g102
ssg83
g5553
sg76
(lp5565
S':'
asbag69
(g90
g71
NtRp5566
(dp5567
g74
(dp5568
sg83
g5553
sg76
(lp5569
g69
(g70
g71
NtRp5570
(dp5571
g74
(dp5572
g82
I5
ssg83
g5566
sg76
(lp5573
S'Web2py Xlchart Dashboard'
p5574
asbasbasbag69
(g85
g71
NtRp5575
(dp5576
g74
(dp5577
sg83
g3859
sg76
(lp5578
g69
(g90
g71
NtRp5579
(dp5580
g74
(dp5581
g94
g95
ssg83
g5575
sg76
(lp5582
S'view'
p5583
asbag69
(g90
g71
NtRp5584
(dp5585
g74
(dp5586
g101
g102
ssg83
g5575
sg76
(lp5587
S':'
asbag69
(g90
g71
NtRp5588
(dp5589
g74
(dp5590
sg83
g5575
sg76
(lp5591
g69
(g70
g71
NtRp5592
(dp5593
g74
(dp5594
g82
I5
ssg83
g5588
sg76
(lp5595
S'charts/subscribe_form.html'
p5596
asbasbasbasbasbsS'locals'
p5597
(dp5598
S'fields'
p5599
S"{'description': 'Test', 'id_chart': '12', 'is_user': None, 'title': 'Test'}"
p5600
sS'self'
p5601
S'<Table user_chart (id,id_user,id_chart,title,description)>'
p5602
sS'new_fields'
p5603
g21
sS'name'
p5604
S"'is_user'"
p5605
sS'update'
p5606
g855
sssS'traceback'
p5607
S'Traceback (most recent call last):\n  File "D:\\web2py\\source\\web2py\\gluon\\restricted.py", line 212, in restricted\n    exec ccode in environment\n  File "D:\\web2py\\source\\web2py\\applications\\web2py_xlchart_dashboard\\controllers/charts.py", line 30, in <module>\n  File "D:\\web2py\\source\\web2py\\gluon\\globals.py", line 188, in <lambda>\n    self._caller = lambda f: f()\n  File "D:\\web2py\\source\\web2py\\applications\\web2py_xlchart_dashboard\\controllers/charts.py", line 16, in subscribe_form\n    if form.process().accepted:\n  File "D:\\web2py\\source\\web2py\\gluon\\html.py", line 2170, in process\n    self.validate(**kwargs)\n  File "D:\\web2py\\source\\web2py\\gluon\\html.py", line 2109, in validate\n    if self.accepts(**kwargs):\n  File "D:\\web2py\\source\\web2py\\gluon\\sqlhtml.py", line 1475, in accepts\n    self.vars.id = self.table.insert(**fields)\n  File "D:\\web2py\\source\\web2py\\gluon\\dal.py", line 7806, in insert\n    ret =  self._db._adapter.insert(self,self._listify(fields))\n  File "D:\\web2py\\source\\web2py\\gluon\\dal.py", line 7744, in _listify\n    \'Field %s does not belong to the table\' % name\nSyntaxError: Field is_user does not belong to the table\n'
p5608
s.