(dp1
S'output'
p2
S'<class \'sqlite3.OperationalError\'> near "<": syntax error'
p3
sS'layer'
p4
S'D:\\web2py\\source\\web2py\\applications\\web2py_xlchart_dashboard\\controllers/charts.py'
p5
sS'code'
p6
S'# coding: utf8\n# try something like\ndef index(): \n    return dict(message="hello from charts.py")\n    \ndef user_charts():\n    query = db(db.user_chart.id_user == auth.user_id)\n    constraints = {\'user_chart\':query}\n    grid = SQLFORM.smartgrid(db.user_chart,constraints=constraints)\n    return dict(grid = grid)\n\nresponse._vars=response._caller(user_charts)\n'
p7
sS'snapshot'
p8
(dp9
S'exception'
p10
(dp11
S'__module__'
p12
S"'sqlite3'"
p13
sS'__getslice__'
p14
S"<method-wrapper '__getslice__' of OperationalError object>"
p15
sS'__str__'
p16
S"<method-wrapper '__str__' of OperationalError object>"
p17
sS'__reduce__'
p18
S'<built-in method __reduce__ of OperationalError object>'
p19
sS'__dict__'
p20
S'{}'
p21
sS'__sizeof__'
p22
S'<built-in method __sizeof__ of OperationalError object>'
p23
sS'__weakref__'
p24
S'None'
p25
sS'__init__'
p26
S"<method-wrapper '__init__' of OperationalError object>"
p27
sS'__setattr__'
p28
S"<method-wrapper '__setattr__' of OperationalError object>"
p29
sS'__reduce_ex__'
p30
S'<built-in method __reduce_ex__ of OperationalError object>'
p31
sS'__new__'
p32
S'<built-in method __new__ of type object>'
p33
sS'__format__'
p34
S'<built-in method __format__ of OperationalError object>'
p35
sS'__class__'
p36
S"<class 'sqlite3.OperationalError'>"
p37
sS'__doc__'
p38
S'None'
p39
sS'__getitem__'
p40
S"<method-wrapper '__getitem__' of OperationalError object>"
p41
sS'__setstate__'
p42
S'<built-in method __setstate__ of OperationalError object>'
p43
sS'__getattribute__'
p44
S"<method-wrapper '__getattribute__' of OperationalError object>"
p45
sS'args'
p46
S'(\'near "<": syntax error\',)'
p47
sS'__subclasshook__'
p48
S'<built-in method __subclasshook__ of type object>'
p49
sS'__unicode__'
p50
S'<built-in method __unicode__ of OperationalError object>'
p51
sS'__delattr__'
p52
S"<method-wrapper '__delattr__' of OperationalError object>"
p53
sS'__repr__'
p54
S"<method-wrapper '__repr__' of OperationalError object>"
p55
sS'__hash__'
p56
S"<method-wrapper '__hash__' of OperationalError object>"
p57
ssS'evalue'
p58
S'near "<": syntax error'
p59
sS'request'
p60
ccopy_reg
_reconstructor
p61
(cgluon.html
BEAUTIFY
p62
c__builtin__
object
p63
NtRp64
(dp65
S'attributes'
p66
(dp67
sS'components'
p68
(lp69
g61
(cgluon.html
TABLE
p70
g63
NtRp71
(dp72
g66
(dp73
S'level'
p74
I5
ssS'parent'
p75
Nsg68
(lp76
g61
(cgluon.html
TR
p77
g63
NtRp78
(dp79
g66
(dp80
sg75
g71
sg68
(lp81
g61
(cgluon.html
TD
p82
g63
NtRp83
(dp84
g66
(dp85
S'_style'
p86
S'font-weight:bold;vertical-align:top'
p87
ssg75
g78
sg68
(lp88
S'ajax'
p89
asbag61
(g82
g63
NtRp90
(dp91
g66
(dp92
S'_valign'
p93
S'top'
p94
ssg75
g78
sg68
(lp95
S':'
asbag61
(g82
g63
NtRp96
(dp97
g66
(dp98
sg75
g78
sg68
(lp99
g61
(g62
g63
NtRp100
(dp101
g66
(dp102
g74
I5
ssg75
g96
sg68
(lp103
S'False'
p104
asbasbasbag61
(g77
g63
NtRp105
(dp106
g66
(dp107
sg75
g71
sg68
(lp108
g61
(g82
g63
NtRp109
(dp110
g66
(dp111
g86
g87
ssg75
g105
sg68
(lp112
S'application'
p113
asbag61
(g82
g63
NtRp114
(dp115
g66
(dp116
g93
g94
ssg75
g105
sg68
(lp117
S':'
asbag61
(g82
g63
NtRp118
(dp119
g66
(dp120
sg75
g105
sg68
(lp121
g61
(g62
g63
NtRp122
(dp123
g66
(dp124
g74
I5
ssg75
g118
sg68
(lp125
S'web2py_xlchart_dashboard'
p126
asbasbasbag61
(g77
g63
NtRp127
(dp128
g66
(dp129
sg75
g71
sg68
(lp130
g61
(g82
g63
NtRp131
(dp132
g66
(dp133
g86
g87
ssg75
g127
sg68
(lp134
g46
asbag61
(g82
g63
NtRp135
(dp136
g66
(dp137
g93
g94
ssg75
g127
sg68
(lp138
S':'
asbag61
(g82
g63
NtRp139
(dp140
g66
(dp141
sg75
g127
sg68
(lp142
g61
(g62
g63
NtRp143
(dp144
g66
(dp145
g74
I5
ssg75
g139
sg68
(lp146
g61
(g70
g63
NtRp147
(dp148
g66
(dp149
g74
I4
ssg75
Nsg68
(lp150
g61
(g77
g63
NtRp151
(dp152
g66
(dp153
sg75
g147
sg68
(lp154
g61
(g82
g63
NtRp155
(dp156
g66
(dp157
sg75
g151
sg68
(lp158
g61
(g62
g63
NtRp159
(dp160
g66
(dp161
g74
I4
ssg75
g155
sg68
(lp162
S'user_chart'
p163
asbasbasbasbasbasbasbag61
(g77
g63
NtRp164
(dp165
g66
(dp166
sg75
g71
sg68
(lp167
g61
(g82
g63
NtRp168
(dp169
g66
(dp170
g86
g87
ssg75
g164
sg68
(lp171
S'body'
p172
asbag61
(g82
g63
NtRp173
(dp174
g66
(dp175
g93
g94
ssg75
g164
sg68
(lp176
S':'
asbag61
(g82
g63
NtRp177
(dp178
g66
(dp179
sg75
g164
sg68
(lp180
g61
(g62
g63
NtRp181
(dp182
g66
(dp183
g74
I5
ssg75
g177
sg68
(lp184
S'<cStringIO.StringO object at 0x051BFE80>'
p185
asbasbasbag61
(g77
g63
NtRp186
(dp187
g66
(dp188
sg75
g71
sg68
(lp189
g61
(g82
g63
NtRp190
(dp191
g66
(dp192
g86
g87
ssg75
g186
sg68
(lp193
S'cid'
p194
asbag61
(g82
g63
NtRp195
(dp196
g66
(dp197
g93
g94
ssg75
g186
sg68
(lp198
S':'
asbag61
(g82
g63
NtRp199
(dp200
g66
(dp201
sg75
g186
sg68
(lp202
g61
(g62
g63
NtRp203
(dp204
g66
(dp205
g74
I5
ssg75
g199
sg68
(lp206
S'None'
p207
asbasbasbag61
(g77
g63
NtRp208
(dp209
g66
(dp210
sg75
g71
sg68
(lp211
g61
(g82
g63
NtRp212
(dp213
g66
(dp214
g86
g87
ssg75
g208
sg68
(lp215
S'client'
p216
asbag61
(g82
g63
NtRp217
(dp218
g66
(dp219
g93
g94
ssg75
g208
sg68
(lp220
S':'
asbag61
(g82
g63
NtRp221
(dp222
g66
(dp223
sg75
g208
sg68
(lp224
g61
(g62
g63
NtRp225
(dp226
g66
(dp227
g74
I5
ssg75
g221
sg68
(lp228
S'127.0.0.1'
p229
asbasbasbag61
(g77
g63
NtRp230
(dp231
g66
(dp232
sg75
g71
sg68
(lp233
g61
(g82
g63
NtRp234
(dp235
g66
(dp236
g86
g87
ssg75
g230
sg68
(lp237
S'controller'
p238
asbag61
(g82
g63
NtRp239
(dp240
g66
(dp241
g93
g94
ssg75
g230
sg68
(lp242
S':'
asbag61
(g82
g63
NtRp243
(dp244
g66
(dp245
sg75
g230
sg68
(lp246
g61
(g62
g63
NtRp247
(dp248
g66
(dp249
g74
I5
ssg75
g243
sg68
(lp250
S'charts'
p251
asbasbasbag61
(g77
g63
NtRp252
(dp253
g66
(dp254
sg75
g71
sg68
(lp255
g61
(g82
g63
NtRp256
(dp257
g66
(dp258
g86
g87
ssg75
g252
sg68
(lp259
S'cookies'
p260
asbag61
(g82
g63
NtRp261
(dp262
g66
(dp263
g93
g94
ssg75
g252
sg68
(lp264
S':'
asbag61
(g82
g63
NtRp265
(dp266
g66
(dp267
sg75
g252
sg68
(lp268
g61
(g62
g63
NtRp269
(dp270
g66
(dp271
g74
I5
ssg75
g265
sg68
(lp272
g61
(g70
g63
NtRp273
(dp274
g66
(dp275
g74
I4
ssg75
Nsg68
(lp276
g61
(g77
g63
NtRp277
(dp278
g66
(dp279
sg75
g273
sg68
(lp280
g61
(g82
g63
NtRp281
(dp282
g66
(dp283
g86
g87
ssg75
g277
sg68
(lp284
S'session_id_admin'
p285
asbag61
(g82
g63
NtRp286
(dp287
g66
(dp288
g93
g94
ssg75
g277
sg68
(lp289
S':'
asbag61
(g82
g63
NtRp290
(dp291
g66
(dp292
sg75
g277
sg68
(lp293
g61
(g62
g63
NtRp294
(dp295
g66
(dp296
g74
I4
ssg75
g290
sg68
(lp297
S'127.0.0.1-ec8f5d1b-9c65-44a6-9f89-aa0c08eebd4d'
p298
ag61
(g70
g63
NtRp299
(dp300
g66
(dp301
g74
I3
ssg75
Nsg68
(lp302
g61
(g77
g63
NtRp303
(dp304
g66
(dp305
sg75
g299
sg68
(lp306
g61
(g82
g63
NtRp307
(dp308
g66
(dp309
g86
g87
ssg75
g303
sg68
(lp310
S'comment'
p311
asbag61
(g82
g63
NtRp312
(dp313
g66
(dp314
g93
g94
ssg75
g303
sg68
(lp315
S':'
asbag61
(g82
g63
NtRp316
(dp317
g66
(dp318
sg75
g303
sg68
(lp319
g61
(g62
g63
NtRp320
(dp321
g66
(dp322
g74
I3
ssg75
g316
sg68
(lp323
S''
asbasbasbag61
(g77
g63
NtRp324
(dp325
g66
(dp326
sg75
g299
sg68
(lp327
g61
(g82
g63
NtRp328
(dp329
g66
(dp330
g86
g87
ssg75
g324
sg68
(lp331
S'domain'
p332
asbag61
(g82
g63
NtRp333
(dp334
g66
(dp335
g93
g94
ssg75
g324
sg68
(lp336
S':'
asbag61
(g82
g63
NtRp337
(dp338
g66
(dp339
sg75
g324
sg68
(lp340
g61
(g62
g63
NtRp341
(dp342
g66
(dp343
g74
I3
ssg75
g337
sg68
(lp344
S''
asbasbasbag61
(g77
g63
NtRp345
(dp346
g66
(dp347
sg75
g299
sg68
(lp348
g61
(g82
g63
NtRp349
(dp350
g66
(dp351
g86
g87
ssg75
g345
sg68
(lp352
S'expires'
p353
asbag61
(g82
g63
NtRp354
(dp355
g66
(dp356
g93
g94
ssg75
g345
sg68
(lp357
S':'
asbag61
(g82
g63
NtRp358
(dp359
g66
(dp360
sg75
g345
sg68
(lp361
g61
(g62
g63
NtRp362
(dp363
g66
(dp364
g74
I3
ssg75
g358
sg68
(lp365
S''
asbasbasbag61
(g77
g63
NtRp366
(dp367
g66
(dp368
sg75
g299
sg68
(lp369
g61
(g82
g63
NtRp370
(dp371
g66
(dp372
g86
g87
ssg75
g366
sg68
(lp373
S'httponly'
p374
asbag61
(g82
g63
NtRp375
(dp376
g66
(dp377
g93
g94
ssg75
g366
sg68
(lp378
S':'
asbag61
(g82
g63
NtRp379
(dp380
g66
(dp381
sg75
g366
sg68
(lp382
g61
(g62
g63
NtRp383
(dp384
g66
(dp385
g74
I3
ssg75
g379
sg68
(lp386
S''
asbasbasbag61
(g77
g63
NtRp387
(dp388
g66
(dp389
sg75
g299
sg68
(lp390
g61
(g82
g63
NtRp391
(dp392
g66
(dp393
g86
g87
ssg75
g387
sg68
(lp394
S'max-age'
p395
asbag61
(g82
g63
NtRp396
(dp397
g66
(dp398
g93
g94
ssg75
g387
sg68
(lp399
S':'
asbag61
(g82
g63
NtRp400
(dp401
g66
(dp402
sg75
g387
sg68
(lp403
g61
(g62
g63
NtRp404
(dp405
g66
(dp406
g74
I3
ssg75
g400
sg68
(lp407
S''
asbasbasbag61
(g77
g63
NtRp408
(dp409
g66
(dp410
sg75
g299
sg68
(lp411
g61
(g82
g63
NtRp412
(dp413
g66
(dp414
g86
g87
ssg75
g408
sg68
(lp415
S'path'
p416
asbag61
(g82
g63
NtRp417
(dp418
g66
(dp419
g93
g94
ssg75
g408
sg68
(lp420
S':'
asbag61
(g82
g63
NtRp421
(dp422
g66
(dp423
sg75
g408
sg68
(lp424
g61
(g62
g63
NtRp425
(dp426
g66
(dp427
g74
I3
ssg75
g421
sg68
(lp428
S''
asbasbasbag61
(g77
g63
NtRp429
(dp430
g66
(dp431
sg75
g299
sg68
(lp432
g61
(g82
g63
NtRp433
(dp434
g66
(dp435
g86
g87
ssg75
g429
sg68
(lp436
S'secure'
p437
asbag61
(g82
g63
NtRp438
(dp439
g66
(dp440
g93
g94
ssg75
g429
sg68
(lp441
S':'
asbag61
(g82
g63
NtRp442
(dp443
g66
(dp444
sg75
g429
sg68
(lp445
g61
(g62
g63
NtRp446
(dp447
g66
(dp448
g74
I3
ssg75
g442
sg68
(lp449
S''
asbasbasbag61
(g77
g63
NtRp450
(dp451
g66
(dp452
sg75
g299
sg68
(lp453
g61
(g82
g63
NtRp454
(dp455
g66
(dp456
g86
g87
ssg75
g450
sg68
(lp457
S'version'
p458
asbag61
(g82
g63
NtRp459
(dp460
g66
(dp461
g93
g94
ssg75
g450
sg68
(lp462
S':'
asbag61
(g82
g63
NtRp463
(dp464
g66
(dp465
sg75
g450
sg68
(lp466
g61
(g62
g63
NtRp467
(dp468
g66
(dp469
g74
I3
ssg75
g463
sg68
(lp470
S''
asbasbasbasbasbasbasbag61
(g77
g63
NtRp471
(dp472
g66
(dp473
sg75
g273
sg68
(lp474
g61
(g82
g63
NtRp475
(dp476
g66
(dp477
g86
g87
ssg75
g471
sg68
(lp478
S'session_id_web2py_xlchart_dashboard'
p479
asbag61
(g82
g63
NtRp480
(dp481
g66
(dp482
g93
g94
ssg75
g471
sg68
(lp483
S':'
asbag61
(g82
g63
NtRp484
(dp485
g66
(dp486
sg75
g471
sg68
(lp487
g61
(g62
g63
NtRp488
(dp489
g66
(dp490
g74
I4
ssg75
g484
sg68
(lp491
S'127.0.0.1-ac49f654-4017-4b39-a594-75c98e9fffbe'
p492
ag61
(g70
g63
NtRp493
(dp494
g66
(dp495
g74
I3
ssg75
Nsg68
(lp496
g61
(g77
g63
NtRp497
(dp498
g66
(dp499
sg75
g493
sg68
(lp500
g61
(g82
g63
NtRp501
(dp502
g66
(dp503
g86
g87
ssg75
g497
sg68
(lp504
g311
asbag61
(g82
g63
NtRp505
(dp506
g66
(dp507
g93
g94
ssg75
g497
sg68
(lp508
S':'
asbag61
(g82
g63
NtRp509
(dp510
g66
(dp511
sg75
g497
sg68
(lp512
g61
(g62
g63
NtRp513
(dp514
g66
(dp515
g74
I3
ssg75
g509
sg68
(lp516
S''
asbasbasbag61
(g77
g63
NtRp517
(dp518
g66
(dp519
sg75
g493
sg68
(lp520
g61
(g82
g63
NtRp521
(dp522
g66
(dp523
g86
g87
ssg75
g517
sg68
(lp524
g332
asbag61
(g82
g63
NtRp525
(dp526
g66
(dp527
g93
g94
ssg75
g517
sg68
(lp528
S':'
asbag61
(g82
g63
NtRp529
(dp530
g66
(dp531
sg75
g517
sg68
(lp532
g61
(g62
g63
NtRp533
(dp534
g66
(dp535
g74
I3
ssg75
g529
sg68
(lp536
S''
asbasbasbag61
(g77
g63
NtRp537
(dp538
g66
(dp539
sg75
g493
sg68
(lp540
g61
(g82
g63
NtRp541
(dp542
g66
(dp543
g86
g87
ssg75
g537
sg68
(lp544
g353
asbag61
(g82
g63
NtRp545
(dp546
g66
(dp547
g93
g94
ssg75
g537
sg68
(lp548
S':'
asbag61
(g82
g63
NtRp549
(dp550
g66
(dp551
sg75
g537
sg68
(lp552
g61
(g62
g63
NtRp553
(dp554
g66
(dp555
g74
I3
ssg75
g549
sg68
(lp556
S''
asbasbasbag61
(g77
g63
NtRp557
(dp558
g66
(dp559
sg75
g493
sg68
(lp560
g61
(g82
g63
NtRp561
(dp562
g66
(dp563
g86
g87
ssg75
g557
sg68
(lp564
g374
asbag61
(g82
g63
NtRp565
(dp566
g66
(dp567
g93
g94
ssg75
g557
sg68
(lp568
S':'
asbag61
(g82
g63
NtRp569
(dp570
g66
(dp571
sg75
g557
sg68
(lp572
g61
(g62
g63
NtRp573
(dp574
g66
(dp575
g74
I3
ssg75
g569
sg68
(lp576
S''
asbasbasbag61
(g77
g63
NtRp577
(dp578
g66
(dp579
sg75
g493
sg68
(lp580
g61
(g82
g63
NtRp581
(dp582
g66
(dp583
g86
g87
ssg75
g577
sg68
(lp584
g395
asbag61
(g82
g63
NtRp585
(dp586
g66
(dp587
g93
g94
ssg75
g577
sg68
(lp588
S':'
asbag61
(g82
g63
NtRp589
(dp590
g66
(dp591
sg75
g577
sg68
(lp592
g61
(g62
g63
NtRp593
(dp594
g66
(dp595
g74
I3
ssg75
g589
sg68
(lp596
S''
asbasbasbag61
(g77
g63
NtRp597
(dp598
g66
(dp599
sg75
g493
sg68
(lp600
g61
(g82
g63
NtRp601
(dp602
g66
(dp603
g86
g87
ssg75
g597
sg68
(lp604
g416
asbag61
(g82
g63
NtRp605
(dp606
g66
(dp607
g93
g94
ssg75
g597
sg68
(lp608
S':'
asbag61
(g82
g63
NtRp609
(dp610
g66
(dp611
sg75
g597
sg68
(lp612
g61
(g62
g63
NtRp613
(dp614
g66
(dp615
g74
I3
ssg75
g609
sg68
(lp616
S''
asbasbasbag61
(g77
g63
NtRp617
(dp618
g66
(dp619
sg75
g493
sg68
(lp620
g61
(g82
g63
NtRp621
(dp622
g66
(dp623
g86
g87
ssg75
g617
sg68
(lp624
g437
asbag61
(g82
g63
NtRp625
(dp626
g66
(dp627
g93
g94
ssg75
g617
sg68
(lp628
S':'
asbag61
(g82
g63
NtRp629
(dp630
g66
(dp631
sg75
g617
sg68
(lp632
g61
(g62
g63
NtRp633
(dp634
g66
(dp635
g74
I3
ssg75
g629
sg68
(lp636
S''
asbasbasbag61
(g77
g63
NtRp637
(dp638
g66
(dp639
sg75
g493
sg68
(lp640
g61
(g82
g63
NtRp641
(dp642
g66
(dp643
g86
g87
ssg75
g637
sg68
(lp644
g458
asbag61
(g82
g63
NtRp645
(dp646
g66
(dp647
g93
g94
ssg75
g637
sg68
(lp648
S':'
asbag61
(g82
g63
NtRp649
(dp650
g66
(dp651
sg75
g637
sg68
(lp652
g61
(g62
g63
NtRp653
(dp654
g66
(dp655
g74
I3
ssg75
g649
sg68
(lp656
S''
asbasbasbasbasbasbasbasbasbasbasbag61
(g77
g63
NtRp657
(dp658
g66
(dp659
sg75
g71
sg68
(lp660
g61
(g82
g63
NtRp661
(dp662
g66
(dp663
g86
g87
ssg75
g657
sg68
(lp664
S'env'
p665
asbag61
(g82
g63
NtRp666
(dp667
g66
(dp668
g93
g94
ssg75
g657
sg68
(lp669
S':'
asbag61
(g82
g63
NtRp670
(dp671
g66
(dp672
sg75
g657
sg68
(lp673
g61
(g62
g63
NtRp674
(dp675
g66
(dp676
g74
I5
ssg75
g670
sg68
(lp677
g61
(g70
g63
NtRp678
(dp679
g66
(dp680
g74
I4
ssg75
Nsg68
(lp681
g61
(g77
g63
NtRp682
(dp683
g66
(dp684
sg75
g678
sg68
(lp685
g61
(g82
g63
NtRp686
(dp687
g66
(dp688
g86
g87
ssg75
g682
sg68
(lp689
S'app_folders'
p690
asbag61
(g82
g63
NtRp691
(dp692
g66
(dp693
g93
g94
ssg75
g682
sg68
(lp694
S':'
asbag61
(g82
g63
NtRp695
(dp696
g66
(dp697
sg75
g682
sg68
(lp698
g61
(g62
g63
NtRp699
(dp700
g66
(dp701
g74
I4
ssg75
g695
sg68
(lp702
S"set(['D:\\\\web2py\\\\source\\\\web2py\\\\applications\\\\admin\\\\', 'D:\\\\web2py\\\\source\\\\web2py\\\\applications\\\\welcome\\\\', 'D:\\\\web2py\\\\source\\\\web2py\\\\applications\\\\web2py_xlchart_dashboard\\\\'])"
p703
asbasbasbag61
(g77
g63
NtRp704
(dp705
g66
(dp706
sg75
g678
sg68
(lp707
g61
(g82
g63
NtRp708
(dp709
g66
(dp710
g86
g87
ssg75
g704
sg68
(lp711
S'applications_parent'
p712
asbag61
(g82
g63
NtRp713
(dp714
g66
(dp715
g93
g94
ssg75
g704
sg68
(lp716
S':'
asbag61
(g82
g63
NtRp717
(dp718
g66
(dp719
sg75
g704
sg68
(lp720
g61
(g62
g63
NtRp721
(dp722
g66
(dp723
g74
I4
ssg75
g717
sg68
(lp724
S'D:\\web2py\\source\\web2py'
p725
asbasbasbag61
(g77
g63
NtRp726
(dp727
g66
(dp728
sg75
g678
sg68
(lp729
g61
(g82
g63
NtRp730
(dp731
g66
(dp732
g86
g87
ssg75
g726
sg68
(lp733
S'cmd_args'
p734
asbag61
(g82
g63
NtRp735
(dp736
g66
(dp737
g93
g94
ssg75
g726
sg68
(lp738
S':'
asbag61
(g82
g63
NtRp739
(dp740
g66
(dp741
sg75
g726
sg68
(lp742
g61
(g62
g63
NtRp743
(dp744
g66
(dp745
g74
I4
ssg75
g739
sg68
(lp746
g61
(g70
g63
NtRp747
(dp748
g66
(dp749
g74
I3
ssg75
Nsg68
(lp750
sbasbasbasbag61
(g77
g63
NtRp751
(dp752
g66
(dp753
sg75
g678
sg68
(lp754
g61
(g82
g63
NtRp755
(dp756
g66
(dp757
g86
g87
ssg75
g751
sg68
(lp758
S'cmd_options'
p759
asbag61
(g82
g63
NtRp760
(dp761
g66
(dp762
g93
g94
ssg75
g751
sg68
(lp763
S':'
asbag61
(g82
g63
NtRp764
(dp765
g66
(dp766
sg75
g751
sg68
(lp767
g61
(g62
g63
NtRp768
(dp769
g66
(dp770
g74
I4
ssg75
g764
sg68
(lp771
S"<Values at 0xc78f58: {'verbose': False, 'ip': '127.0.0.1', 'with_scheduler': False, 'ips': ['192.168.0.14'], 'shutdown_timeout': 5, 'taskbar': False, 'port': 8000, 'maxthreads': None, 'softcron': False, 'server_name': 'GLKLAG235327', 'bpython': False, 'nogui': False, 'pid_filename': 'httpserver.pid', 'extcron': False, 'runcron': False, 'run_system_tests': False, 'test': None, 'folder': 'D:\\\\web2py\\\\source\\\\web2py', 'config': '', 'import_models': False, 'winservice': '', 'shell': None, 'run': '', 'log_filename': 'httpserver.log', 'debuglevel': 30, 'args': [''], 'socket_timeout': 5, 'ssl_ca_certificate': None, 'scheduler': None, 'profiler_filename': None, 'ssl_private_key': '', 'scheduler_groups': None, 'password': '<ask>', 'request_queue_size': 5, 'ssl_certificate': '', 'cronjob': False, 'numthreads': None, 'quiet': False, 'interfaces': None, 'minthreads': None, 'timeout': 10, 'plain': False, 'nobanner': False}>"
p772
asbasbasbag61
(g77
g63
NtRp773
(dp774
g66
(dp775
sg75
g678
sg68
(lp776
g61
(g82
g63
NtRp777
(dp778
g66
(dp779
g86
g87
ssg75
g773
sg68
(lp780
S'db_sessions'
p781
asbag61
(g82
g63
NtRp782
(dp783
g66
(dp784
g93
g94
ssg75
g773
sg68
(lp785
S':'
asbag61
(g82
g63
NtRp786
(dp787
g66
(dp788
sg75
g773
sg68
(lp789
g61
(g62
g63
NtRp790
(dp791
g66
(dp792
g74
I4
ssg75
g786
sg68
(lp793
S'set([])'
p794
asbasbasbag61
(g77
g63
NtRp795
(dp796
g66
(dp797
sg75
g678
sg68
(lp798
g61
(g82
g63
NtRp799
(dp800
g66
(dp801
g86
g87
ssg75
g795
sg68
(lp802
S'debugging'
p803
asbag61
(g82
g63
NtRp804
(dp805
g66
(dp806
g93
g94
ssg75
g795
sg68
(lp807
S':'
asbag61
(g82
g63
NtRp808
(dp809
g66
(dp810
sg75
g795
sg68
(lp811
g61
(g62
g63
NtRp812
(dp813
g66
(dp814
g74
I4
ssg75
g808
sg68
(lp815
g104
asbasbasbag61
(g77
g63
NtRp816
(dp817
g66
(dp818
sg75
g678
sg68
(lp819
g61
(g82
g63
NtRp820
(dp821
g66
(dp822
g86
g87
ssg75
g816
sg68
(lp823
S'gluon_parent'
p824
asbag61
(g82
g63
NtRp825
(dp826
g66
(dp827
g93
g94
ssg75
g816
sg68
(lp828
S':'
asbag61
(g82
g63
NtRp829
(dp830
g66
(dp831
sg75
g816
sg68
(lp832
g61
(g62
g63
NtRp833
(dp834
g66
(dp835
g74
I4
ssg75
g829
sg68
(lp836
S'D:\\web2py\\source\\web2py'
p837
asbasbasbag61
(g77
g63
NtRp838
(dp839
g66
(dp840
sg75
g678
sg68
(lp841
g61
(g82
g63
NtRp842
(dp843
g66
(dp844
g86
g87
ssg75
g838
sg68
(lp845
S'http_accept'
p846
asbag61
(g82
g63
NtRp847
(dp848
g66
(dp849
g93
g94
ssg75
g838
sg68
(lp850
S':'
asbag61
(g82
g63
NtRp851
(dp852
g66
(dp853
sg75
g838
sg68
(lp854
g61
(g62
g63
NtRp855
(dp856
g66
(dp857
g74
I4
ssg75
g851
sg68
(lp858
S'image/gif, image/jpeg, image/pjpeg, image/pjpeg, application/x-shockwave-flash, application/x-ms-application, application/x-ms-xbap, application/vnd.ms-xpsdocument, application/xaml+xml, application/vnd.ms-excel, application/vnd.ms-powerpoint, application/msword, */*'
p859
asbasbasbag61
(g77
g63
NtRp860
(dp861
g66
(dp862
sg75
g678
sg68
(lp863
g61
(g82
g63
NtRp864
(dp865
g66
(dp866
g86
g87
ssg75
g860
sg68
(lp867
S'http_accept_encoding'
p868
asbag61
(g82
g63
NtRp869
(dp870
g66
(dp871
g93
g94
ssg75
g860
sg68
(lp872
S':'
asbag61
(g82
g63
NtRp873
(dp874
g66
(dp875
sg75
g860
sg68
(lp876
g61
(g62
g63
NtRp877
(dp878
g66
(dp879
g74
I4
ssg75
g873
sg68
(lp880
S'gzip, deflate'
p881
asbasbasbag61
(g77
g63
NtRp882
(dp883
g66
(dp884
sg75
g678
sg68
(lp885
g61
(g82
g63
NtRp886
(dp887
g66
(dp888
g86
g87
ssg75
g882
sg68
(lp889
S'http_accept_language'
p890
asbag61
(g82
g63
NtRp891
(dp892
g66
(dp893
g93
g94
ssg75
g882
sg68
(lp894
S':'
asbag61
(g82
g63
NtRp895
(dp896
g66
(dp897
sg75
g882
sg68
(lp898
g61
(g62
g63
NtRp899
(dp900
g66
(dp901
g74
I4
ssg75
g895
sg68
(lp902
S'en-gb'
p903
asbasbasbag61
(g77
g63
NtRp904
(dp905
g66
(dp906
sg75
g678
sg68
(lp907
g61
(g82
g63
NtRp908
(dp909
g66
(dp910
g86
g87
ssg75
g904
sg68
(lp911
S'http_connection'
p912
asbag61
(g82
g63
NtRp913
(dp914
g66
(dp915
g93
g94
ssg75
g904
sg68
(lp916
S':'
asbag61
(g82
g63
NtRp917
(dp918
g66
(dp919
sg75
g904
sg68
(lp920
g61
(g62
g63
NtRp921
(dp922
g66
(dp923
g74
I4
ssg75
g917
sg68
(lp924
S'Keep-Alive'
p925
asbasbasbag61
(g77
g63
NtRp926
(dp927
g66
(dp928
sg75
g678
sg68
(lp929
g61
(g82
g63
NtRp930
(dp931
g66
(dp932
g86
g87
ssg75
g926
sg68
(lp933
S'http_cookie'
p934
asbag61
(g82
g63
NtRp935
(dp936
g66
(dp937
g93
g94
ssg75
g926
sg68
(lp938
S':'
asbag61
(g82
g63
NtRp939
(dp940
g66
(dp941
sg75
g926
sg68
(lp942
g61
(g62
g63
NtRp943
(dp944
g66
(dp945
g74
I4
ssg75
g939
sg68
(lp946
S'session_id_admin=127.0.0.1-ec8f5d1b-9c65-44a6-9f89-aa0c08eebd4d; session_id_web2py_xlchart_dashboard=127.0.0.1-ac49f654-4017-4b39-a594-75c98e9fffbe'
p947
asbasbasbag61
(g77
g63
NtRp948
(dp949
g66
(dp950
sg75
g678
sg68
(lp951
g61
(g82
g63
NtRp952
(dp953
g66
(dp954
g86
g87
ssg75
g948
sg68
(lp955
S'http_host'
p956
asbag61
(g82
g63
NtRp957
(dp958
g66
(dp959
g93
g94
ssg75
g948
sg68
(lp960
S':'
asbag61
(g82
g63
NtRp961
(dp962
g66
(dp963
sg75
g948
sg68
(lp964
g61
(g62
g63
NtRp965
(dp966
g66
(dp967
g74
I4
ssg75
g961
sg68
(lp968
S'127.0.0.1:8000'
p969
asbasbasbag61
(g77
g63
NtRp970
(dp971
g66
(dp972
sg75
g678
sg68
(lp973
g61
(g82
g63
NtRp974
(dp975
g66
(dp976
g86
g87
ssg75
g970
sg68
(lp977
S'http_referer'
p978
asbag61
(g82
g63
NtRp979
(dp980
g66
(dp981
g93
g94
ssg75
g970
sg68
(lp982
S':'
asbag61
(g82
g63
NtRp983
(dp984
g66
(dp985
sg75
g970
sg68
(lp986
g61
(g62
g63
NtRp987
(dp988
g66
(dp989
g74
I4
ssg75
g983
sg68
(lp990
S'http://127.0.0.1:8000/admin/default/edit/web2py_xlchart_dashboard/controllers/charts.py'
p991
asbasbasbag61
(g77
g63
NtRp992
(dp993
g66
(dp994
sg75
g678
sg68
(lp995
g61
(g82
g63
NtRp996
(dp997
g66
(dp998
g86
g87
ssg75
g992
sg68
(lp999
S'http_user_agent'
p1000
asbag61
(g82
g63
NtRp1001
(dp1002
g66
(dp1003
g93
g94
ssg75
g992
sg68
(lp1004
S':'
asbag61
(g82
g63
NtRp1005
(dp1006
g66
(dp1007
sg75
g992
sg68
(lp1008
g61
(g62
g63
NtRp1009
(dp1010
g66
(dp1011
g74
I4
ssg75
g1005
sg68
(lp1012
S'Mozilla/4.0 (compatible; MSIE 8.0; Windows NT 5.1; Trident/4.0; .NET CLR 1.1.4322; .NET CLR 2.0.50727; .NET CLR 3.0.4506.2152; .NET CLR 3.5.30729; .NET4.0C; .NET4.0E; InfoPath.3)'
p1013
asbasbasbag61
(g77
g63
NtRp1014
(dp1015
g66
(dp1016
sg75
g678
sg68
(lp1017
g61
(g82
g63
NtRp1018
(dp1019
g66
(dp1020
g86
g87
ssg75
g1014
sg68
(lp1021
S'is_jython'
p1022
asbag61
(g82
g63
NtRp1023
(dp1024
g66
(dp1025
g93
g94
ssg75
g1014
sg68
(lp1026
S':'
asbag61
(g82
g63
NtRp1027
(dp1028
g66
(dp1029
sg75
g1014
sg68
(lp1030
g61
(g62
g63
NtRp1031
(dp1032
g66
(dp1033
g74
I4
ssg75
g1027
sg68
(lp1034
g104
asbasbasbag61
(g77
g63
NtRp1035
(dp1036
g66
(dp1037
sg75
g678
sg68
(lp1038
g61
(g82
g63
NtRp1039
(dp1040
g66
(dp1041
g86
g87
ssg75
g1035
sg68
(lp1042
S'is_pypy'
p1043
asbag61
(g82
g63
NtRp1044
(dp1045
g66
(dp1046
g93
g94
ssg75
g1035
sg68
(lp1047
S':'
asbag61
(g82
g63
NtRp1048
(dp1049
g66
(dp1050
sg75
g1035
sg68
(lp1051
g61
(g62
g63
NtRp1052
(dp1053
g66
(dp1054
g74
I4
ssg75
g1048
sg68
(lp1055
g104
asbasbasbag61
(g77
g63
NtRp1056
(dp1057
g66
(dp1058
sg75
g678
sg68
(lp1059
g61
(g82
g63
NtRp1060
(dp1061
g66
(dp1062
g86
g87
ssg75
g1056
sg68
(lp1063
S'local_hosts'
p1064
asbag61
(g82
g63
NtRp1065
(dp1066
g66
(dp1067
g93
g94
ssg75
g1056
sg68
(lp1068
S':'
asbag61
(g82
g63
NtRp1069
(dp1070
g66
(dp1071
sg75
g1056
sg68
(lp1072
g61
(g62
g63
NtRp1073
(dp1074
g66
(dp1075
g74
I4
ssg75
g1069
sg68
(lp1076
g61
(g70
g63
NtRp1077
(dp1078
g66
(dp1079
g74
I3
ssg75
Nsg68
(lp1080
g61
(g77
g63
NtRp1081
(dp1082
g66
(dp1083
sg75
g1077
sg68
(lp1084
g61
(g82
g63
NtRp1085
(dp1086
g66
(dp1087
sg75
g1081
sg68
(lp1088
g61
(g62
g63
NtRp1089
(dp1090
g66
(dp1091
g74
I3
ssg75
g1085
sg68
(lp1092
S'127.0.0.1'
p1093
asbasbasbag61
(g77
g63
NtRp1094
(dp1095
g66
(dp1096
sg75
g1077
sg68
(lp1097
g61
(g82
g63
NtRp1098
(dp1099
g66
(dp1100
sg75
g1094
sg68
(lp1101
g61
(g62
g63
NtRp1102
(dp1103
g66
(dp1104
g74
I3
ssg75
g1098
sg68
(lp1105
S'::ffff:127.0.0.1'
p1106
asbasbasbag61
(g77
g63
NtRp1107
(dp1108
g66
(dp1109
sg75
g1077
sg68
(lp1110
g61
(g82
g63
NtRp1111
(dp1112
g66
(dp1113
sg75
g1107
sg68
(lp1114
g61
(g62
g63
NtRp1115
(dp1116
g66
(dp1117
g74
I3
ssg75
g1111
sg68
(lp1118
S'GLKLAG235327'
p1119
asbasbasbag61
(g77
g63
NtRp1120
(dp1121
g66
(dp1122
sg75
g1077
sg68
(lp1123
g61
(g82
g63
NtRp1124
(dp1125
g66
(dp1126
sg75
g1120
sg68
(lp1127
g61
(g62
g63
NtRp1128
(dp1129
g66
(dp1130
g74
I3
ssg75
g1124
sg68
(lp1131
S'GLKLAG235327'
p1132
asbasbasbag61
(g77
g63
NtRp1133
(dp1134
g66
(dp1135
sg75
g1077
sg68
(lp1136
g61
(g82
g63
NtRp1137
(dp1138
g66
(dp1139
sg75
g1133
sg68
(lp1140
g61
(g62
g63
NtRp1141
(dp1142
g66
(dp1143
g74
I3
ssg75
g1137
sg68
(lp1144
S'192.168.0.14'
p1145
asbasbasbasbasbasbasbag61
(g77
g63
NtRp1146
(dp1147
g66
(dp1148
sg75
g678
sg68
(lp1149
g61
(g82
g63
NtRp1150
(dp1151
g66
(dp1152
g86
g87
ssg75
g1146
sg68
(lp1153
S'path_info'
p1154
asbag61
(g82
g63
NtRp1155
(dp1156
g66
(dp1157
g93
g94
ssg75
g1146
sg68
(lp1158
S':'
asbag61
(g82
g63
NtRp1159
(dp1160
g66
(dp1161
sg75
g1146
sg68
(lp1162
g61
(g62
g63
NtRp1163
(dp1164
g66
(dp1165
g74
I4
ssg75
g1159
sg68
(lp1166
S'/web2py_xlchart_dashboard/charts/user_charts'
p1167
asbasbasbag61
(g77
g63
NtRp1168
(dp1169
g66
(dp1170
sg75
g678
sg68
(lp1171
g61
(g82
g63
NtRp1172
(dp1173
g66
(dp1174
g86
g87
ssg75
g1168
sg68
(lp1175
S'query_string'
p1176
asbag61
(g82
g63
NtRp1177
(dp1178
g66
(dp1179
g93
g94
ssg75
g1168
sg68
(lp1180
S':'
asbag61
(g82
g63
NtRp1181
(dp1182
g66
(dp1183
sg75
g1168
sg68
(lp1184
g61
(g62
g63
NtRp1185
(dp1186
g66
(dp1187
g74
I4
ssg75
g1181
sg68
(lp1188
S''
asbasbasbag61
(g77
g63
NtRp1189
(dp1190
g66
(dp1191
sg75
g678
sg68
(lp1192
g61
(g82
g63
NtRp1193
(dp1194
g66
(dp1195
g86
g87
ssg75
g1189
sg68
(lp1196
S'remote_addr'
p1197
asbag61
(g82
g63
NtRp1198
(dp1199
g66
(dp1200
g93
g94
ssg75
g1189
sg68
(lp1201
S':'
asbag61
(g82
g63
NtRp1202
(dp1203
g66
(dp1204
sg75
g1189
sg68
(lp1205
g61
(g62
g63
NtRp1206
(dp1207
g66
(dp1208
g74
I4
ssg75
g1202
sg68
(lp1209
g229
asbasbasbag61
(g77
g63
NtRp1210
(dp1211
g66
(dp1212
sg75
g678
sg68
(lp1213
g61
(g82
g63
NtRp1214
(dp1215
g66
(dp1216
g86
g87
ssg75
g1210
sg68
(lp1217
S'remote_port'
p1218
asbag61
(g82
g63
NtRp1219
(dp1220
g66
(dp1221
g93
g94
ssg75
g1210
sg68
(lp1222
S':'
asbag61
(g82
g63
NtRp1223
(dp1224
g66
(dp1225
sg75
g1210
sg68
(lp1226
g61
(g62
g63
NtRp1227
(dp1228
g66
(dp1229
g74
I4
ssg75
g1223
sg68
(lp1230
S'3286'
p1231
asbasbasbag61
(g77
g63
NtRp1232
(dp1233
g66
(dp1234
sg75
g678
sg68
(lp1235
g61
(g82
g63
NtRp1236
(dp1237
g66
(dp1238
g86
g87
ssg75
g1232
sg68
(lp1239
S'request_method'
p1240
asbag61
(g82
g63
NtRp1241
(dp1242
g66
(dp1243
g93
g94
ssg75
g1232
sg68
(lp1244
S':'
asbag61
(g82
g63
NtRp1245
(dp1246
g66
(dp1247
sg75
g1232
sg68
(lp1248
g61
(g62
g63
NtRp1249
(dp1250
g66
(dp1251
g74
I4
ssg75
g1245
sg68
(lp1252
S'GET'
p1253
asbasbasbag61
(g77
g63
NtRp1254
(dp1255
g66
(dp1256
sg75
g678
sg68
(lp1257
g61
(g82
g63
NtRp1258
(dp1259
g66
(dp1260
g86
g87
ssg75
g1254
sg68
(lp1261
S'request_uri'
p1262
asbag61
(g82
g63
NtRp1263
(dp1264
g66
(dp1265
g93
g94
ssg75
g1254
sg68
(lp1266
S':'
asbag61
(g82
g63
NtRp1267
(dp1268
g66
(dp1269
sg75
g1254
sg68
(lp1270
g61
(g62
g63
NtRp1271
(dp1272
g66
(dp1273
g74
I4
ssg75
g1267
sg68
(lp1274
g1167
asbasbasbag61
(g77
g63
NtRp1275
(dp1276
g66
(dp1277
sg75
g678
sg68
(lp1278
g61
(g82
g63
NtRp1279
(dp1280
g66
(dp1281
g86
g87
ssg75
g1275
sg68
(lp1282
S'script_name'
p1283
asbag61
(g82
g63
NtRp1284
(dp1285
g66
(dp1286
g93
g94
ssg75
g1275
sg68
(lp1287
S':'
asbag61
(g82
g63
NtRp1288
(dp1289
g66
(dp1290
sg75
g1275
sg68
(lp1291
g61
(g62
g63
NtRp1292
(dp1293
g66
(dp1294
g74
I4
ssg75
g1288
sg68
(lp1295
S''
asbasbasbag61
(g77
g63
NtRp1296
(dp1297
g66
(dp1298
sg75
g678
sg68
(lp1299
g61
(g82
g63
NtRp1300
(dp1301
g66
(dp1302
g86
g87
ssg75
g1296
sg68
(lp1303
S'server_name'
p1304
asbag61
(g82
g63
NtRp1305
(dp1306
g66
(dp1307
g93
g94
ssg75
g1296
sg68
(lp1308
S':'
asbag61
(g82
g63
NtRp1309
(dp1310
g66
(dp1311
sg75
g1296
sg68
(lp1312
g61
(g62
g63
NtRp1313
(dp1314
g66
(dp1315
g74
I4
ssg75
g1309
sg68
(lp1316
g1132
asbasbasbag61
(g77
g63
NtRp1317
(dp1318
g66
(dp1319
sg75
g678
sg68
(lp1320
g61
(g82
g63
NtRp1321
(dp1322
g66
(dp1323
g86
g87
ssg75
g1317
sg68
(lp1324
S'server_port'
p1325
asbag61
(g82
g63
NtRp1326
(dp1327
g66
(dp1328
g93
g94
ssg75
g1317
sg68
(lp1329
S':'
asbag61
(g82
g63
NtRp1330
(dp1331
g66
(dp1332
sg75
g1317
sg68
(lp1333
g61
(g62
g63
NtRp1334
(dp1335
g66
(dp1336
g74
I4
ssg75
g1330
sg68
(lp1337
S'8000'
p1338
asbasbasbag61
(g77
g63
NtRp1339
(dp1340
g66
(dp1341
sg75
g678
sg68
(lp1342
g61
(g82
g63
NtRp1343
(dp1344
g66
(dp1345
g86
g87
ssg75
g1339
sg68
(lp1346
S'server_protocol'
p1347
asbag61
(g82
g63
NtRp1348
(dp1349
g66
(dp1350
g93
g94
ssg75
g1339
sg68
(lp1351
S':'
asbag61
(g82
g63
NtRp1352
(dp1353
g66
(dp1354
sg75
g1339
sg68
(lp1355
g61
(g62
g63
NtRp1356
(dp1357
g66
(dp1358
g74
I4
ssg75
g1352
sg68
(lp1359
S'HTTP/1.1'
p1360
asbasbasbag61
(g77
g63
NtRp1361
(dp1362
g66
(dp1363
sg75
g678
sg68
(lp1364
g61
(g82
g63
NtRp1365
(dp1366
g66
(dp1367
g86
g87
ssg75
g1361
sg68
(lp1368
S'server_software'
p1369
asbag61
(g82
g63
NtRp1370
(dp1371
g66
(dp1372
g93
g94
ssg75
g1361
sg68
(lp1373
S':'
asbag61
(g82
g63
NtRp1374
(dp1375
g66
(dp1376
sg75
g1361
sg68
(lp1377
g61
(g62
g63
NtRp1378
(dp1379
g66
(dp1380
g74
I4
ssg75
g1374
sg68
(lp1381
S'Rocket 1.2.5'
p1382
asbasbasbag61
(g77
g63
NtRp1383
(dp1384
g66
(dp1385
sg75
g678
sg68
(lp1386
g61
(g82
g63
NtRp1387
(dp1388
g66
(dp1389
g86
g87
ssg75
g1383
sg68
(lp1390
S'web2py_path'
p1391
asbag61
(g82
g63
NtRp1392
(dp1393
g66
(dp1394
g93
g94
ssg75
g1383
sg68
(lp1395
S':'
asbag61
(g82
g63
NtRp1396
(dp1397
g66
(dp1398
sg75
g1383
sg68
(lp1399
g61
(g62
g63
NtRp1400
(dp1401
g66
(dp1402
g74
I4
ssg75
g1396
sg68
(lp1403
g725
asbasbasbag61
(g77
g63
NtRp1404
(dp1405
g66
(dp1406
sg75
g678
sg68
(lp1407
g61
(g82
g63
NtRp1408
(dp1409
g66
(dp1410
g86
g87
ssg75
g1404
sg68
(lp1411
S'web2py_version'
p1412
asbag61
(g82
g63
NtRp1413
(dp1414
g66
(dp1415
g93
g94
ssg75
g1404
sg68
(lp1416
S':'
asbag61
(g82
g63
NtRp1417
(dp1418
g66
(dp1419
sg75
g1404
sg68
(lp1420
g61
(g62
g63
NtRp1421
(dp1422
g66
(dp1423
g74
I4
ssg75
g1417
sg68
(lp1424
g61
(g70
g63
NtRp1425
(dp1426
g66
(dp1427
g74
I3
ssg75
Nsg68
(lp1428
g61
(g77
g63
NtRp1429
(dp1430
g66
(dp1431
sg75
g1425
sg68
(lp1432
g61
(g82
g63
NtRp1433
(dp1434
g66
(dp1435
sg75
g1429
sg68
(lp1436
g61
(g62
g63
NtRp1437
(dp1438
g66
(dp1439
g74
I3
ssg75
g1433
sg68
(lp1440
S'2'
asbasbasbag61
(g77
g63
NtRp1441
(dp1442
g66
(dp1443
sg75
g1425
sg68
(lp1444
g61
(g82
g63
NtRp1445
(dp1446
g66
(dp1447
sg75
g1441
sg68
(lp1448
g61
(g62
g63
NtRp1449
(dp1450
g66
(dp1451
g74
I3
ssg75
g1445
sg68
(lp1452
S'2'
asbasbasbag61
(g77
g63
NtRp1453
(dp1454
g66
(dp1455
sg75
g1425
sg68
(lp1456
g61
(g82
g63
NtRp1457
(dp1458
g66
(dp1459
sg75
g1453
sg68
(lp1460
g61
(g62
g63
NtRp1461
(dp1462
g66
(dp1463
g74
I3
ssg75
g1457
sg68
(lp1464
S'1'
asbasbasbag61
(g77
g63
NtRp1465
(dp1466
g66
(dp1467
sg75
g1425
sg68
(lp1468
g61
(g82
g63
NtRp1469
(dp1470
g66
(dp1471
sg75
g1465
sg68
(lp1472
g61
(g62
g63
NtRp1473
(dp1474
g66
(dp1475
g74
I3
ssg75
g1469
sg68
(lp1476
S'datetime.datetime(2012, 10, 21, 16, 57, 4)'
p1477
asbasbasbag61
(g77
g63
NtRp1478
(dp1479
g66
(dp1480
sg75
g1425
sg68
(lp1481
g61
(g82
g63
NtRp1482
(dp1483
g66
(dp1484
sg75
g1478
sg68
(lp1485
g61
(g62
g63
NtRp1486
(dp1487
g66
(dp1488
g74
I3
ssg75
g1482
sg68
(lp1489
S'stable'
p1490
asbasbasbasbasbasbasbag61
(g77
g63
NtRp1491
(dp1492
g66
(dp1493
sg75
g678
sg68
(lp1494
g61
(g82
g63
NtRp1495
(dp1496
g66
(dp1497
g86
g87
ssg75
g1491
sg68
(lp1498
S'wsgi_errors'
p1499
asbag61
(g82
g63
NtRp1500
(dp1501
g66
(dp1502
g93
g94
ssg75
g1491
sg68
(lp1503
S':'
asbag61
(g82
g63
NtRp1504
(dp1505
g66
(dp1506
sg75
g1491
sg68
(lp1507
g61
(g62
g63
NtRp1508
(dp1509
g66
(dp1510
g74
I4
ssg75
g1504
sg68
(lp1511
S"<open file '<stderr>', mode 'w' at 0x00A850D0>"
p1512
asbasbasbag61
(g77
g63
NtRp1513
(dp1514
g66
(dp1515
sg75
g678
sg68
(lp1516
g61
(g82
g63
NtRp1517
(dp1518
g66
(dp1519
g86
g87
ssg75
g1513
sg68
(lp1520
S'wsgi_file_wrapper'
p1521
asbag61
(g82
g63
NtRp1522
(dp1523
g66
(dp1524
g93
g94
ssg75
g1513
sg68
(lp1525
S':'
asbag61
(g82
g63
NtRp1526
(dp1527
g66
(dp1528
sg75
g1513
sg68
(lp1529
g61
(g62
g63
NtRp1530
(dp1531
g66
(dp1532
g74
I4
ssg75
g1526
sg68
(lp1533
S'<class wsgiref.util.FileWrapper at 0x0172EE68>'
p1534
asbasbasbag61
(g77
g63
NtRp1535
(dp1536
g66
(dp1537
sg75
g678
sg68
(lp1538
g61
(g82
g63
NtRp1539
(dp1540
g66
(dp1541
g86
g87
ssg75
g1535
sg68
(lp1542
S'wsgi_input'
p1543
asbag61
(g82
g63
NtRp1544
(dp1545
g66
(dp1546
g93
g94
ssg75
g1535
sg68
(lp1547
S':'
asbag61
(g82
g63
NtRp1548
(dp1549
g66
(dp1550
sg75
g1535
sg68
(lp1551
g61
(g62
g63
NtRp1552
(dp1553
g66
(dp1554
g74
I4
ssg75
g1548
sg68
(lp1555
S'<socket._fileobject object at 0x05498E70>'
p1556
asbasbasbag61
(g77
g63
NtRp1557
(dp1558
g66
(dp1559
sg75
g678
sg68
(lp1560
g61
(g82
g63
NtRp1561
(dp1562
g66
(dp1563
g86
g87
ssg75
g1557
sg68
(lp1564
S'wsgi_multiprocess'
p1565
asbag61
(g82
g63
NtRp1566
(dp1567
g66
(dp1568
g93
g94
ssg75
g1557
sg68
(lp1569
S':'
asbag61
(g82
g63
NtRp1570
(dp1571
g66
(dp1572
sg75
g1557
sg68
(lp1573
g61
(g62
g63
NtRp1574
(dp1575
g66
(dp1576
g74
I4
ssg75
g1570
sg68
(lp1577
g104
asbasbasbag61
(g77
g63
NtRp1578
(dp1579
g66
(dp1580
sg75
g678
sg68
(lp1581
g61
(g82
g63
NtRp1582
(dp1583
g66
(dp1584
g86
g87
ssg75
g1578
sg68
(lp1585
S'wsgi_multithread'
p1586
asbag61
(g82
g63
NtRp1587
(dp1588
g66
(dp1589
g93
g94
ssg75
g1578
sg68
(lp1590
S':'
asbag61
(g82
g63
NtRp1591
(dp1592
g66
(dp1593
sg75
g1578
sg68
(lp1594
g61
(g62
g63
NtRp1595
(dp1596
g66
(dp1597
g74
I4
ssg75
g1591
sg68
(lp1598
S'True'
p1599
asbasbasbag61
(g77
g63
NtRp1600
(dp1601
g66
(dp1602
sg75
g678
sg68
(lp1603
g61
(g82
g63
NtRp1604
(dp1605
g66
(dp1606
g86
g87
ssg75
g1600
sg68
(lp1607
S'wsgi_run_once'
p1608
asbag61
(g82
g63
NtRp1609
(dp1610
g66
(dp1611
g93
g94
ssg75
g1600
sg68
(lp1612
S':'
asbag61
(g82
g63
NtRp1613
(dp1614
g66
(dp1615
sg75
g1600
sg68
(lp1616
g61
(g62
g63
NtRp1617
(dp1618
g66
(dp1619
g74
I4
ssg75
g1613
sg68
(lp1620
g104
asbasbasbag61
(g77
g63
NtRp1621
(dp1622
g66
(dp1623
sg75
g678
sg68
(lp1624
g61
(g82
g63
NtRp1625
(dp1626
g66
(dp1627
g86
g87
ssg75
g1621
sg68
(lp1628
S'wsgi_url_scheme'
p1629
asbag61
(g82
g63
NtRp1630
(dp1631
g66
(dp1632
g93
g94
ssg75
g1621
sg68
(lp1633
S':'
asbag61
(g82
g63
NtRp1634
(dp1635
g66
(dp1636
sg75
g1621
sg68
(lp1637
g61
(g62
g63
NtRp1638
(dp1639
g66
(dp1640
g74
I4
ssg75
g1634
sg68
(lp1641
S'http'
p1642
asbasbasbag61
(g77
g63
NtRp1643
(dp1644
g66
(dp1645
sg75
g678
sg68
(lp1646
g61
(g82
g63
NtRp1647
(dp1648
g66
(dp1649
g86
g87
ssg75
g1643
sg68
(lp1650
S'wsgi_version'
p1651
asbag61
(g82
g63
NtRp1652
(dp1653
g66
(dp1654
g93
g94
ssg75
g1643
sg68
(lp1655
S':'
asbag61
(g82
g63
NtRp1656
(dp1657
g66
(dp1658
sg75
g1643
sg68
(lp1659
g61
(g62
g63
NtRp1660
(dp1661
g66
(dp1662
g74
I4
ssg75
g1656
sg68
(lp1663
g61
(g70
g63
NtRp1664
(dp1665
g66
(dp1666
g74
I3
ssg75
Nsg68
(lp1667
g61
(g77
g63
NtRp1668
(dp1669
g66
(dp1670
sg75
g1664
sg68
(lp1671
g61
(g82
g63
NtRp1672
(dp1673
g66
(dp1674
sg75
g1668
sg68
(lp1675
g61
(g62
g63
NtRp1676
(dp1677
g66
(dp1678
g74
I3
ssg75
g1672
sg68
(lp1679
S'1'
asbasbasbag61
(g77
g63
NtRp1680
(dp1681
g66
(dp1682
sg75
g1664
sg68
(lp1683
g61
(g82
g63
NtRp1684
(dp1685
g66
(dp1686
sg75
g1680
sg68
(lp1687
g61
(g62
g63
NtRp1688
(dp1689
g66
(dp1690
g74
I3
ssg75
g1684
sg68
(lp1691
S'0'
asbasbasbasbasbasbasbasbasbasbasbag61
(g77
g63
NtRp1692
(dp1693
g66
(dp1694
sg75
g71
sg68
(lp1695
g61
(g82
g63
NtRp1696
(dp1697
g66
(dp1698
g86
g87
ssg75
g1692
sg68
(lp1699
S'extension'
p1700
asbag61
(g82
g63
NtRp1701
(dp1702
g66
(dp1703
g93
g94
ssg75
g1692
sg68
(lp1704
S':'
asbag61
(g82
g63
NtRp1705
(dp1706
g66
(dp1707
sg75
g1692
sg68
(lp1708
g61
(g62
g63
NtRp1709
(dp1710
g66
(dp1711
g74
I5
ssg75
g1705
sg68
(lp1712
S'html'
p1713
asbasbasbag61
(g77
g63
NtRp1714
(dp1715
g66
(dp1716
sg75
g71
sg68
(lp1717
g61
(g82
g63
NtRp1718
(dp1719
g66
(dp1720
g86
g87
ssg75
g1714
sg68
(lp1721
S'folder'
p1722
asbag61
(g82
g63
NtRp1723
(dp1724
g66
(dp1725
g93
g94
ssg75
g1714
sg68
(lp1726
S':'
asbag61
(g82
g63
NtRp1727
(dp1728
g66
(dp1729
sg75
g1714
sg68
(lp1730
g61
(g62
g63
NtRp1731
(dp1732
g66
(dp1733
g74
I5
ssg75
g1727
sg68
(lp1734
S'D:\\web2py\\source\\web2py\\applications\\web2py_xlchart_dashboard\\'
p1735
asbasbasbag61
(g77
g63
NtRp1736
(dp1737
g66
(dp1738
sg75
g71
sg68
(lp1739
g61
(g82
g63
NtRp1740
(dp1741
g66
(dp1742
g86
g87
ssg75
g1736
sg68
(lp1743
S'function'
p1744
asbag61
(g82
g63
NtRp1745
(dp1746
g66
(dp1747
g93
g94
ssg75
g1736
sg68
(lp1748
S':'
asbag61
(g82
g63
NtRp1749
(dp1750
g66
(dp1751
sg75
g1736
sg68
(lp1752
g61
(g62
g63
NtRp1753
(dp1754
g66
(dp1755
g74
I5
ssg75
g1749
sg68
(lp1756
S'user_charts'
p1757
asbasbasbag61
(g77
g63
NtRp1758
(dp1759
g66
(dp1760
sg75
g71
sg68
(lp1761
g61
(g82
g63
NtRp1762
(dp1763
g66
(dp1764
g86
g87
ssg75
g1758
sg68
(lp1765
S'get_vars'
p1766
asbag61
(g82
g63
NtRp1767
(dp1768
g66
(dp1769
g93
g94
ssg75
g1758
sg68
(lp1770
S':'
asbag61
(g82
g63
NtRp1771
(dp1772
g66
(dp1773
sg75
g1758
sg68
(lp1774
g61
(g62
g63
NtRp1775
(dp1776
g66
(dp1777
g74
I5
ssg75
g1771
sg68
(lp1778
g61
(g70
g63
NtRp1779
(dp1780
g66
(dp1781
g74
I4
ssg75
Nsg68
(lp1782
sbasbasbasbag61
(g77
g63
NtRp1783
(dp1784
g66
(dp1785
sg75
g71
sg68
(lp1786
g61
(g82
g63
NtRp1787
(dp1788
g66
(dp1789
g86
g87
ssg75
g1783
sg68
(lp1790
S'global_settings'
p1791
asbag61
(g82
g63
NtRp1792
(dp1793
g66
(dp1794
g93
g94
ssg75
g1783
sg68
(lp1795
S':'
asbag61
(g82
g63
NtRp1796
(dp1797
g66
(dp1798
sg75
g1783
sg68
(lp1799
g61
(g62
g63
NtRp1800
(dp1801
g66
(dp1802
g74
I5
ssg75
g1796
sg68
(lp1803
g61
(g70
g63
NtRp1804
(dp1805
g66
(dp1806
g74
I4
ssg75
Nsg68
(lp1807
g61
(g77
g63
NtRp1808
(dp1809
g66
(dp1810
sg75
g1804
sg68
(lp1811
g61
(g82
g63
NtRp1812
(dp1813
g66
(dp1814
g86
g87
ssg75
g1808
sg68
(lp1815
g690
asbag61
(g82
g63
NtRp1816
(dp1817
g66
(dp1818
g93
g94
ssg75
g1808
sg68
(lp1819
S':'
asbag61
(g82
g63
NtRp1820
(dp1821
g66
(dp1822
sg75
g1808
sg68
(lp1823
g61
(g62
g63
NtRp1824
(dp1825
g66
(dp1826
g74
I4
ssg75
g1820
sg68
(lp1827
S"set(['D:\\\\web2py\\\\source\\\\web2py\\\\applications\\\\admin\\\\', 'D:\\\\web2py\\\\source\\\\web2py\\\\applications\\\\welcome\\\\', 'D:\\\\web2py\\\\source\\\\web2py\\\\applications\\\\web2py_xlchart_dashboard\\\\'])"
p1828
asbasbasbag61
(g77
g63
NtRp1829
(dp1830
g66
(dp1831
sg75
g1804
sg68
(lp1832
g61
(g82
g63
NtRp1833
(dp1834
g66
(dp1835
g86
g87
ssg75
g1829
sg68
(lp1836
g712
asbag61
(g82
g63
NtRp1837
(dp1838
g66
(dp1839
g93
g94
ssg75
g1829
sg68
(lp1840
S':'
asbag61
(g82
g63
NtRp1841
(dp1842
g66
(dp1843
sg75
g1829
sg68
(lp1844
g61
(g62
g63
NtRp1845
(dp1846
g66
(dp1847
g74
I4
ssg75
g1841
sg68
(lp1848
g725
asbasbasbag61
(g77
g63
NtRp1849
(dp1850
g66
(dp1851
sg75
g1804
sg68
(lp1852
g61
(g82
g63
NtRp1853
(dp1854
g66
(dp1855
g86
g87
ssg75
g1849
sg68
(lp1856
g734
asbag61
(g82
g63
NtRp1857
(dp1858
g66
(dp1859
g93
g94
ssg75
g1849
sg68
(lp1860
S':'
asbag61
(g82
g63
NtRp1861
(dp1862
g66
(dp1863
sg75
g1849
sg68
(lp1864
g61
(g62
g63
NtRp1865
(dp1866
g66
(dp1867
g74
I4
ssg75
g1861
sg68
(lp1868
g61
(g70
g63
NtRp1869
(dp1870
g66
(dp1871
g74
I3
ssg75
Nsg68
(lp1872
sbasbasbasbag61
(g77
g63
NtRp1873
(dp1874
g66
(dp1875
sg75
g1804
sg68
(lp1876
g61
(g82
g63
NtRp1877
(dp1878
g66
(dp1879
g86
g87
ssg75
g1873
sg68
(lp1880
g759
asbag61
(g82
g63
NtRp1881
(dp1882
g66
(dp1883
g93
g94
ssg75
g1873
sg68
(lp1884
S':'
asbag61
(g82
g63
NtRp1885
(dp1886
g66
(dp1887
sg75
g1873
sg68
(lp1888
g61
(g62
g63
NtRp1889
(dp1890
g66
(dp1891
g74
I4
ssg75
g1885
sg68
(lp1892
S"<Values at 0xc78f58: {'verbose': False, 'ip': '127.0.0.1', 'with_scheduler': False, 'ips': ['192.168.0.14'], 'shutdown_timeout': 5, 'taskbar': False, 'port': 8000, 'maxthreads': None, 'softcron': False, 'server_name': 'GLKLAG235327', 'bpython': False, 'nogui': False, 'pid_filename': 'httpserver.pid', 'extcron': False, 'runcron': False, 'run_system_tests': False, 'test': None, 'folder': 'D:\\\\web2py\\\\source\\\\web2py', 'config': '', 'import_models': False, 'winservice': '', 'shell': None, 'run': '', 'log_filename': 'httpserver.log', 'debuglevel': 30, 'args': [''], 'socket_timeout': 5, 'ssl_ca_certificate': None, 'scheduler': None, 'profiler_filename': None, 'ssl_private_key': '', 'scheduler_groups': None, 'password': '<ask>', 'request_queue_size': 5, 'ssl_certificate': '', 'cronjob': False, 'numthreads': None, 'quiet': False, 'interfaces': None, 'minthreads': None, 'timeout': 10, 'plain': False, 'nobanner': False}>"
p1893
asbasbasbag61
(g77
g63
NtRp1894
(dp1895
g66
(dp1896
sg75
g1804
sg68
(lp1897
g61
(g82
g63
NtRp1898
(dp1899
g66
(dp1900
g86
g87
ssg75
g1894
sg68
(lp1901
g781
asbag61
(g82
g63
NtRp1902
(dp1903
g66
(dp1904
g93
g94
ssg75
g1894
sg68
(lp1905
S':'
asbag61
(g82
g63
NtRp1906
(dp1907
g66
(dp1908
sg75
g1894
sg68
(lp1909
g61
(g62
g63
NtRp1910
(dp1911
g66
(dp1912
g74
I4
ssg75
g1906
sg68
(lp1913
S'set([])'
p1914
asbasbasbag61
(g77
g63
NtRp1915
(dp1916
g66
(dp1917
sg75
g1804
sg68
(lp1918
g61
(g82
g63
NtRp1919
(dp1920
g66
(dp1921
g86
g87
ssg75
g1915
sg68
(lp1922
g803
asbag61
(g82
g63
NtRp1923
(dp1924
g66
(dp1925
g93
g94
ssg75
g1915
sg68
(lp1926
S':'
asbag61
(g82
g63
NtRp1927
(dp1928
g66
(dp1929
sg75
g1915
sg68
(lp1930
g61
(g62
g63
NtRp1931
(dp1932
g66
(dp1933
g74
I4
ssg75
g1927
sg68
(lp1934
g104
asbasbasbag61
(g77
g63
NtRp1935
(dp1936
g66
(dp1937
sg75
g1804
sg68
(lp1938
g61
(g82
g63
NtRp1939
(dp1940
g66
(dp1941
g86
g87
ssg75
g1935
sg68
(lp1942
g824
asbag61
(g82
g63
NtRp1943
(dp1944
g66
(dp1945
g93
g94
ssg75
g1935
sg68
(lp1946
S':'
asbag61
(g82
g63
NtRp1947
(dp1948
g66
(dp1949
sg75
g1935
sg68
(lp1950
g61
(g62
g63
NtRp1951
(dp1952
g66
(dp1953
g74
I4
ssg75
g1947
sg68
(lp1954
g837
asbasbasbag61
(g77
g63
NtRp1955
(dp1956
g66
(dp1957
sg75
g1804
sg68
(lp1958
g61
(g82
g63
NtRp1959
(dp1960
g66
(dp1961
g86
g87
ssg75
g1955
sg68
(lp1962
g1022
asbag61
(g82
g63
NtRp1963
(dp1964
g66
(dp1965
g93
g94
ssg75
g1955
sg68
(lp1966
S':'
asbag61
(g82
g63
NtRp1967
(dp1968
g66
(dp1969
sg75
g1955
sg68
(lp1970
g61
(g62
g63
NtRp1971
(dp1972
g66
(dp1973
g74
I4
ssg75
g1967
sg68
(lp1974
g104
asbasbasbag61
(g77
g63
NtRp1975
(dp1976
g66
(dp1977
sg75
g1804
sg68
(lp1978
g61
(g82
g63
NtRp1979
(dp1980
g66
(dp1981
g86
g87
ssg75
g1975
sg68
(lp1982
g1043
asbag61
(g82
g63
NtRp1983
(dp1984
g66
(dp1985
g93
g94
ssg75
g1975
sg68
(lp1986
S':'
asbag61
(g82
g63
NtRp1987
(dp1988
g66
(dp1989
sg75
g1975
sg68
(lp1990
g61
(g62
g63
NtRp1991
(dp1992
g66
(dp1993
g74
I4
ssg75
g1987
sg68
(lp1994
g104
asbasbasbag61
(g77
g63
NtRp1995
(dp1996
g66
(dp1997
sg75
g1804
sg68
(lp1998
g61
(g82
g63
NtRp1999
(dp2000
g66
(dp2001
g86
g87
ssg75
g1995
sg68
(lp2002
g1064
asbag61
(g82
g63
NtRp2003
(dp2004
g66
(dp2005
g93
g94
ssg75
g1995
sg68
(lp2006
S':'
asbag61
(g82
g63
NtRp2007
(dp2008
g66
(dp2009
sg75
g1995
sg68
(lp2010
g61
(g62
g63
NtRp2011
(dp2012
g66
(dp2013
g74
I4
ssg75
g2007
sg68
(lp2014
g61
(g70
g63
NtRp2015
(dp2016
g66
(dp2017
g74
I3
ssg75
Nsg68
(lp2018
g61
(g77
g63
NtRp2019
(dp2020
g66
(dp2021
sg75
g2015
sg68
(lp2022
g61
(g82
g63
NtRp2023
(dp2024
g66
(dp2025
sg75
g2019
sg68
(lp2026
g61
(g62
g63
NtRp2027
(dp2028
g66
(dp2029
g74
I3
ssg75
g2023
sg68
(lp2030
g1093
asbasbasbag61
(g77
g63
NtRp2031
(dp2032
g66
(dp2033
sg75
g2015
sg68
(lp2034
g61
(g82
g63
NtRp2035
(dp2036
g66
(dp2037
sg75
g2031
sg68
(lp2038
g61
(g62
g63
NtRp2039
(dp2040
g66
(dp2041
g74
I3
ssg75
g2035
sg68
(lp2042
g1106
asbasbasbag61
(g77
g63
NtRp2043
(dp2044
g66
(dp2045
sg75
g2015
sg68
(lp2046
g61
(g82
g63
NtRp2047
(dp2048
g66
(dp2049
sg75
g2043
sg68
(lp2050
g61
(g62
g63
NtRp2051
(dp2052
g66
(dp2053
g74
I3
ssg75
g2047
sg68
(lp2054
g1119
asbasbasbag61
(g77
g63
NtRp2055
(dp2056
g66
(dp2057
sg75
g2015
sg68
(lp2058
g61
(g82
g63
NtRp2059
(dp2060
g66
(dp2061
sg75
g2055
sg68
(lp2062
g61
(g62
g63
NtRp2063
(dp2064
g66
(dp2065
g74
I3
ssg75
g2059
sg68
(lp2066
g1132
asbasbasbag61
(g77
g63
NtRp2067
(dp2068
g66
(dp2069
sg75
g2015
sg68
(lp2070
g61
(g82
g63
NtRp2071
(dp2072
g66
(dp2073
sg75
g2067
sg68
(lp2074
g61
(g62
g63
NtRp2075
(dp2076
g66
(dp2077
g74
I3
ssg75
g2071
sg68
(lp2078
g1145
asbasbasbasbasbasbasbag61
(g77
g63
NtRp2079
(dp2080
g66
(dp2081
sg75
g1804
sg68
(lp2082
g61
(g82
g63
NtRp2083
(dp2084
g66
(dp2085
g86
g87
ssg75
g2079
sg68
(lp2086
g1412
asbag61
(g82
g63
NtRp2087
(dp2088
g66
(dp2089
g93
g94
ssg75
g2079
sg68
(lp2090
S':'
asbag61
(g82
g63
NtRp2091
(dp2092
g66
(dp2093
sg75
g2079
sg68
(lp2094
g61
(g62
g63
NtRp2095
(dp2096
g66
(dp2097
g74
I4
ssg75
g2091
sg68
(lp2098
g61
(g70
g63
NtRp2099
(dp2100
g66
(dp2101
g74
I3
ssg75
Nsg68
(lp2102
g61
(g77
g63
NtRp2103
(dp2104
g66
(dp2105
sg75
g2099
sg68
(lp2106
g61
(g82
g63
NtRp2107
(dp2108
g66
(dp2109
sg75
g2103
sg68
(lp2110
g61
(g62
g63
NtRp2111
(dp2112
g66
(dp2113
g74
I3
ssg75
g2107
sg68
(lp2114
S'2'
asbasbasbag61
(g77
g63
NtRp2115
(dp2116
g66
(dp2117
sg75
g2099
sg68
(lp2118
g61
(g82
g63
NtRp2119
(dp2120
g66
(dp2121
sg75
g2115
sg68
(lp2122
g61
(g62
g63
NtRp2123
(dp2124
g66
(dp2125
g74
I3
ssg75
g2119
sg68
(lp2126
S'2'
asbasbasbag61
(g77
g63
NtRp2127
(dp2128
g66
(dp2129
sg75
g2099
sg68
(lp2130
g61
(g82
g63
NtRp2131
(dp2132
g66
(dp2133
sg75
g2127
sg68
(lp2134
g61
(g62
g63
NtRp2135
(dp2136
g66
(dp2137
g74
I3
ssg75
g2131
sg68
(lp2138
S'1'
asbasbasbag61
(g77
g63
NtRp2139
(dp2140
g66
(dp2141
sg75
g2099
sg68
(lp2142
g61
(g82
g63
NtRp2143
(dp2144
g66
(dp2145
sg75
g2139
sg68
(lp2146
g61
(g62
g63
NtRp2147
(dp2148
g66
(dp2149
g74
I3
ssg75
g2143
sg68
(lp2150
S'datetime.datetime(2012, 10, 21, 16, 57, 4)'
p2151
asbasbasbag61
(g77
g63
NtRp2152
(dp2153
g66
(dp2154
sg75
g2099
sg68
(lp2155
g61
(g82
g63
NtRp2156
(dp2157
g66
(dp2158
sg75
g2152
sg68
(lp2159
g61
(g62
g63
NtRp2160
(dp2161
g66
(dp2162
g74
I3
ssg75
g2156
sg68
(lp2163
g1490
asbasbasbasbasbasbasbasbasbasbasbag61
(g77
g63
NtRp2164
(dp2165
g66
(dp2166
sg75
g71
sg68
(lp2167
g61
(g82
g63
NtRp2168
(dp2169
g66
(dp2170
g86
g87
ssg75
g2164
sg68
(lp2171
S'is_https'
p2172
asbag61
(g82
g63
NtRp2173
(dp2174
g66
(dp2175
g93
g94
ssg75
g2164
sg68
(lp2176
S':'
asbag61
(g82
g63
NtRp2177
(dp2178
g66
(dp2179
sg75
g2164
sg68
(lp2180
g61
(g62
g63
NtRp2181
(dp2182
g66
(dp2183
g74
I5
ssg75
g2177
sg68
(lp2184
g104
asbasbasbag61
(g77
g63
NtRp2185
(dp2186
g66
(dp2187
sg75
g71
sg68
(lp2188
g61
(g82
g63
NtRp2189
(dp2190
g66
(dp2191
g86
g87
ssg75
g2185
sg68
(lp2192
S'is_local'
p2193
asbag61
(g82
g63
NtRp2194
(dp2195
g66
(dp2196
g93
g94
ssg75
g2185
sg68
(lp2197
S':'
asbag61
(g82
g63
NtRp2198
(dp2199
g66
(dp2200
sg75
g2185
sg68
(lp2201
g61
(g62
g63
NtRp2202
(dp2203
g66
(dp2204
g74
I5
ssg75
g2198
sg68
(lp2205
g1599
asbasbasbag61
(g77
g63
NtRp2206
(dp2207
g66
(dp2208
sg75
g71
sg68
(lp2209
g61
(g82
g63
NtRp2210
(dp2211
g66
(dp2212
g86
g87
ssg75
g2206
sg68
(lp2213
S'is_restful'
p2214
asbag61
(g82
g63
NtRp2215
(dp2216
g66
(dp2217
g93
g94
ssg75
g2206
sg68
(lp2218
S':'
asbag61
(g82
g63
NtRp2219
(dp2220
g66
(dp2221
sg75
g2206
sg68
(lp2222
g61
(g62
g63
NtRp2223
(dp2224
g66
(dp2225
g74
I5
ssg75
g2219
sg68
(lp2226
g104
asbasbasbag61
(g77
g63
NtRp2227
(dp2228
g66
(dp2229
sg75
g71
sg68
(lp2230
g61
(g82
g63
NtRp2231
(dp2232
g66
(dp2233
g86
g87
ssg75
g2227
sg68
(lp2234
S'now'
p2235
asbag61
(g82
g63
NtRp2236
(dp2237
g66
(dp2238
g93
g94
ssg75
g2227
sg68
(lp2239
S':'
asbag61
(g82
g63
NtRp2240
(dp2241
g66
(dp2242
sg75
g2227
sg68
(lp2243
g61
(g62
g63
NtRp2244
(dp2245
g66
(dp2246
g74
I5
ssg75
g2240
sg68
(lp2247
S'datetime.datetime(2012, 11, 7, 12, 24, 41, 718000)'
p2248
asbasbasbag61
(g77
g63
NtRp2249
(dp2250
g66
(dp2251
sg75
g71
sg68
(lp2252
g61
(g82
g63
NtRp2253
(dp2254
g66
(dp2255
g86
g87
ssg75
g2249
sg68
(lp2256
S'post_vars'
p2257
asbag61
(g82
g63
NtRp2258
(dp2259
g66
(dp2260
g93
g94
ssg75
g2249
sg68
(lp2261
S':'
asbag61
(g82
g63
NtRp2262
(dp2263
g66
(dp2264
sg75
g2249
sg68
(lp2265
g61
(g62
g63
NtRp2266
(dp2267
g66
(dp2268
g74
I5
ssg75
g2262
sg68
(lp2269
g61
(g70
g63
NtRp2270
(dp2271
g66
(dp2272
g74
I4
ssg75
Nsg68
(lp2273
sbasbasbasbag61
(g77
g63
NtRp2274
(dp2275
g66
(dp2276
sg75
g71
sg68
(lp2277
g61
(g82
g63
NtRp2278
(dp2279
g66
(dp2280
g86
g87
ssg75
g2274
sg68
(lp2281
S'raw_args'
p2282
asbag61
(g82
g63
NtRp2283
(dp2284
g66
(dp2285
g93
g94
ssg75
g2274
sg68
(lp2286
S':'
asbag61
(g82
g63
NtRp2287
(dp2288
g66
(dp2289
sg75
g2274
sg68
(lp2290
g61
(g62
g63
NtRp2291
(dp2292
g66
(dp2293
g74
I5
ssg75
g2287
sg68
(lp2294
S''
asbasbasbag61
(g77
g63
NtRp2295
(dp2296
g66
(dp2297
sg75
g71
sg68
(lp2298
g61
(g82
g63
NtRp2299
(dp2300
g66
(dp2301
g86
g87
ssg75
g2295
sg68
(lp2302
S'raw_extension'
p2303
asbag61
(g82
g63
NtRp2304
(dp2305
g66
(dp2306
g93
g94
ssg75
g2295
sg68
(lp2307
S':'
asbag61
(g82
g63
NtRp2308
(dp2309
g66
(dp2310
sg75
g2295
sg68
(lp2311
g61
(g62
g63
NtRp2312
(dp2313
g66
(dp2314
g74
I5
ssg75
g2308
sg68
(lp2315
S'None'
p2316
asbasbasbag61
(g77
g63
NtRp2317
(dp2318
g66
(dp2319
sg75
g71
sg68
(lp2320
g61
(g82
g63
NtRp2321
(dp2322
g66
(dp2323
g86
g87
ssg75
g2317
sg68
(lp2324
S'url'
p2325
asbag61
(g82
g63
NtRp2326
(dp2327
g66
(dp2328
g93
g94
ssg75
g2317
sg68
(lp2329
S':'
asbag61
(g82
g63
NtRp2330
(dp2331
g66
(dp2332
sg75
g2317
sg68
(lp2333
g61
(g62
g63
NtRp2334
(dp2335
g66
(dp2336
g74
I5
ssg75
g2330
sg68
(lp2337
g1167
asbasbasbag61
(g77
g63
NtRp2338
(dp2339
g66
(dp2340
sg75
g71
sg68
(lp2341
g61
(g82
g63
NtRp2342
(dp2343
g66
(dp2344
g86
g87
ssg75
g2338
sg68
(lp2345
S'utcnow'
p2346
asbag61
(g82
g63
NtRp2347
(dp2348
g66
(dp2349
g93
g94
ssg75
g2338
sg68
(lp2350
S':'
asbag61
(g82
g63
NtRp2351
(dp2352
g66
(dp2353
sg75
g2338
sg68
(lp2354
g61
(g62
g63
NtRp2355
(dp2356
g66
(dp2357
g74
I5
ssg75
g2351
sg68
(lp2358
S'datetime.datetime(2012, 11, 7, 12, 24, 41, 718000)'
p2359
asbasbasbag61
(g77
g63
NtRp2360
(dp2361
g66
(dp2362
sg75
g71
sg68
(lp2363
g61
(g82
g63
NtRp2364
(dp2365
g66
(dp2366
g86
g87
ssg75
g2360
sg68
(lp2367
S'uuid'
p2368
asbag61
(g82
g63
NtRp2369
(dp2370
g66
(dp2371
g93
g94
ssg75
g2360
sg68
(lp2372
S':'
asbag61
(g82
g63
NtRp2373
(dp2374
g66
(dp2375
sg75
g2360
sg68
(lp2376
g61
(g62
g63
NtRp2377
(dp2378
g66
(dp2379
g74
I5
ssg75
g2373
sg68
(lp2380
S'web2py_xlchart_dashboard/127.0.0.1.2012-11-07.12-24-41.c128d5c6-2898-4ad8-a07c-feffaa7ae2ee'
p2381
asbasbasbag61
(g77
g63
NtRp2382
(dp2383
g66
(dp2384
sg75
g71
sg68
(lp2385
g61
(g82
g63
NtRp2386
(dp2387
g66
(dp2388
g86
g87
ssg75
g2382
sg68
(lp2389
S'vars'
p2390
asbag61
(g82
g63
NtRp2391
(dp2392
g66
(dp2393
g93
g94
ssg75
g2382
sg68
(lp2394
S':'
asbag61
(g82
g63
NtRp2395
(dp2396
g66
(dp2397
sg75
g2382
sg68
(lp2398
g61
(g62
g63
NtRp2399
(dp2400
g66
(dp2401
g74
I5
ssg75
g2395
sg68
(lp2402
g61
(g70
g63
NtRp2403
(dp2404
g66
(dp2405
g74
I4
ssg75
Nsg68
(lp2406
g61
(g77
g63
NtRp2407
(dp2408
g66
(dp2409
sg75
g2403
sg68
(lp2410
g61
(g82
g63
NtRp2411
(dp2412
g66
(dp2413
g86
g87
ssg75
g2407
sg68
(lp2414
S'records'
p2415
asbag61
(g82
g63
NtRp2416
(dp2417
g66
(dp2418
g93
g94
ssg75
g2407
sg68
(lp2419
S':'
asbag61
(g82
g63
NtRp2420
(dp2421
g66
(dp2422
sg75
g2407
sg68
(lp2423
g61
(g62
g63
NtRp2424
(dp2425
g66
(dp2426
g74
I4
ssg75
g2420
sg68
(lp2427
g61
(g70
g63
NtRp2428
(dp2429
g66
(dp2430
g74
I3
ssg75
Nsg68
(lp2431
sbasbasbasbasbasbasbasbag61
(g77
g63
NtRp2432
(dp2433
g66
(dp2434
sg75
g71
sg68
(lp2435
g61
(g82
g63
NtRp2436
(dp2437
g66
(dp2438
g86
g87
ssg75
g2432
sg68
(lp2439
S'wsgi'
p2440
asbag61
(g82
g63
NtRp2441
(dp2442
g66
(dp2443
g93
g94
ssg75
g2432
sg68
(lp2444
S':'
asbag61
(g82
g63
NtRp2445
(dp2446
g66
(dp2447
sg75
g2432
sg68
(lp2448
g61
(g62
g63
NtRp2449
(dp2450
g66
(dp2451
g74
I5
ssg75
g2445
sg68
(lp2452
g61
(g70
g63
NtRp2453
(dp2454
g66
(dp2455
g74
I4
ssg75
Nsg68
(lp2456
g61
(g77
g63
NtRp2457
(dp2458
g66
(dp2459
sg75
g2453
sg68
(lp2460
g61
(g82
g63
NtRp2461
(dp2462
g66
(dp2463
g86
g87
ssg75
g2457
sg68
(lp2464
S'environ'
p2465
asbag61
(g82
g63
NtRp2466
(dp2467
g66
(dp2468
g93
g94
ssg75
g2457
sg68
(lp2469
S':'
asbag61
(g82
g63
NtRp2470
(dp2471
g66
(dp2472
sg75
g2457
sg68
(lp2473
g61
(g62
g63
NtRp2474
(dp2475
g66
(dp2476
g74
I4
ssg75
g2470
sg68
(lp2477
g61
(g70
g63
NtRp2478
(dp2479
g66
(dp2480
g74
I3
ssg75
Nsg68
(lp2481
g61
(g77
g63
NtRp2482
(dp2483
g66
(dp2484
sg75
g2478
sg68
(lp2485
g61
(g82
g63
NtRp2486
(dp2487
g66
(dp2488
g86
g87
ssg75
g2482
sg68
(lp2489
S'HTTP_ACCEPT'
p2490
asbag61
(g82
g63
NtRp2491
(dp2492
g66
(dp2493
g93
g94
ssg75
g2482
sg68
(lp2494
S':'
asbag61
(g82
g63
NtRp2495
(dp2496
g66
(dp2497
sg75
g2482
sg68
(lp2498
g61
(g62
g63
NtRp2499
(dp2500
g66
(dp2501
g74
I3
ssg75
g2495
sg68
(lp2502
g859
asbasbasbag61
(g77
g63
NtRp2503
(dp2504
g66
(dp2505
sg75
g2478
sg68
(lp2506
g61
(g82
g63
NtRp2507
(dp2508
g66
(dp2509
g86
g87
ssg75
g2503
sg68
(lp2510
S'HTTP_ACCEPT_ENCODING'
p2511
asbag61
(g82
g63
NtRp2512
(dp2513
g66
(dp2514
g93
g94
ssg75
g2503
sg68
(lp2515
S':'
asbag61
(g82
g63
NtRp2516
(dp2517
g66
(dp2518
sg75
g2503
sg68
(lp2519
g61
(g62
g63
NtRp2520
(dp2521
g66
(dp2522
g74
I3
ssg75
g2516
sg68
(lp2523
g881
asbasbasbag61
(g77
g63
NtRp2524
(dp2525
g66
(dp2526
sg75
g2478
sg68
(lp2527
g61
(g82
g63
NtRp2528
(dp2529
g66
(dp2530
g86
g87
ssg75
g2524
sg68
(lp2531
S'HTTP_ACCEPT_LANGUAGE'
p2532
asbag61
(g82
g63
NtRp2533
(dp2534
g66
(dp2535
g93
g94
ssg75
g2524
sg68
(lp2536
S':'
asbag61
(g82
g63
NtRp2537
(dp2538
g66
(dp2539
sg75
g2524
sg68
(lp2540
g61
(g62
g63
NtRp2541
(dp2542
g66
(dp2543
g74
I3
ssg75
g2537
sg68
(lp2544
g903
asbasbasbag61
(g77
g63
NtRp2545
(dp2546
g66
(dp2547
sg75
g2478
sg68
(lp2548
g61
(g82
g63
NtRp2549
(dp2550
g66
(dp2551
g86
g87
ssg75
g2545
sg68
(lp2552
S'HTTP_CONNECTION'
p2553
asbag61
(g82
g63
NtRp2554
(dp2555
g66
(dp2556
g93
g94
ssg75
g2545
sg68
(lp2557
S':'
asbag61
(g82
g63
NtRp2558
(dp2559
g66
(dp2560
sg75
g2545
sg68
(lp2561
g61
(g62
g63
NtRp2562
(dp2563
g66
(dp2564
g74
I3
ssg75
g2558
sg68
(lp2565
g925
asbasbasbag61
(g77
g63
NtRp2566
(dp2567
g66
(dp2568
sg75
g2478
sg68
(lp2569
g61
(g82
g63
NtRp2570
(dp2571
g66
(dp2572
g86
g87
ssg75
g2566
sg68
(lp2573
S'HTTP_COOKIE'
p2574
asbag61
(g82
g63
NtRp2575
(dp2576
g66
(dp2577
g93
g94
ssg75
g2566
sg68
(lp2578
S':'
asbag61
(g82
g63
NtRp2579
(dp2580
g66
(dp2581
sg75
g2566
sg68
(lp2582
g61
(g62
g63
NtRp2583
(dp2584
g66
(dp2585
g74
I3
ssg75
g2579
sg68
(lp2586
g947
asbasbasbag61
(g77
g63
NtRp2587
(dp2588
g66
(dp2589
sg75
g2478
sg68
(lp2590
g61
(g82
g63
NtRp2591
(dp2592
g66
(dp2593
g86
g87
ssg75
g2587
sg68
(lp2594
S'HTTP_HOST'
p2595
asbag61
(g82
g63
NtRp2596
(dp2597
g66
(dp2598
g93
g94
ssg75
g2587
sg68
(lp2599
S':'
asbag61
(g82
g63
NtRp2600
(dp2601
g66
(dp2602
sg75
g2587
sg68
(lp2603
g61
(g62
g63
NtRp2604
(dp2605
g66
(dp2606
g74
I3
ssg75
g2600
sg68
(lp2607
g969
asbasbasbag61
(g77
g63
NtRp2608
(dp2609
g66
(dp2610
sg75
g2478
sg68
(lp2611
g61
(g82
g63
NtRp2612
(dp2613
g66
(dp2614
g86
g87
ssg75
g2608
sg68
(lp2615
S'HTTP_REFERER'
p2616
asbag61
(g82
g63
NtRp2617
(dp2618
g66
(dp2619
g93
g94
ssg75
g2608
sg68
(lp2620
S':'
asbag61
(g82
g63
NtRp2621
(dp2622
g66
(dp2623
sg75
g2608
sg68
(lp2624
g61
(g62
g63
NtRp2625
(dp2626
g66
(dp2627
g74
I3
ssg75
g2621
sg68
(lp2628
g991
asbasbasbag61
(g77
g63
NtRp2629
(dp2630
g66
(dp2631
sg75
g2478
sg68
(lp2632
g61
(g82
g63
NtRp2633
(dp2634
g66
(dp2635
g86
g87
ssg75
g2629
sg68
(lp2636
S'HTTP_USER_AGENT'
p2637
asbag61
(g82
g63
NtRp2638
(dp2639
g66
(dp2640
g93
g94
ssg75
g2629
sg68
(lp2641
S':'
asbag61
(g82
g63
NtRp2642
(dp2643
g66
(dp2644
sg75
g2629
sg68
(lp2645
g61
(g62
g63
NtRp2646
(dp2647
g66
(dp2648
g74
I3
ssg75
g2642
sg68
(lp2649
g1013
asbasbasbag61
(g77
g63
NtRp2650
(dp2651
g66
(dp2652
sg75
g2478
sg68
(lp2653
g61
(g82
g63
NtRp2654
(dp2655
g66
(dp2656
g86
g87
ssg75
g2650
sg68
(lp2657
S'PATH_INFO'
p2658
asbag61
(g82
g63
NtRp2659
(dp2660
g66
(dp2661
g93
g94
ssg75
g2650
sg68
(lp2662
S':'
asbag61
(g82
g63
NtRp2663
(dp2664
g66
(dp2665
sg75
g2650
sg68
(lp2666
g61
(g62
g63
NtRp2667
(dp2668
g66
(dp2669
g74
I3
ssg75
g2663
sg68
(lp2670
g1167
asbasbasbag61
(g77
g63
NtRp2671
(dp2672
g66
(dp2673
sg75
g2478
sg68
(lp2674
g61
(g82
g63
NtRp2675
(dp2676
g66
(dp2677
g86
g87
ssg75
g2671
sg68
(lp2678
S'QUERY_STRING'
p2679
asbag61
(g82
g63
NtRp2680
(dp2681
g66
(dp2682
g93
g94
ssg75
g2671
sg68
(lp2683
S':'
asbag61
(g82
g63
NtRp2684
(dp2685
g66
(dp2686
sg75
g2671
sg68
(lp2687
g61
(g62
g63
NtRp2688
(dp2689
g66
(dp2690
g74
I3
ssg75
g2684
sg68
(lp2691
S''
asbasbasbag61
(g77
g63
NtRp2692
(dp2693
g66
(dp2694
sg75
g2478
sg68
(lp2695
g61
(g82
g63
NtRp2696
(dp2697
g66
(dp2698
g86
g87
ssg75
g2692
sg68
(lp2699
S'REMOTE_ADDR'
p2700
asbag61
(g82
g63
NtRp2701
(dp2702
g66
(dp2703
g93
g94
ssg75
g2692
sg68
(lp2704
S':'
asbag61
(g82
g63
NtRp2705
(dp2706
g66
(dp2707
sg75
g2692
sg68
(lp2708
g61
(g62
g63
NtRp2709
(dp2710
g66
(dp2711
g74
I3
ssg75
g2705
sg68
(lp2712
g229
asbasbasbag61
(g77
g63
NtRp2713
(dp2714
g66
(dp2715
sg75
g2478
sg68
(lp2716
g61
(g82
g63
NtRp2717
(dp2718
g66
(dp2719
g86
g87
ssg75
g2713
sg68
(lp2720
S'REMOTE_PORT'
p2721
asbag61
(g82
g63
NtRp2722
(dp2723
g66
(dp2724
g93
g94
ssg75
g2713
sg68
(lp2725
S':'
asbag61
(g82
g63
NtRp2726
(dp2727
g66
(dp2728
sg75
g2713
sg68
(lp2729
g61
(g62
g63
NtRp2730
(dp2731
g66
(dp2732
g74
I3
ssg75
g2726
sg68
(lp2733
g1231
asbasbasbag61
(g77
g63
NtRp2734
(dp2735
g66
(dp2736
sg75
g2478
sg68
(lp2737
g61
(g82
g63
NtRp2738
(dp2739
g66
(dp2740
g86
g87
ssg75
g2734
sg68
(lp2741
S'REQUEST_METHOD'
p2742
asbag61
(g82
g63
NtRp2743
(dp2744
g66
(dp2745
g93
g94
ssg75
g2734
sg68
(lp2746
S':'
asbag61
(g82
g63
NtRp2747
(dp2748
g66
(dp2749
sg75
g2734
sg68
(lp2750
g61
(g62
g63
NtRp2751
(dp2752
g66
(dp2753
g74
I3
ssg75
g2747
sg68
(lp2754
g1253
asbasbasbag61
(g77
g63
NtRp2755
(dp2756
g66
(dp2757
sg75
g2478
sg68
(lp2758
g61
(g82
g63
NtRp2759
(dp2760
g66
(dp2761
g86
g87
ssg75
g2755
sg68
(lp2762
S'REQUEST_URI'
p2763
asbag61
(g82
g63
NtRp2764
(dp2765
g66
(dp2766
g93
g94
ssg75
g2755
sg68
(lp2767
S':'
asbag61
(g82
g63
NtRp2768
(dp2769
g66
(dp2770
sg75
g2755
sg68
(lp2771
g61
(g62
g63
NtRp2772
(dp2773
g66
(dp2774
g74
I3
ssg75
g2768
sg68
(lp2775
g1167
asbasbasbag61
(g77
g63
NtRp2776
(dp2777
g66
(dp2778
sg75
g2478
sg68
(lp2779
g61
(g82
g63
NtRp2780
(dp2781
g66
(dp2782
g86
g87
ssg75
g2776
sg68
(lp2783
S'SCRIPT_NAME'
p2784
asbag61
(g82
g63
NtRp2785
(dp2786
g66
(dp2787
g93
g94
ssg75
g2776
sg68
(lp2788
S':'
asbag61
(g82
g63
NtRp2789
(dp2790
g66
(dp2791
sg75
g2776
sg68
(lp2792
g61
(g62
g63
NtRp2793
(dp2794
g66
(dp2795
g74
I3
ssg75
g2789
sg68
(lp2796
S''
asbasbasbag61
(g77
g63
NtRp2797
(dp2798
g66
(dp2799
sg75
g2478
sg68
(lp2800
g61
(g82
g63
NtRp2801
(dp2802
g66
(dp2803
g86
g87
ssg75
g2797
sg68
(lp2804
S'SERVER_NAME'
p2805
asbag61
(g82
g63
NtRp2806
(dp2807
g66
(dp2808
g93
g94
ssg75
g2797
sg68
(lp2809
S':'
asbag61
(g82
g63
NtRp2810
(dp2811
g66
(dp2812
sg75
g2797
sg68
(lp2813
g61
(g62
g63
NtRp2814
(dp2815
g66
(dp2816
g74
I3
ssg75
g2810
sg68
(lp2817
g1132
asbasbasbag61
(g77
g63
NtRp2818
(dp2819
g66
(dp2820
sg75
g2478
sg68
(lp2821
g61
(g82
g63
NtRp2822
(dp2823
g66
(dp2824
g86
g87
ssg75
g2818
sg68
(lp2825
S'SERVER_PORT'
p2826
asbag61
(g82
g63
NtRp2827
(dp2828
g66
(dp2829
g93
g94
ssg75
g2818
sg68
(lp2830
S':'
asbag61
(g82
g63
NtRp2831
(dp2832
g66
(dp2833
sg75
g2818
sg68
(lp2834
g61
(g62
g63
NtRp2835
(dp2836
g66
(dp2837
g74
I3
ssg75
g2831
sg68
(lp2838
g1338
asbasbasbag61
(g77
g63
NtRp2839
(dp2840
g66
(dp2841
sg75
g2478
sg68
(lp2842
g61
(g82
g63
NtRp2843
(dp2844
g66
(dp2845
g86
g87
ssg75
g2839
sg68
(lp2846
S'SERVER_PROTOCOL'
p2847
asbag61
(g82
g63
NtRp2848
(dp2849
g66
(dp2850
g93
g94
ssg75
g2839
sg68
(lp2851
S':'
asbag61
(g82
g63
NtRp2852
(dp2853
g66
(dp2854
sg75
g2839
sg68
(lp2855
g61
(g62
g63
NtRp2856
(dp2857
g66
(dp2858
g74
I3
ssg75
g2852
sg68
(lp2859
g1360
asbasbasbag61
(g77
g63
NtRp2860
(dp2861
g66
(dp2862
sg75
g2478
sg68
(lp2863
g61
(g82
g63
NtRp2864
(dp2865
g66
(dp2866
g86
g87
ssg75
g2860
sg68
(lp2867
S'SERVER_SOFTWARE'
p2868
asbag61
(g82
g63
NtRp2869
(dp2870
g66
(dp2871
g93
g94
ssg75
g2860
sg68
(lp2872
S':'
asbag61
(g82
g63
NtRp2873
(dp2874
g66
(dp2875
sg75
g2860
sg68
(lp2876
g61
(g62
g63
NtRp2877
(dp2878
g66
(dp2879
g74
I3
ssg75
g2873
sg68
(lp2880
g1382
asbasbasbag61
(g77
g63
NtRp2881
(dp2882
g66
(dp2883
sg75
g2478
sg68
(lp2884
g61
(g82
g63
NtRp2885
(dp2886
g66
(dp2887
g86
g87
ssg75
g2881
sg68
(lp2888
S'wsgi.errors'
p2889
asbag61
(g82
g63
NtRp2890
(dp2891
g66
(dp2892
g93
g94
ssg75
g2881
sg68
(lp2893
S':'
asbag61
(g82
g63
NtRp2894
(dp2895
g66
(dp2896
sg75
g2881
sg68
(lp2897
g61
(g62
g63
NtRp2898
(dp2899
g66
(dp2900
g74
I3
ssg75
g2894
sg68
(lp2901
S"<open file '<stderr>', mode 'w' at 0x00A850D0>"
p2902
asbasbasbag61
(g77
g63
NtRp2903
(dp2904
g66
(dp2905
sg75
g2478
sg68
(lp2906
g61
(g82
g63
NtRp2907
(dp2908
g66
(dp2909
g86
g87
ssg75
g2903
sg68
(lp2910
S'wsgi.file_wrapper'
p2911
asbag61
(g82
g63
NtRp2912
(dp2913
g66
(dp2914
g93
g94
ssg75
g2903
sg68
(lp2915
S':'
asbag61
(g82
g63
NtRp2916
(dp2917
g66
(dp2918
sg75
g2903
sg68
(lp2919
g61
(g62
g63
NtRp2920
(dp2921
g66
(dp2922
g74
I3
ssg75
g2916
sg68
(lp2923
S'<class wsgiref.util.FileWrapper at 0x0172EE68>'
p2924
asbasbasbag61
(g77
g63
NtRp2925
(dp2926
g66
(dp2927
sg75
g2478
sg68
(lp2928
g61
(g82
g63
NtRp2929
(dp2930
g66
(dp2931
g86
g87
ssg75
g2925
sg68
(lp2932
S'wsgi.input'
p2933
asbag61
(g82
g63
NtRp2934
(dp2935
g66
(dp2936
g93
g94
ssg75
g2925
sg68
(lp2937
S':'
asbag61
(g82
g63
NtRp2938
(dp2939
g66
(dp2940
sg75
g2925
sg68
(lp2941
g61
(g62
g63
NtRp2942
(dp2943
g66
(dp2944
g74
I3
ssg75
g2938
sg68
(lp2945
S'<cStringIO.StringO object at 0x051BFE80>'
p2946
asbasbasbag61
(g77
g63
NtRp2947
(dp2948
g66
(dp2949
sg75
g2478
sg68
(lp2950
g61
(g82
g63
NtRp2951
(dp2952
g66
(dp2953
g86
g87
ssg75
g2947
sg68
(lp2954
S'wsgi.multiprocess'
p2955
asbag61
(g82
g63
NtRp2956
(dp2957
g66
(dp2958
g93
g94
ssg75
g2947
sg68
(lp2959
S':'
asbag61
(g82
g63
NtRp2960
(dp2961
g66
(dp2962
sg75
g2947
sg68
(lp2963
g61
(g62
g63
NtRp2964
(dp2965
g66
(dp2966
g74
I3
ssg75
g2960
sg68
(lp2967
g104
asbasbasbag61
(g77
g63
NtRp2968
(dp2969
g66
(dp2970
sg75
g2478
sg68
(lp2971
g61
(g82
g63
NtRp2972
(dp2973
g66
(dp2974
g86
g87
ssg75
g2968
sg68
(lp2975
S'wsgi.multithread'
p2976
asbag61
(g82
g63
NtRp2977
(dp2978
g66
(dp2979
g93
g94
ssg75
g2968
sg68
(lp2980
S':'
asbag61
(g82
g63
NtRp2981
(dp2982
g66
(dp2983
sg75
g2968
sg68
(lp2984
g61
(g62
g63
NtRp2985
(dp2986
g66
(dp2987
g74
I3
ssg75
g2981
sg68
(lp2988
g1599
asbasbasbag61
(g77
g63
NtRp2989
(dp2990
g66
(dp2991
sg75
g2478
sg68
(lp2992
g61
(g82
g63
NtRp2993
(dp2994
g66
(dp2995
g86
g87
ssg75
g2989
sg68
(lp2996
S'wsgi.run_once'
p2997
asbag61
(g82
g63
NtRp2998
(dp2999
g66
(dp3000
g93
g94
ssg75
g2989
sg68
(lp3001
S':'
asbag61
(g82
g63
NtRp3002
(dp3003
g66
(dp3004
sg75
g2989
sg68
(lp3005
g61
(g62
g63
NtRp3006
(dp3007
g66
(dp3008
g74
I3
ssg75
g3002
sg68
(lp3009
g104
asbasbasbag61
(g77
g63
NtRp3010
(dp3011
g66
(dp3012
sg75
g2478
sg68
(lp3013
g61
(g82
g63
NtRp3014
(dp3015
g66
(dp3016
g86
g87
ssg75
g3010
sg68
(lp3017
S'wsgi.url_scheme'
p3018
asbag61
(g82
g63
NtRp3019
(dp3020
g66
(dp3021
g93
g94
ssg75
g3010
sg68
(lp3022
S':'
asbag61
(g82
g63
NtRp3023
(dp3024
g66
(dp3025
sg75
g3010
sg68
(lp3026
g61
(g62
g63
NtRp3027
(dp3028
g66
(dp3029
g74
I3
ssg75
g3023
sg68
(lp3030
g1642
asbasbasbag61
(g77
g63
NtRp3031
(dp3032
g66
(dp3033
sg75
g2478
sg68
(lp3034
g61
(g82
g63
NtRp3035
(dp3036
g66
(dp3037
g86
g87
ssg75
g3031
sg68
(lp3038
S'wsgi.version'
p3039
asbag61
(g82
g63
NtRp3040
(dp3041
g66
(dp3042
g93
g94
ssg75
g3031
sg68
(lp3043
S':'
asbag61
(g82
g63
NtRp3044
(dp3045
g66
(dp3046
sg75
g3031
sg68
(lp3047
g61
(g62
g63
NtRp3048
(dp3049
g66
(dp3050
g74
I3
ssg75
g3044
sg68
(lp3051
S'1'
asbasbasbasbasbasbasbasbasbasbasbasbasbsS'frames'
p3052
(lp3053
(dp3054
S'file'
p3055
S'D:\\web2py\\source\\web2py\\gluon\\restricted.py'
p3056
sS'dump'
p3057
(dp3058
S'environment'
p3059
S"{'A': <class 'gluon.html.A'>, 'Auth': <class 'gluon.tools.Auth'>, 'B': <class 'gluon.html.B'>, 'BEAUTIFY': <class 'gluon.html.BEAUTIFY'>, 'BODY': <class 'gluon.html.BODY'>, 'BR': <class 'gluon.html.BR'>, 'BUTTON': <class 'gluon.html.BUTTON'>, 'CAT': <class 'gluon.html.CAT'>, 'CENTER': <class 'gluon.html.CENTER'>, 'CLEANUP': <class 'gluon.validators.CLEANUP'>, ...}"
p3060
sS'ccode'
p3061
S'<code object <module> at 04F11800, file "D:\\web2...xlchart_dashboard\\controllers/charts.py", line 3>'
p3062
ssS'lnum'
p3063
I212
sS'lines'
p3064
(dp3065
I207
S'    try:'
p3066
sI208
S'        if isinstance(code, types.CodeType):'
p3067
sI209
S'            ccode = code'
p3068
sI210
S'        else:'
p3069
sI211
S'            ccode = compile2(code, layer)'
p3070
sI212
S'        exec ccode in environment'
p3071
sI213
S'    except HTTP:'
p3072
sI214
S'        raise'
p3073
sI215
S'    except RestrictedError:'
p3074
sI216
S'        # do not encapsulate (obfuscate) the original RestrictedError'
p3075
ssS'call'
p3076
S"(code='# coding: utf8\\n# try something like\\ndef index():...d)\\n\\nresponse._vars=response._caller(user_charts)\\n', environment={'A': <class 'gluon.html.A'>, 'Auth': <class 'gluon.tools.Auth'>, 'B': <class 'gluon.html.B'>, 'BEAUTIFY': <class 'gluon.html.BEAUTIFY'>, 'BODY': <class 'gluon.html.BODY'>, 'BR': <class 'gluon.html.BR'>, 'BUTTON': <class 'gluon.html.BUTTON'>, 'CAT': <class 'gluon.html.CAT'>, 'CENTER': <class 'gluon.html.CENTER'>, 'CLEANUP': <class 'gluon.validators.CLEANUP'>, ...}, layer=r'D:\\web2py\\source\\web2py\\applications\\web2py_xlchart_dashboard\\controllers/charts.py')"
p3077
sS'func'
p3078
S'restricted'
p3079
sa(dp3080
g3055
S'D:\\web2py\\source\\web2py\\applications\\web2py_xlchart_dashboard\\controllers\\charts.py'
p3081
sg3057
(dp3082
sg3063
I12
sg3064
(dp3083
I1
S'# coding: utf8'
p3084
sI2
S'# try something like'
p3085
sI3
S'def index():'
p3086
sI4
S'    return dict(message="hello from charts.py")'
p3087
sI5
S''
sI6
S'def user_charts():'
p3088
sI7
S'    query = db(db.user_chart.id_user == auth.user_id)'
p3089
sI8
S"    constraints = {'user_chart':query}"
p3090
sI9
S'    grid = SQLFORM.smartgrid(db.user_chart,constraints=constraints)'
p3091
sI10
S'    return dict(grid = grid)'
p3092
ssg3076
S'()'
p3093
sg3078
S'<module>'
p3094
sa(dp3095
g3055
S'D:\\web2py\\source\\web2py\\gluon\\globals.py'
p3096
sg3057
(dp3097
S'self'
p3098
S'undefined'
p3099
sS'f'
S'<function user_charts>'
p3100
ssg3063
I188
sg3064
(dp3101
I192
S''
sI183
S'        self.menu = []             # used by the default view layout'
p3102
sI184
S'        self.files = []            # used by web2py_ajax.html'
p3103
sI185
S'        self.generic_patterns = []  # patterns to allow generic views'
p3104
sI186
S"        self.delimiters = ('{{', '}}')"
p3105
sI187
S'        self._vars = None'
p3106
sI188
S'        self._caller = lambda f: f()'
p3107
sI189
S'        self._view_environment = None'
p3108
sI190
S'        self._custom_commit = None'
p3109
sI191
S'        self._custom_rollback = None'
p3110
ssg3076
S'(f=<function user_charts>)'
p3111
sg3078
S'<lambda>'
p3112
sa(dp3113
g3055
S'D:\\web2py\\source\\web2py\\applications\\web2py_xlchart_dashboard\\controllers\\charts.py'
p3114
sg3057
(dp3115
S'db.user_charts'
p3116
g3099
sS'global SQLFORM'
p3117
S"<class 'gluon.sqlhtml.SQLFORM'>"
p3118
sS'grid'
p3119
g3099
sS'global db'
p3120
S'<DAL uri="sqlite://storage.sqlite">'
p3121
sS'SQLFORM.smartgrid'
p3122
S'<function smartgrid>'
p3123
sS'constraints'
p3124
S"{'user_chart': <Set (user_chart.id_user = 1)>}"
p3125
ssg3063
I9
sg3064
(dp3126
I1
S'# coding: utf8'
p3127
sI2
S'# try something like'
p3128
sI3
S'def index():'
p3129
sI4
S'    return dict(message="hello from charts.py")'
p3130
sI5
S''
sI6
S'def user_charts():'
p3131
sI7
S'    query = db(db.user_chart.id_user == auth.user_id)'
p3132
sI8
S"    constraints = {'user_chart':query}"
p3133
sI9
S'    grid = SQLFORM.smartgrid(db.user_chart,constraints=constraints)'
p3134
sI10
S'    return dict(grid = grid)'
p3135
ssg3076
S'()'
p3136
sg3078
S'user_charts'
p3137
sa(dp3138
g3055
S'D:\\web2py\\source\\web2py\\gluon\\sqlhtml.py'
p3139
sg3057
(dp3140
S'user_signature'
p3141
g1599
sS'kwargs'
p3142
g21
ssg3063
I2376
sg3064
(dp3143
I2371
S'                        A(SPAN(t), _class=trap_class(), _href=url('
p3144
sI2372
S'                          args=[args0, row[id_field_name]])))'
p3145
sI2373
S''
sI2374
S'        grid = SQLFORM.grid(query, args=request.args[:nargs], links=links,'
p3146
sI2375
S'                            links_in_grid=links_in_grid,'
p3147
sI2376
S'                            user_signature=user_signature, **kwargs)'
p3148
sI2377
S'        if isinstance(grid, DIV):'
p3149
sI2378
S"            header = table._plural + (field and ' for ' + field.name or '')"
p3150
sI2379
S'            breadcrumbs.append(LI(A(T(header), _class=trap_class(),'
p3151
sI2380
S"                                    _href=url()), _class='active w2p_grid_breadcrumb_elem'))"
p3152
ssg3076
S"(table=<Table user_chart (id,id_user,id_chart,title,description)>, constraints={'user_chart': <Set (user_chart.id_user = 1)>}, linked_tables=None, links=[<function <lambda>>], links_in_grid=True, args=[], user_signature=True, divider='>', breadcrumbs_class='', **kwargs={})"
p3153
sg3078
S'smartgrid'
p3154
sa(dp3155
g3055
S'D:\\web2py\\source\\web2py\\gluon\\sqlhtml.py'
p3156
sg3057
(dp3157
S'table_fields'
p3158
S'[<gluon.dal.Field object>, <gluon.dal.Field object>, <gluon.dal.Field object>, <gluon.dal.Field object>, <gluon.dal.Field object>]'
p3159
ssg3063
I2095
sg3064
(dp3160
I2090
S''
sI2091
S'        try:'
p3161
sI2092
S'            table_fields = [f for f in fields if f._tablename in tablenames]'
p3162
sI2093
S'            rows = dbset.select(left=left, orderby=orderby,'
p3163
sI2094
S'                                groupby=groupby, limitby=limitby,'
p3164
sI2095
S'                                *table_fields)'
p3165
sI2096
S'        except SyntaxError:'
p3166
sI2097
S'            rows = None'
p3167
sI2098
S'            error = T("Query Not Supported")'
p3168
sI2099
S'        if nrows:'
p3169
ssg3076
S"(query=<Query ((user_chart.id > 0) AND <Set (user_chart.id_user = 1)>)>, fields=[<gluon.dal.Field object>, <gluon.dal.Field object>, <gluon.dal.Field object>, <gluon.dal.Field object>, <gluon.dal.Field object>], field_id=<gluon.dal.Field object>, left=None, headers={}, orderby=None, groupby=None, searchable=True, sortable=True, paginate=20, deletable=True, editable=True, details=True, selectable=None, create=True, csv=True, links=[<function <lambda>>], links_in_grid=True, upload=<function <lambda>>, args=['user_chart'], user_signature=True, maxtextlengths={}, maxtextlength=20, onvalidation=None, oncreate=None, onupdate=None, ondelete=None, sorter_icons=(<gluon.html.XML object>, <gluon.html.XML object>), ui={'button': 'button btn', 'buttonadd': 'icon plus icon-plus', 'buttonback': 'icon leftarrow icon-arrow-left', 'buttondelete': 'icon trash icon-trash', 'buttonedit': 'icon pen icon-pencil', 'buttonexport': 'icon downarrow icon-download', 'buttontable': 'icon rightarrow icon-arrow-right', 'buttontext': 'buttontext button', 'buttonview': 'icon magnifier icon-zoom-in', 'content': '', ...}, showbuttontext=True, _class='web2py_grid', formname='web2py_grid', search_widget=<function <lambda>>, ignore_rw=False, formstyle='table3cols', exportclasses=None, formargs={}, createargs={}, editargs={}, viewargs={})"
p3170
sg3078
S'grid'
p3171
sa(dp3172
g3055
S'D:\\web2py\\source\\web2py\\gluon\\dal.py'
p3173
sg3057
(dp3174
S'self.query'
p3175
S'<Query ((user_chart.id > 0) AND <Set (user_chart.id_user = 1)>)>'
p3176
sS'adapter.select'
p3177
S'<bound method SQLiteAdapter.select of <gluon.dal.SQLiteAdapter object>>'
p3178
sS'fields'
p3179
S'[<gluon.dal.Field object>, <gluon.dal.Field object>, <gluon.dal.Field object>, <gluon.dal.Field object>, <gluon.dal.Field object>]'
p3180
sS'adapter'
p3181
S'<gluon.dal.SQLiteAdapter object>'
p3182
sS'attributes'
p3183
S"{'groupby': None, 'left': None, 'limitby': None, 'orderby': None}"
p3184
sS'self'
p3185
S'<Set ((user_chart.id > 0) AND <Set (user_chart.id_user = 1)>)>'
p3186
ssg3063
I8788
sg3064
(dp3187
I8783
S"                                    attributes.get('join',None),"
p3188
sI8784
S"                                    attributes.get('left',None),"
p3189
sI8785
S"                                    attributes.get('orderby',None),"
p3190
sI8786
S"                                    attributes.get('groupby',None))"
p3191
sI8787
S'        fields = adapter.expand_all(fields, tablenames)'
p3192
sI8788
S'        return adapter.select(self.query,fields,attributes)'
p3193
sI8789
S''
sI8790
S'    def nested_select(self,*fields,**attributes):'
p3194
sI8791
S'        return Expression(self.db,self._select(*fields,**attributes))'
p3195
sI8792
S''
ssg3076
S"(self=<Set ((user_chart.id > 0) AND <Set (user_chart.id_user = 1)>)>, *fields=[<gluon.dal.Field object>, <gluon.dal.Field object>, <gluon.dal.Field object>, <gluon.dal.Field object>, <gluon.dal.Field object>], **attributes={'groupby': None, 'left': None, 'limitby': None, 'orderby': None})"
p3196
sg3078
S'select'
p3197
sa(dp3198
g3055
S'D:\\web2py\\source\\web2py\\gluon\\dal.py'
p3199
sg3057
(dp3200
S'fields'
p3201
S'[<gluon.dal.Field object>, <gluon.dal.Field object>, <gluon.dal.Field object>, <gluon.dal.Field object>, <gluon.dal.Field object>]'
p3202
sS'self'
p3203
S'<gluon.dal.SQLiteAdapter object>'
p3204
sS').select'
p3205
S'<bound method SQLiteAdapter.select of <gluon.dal.SQLiteAdapter object>>'
p3206
sS'attributes'
p3207
S"{'groupby': None, 'left': None, 'limitby': None, 'orderby': None}"
p3208
sS'global SQLiteAdapter'
p3209
S"<class 'gluon.dal.SQLiteAdapter'>"
p3210
sS'query'
p3211
S'<Query ((user_chart.id > 0) AND <Set (user_chart.id_user = 1)>)>'
p3212
sS'builtinsuper'
p3213
S"<type 'super'>"
p3214
ssg3063
I2128
sg3064
(dp3215
I2123
S'        Note that the entire database, rather than one record, is locked'
p3216
sI2124
S'        (it will be locked eventually anyway by the following UPDATE).'
p3217
sI2125
S'        """'
p3218
sI2126
S"        if attributes.get('for_update', False) and not 'cache' in attributes:"
p3219
sI2127
S"            self.execute('BEGIN IMMEDIATE TRANSACTION;')"
p3220
sI2128
S'        return super(SQLiteAdapter, self).select(query, fields, attributes)'
p3221
sI2129
S''
sI2130
S'class SpatiaLiteAdapter(SQLiteAdapter):'
p3222
sI2131
S"    drivers = ('sqlite3','sqlite2')"
p3223
sI2132
S''
ssg3076
S"(self=<gluon.dal.SQLiteAdapter object>, query=<Query ((user_chart.id > 0) AND <Set (user_chart.id_user = 1)>)>, fields=[<gluon.dal.Field object>, <gluon.dal.Field object>, <gluon.dal.Field object>, <gluon.dal.Field object>, <gluon.dal.Field object>], attributes={'groupby': None, 'left': None, 'limitby': None, 'orderby': None})"
p3224
sg3078
g3197
sa(dp3225
g3055
S'D:\\web2py\\source\\web2py\\gluon\\dal.py'
p3226
sg3057
(dp3227
S'fields'
p3228
S'[<gluon.dal.Field object>, <gluon.dal.Field object>, <gluon.dal.Field object>, <gluon.dal.Field object>, <gluon.dal.Field object>]'
p3229
sS'self'
p3230
S'<gluon.dal.SQLiteAdapter object>'
p3231
sS'attributes'
p3232
S"{'groupby': None, 'left': None, 'limitby': None, 'orderby': None}"
p3233
sS'self._select_aux'
p3234
S'<bound method SQLiteAdapter._select_aux of <gluon.dal.SQLiteAdapter object>>'
p3235
sS'sql'
p3236
S"'SELECT  user_chart.id, user_chart.id_user, user_...hart.id > 0) AND <Set (user_chart.id_user = 1)>);'"
p3237
ssg3063
I1616
sg3064
(dp3238
I1611
S'            return cache_model('
p3239
sI1612
S'                key,'
p3240
sI1613
S'                lambda self=self,args=args:self._select_aux(*args),'
p3241
sI1614
S'                time_expire)'
p3242
sI1615
S'        else:'
p3243
sI1616
S'            return self._select_aux(sql,fields,attributes)'
p3244
sI1617
S''
sI1618
S'    def _count(self, query, distinct=None):'
p3245
sI1619
S'        tablenames = self.tables(query)'
p3246
sI1620
S'        if query:'
p3247
ssg3076
S"(self=<gluon.dal.SQLiteAdapter object>, query=<Query ((user_chart.id > 0) AND <Set (user_chart.id_user = 1)>)>, fields=[<gluon.dal.Field object>, <gluon.dal.Field object>, <gluon.dal.Field object>, <gluon.dal.Field object>, <gluon.dal.Field object>], attributes={'groupby': None, 'left': None, 'limitby': None, 'orderby': None})"
p3248
sg3078
g3197
sa(dp3249
g3055
S'D:\\web2py\\source\\web2py\\gluon\\dal.py'
p3250
sg3057
(dp3251
S'self'
p3252
S'<gluon.dal.SQLiteAdapter object>'
p3253
sS'self.execute'
p3254
S'<bound method SQLiteAdapter.execute of <gluon.dal.SQLiteAdapter object>>'
p3255
sS'sql'
p3256
S"'SELECT  user_chart.id, user_chart.id_user, user_...hart.id > 0) AND <Set (user_chart.id_user = 1)>);'"
p3257
ssg3063
I1581
sg3064
(dp3258
I1576
S''
sI1577
S'    def _select_aux(self,sql,fields,attributes):'
p3259
sI1578
S'        args_get = attributes.get'
p3260
sI1579
S"        cache = args_get('cache',None)"
p3261
sI1580
S'        if not cache:'
p3262
sI1581
S'            self.execute(sql)'
p3263
sI1582
S'            rows = self._fetchall()'
p3264
sI1583
S'        else:'
p3265
sI1584
S'            (cache_model, time_expire) = cache'
p3266
sI1585
S"            key = self.uri + '/' + sql + '/rows'"
p3267
ssg3076
S"(self=<gluon.dal.SQLiteAdapter object>, sql='SELECT  user_chart.id, user_chart.id_user, user_...hart.id > 0) AND <Set (user_chart.id_user = 1)>);', fields=[<gluon.dal.Field object>, <gluon.dal.Field object>, <gluon.dal.Field object>, <gluon.dal.Field object>, <gluon.dal.Field object>], attributes={'groupby': None, 'left': None, 'limitby': None, 'orderby': None})"
p3268
sg3078
S'_select_aux'
p3269
sa(dp3270
g3055
S'D:\\web2py\\source\\web2py\\gluon\\dal.py'
p3271
sg3057
(dp3272
S'a'
S"('SELECT  user_chart.id, user_chart.id_user, user_...hart.id > 0) AND <Set (user_chart.id_user = 1)>);',)"
p3273
sS'self'
p3274
S'<gluon.dal.SQLiteAdapter object>'
p3275
sS'b'
g21
sS'self.log_execute'
p3276
S'<bound method SQLiteAdapter.log_execute of <gluon.dal.SQLiteAdapter object>>'
p3277
ssg3063
I1694
sg3064
(dp3278
I1696
S'    def represent(self, obj, fieldtype):'
p3279
sI1697
S'        field_is_type = fieldtype.startswith'
p3280
sI1698
S'        if isinstance(obj, CALLABLETYPES):'
p3281
sI1689
S'        self.db._timings.append((command,time.time()-t0))'
p3282
sI1690
S'        del self.db._timings[:-TIMINGSSIZE]'
p3283
sI1691
S'        return ret'
p3284
sI1692
S''
sI1693
S'    def execute(self, *a, **b):'
p3285
sI1694
S'        return self.log_execute(*a, **b)'
p3286
sI1695
S''
ssg3076
S"(self=<gluon.dal.SQLiteAdapter object>, *a=('SELECT  user_chart.id, user_chart.id_user, user_...hart.id > 0) AND <Set (user_chart.id_user = 1)>);',), **b={})"
p3287
sg3078
S'execute'
p3288
sa(dp3289
g3055
S'D:\\web2py\\source\\web2py\\gluon\\dal.py'
p3290
sg3057
(dp3291
S'a'
S"('SELECT  user_chart.id, user_chart.id_user, user_...hart.id > 0) AND <Set (user_chart.id_user = 1)>);',)"
p3292
sS'b'
g21
sS'self'
p3293
S'<gluon.dal.SQLiteAdapter object>'
p3294
sS'ret'
p3295
g3099
sS'self.cursor'
p3296
S'<sqlite3.Cursor object>'
p3297
sS'self.cursor.execute'
p3298
S'<built-in method execute of sqlite3.Cursor object>'
p3299
ssg3063
I1688
sg3064
(dp3300
I1683
S'        command = a[0]'
p3301
sI1684
S'        if self.db._debug:'
p3302
sI1685
S"            LOGGER.debug('SQL: %s' % command)"
p3303
sI1686
S'        self.db._lastsql = command'
p3304
sI1687
S'        t0 = time.time()'
p3305
sI1688
S'        ret = self.cursor.execute(*a, **b)'
p3306
sI1689
S'        self.db._timings.append((command,time.time()-t0))'
p3307
sI1690
S'        del self.db._timings[:-TIMINGSSIZE]'
p3308
sI1691
S'        return ret'
p3309
sI1692
S''
ssg3076
S"(self=<gluon.dal.SQLiteAdapter object>, *a=('SELECT  user_chart.id, user_chart.id_user, user_...hart.id > 0) AND <Set (user_chart.id_user = 1)>);',), **b={})"
p3310
sg3078
S'log_execute'
p3311
sasS'pyver'
p3312
S'Python 2.7: d:\\python27\\python.exe'
p3313
sS'session'
p3314
g61
(g62
g63
NtRp3315
(dp3316
g66
(dp3317
sg68
(lp3318
g61
(g70
g63
NtRp3319
(dp3320
g66
(dp3321
g74
I5
ssg75
Nsg68
(lp3322
g61
(g77
g63
NtRp3323
(dp3324
g66
(dp3325
sg75
g3319
sg68
(lp3326
g61
(g82
g63
NtRp3327
(dp3328
g66
(dp3329
g86
g87
ssg75
g3323
sg68
(lp3330
S'auth'
p3331
asbag61
(g82
g63
NtRp3332
(dp3333
g66
(dp3334
g93
g94
ssg75
g3323
sg68
(lp3335
S':'
asbag61
(g82
g63
NtRp3336
(dp3337
g66
(dp3338
sg75
g3323
sg68
(lp3339
g61
(g62
g63
NtRp3340
(dp3341
g66
(dp3342
g74
I5
ssg75
g3336
sg68
(lp3343
g61
(g70
g63
NtRp3344
(dp3345
g66
(dp3346
g74
I4
ssg75
Nsg68
(lp3347
g61
(g77
g63
NtRp3348
(dp3349
g66
(dp3350
sg75
g3344
sg68
(lp3351
g61
(g82
g63
NtRp3352
(dp3353
g66
(dp3354
g86
g87
ssg75
g3348
sg68
(lp3355
S'expiration'
p3356
asbag61
(g82
g63
NtRp3357
(dp3358
g66
(dp3359
g93
g94
ssg75
g3348
sg68
(lp3360
S':'
asbag61
(g82
g63
NtRp3361
(dp3362
g66
(dp3363
sg75
g3348
sg68
(lp3364
g61
(g62
g63
NtRp3365
(dp3366
g66
(dp3367
g74
I4
ssg75
g3361
sg68
(lp3368
S'3600'
p3369
asbasbasbag61
(g77
g63
NtRp3370
(dp3371
g66
(dp3372
sg75
g3344
sg68
(lp3373
g61
(g82
g63
NtRp3374
(dp3375
g66
(dp3376
g86
g87
ssg75
g3370
sg68
(lp3377
S'hmac_key'
p3378
asbag61
(g82
g63
NtRp3379
(dp3380
g66
(dp3381
g93
g94
ssg75
g3370
sg68
(lp3382
S':'
asbag61
(g82
g63
NtRp3383
(dp3384
g66
(dp3385
sg75
g3370
sg68
(lp3386
g61
(g62
g63
NtRp3387
(dp3388
g66
(dp3389
g74
I4
ssg75
g3383
sg68
(lp3390
S'f4177a63-b372-4f39-956d-b6e6b23e10bc'
p3391
asbasbasbag61
(g77
g63
NtRp3392
(dp3393
g66
(dp3394
sg75
g3344
sg68
(lp3395
g61
(g82
g63
NtRp3396
(dp3397
g66
(dp3398
g86
g87
ssg75
g3392
sg68
(lp3399
S'last_visit'
p3400
asbag61
(g82
g63
NtRp3401
(dp3402
g66
(dp3403
g93
g94
ssg75
g3392
sg68
(lp3404
S':'
asbag61
(g82
g63
NtRp3405
(dp3406
g66
(dp3407
sg75
g3392
sg68
(lp3408
g61
(g62
g63
NtRp3409
(dp3410
g66
(dp3411
g74
I4
ssg75
g3405
sg68
(lp3412
S'datetime.datetime(2012, 11, 7, 12, 23, 19, 765000)'
p3413
asbasbasbag61
(g77
g63
NtRp3414
(dp3415
g66
(dp3416
sg75
g3344
sg68
(lp3417
g61
(g82
g63
NtRp3418
(dp3419
g66
(dp3420
g86
g87
ssg75
g3414
sg68
(lp3421
S'remember'
p3422
asbag61
(g82
g63
NtRp3423
(dp3424
g66
(dp3425
g93
g94
ssg75
g3414
sg68
(lp3426
S':'
asbag61
(g82
g63
NtRp3427
(dp3428
g66
(dp3429
sg75
g3414
sg68
(lp3430
g61
(g62
g63
NtRp3431
(dp3432
g66
(dp3433
g74
I4
ssg75
g3427
sg68
(lp3434
g104
asbasbasbag61
(g77
g63
NtRp3435
(dp3436
g66
(dp3437
sg75
g3344
sg68
(lp3438
g61
(g82
g63
NtRp3439
(dp3440
g66
(dp3441
g86
g87
ssg75
g3435
sg68
(lp3442
S'user'
p3443
asbag61
(g82
g63
NtRp3444
(dp3445
g66
(dp3446
g93
g94
ssg75
g3435
sg68
(lp3447
S':'
asbag61
(g82
g63
NtRp3448
(dp3449
g66
(dp3450
sg75
g3435
sg68
(lp3451
g61
(g62
g63
NtRp3452
(dp3453
g66
(dp3454
g74
I4
ssg75
g3448
sg68
(lp3455
g61
(g70
g63
NtRp3456
(dp3457
g66
(dp3458
g74
I3
ssg75
Nsg68
(lp3459
g61
(g77
g63
NtRp3460
(dp3461
g66
(dp3462
sg75
g3456
sg68
(lp3463
g61
(g82
g63
NtRp3464
(dp3465
g66
(dp3466
g86
g87
ssg75
g3460
sg68
(lp3467
S'email'
p3468
asbag61
(g82
g63
NtRp3469
(dp3470
g66
(dp3471
g93
g94
ssg75
g3460
sg68
(lp3472
S':'
asbag61
(g82
g63
NtRp3473
(dp3474
g66
(dp3475
sg75
g3460
sg68
(lp3476
g61
(g62
g63
NtRp3477
(dp3478
g66
(dp3479
g74
I3
ssg75
g3473
sg68
(lp3480
S'simon.carr2@baesystems.com'
p3481
asbasbasbag61
(g77
g63
NtRp3482
(dp3483
g66
(dp3484
sg75
g3456
sg68
(lp3485
g61
(g82
g63
NtRp3486
(dp3487
g66
(dp3488
g86
g87
ssg75
g3482
sg68
(lp3489
S'first_name'
p3490
asbag61
(g82
g63
NtRp3491
(dp3492
g66
(dp3493
g93
g94
ssg75
g3482
sg68
(lp3494
S':'
asbag61
(g82
g63
NtRp3495
(dp3496
g66
(dp3497
sg75
g3482
sg68
(lp3498
g61
(g62
g63
NtRp3499
(dp3500
g66
(dp3501
g74
I3
ssg75
g3495
sg68
(lp3502
S'Simon'
p3503
asbasbasbag61
(g77
g63
NtRp3504
(dp3505
g66
(dp3506
sg75
g3456
sg68
(lp3507
g61
(g82
g63
NtRp3508
(dp3509
g66
(dp3510
g86
g87
ssg75
g3504
sg68
(lp3511
S'id'
p3512
asbag61
(g82
g63
NtRp3513
(dp3514
g66
(dp3515
g93
g94
ssg75
g3504
sg68
(lp3516
S':'
asbag61
(g82
g63
NtRp3517
(dp3518
g66
(dp3519
sg75
g3504
sg68
(lp3520
g61
(g62
g63
NtRp3521
(dp3522
g66
(dp3523
g74
I3
ssg75
g3517
sg68
(lp3524
S'1'
asbasbasbag61
(g77
g63
NtRp3525
(dp3526
g66
(dp3527
sg75
g3456
sg68
(lp3528
g61
(g82
g63
NtRp3529
(dp3530
g66
(dp3531
g86
g87
ssg75
g3525
sg68
(lp3532
S'last_name'
p3533
asbag61
(g82
g63
NtRp3534
(dp3535
g66
(dp3536
g93
g94
ssg75
g3525
sg68
(lp3537
S':'
asbag61
(g82
g63
NtRp3538
(dp3539
g66
(dp3540
sg75
g3525
sg68
(lp3541
g61
(g62
g63
NtRp3542
(dp3543
g66
(dp3544
g74
I3
ssg75
g3538
sg68
(lp3545
S'Carr'
p3546
asbasbasbag61
(g77
g63
NtRp3547
(dp3548
g66
(dp3549
sg75
g3456
sg68
(lp3550
g61
(g82
g63
NtRp3551
(dp3552
g66
(dp3553
g86
g87
ssg75
g3547
sg68
(lp3554
S'registration_id'
p3555
asbag61
(g82
g63
NtRp3556
(dp3557
g66
(dp3558
g93
g94
ssg75
g3547
sg68
(lp3559
S':'
asbag61
(g82
g63
NtRp3560
(dp3561
g66
(dp3562
sg75
g3547
sg68
(lp3563
g61
(g62
g63
NtRp3564
(dp3565
g66
(dp3566
g74
I3
ssg75
g3560
sg68
(lp3567
S''
asbasbasbag61
(g77
g63
NtRp3568
(dp3569
g66
(dp3570
sg75
g3456
sg68
(lp3571
g61
(g82
g63
NtRp3572
(dp3573
g66
(dp3574
g86
g87
ssg75
g3568
sg68
(lp3575
S'registration_key'
p3576
asbag61
(g82
g63
NtRp3577
(dp3578
g66
(dp3579
g93
g94
ssg75
g3568
sg68
(lp3580
S':'
asbag61
(g82
g63
NtRp3581
(dp3582
g66
(dp3583
sg75
g3568
sg68
(lp3584
g61
(g62
g63
NtRp3585
(dp3586
g66
(dp3587
g74
I3
ssg75
g3581
sg68
(lp3588
S''
asbasbasbag61
(g77
g63
NtRp3589
(dp3590
g66
(dp3591
sg75
g3456
sg68
(lp3592
g61
(g82
g63
NtRp3593
(dp3594
g66
(dp3595
g86
g87
ssg75
g3589
sg68
(lp3596
S'reset_password_key'
p3597
asbag61
(g82
g63
NtRp3598
(dp3599
g66
(dp3600
g93
g94
ssg75
g3589
sg68
(lp3601
S':'
asbag61
(g82
g63
NtRp3602
(dp3603
g66
(dp3604
sg75
g3589
sg68
(lp3605
g61
(g62
g63
NtRp3606
(dp3607
g66
(dp3608
g74
I3
ssg75
g3602
sg68
(lp3609
S''
asbasbasbasbasbasbasbag61
(g77
g63
NtRp3610
(dp3611
g66
(dp3612
sg75
g3344
sg68
(lp3613
g61
(g82
g63
NtRp3614
(dp3615
g66
(dp3616
g86
g87
ssg75
g3610
sg68
(lp3617
S'user_groups'
p3618
asbag61
(g82
g63
NtRp3619
(dp3620
g66
(dp3621
g93
g94
ssg75
g3610
sg68
(lp3622
S':'
asbag61
(g82
g63
NtRp3623
(dp3624
g66
(dp3625
sg75
g3610
sg68
(lp3626
g61
(g62
g63
NtRp3627
(dp3628
g66
(dp3629
g74
I4
ssg75
g3623
sg68
(lp3630
g61
(g70
g63
NtRp3631
(dp3632
g66
(dp3633
g74
I3
ssg75
Nsg68
(lp3634
g61
(g77
g63
NtRp3635
(dp3636
g66
(dp3637
sg75
g3631
sg68
(lp3638
g61
(g82
g63
NtRp3639
(dp3640
g66
(dp3641
g86
g87
ssg75
g3635
sg68
(lp3642
S'1'
asbag61
(g82
g63
NtRp3643
(dp3644
g66
(dp3645
g93
g94
ssg75
g3635
sg68
(lp3646
S':'
asbag61
(g82
g63
NtRp3647
(dp3648
g66
(dp3649
sg75
g3635
sg68
(lp3650
g61
(g62
g63
NtRp3651
(dp3652
g66
(dp3653
g74
I3
ssg75
g3647
sg68
(lp3654
S'user_1'
p3655
asbasbasbag61
(g77
g63
NtRp3656
(dp3657
g66
(dp3658
sg75
g3631
sg68
(lp3659
g61
(g82
g63
NtRp3660
(dp3661
g66
(dp3662
g86
g87
ssg75
g3656
sg68
(lp3663
S'2'
asbag61
(g82
g63
NtRp3664
(dp3665
g66
(dp3666
g93
g94
ssg75
g3656
sg68
(lp3667
S':'
asbag61
(g82
g63
NtRp3668
(dp3669
g66
(dp3670
sg75
g3656
sg68
(lp3671
g61
(g62
g63
NtRp3672
(dp3673
g66
(dp3674
g74
I3
ssg75
g3668
sg68
(lp3675
S'wiki_editor'
p3676
asbasbasbasbasbasbasbasbasbasbasbag61
(g77
g63
NtRp3677
(dp3678
g66
(dp3679
sg75
g3319
sg68
(lp3680
g61
(g82
g63
NtRp3681
(dp3682
g66
(dp3683
g86
g87
ssg75
g3677
sg68
(lp3684
S'flash'
p3685
asbag61
(g82
g63
NtRp3686
(dp3687
g66
(dp3688
g93
g94
ssg75
g3677
sg68
(lp3689
S':'
asbag61
(g82
g63
NtRp3690
(dp3691
g66
(dp3692
sg75
g3677
sg68
(lp3693
g61
(g62
g63
NtRp3694
(dp3695
g66
(dp3696
g74
I5
ssg75
g3690
sg68
(lp3697
S'None'
p3698
asbasbasbasbasbsS'etype'
p3699
S"<class 'sqlite3.OperationalError'>"
p3700
sS'date'
p3701
S'Wed Nov 07 12:24:41 2012'
p3702
sS'response'
p3703
g61
(g62
g63
NtRp3704
(dp3705
g66
(dp3706
sg68
(lp3707
g61
(g70
g63
NtRp3708
(dp3709
g66
(dp3710
g74
I5
ssg75
Nsg68
(lp3711
g61
(g77
g63
NtRp3712
(dp3713
g66
(dp3714
sg75
g3708
sg68
(lp3715
g61
(g82
g63
NtRp3716
(dp3717
g66
(dp3718
g86
g87
ssg75
g3712
sg68
(lp3719
g172
asbag61
(g82
g63
NtRp3720
(dp3721
g66
(dp3722
g93
g94
ssg75
g3712
sg68
(lp3723
S':'
asbag61
(g82
g63
NtRp3724
(dp3725
g66
(dp3726
sg75
g3712
sg68
(lp3727
g61
(g62
g63
NtRp3728
(dp3729
g66
(dp3730
g74
I5
ssg75
g3724
sg68
(lp3731
S'<cStringIO.StringO object at 0x051BFA80>'
p3732
asbasbasbag61
(g77
g63
NtRp3733
(dp3734
g66
(dp3735
sg75
g3708
sg68
(lp3736
g61
(g82
g63
NtRp3737
(dp3738
g66
(dp3739
g86
g87
ssg75
g3733
sg68
(lp3740
g260
asbag61
(g82
g63
NtRp3741
(dp3742
g66
(dp3743
g93
g94
ssg75
g3733
sg68
(lp3744
S':'
asbag61
(g82
g63
NtRp3745
(dp3746
g66
(dp3747
sg75
g3733
sg68
(lp3748
g61
(g62
g63
NtRp3749
(dp3750
g66
(dp3751
g74
I5
ssg75
g3745
sg68
(lp3752
g61
(g70
g63
NtRp3753
(dp3754
g66
(dp3755
g74
I4
ssg75
Nsg68
(lp3756
g61
(g77
g63
NtRp3757
(dp3758
g66
(dp3759
sg75
g3753
sg68
(lp3760
g61
(g82
g63
NtRp3761
(dp3762
g66
(dp3763
g86
g87
ssg75
g3757
sg68
(lp3764
S'session_id_web2py_xlchart_dashboard'
p3765
asbag61
(g82
g63
NtRp3766
(dp3767
g66
(dp3768
g93
g94
ssg75
g3757
sg68
(lp3769
S':'
asbag61
(g82
g63
NtRp3770
(dp3771
g66
(dp3772
sg75
g3757
sg68
(lp3773
g61
(g62
g63
NtRp3774
(dp3775
g66
(dp3776
g74
I4
ssg75
g3770
sg68
(lp3777
g492
ag61
(g70
g63
NtRp3778
(dp3779
g66
(dp3780
g74
I3
ssg75
Nsg68
(lp3781
g61
(g77
g63
NtRp3782
(dp3783
g66
(dp3784
sg75
g3778
sg68
(lp3785
g61
(g82
g63
NtRp3786
(dp3787
g66
(dp3788
g86
g87
ssg75
g3782
sg68
(lp3789
g311
asbag61
(g82
g63
NtRp3790
(dp3791
g66
(dp3792
g93
g94
ssg75
g3782
sg68
(lp3793
S':'
asbag61
(g82
g63
NtRp3794
(dp3795
g66
(dp3796
sg75
g3782
sg68
(lp3797
g61
(g62
g63
NtRp3798
(dp3799
g66
(dp3800
g74
I3
ssg75
g3794
sg68
(lp3801
S''
asbasbasbag61
(g77
g63
NtRp3802
(dp3803
g66
(dp3804
sg75
g3778
sg68
(lp3805
g61
(g82
g63
NtRp3806
(dp3807
g66
(dp3808
g86
g87
ssg75
g3802
sg68
(lp3809
g332
asbag61
(g82
g63
NtRp3810
(dp3811
g66
(dp3812
g93
g94
ssg75
g3802
sg68
(lp3813
S':'
asbag61
(g82
g63
NtRp3814
(dp3815
g66
(dp3816
sg75
g3802
sg68
(lp3817
g61
(g62
g63
NtRp3818
(dp3819
g66
(dp3820
g74
I3
ssg75
g3814
sg68
(lp3821
S''
asbasbasbag61
(g77
g63
NtRp3822
(dp3823
g66
(dp3824
sg75
g3778
sg68
(lp3825
g61
(g82
g63
NtRp3826
(dp3827
g66
(dp3828
g86
g87
ssg75
g3822
sg68
(lp3829
g353
asbag61
(g82
g63
NtRp3830
(dp3831
g66
(dp3832
g93
g94
ssg75
g3822
sg68
(lp3833
S':'
asbag61
(g82
g63
NtRp3834
(dp3835
g66
(dp3836
sg75
g3822
sg68
(lp3837
g61
(g62
g63
NtRp3838
(dp3839
g66
(dp3840
g74
I3
ssg75
g3834
sg68
(lp3841
S''
asbasbasbag61
(g77
g63
NtRp3842
(dp3843
g66
(dp3844
sg75
g3778
sg68
(lp3845
g61
(g82
g63
NtRp3846
(dp3847
g66
(dp3848
g86
g87
ssg75
g3842
sg68
(lp3849
g374
asbag61
(g82
g63
NtRp3850
(dp3851
g66
(dp3852
g93
g94
ssg75
g3842
sg68
(lp3853
S':'
asbag61
(g82
g63
NtRp3854
(dp3855
g66
(dp3856
sg75
g3842
sg68
(lp3857
g61
(g62
g63
NtRp3858
(dp3859
g66
(dp3860
g74
I3
ssg75
g3854
sg68
(lp3861
S''
asbasbasbag61
(g77
g63
NtRp3862
(dp3863
g66
(dp3864
sg75
g3778
sg68
(lp3865
g61
(g82
g63
NtRp3866
(dp3867
g66
(dp3868
g86
g87
ssg75
g3862
sg68
(lp3869
g395
asbag61
(g82
g63
NtRp3870
(dp3871
g66
(dp3872
g93
g94
ssg75
g3862
sg68
(lp3873
S':'
asbag61
(g82
g63
NtRp3874
(dp3875
g66
(dp3876
sg75
g3862
sg68
(lp3877
g61
(g62
g63
NtRp3878
(dp3879
g66
(dp3880
g74
I3
ssg75
g3874
sg68
(lp3881
S''
asbasbasbag61
(g77
g63
NtRp3882
(dp3883
g66
(dp3884
sg75
g3778
sg68
(lp3885
g61
(g82
g63
NtRp3886
(dp3887
g66
(dp3888
g86
g87
ssg75
g3882
sg68
(lp3889
g416
asbag61
(g82
g63
NtRp3890
(dp3891
g66
(dp3892
g93
g94
ssg75
g3882
sg68
(lp3893
S':'
asbag61
(g82
g63
NtRp3894
(dp3895
g66
(dp3896
sg75
g3882
sg68
(lp3897
g61
(g62
g63
NtRp3898
(dp3899
g66
(dp3900
g74
I3
ssg75
g3894
sg68
(lp3901
S'/'
asbasbasbag61
(g77
g63
NtRp3902
(dp3903
g66
(dp3904
sg75
g3778
sg68
(lp3905
g61
(g82
g63
NtRp3906
(dp3907
g66
(dp3908
g86
g87
ssg75
g3902
sg68
(lp3909
g437
asbag61
(g82
g63
NtRp3910
(dp3911
g66
(dp3912
g93
g94
ssg75
g3902
sg68
(lp3913
S':'
asbag61
(g82
g63
NtRp3914
(dp3915
g66
(dp3916
sg75
g3902
sg68
(lp3917
g61
(g62
g63
NtRp3918
(dp3919
g66
(dp3920
g74
I3
ssg75
g3914
sg68
(lp3921
S''
asbasbasbag61
(g77
g63
NtRp3922
(dp3923
g66
(dp3924
sg75
g3778
sg68
(lp3925
g61
(g82
g63
NtRp3926
(dp3927
g66
(dp3928
g86
g87
ssg75
g3922
sg68
(lp3929
g458
asbag61
(g82
g63
NtRp3930
(dp3931
g66
(dp3932
g93
g94
ssg75
g3922
sg68
(lp3933
S':'
asbag61
(g82
g63
NtRp3934
(dp3935
g66
(dp3936
sg75
g3922
sg68
(lp3937
g61
(g62
g63
NtRp3938
(dp3939
g66
(dp3940
g74
I3
ssg75
g3934
sg68
(lp3941
S''
asbasbasbasbasbasbasbasbasbasbasbag61
(g77
g63
NtRp3942
(dp3943
g66
(dp3944
sg75
g3708
sg68
(lp3945
g61
(g82
g63
NtRp3946
(dp3947
g66
(dp3948
g86
g87
ssg75
g3942
sg68
(lp3949
S'delimiters'
p3950
asbag61
(g82
g63
NtRp3951
(dp3952
g66
(dp3953
g93
g94
ssg75
g3942
sg68
(lp3954
S':'
asbag61
(g82
g63
NtRp3955
(dp3956
g66
(dp3957
sg75
g3942
sg68
(lp3958
g61
(g62
g63
NtRp3959
(dp3960
g66
(dp3961
g74
I5
ssg75
g3955
sg68
(lp3962
g61
(g70
g63
NtRp3963
(dp3964
g66
(dp3965
g74
I4
ssg75
Nsg68
(lp3966
g61
(g77
g63
NtRp3967
(dp3968
g66
(dp3969
sg75
g3963
sg68
(lp3970
g61
(g82
g63
NtRp3971
(dp3972
g66
(dp3973
sg75
g3967
sg68
(lp3974
g61
(g62
g63
NtRp3975
(dp3976
g66
(dp3977
g74
I4
ssg75
g3971
sg68
(lp3978
S'{{'
p3979
asbasbasbag61
(g77
g63
NtRp3980
(dp3981
g66
(dp3982
sg75
g3963
sg68
(lp3983
g61
(g82
g63
NtRp3984
(dp3985
g66
(dp3986
sg75
g3980
sg68
(lp3987
g61
(g62
g63
NtRp3988
(dp3989
g66
(dp3990
g74
I4
ssg75
g3984
sg68
(lp3991
S'}}'
p3992
asbasbasbasbasbasbasbag61
(g77
g63
NtRp3993
(dp3994
g66
(dp3995
sg75
g3708
sg68
(lp3996
g61
(g82
g63
NtRp3997
(dp3998
g66
(dp3999
g86
g87
ssg75
g3993
sg68
(lp4000
S'files'
p4001
asbag61
(g82
g63
NtRp4002
(dp4003
g66
(dp4004
g93
g94
ssg75
g3993
sg68
(lp4005
S':'
asbag61
(g82
g63
NtRp4006
(dp4007
g66
(dp4008
sg75
g3993
sg68
(lp4009
g61
(g62
g63
NtRp4010
(dp4011
g66
(dp4012
g74
I5
ssg75
g4006
sg68
(lp4013
g61
(g70
g63
NtRp4014
(dp4015
g66
(dp4016
g74
I4
ssg75
Nsg68
(lp4017
sbasbasbasbag61
(g77
g63
NtRp4018
(dp4019
g66
(dp4020
sg75
g3708
sg68
(lp4021
g61
(g82
g63
NtRp4022
(dp4023
g66
(dp4024
g86
g87
ssg75
g4018
sg68
(lp4025
S'flash'
p4026
asbag61
(g82
g63
NtRp4027
(dp4028
g66
(dp4029
g93
g94
ssg75
g4018
sg68
(lp4030
S':'
asbag61
(g82
g63
NtRp4031
(dp4032
g66
(dp4033
sg75
g4018
sg68
(lp4034
g61
(g62
g63
NtRp4035
(dp4036
g66
(dp4037
g74
I5
ssg75
g4031
sg68
(lp4038
S''
asbasbasbag61
(g77
g63
NtRp4039
(dp4040
g66
(dp4041
sg75
g3708
sg68
(lp4042
g61
(g82
g63
NtRp4043
(dp4044
g66
(dp4045
g86
g87
ssg75
g4039
sg68
(lp4046
S'generic_patterns'
p4047
asbag61
(g82
g63
NtRp4048
(dp4049
g66
(dp4050
g93
g94
ssg75
g4039
sg68
(lp4051
S':'
asbag61
(g82
g63
NtRp4052
(dp4053
g66
(dp4054
sg75
g4039
sg68
(lp4055
g61
(g62
g63
NtRp4056
(dp4057
g66
(dp4058
g74
I5
ssg75
g4052
sg68
(lp4059
g61
(g70
g63
NtRp4060
(dp4061
g66
(dp4062
g74
I4
ssg75
Nsg68
(lp4063
g61
(g77
g63
NtRp4064
(dp4065
g66
(dp4066
sg75
g4060
sg68
(lp4067
g61
(g82
g63
NtRp4068
(dp4069
g66
(dp4070
sg75
g4064
sg68
(lp4071
g61
(g62
g63
NtRp4072
(dp4073
g66
(dp4074
g74
I4
ssg75
g4068
sg68
(lp4075
S'*'
asbasbasbasbasbasbasbag61
(g77
g63
NtRp4076
(dp4077
g66
(dp4078
sg75
g3708
sg68
(lp4079
g61
(g82
g63
NtRp4080
(dp4081
g66
(dp4082
g86
g87
ssg75
g4076
sg68
(lp4083
S'google_analytics_id'
p4084
asbag61
(g82
g63
NtRp4085
(dp4086
g66
(dp4087
g93
g94
ssg75
g4076
sg68
(lp4088
S':'
asbag61
(g82
g63
NtRp4089
(dp4090
g66
(dp4091
sg75
g4076
sg68
(lp4092
g61
(g62
g63
NtRp4093
(dp4094
g66
(dp4095
g74
I5
ssg75
g4089
sg68
(lp4096
S'None'
p4097
asbasbasbag61
(g77
g63
NtRp4098
(dp4099
g66
(dp4100
sg75
g3708
sg68
(lp4101
g61
(g82
g63
NtRp4102
(dp4103
g66
(dp4104
g86
g87
ssg75
g4098
sg68
(lp4105
S'headers'
p4106
asbag61
(g82
g63
NtRp4107
(dp4108
g66
(dp4109
g93
g94
ssg75
g4098
sg68
(lp4110
S':'
asbag61
(g82
g63
NtRp4111
(dp4112
g66
(dp4113
sg75
g4098
sg68
(lp4114
g61
(g62
g63
NtRp4115
(dp4116
g66
(dp4117
g74
I5
ssg75
g4111
sg68
(lp4118
g61
(g70
g63
NtRp4119
(dp4120
g66
(dp4121
g74
I4
ssg75
Nsg68
(lp4122
g61
(g77
g63
NtRp4123
(dp4124
g66
(dp4125
sg75
g4119
sg68
(lp4126
g61
(g82
g63
NtRp4127
(dp4128
g66
(dp4129
g86
g87
ssg75
g4123
sg68
(lp4130
S'X-Powered-By'
p4131
asbag61
(g82
g63
NtRp4132
(dp4133
g66
(dp4134
g93
g94
ssg75
g4123
sg68
(lp4135
S':'
asbag61
(g82
g63
NtRp4136
(dp4137
g66
(dp4138
sg75
g4123
sg68
(lp4139
g61
(g62
g63
NtRp4140
(dp4141
g66
(dp4142
g74
I4
ssg75
g4136
sg68
(lp4143
S'web2py'
p4144
asbasbasbasbasbasbasbag61
(g77
g63
NtRp4145
(dp4146
g66
(dp4147
sg75
g3708
sg68
(lp4148
g61
(g82
g63
NtRp4149
(dp4150
g66
(dp4151
g86
g87
ssg75
g4145
sg68
(lp4152
S'menu'
p4153
asbag61
(g82
g63
NtRp4154
(dp4155
g66
(dp4156
g93
g94
ssg75
g4145
sg68
(lp4157
S':'
asbag61
(g82
g63
NtRp4158
(dp4159
g66
(dp4160
sg75
g4145
sg68
(lp4161
g61
(g62
g63
NtRp4162
(dp4163
g66
(dp4164
g74
I5
ssg75
g4158
sg68
(lp4165
g61
(g70
g63
NtRp4166
(dp4167
g66
(dp4168
g74
I4
ssg75
Nsg68
(lp4169
g61
(g77
g63
NtRp4170
(dp4171
g66
(dp4172
sg75
g4166
sg68
(lp4173
g61
(g82
g63
NtRp4174
(dp4175
g66
(dp4176
sg75
g4170
sg68
(lp4177
g61
(g62
g63
NtRp4178
(dp4179
g66
(dp4180
g74
I4
ssg75
g4174
sg68
(lp4181
g61
(g70
g63
NtRp4182
(dp4183
g66
(dp4184
g74
I3
ssg75
Nsg68
(lp4185
g61
(g77
g63
NtRp4186
(dp4187
g66
(dp4188
sg75
g4182
sg68
(lp4189
g61
(g82
g63
NtRp4190
(dp4191
g66
(dp4192
sg75
g4186
sg68
(lp4193
g61
(g62
g63
NtRp4194
(dp4195
g66
(dp4196
g74
I3
ssg75
g4190
sg68
(lp4197
cgluon.languages
lazyT_unpickle
p4198
(S't\t\x00\x00\x00Dashboard'
tRp4199
asbasbasbag61
(g77
g63
NtRp4200
(dp4201
g66
(dp4202
sg75
g4182
sg68
(lp4203
g61
(g82
g63
NtRp4204
(dp4205
g66
(dp4206
sg75
g4200
sg68
(lp4207
g61
(g62
g63
NtRp4208
(dp4209
g66
(dp4210
g74
I3
ssg75
g4204
sg68
(lp4211
g104
asbasbasbag61
(g77
g63
NtRp4212
(dp4213
g66
(dp4214
sg75
g4182
sg68
(lp4215
g61
(g82
g63
NtRp4216
(dp4217
g66
(dp4218
sg75
g4212
sg68
(lp4219
g61
(g62
g63
NtRp4220
(dp4221
g66
(dp4222
g74
I3
ssg75
g4216
sg68
(lp4223
S'/web2py_xlchart_dashboard/default/index'
p4224
asbasbasbag61
(g77
g63
NtRp4225
(dp4226
g66
(dp4227
sg75
g4182
sg68
(lp4228
g61
(g82
g63
NtRp4229
(dp4230
g66
(dp4231
sg75
g4225
sg68
(lp4232
g61
(g62
g63
NtRp4233
(dp4234
g66
(dp4235
g74
I3
ssg75
g4229
sg68
(lp4236
g61
(g70
g63
NtRp4237
(dp4238
g66
(dp4239
g74
I2
ssg75
Nsg68
(lp4240
g61
(g77
g63
NtRp4241
(dp4242
g66
(dp4243
sg75
g4237
sg68
(lp4244
g61
(g82
g63
NtRp4245
(dp4246
g66
(dp4247
sg75
g4241
sg68
(lp4248
g61
(g62
g63
NtRp4249
(dp4250
g66
(dp4251
g74
I2
ssg75
g4245
sg68
(lp4252
g61
(g70
g63
NtRp4253
(dp4254
g66
(dp4255
g74
I1
ssg75
Nsg68
(lp4256
g61
(g77
g63
NtRp4257
(dp4258
g66
(dp4259
sg75
g4253
sg68
(lp4260
g61
(g82
g63
NtRp4261
(dp4262
g66
(dp4263
sg75
g4257
sg68
(lp4264
g61
(g62
g63
NtRp4265
(dp4266
g66
(dp4267
g74
I1
ssg75
g4261
sg68
(lp4268
g4198
(S's\x0c\x00\x00\x00My Dashboard'
tRp4269
asbasbasbag61
(g77
g63
NtRp4270
(dp4271
g66
(dp4272
sg75
g4253
sg68
(lp4273
g61
(g82
g63
NtRp4274
(dp4275
g66
(dp4276
sg75
g4270
sg68
(lp4277
g61
(g62
g63
NtRp4278
(dp4279
g66
(dp4280
g74
I1
ssg75
g4274
sg68
(lp4281
I00
asbasbasbag61
(g77
g63
NtRp4282
(dp4283
g66
(dp4284
sg75
g4253
sg68
(lp4285
g61
(g82
g63
NtRp4286
(dp4287
g66
(dp4288
sg75
g4282
sg68
(lp4289
g61
(g62
g63
NtRp4290
(dp4291
g66
(dp4292
g74
I1
ssg75
g4286
sg68
(lp4293
S'/web2py_xlchart_dashboard/default/index'
p4294
asbasbasbag61
(g77
g63
NtRp4295
(dp4296
g66
(dp4297
sg75
g4253
sg68
(lp4298
g61
(g82
g63
NtRp4299
(dp4300
g66
(dp4301
sg75
g4295
sg68
(lp4302
g61
(g62
g63
NtRp4303
(dp4304
g66
(dp4305
g74
I1
ssg75
g4299
sg68
(lp4306
(lp4307
(g4198
(S's\x11\x00\x00\x00Manage Dashboards'
tRp4308
I00
S'/web2py_xlchart_dashboard/dashboard/manage_dashboard'
tp4309
a(g4198
(S's\r\x00\x00\x00Add Dashboard'
tRp4310
I00
S'/web2py_xlchart_dashboard/default/add_workbook'
tp4311
a(g4198
(S's\x0f\x00\x00\x00Manage Projects'
tRp4312
I00
S'/web2py_xlchart_dashboard/default/add_workbook'
tp4313
a(g4198
(S's\x0b\x00\x00\x00Add Project'
tRp4314
I00
S'/web2py_xlchart_dashboard/default/add_workbook'
tp4315
aasbasbasbasbasbasbasbag61
(g77
g63
NtRp4316
(dp4317
g66
(dp4318
sg75
g4237
sg68
(lp4319
g61
(g82
g63
NtRp4320
(dp4321
g66
(dp4322
sg75
g4316
sg68
(lp4323
g61
(g62
g63
NtRp4324
(dp4325
g66
(dp4326
g74
I2
ssg75
g4320
sg68
(lp4327
g61
(g70
g63
NtRp4328
(dp4329
g66
(dp4330
g74
I1
ssg75
Nsg68
(lp4331
g61
(g77
g63
NtRp4332
(dp4333
g66
(dp4334
sg75
g4328
sg68
(lp4335
g61
(g82
g63
NtRp4336
(dp4337
g66
(dp4338
sg75
g4332
sg68
(lp4339
g61
(g62
g63
NtRp4340
(dp4341
g66
(dp4342
g74
I1
ssg75
g4336
sg68
(lp4343
g4198
(S't\t\x00\x00\x00Workbooks'
tRp4344
asbasbasbag61
(g77
g63
NtRp4345
(dp4346
g66
(dp4347
sg75
g4328
sg68
(lp4348
g61
(g82
g63
NtRp4349
(dp4350
g66
(dp4351
sg75
g4345
sg68
(lp4352
g61
(g62
g63
NtRp4353
(dp4354
g66
(dp4355
g74
I1
ssg75
g4349
sg68
(lp4356
I00
asbasbasbag61
(g77
g63
NtRp4357
(dp4358
g66
(dp4359
sg75
g4328
sg68
(lp4360
g61
(g82
g63
NtRp4361
(dp4362
g66
(dp4363
sg75
g4357
sg68
(lp4364
g61
(g62
g63
NtRp4365
(dp4366
g66
(dp4367
g74
I1
ssg75
g4361
sg68
(lp4368
S'/web2py_xlchart_dashboard/default/index'
p4369
asbasbasbag61
(g77
g63
NtRp4370
(dp4371
g66
(dp4372
sg75
g4328
sg68
(lp4373
g61
(g82
g63
NtRp4374
(dp4375
g66
(dp4376
sg75
g4370
sg68
(lp4377
g61
(g62
g63
NtRp4378
(dp4379
g66
(dp4380
g74
I1
ssg75
g4374
sg68
(lp4381
(lp4382
(g4198
(S's\x0c\x00\x00\x00Add Workbook'
tRp4383
I00
S'/web2py_xlchart_dashboard/default/add_workbook'
tp4384
aasbasbasbasbasbasbasbasbasbasbasbasbasbasbasbag61
(g77
g63
NtRp4385
(dp4386
g66
(dp4387
sg75
g4166
sg68
(lp4388
g61
(g82
g63
NtRp4389
(dp4390
g66
(dp4391
sg75
g4385
sg68
(lp4392
g61
(g62
g63
NtRp4393
(dp4394
g66
(dp4395
g74
I4
ssg75
g4389
sg68
(lp4396
g61
(g70
g63
NtRp4397
(dp4398
g66
(dp4399
g74
I3
ssg75
Nsg68
(lp4400
g61
(g77
g63
NtRp4401
(dp4402
g66
(dp4403
sg75
g4397
sg68
(lp4404
g61
(g82
g63
NtRp4405
(dp4406
g66
(dp4407
sg75
g4401
sg68
(lp4408
g61
(g62
g63
NtRp4409
(dp4410
g66
(dp4411
g74
I3
ssg75
g4405
sg68
(lp4412
g61
(cgluon.html
SPAN
p4413
g63
NtRp4414
(dp4415
g66
(dp4416
S'_class'
p4417
S'highlighted'
p4418
ssg75
Nsg68
(lp4419
g4144
asbasbasbasbag61
(g77
g63
NtRp4420
(dp4421
g66
(dp4422
sg75
g4397
sg68
(lp4423
g61
(g82
g63
NtRp4424
(dp4425
g66
(dp4426
sg75
g4420
sg68
(lp4427
g61
(g62
g63
NtRp4428
(dp4429
g66
(dp4430
g74
I3
ssg75
g4424
sg68
(lp4431
g104
asbasbasbag61
(g77
g63
NtRp4432
(dp4433
g66
(dp4434
sg75
g4397
sg68
(lp4435
g61
(g82
g63
NtRp4436
(dp4437
g66
(dp4438
sg75
g4432
sg68
(lp4439
g61
(g62
g63
NtRp4440
(dp4441
g66
(dp4442
g74
I3
ssg75
g4436
sg68
(lp4443
S'http://web2py.com'
p4444
asbasbasbag61
(g77
g63
NtRp4445
(dp4446
g66
(dp4447
sg75
g4397
sg68
(lp4448
g61
(g82
g63
NtRp4449
(dp4450
g66
(dp4451
sg75
g4445
sg68
(lp4452
g61
(g62
g63
NtRp4453
(dp4454
g66
(dp4455
g74
I3
ssg75
g4449
sg68
(lp4456
g61
(g70
g63
NtRp4457
(dp4458
g66
(dp4459
g74
I2
ssg75
Nsg68
(lp4460
g61
(g77
g63
NtRp4461
(dp4462
g66
(dp4463
sg75
g4457
sg68
(lp4464
g61
(g82
g63
NtRp4465
(dp4466
g66
(dp4467
sg75
g4461
sg68
(lp4468
g61
(g62
g63
NtRp4469
(dp4470
g66
(dp4471
g74
I2
ssg75
g4465
sg68
(lp4472
g61
(g70
g63
NtRp4473
(dp4474
g66
(dp4475
g74
I1
ssg75
Nsg68
(lp4476
g61
(g77
g63
NtRp4477
(dp4478
g66
(dp4479
sg75
g4473
sg68
(lp4480
g61
(g82
g63
NtRp4481
(dp4482
g66
(dp4483
sg75
g4477
sg68
(lp4484
g61
(g62
g63
NtRp4485
(dp4486
g66
(dp4487
g74
I1
ssg75
g4481
sg68
(lp4488
g4198
(S's\x08\x00\x00\x00My Sites'
tRp4489
asbasbasbag61
(g77
g63
NtRp4490
(dp4491
g66
(dp4492
sg75
g4473
sg68
(lp4493
g61
(g82
g63
NtRp4494
(dp4495
g66
(dp4496
sg75
g4490
sg68
(lp4497
g61
(g62
g63
NtRp4498
(dp4499
g66
(dp4500
g74
I1
ssg75
g4494
sg68
(lp4501
I00
asbasbasbag61
(g77
g63
NtRp4502
(dp4503
g66
(dp4504
sg75
g4473
sg68
(lp4505
g61
(g82
g63
NtRp4506
(dp4507
g66
(dp4508
sg75
g4502
sg68
(lp4509
g61
(g62
g63
NtRp4510
(dp4511
g66
(dp4512
g74
I1
ssg75
g4506
sg68
(lp4513
S'/admin/default/site'
p4514
asbasbasbasbasbasbasbag61
(g77
g63
NtRp4515
(dp4516
g66
(dp4517
sg75
g4457
sg68
(lp4518
g61
(g82
g63
NtRp4519
(dp4520
g66
(dp4521
sg75
g4515
sg68
(lp4522
g61
(g62
g63
NtRp4523
(dp4524
g66
(dp4525
g74
I2
ssg75
g4519
sg68
(lp4526
g61
(g70
g63
NtRp4527
(dp4528
g66
(dp4529
g74
I1
ssg75
Nsg68
(lp4530
g61
(g77
g63
NtRp4531
(dp4532
g66
(dp4533
sg75
g4527
sg68
(lp4534
g61
(g82
g63
NtRp4535
(dp4536
g66
(dp4537
sg75
g4531
sg68
(lp4538
g61
(g62
g63
NtRp4539
(dp4540
g66
(dp4541
g74
I1
ssg75
g4535
sg68
(lp4542
g4198
(S's\x08\x00\x00\x00This App'
tRp4543
asbasbasbag61
(g77
g63
NtRp4544
(dp4545
g66
(dp4546
sg75
g4527
sg68
(lp4547
g61
(g82
g63
NtRp4548
(dp4549
g66
(dp4550
sg75
g4544
sg68
(lp4551
g61
(g62
g63
NtRp4552
(dp4553
g66
(dp4554
g74
I1
ssg75
g4548
sg68
(lp4555
I00
asbasbasbag61
(g77
g63
NtRp4556
(dp4557
g66
(dp4558
sg75
g4527
sg68
(lp4559
g61
(g82
g63
NtRp4560
(dp4561
g66
(dp4562
sg75
g4556
sg68
(lp4563
g61
(g62
g63
NtRp4564
(dp4565
g66
(dp4566
g74
I1
ssg75
g4560
sg68
(lp4567
S'/admin/default/design/web2py_xlchart_dashboard'
p4568
asbasbasbag61
(g77
g63
NtRp4569
(dp4570
g66
(dp4571
sg75
g4527
sg68
(lp4572
g61
(g82
g63
NtRp4573
(dp4574
g66
(dp4575
sg75
g4569
sg68
(lp4576
g61
(g62
g63
NtRp4577
(dp4578
g66
(dp4579
g74
I1
ssg75
g4573
sg68
(lp4580
(lp4581
(g4198
(S's\n\x00\x00\x00Controller'
tRp4582
I00
S'/admin/default/edit/web2py_xlchart_dashboard/controllers/charts.py'
tp4583
a(g4198
(S's\x04\x00\x00\x00View'
tRp4584
I00
S'/admin/default/edit/web2py_xlchart_dashboard/views/charts/user_charts.html'
tp4585
a(g4198
(S's\x06\x00\x00\x00Layout'
tRp4586
I00
S'/admin/default/edit/web2py_xlchart_dashboard/views/layout.html'
tp4587
a(g4198
(S's\n\x00\x00\x00Stylesheet'
tRp4588
I00
S'/admin/default/edit/web2py_xlchart_dashboard/static/css/web2py.css'
tp4589
a(g4198
(S's\x08\x00\x00\x00DB Model'
tRp4590
I00
S'/admin/default/edit/web2py_xlchart_dashboard/models/db.py'
tp4591
a(g4198
(S's\n\x00\x00\x00Menu Model'
tRp4592
I00
S'/admin/default/edit/web2py_xlchart_dashboard/models/menu.py'
tp4593
a(g4198
(S's\x08\x00\x00\x00Database'
tRp4594
I00
S'/web2py_xlchart_dashboard/appadmin/index'
tp4595
a(g4198
(S's\x06\x00\x00\x00Errors'
tRp4596
I00
S'/admin/default/errors/web2py_xlchart_dashboard'
tp4597
a(g4198
(S's\x05\x00\x00\x00About'
tRp4598
I00
S'/admin/default/about/web2py_xlchart_dashboard'
tp4599
aasbasbasbasbasbasbasbag61
(g77
g63
NtRp4600
(dp4601
g66
(dp4602
sg75
g4457
sg68
(lp4603
g61
(g82
g63
NtRp4604
(dp4605
g66
(dp4606
sg75
g4600
sg68
(lp4607
g61
(g62
g63
NtRp4608
(dp4609
g66
(dp4610
g74
I2
ssg75
g4604
sg68
(lp4611
g61
(g70
g63
NtRp4612
(dp4613
g66
(dp4614
g74
I1
ssg75
Nsg68
(lp4615
g61
(g77
g63
NtRp4616
(dp4617
g66
(dp4618
sg75
g4612
sg68
(lp4619
g61
(g82
g63
NtRp4620
(dp4621
g66
(dp4622
sg75
g4616
sg68
(lp4623
g61
(g62
g63
NtRp4624
(dp4625
g66
(dp4626
g74
I1
ssg75
g4620
sg68
(lp4627
S'web2py.com'
p4628
asbasbasbag61
(g77
g63
NtRp4629
(dp4630
g66
(dp4631
sg75
g4612
sg68
(lp4632
g61
(g82
g63
NtRp4633
(dp4634
g66
(dp4635
sg75
g4629
sg68
(lp4636
g61
(g62
g63
NtRp4637
(dp4638
g66
(dp4639
g74
I1
ssg75
g4633
sg68
(lp4640
I00
asbasbasbag61
(g77
g63
NtRp4641
(dp4642
g66
(dp4643
sg75
g4612
sg68
(lp4644
g61
(g82
g63
NtRp4645
(dp4646
g66
(dp4647
sg75
g4641
sg68
(lp4648
g61
(g62
g63
NtRp4649
(dp4650
g66
(dp4651
g74
I1
ssg75
g4645
sg68
(lp4652
S'http://www.web2py.com'
p4653
asbasbasbag61
(g77
g63
NtRp4654
(dp4655
g66
(dp4656
sg75
g4612
sg68
(lp4657
g61
(g82
g63
NtRp4658
(dp4659
g66
(dp4660
sg75
g4654
sg68
(lp4661
g61
(g62
g63
NtRp4662
(dp4663
g66
(dp4664
g74
I1
ssg75
g4658
sg68
(lp4665
(lp4666
(g4198
(S's\x08\x00\x00\x00Download'
tRp4667
I00
S'http://www.web2py.com/examples/default/download'
p4668
tp4669
a(g4198
(S's\x07\x00\x00\x00Support'
tRp4670
I00
S'http://www.web2py.com/examples/default/support'
p4671
tp4672
a(g4198
(S's\x04\x00\x00\x00Demo'
tRp4673
I00
S'http://web2py.com/demo_admin'
p4674
tp4675
a(g4198
(S's\x0e\x00\x00\x00Quick Examples'
tRp4676
I00
S'http://web2py.com/examples/default/examples'
p4677
tp4678
a(g4198
(S's\x03\x00\x00\x00FAQ'
tRp4679
I00
S'http://web2py.com/AlterEgo'
p4680
tp4681
a(g4198
(S's\x06\x00\x00\x00Videos'
tRp4682
I00
S'http://www.web2py.com/examples/default/videos/'
p4683
tp4684
a(g4198
(S's\x11\x00\x00\x00Free Applications'
tRp4685
I00
S'http://web2py.com/appliances'
p4686
tp4687
a(g4198
(S's\x07\x00\x00\x00Plugins'
tRp4688
I00
S'http://web2py.com/plugins'
p4689
tp4690
a(g4198
(S's\x07\x00\x00\x00Layouts'
tRp4691
I00
S'http://web2py.com/layouts'
p4692
tp4693
a(g4198
(S's\x07\x00\x00\x00Recipes'
tRp4694
I00
S'http://web2pyslices.com/'
p4695
tp4696
a(g4198
(S's\x08\x00\x00\x00Semantic'
tRp4697
I00
S'http://web2py.com/semantic'
p4698
tp4699
aasbasbasbasbasbasbasbag61
(g77
g63
NtRp4700
(dp4701
g66
(dp4702
sg75
g4457
sg68
(lp4703
g61
(g82
g63
NtRp4704
(dp4705
g66
(dp4706
sg75
g4700
sg68
(lp4707
g61
(g62
g63
NtRp4708
(dp4709
g66
(dp4710
g74
I2
ssg75
g4704
sg68
(lp4711
g61
(g70
g63
NtRp4712
(dp4713
g66
(dp4714
g74
I1
ssg75
Nsg68
(lp4715
g61
(g77
g63
NtRp4716
(dp4717
g66
(dp4718
sg75
g4712
sg68
(lp4719
g61
(g82
g63
NtRp4720
(dp4721
g66
(dp4722
sg75
g4716
sg68
(lp4723
g61
(g62
g63
NtRp4724
(dp4725
g66
(dp4726
g74
I1
ssg75
g4720
sg68
(lp4727
g4198
(S's\r\x00\x00\x00Documentation'
tRp4728
asbasbasbag61
(g77
g63
NtRp4729
(dp4730
g66
(dp4731
sg75
g4712
sg68
(lp4732
g61
(g82
g63
NtRp4733
(dp4734
g66
(dp4735
sg75
g4729
sg68
(lp4736
g61
(g62
g63
NtRp4737
(dp4738
g66
(dp4739
g74
I1
ssg75
g4733
sg68
(lp4740
I00
asbasbasbag61
(g77
g63
NtRp4741
(dp4742
g66
(dp4743
sg75
g4712
sg68
(lp4744
g61
(g82
g63
NtRp4745
(dp4746
g66
(dp4747
sg75
g4741
sg68
(lp4748
g61
(g62
g63
NtRp4749
(dp4750
g66
(dp4751
g74
I1
ssg75
g4745
sg68
(lp4752
S'http://www.web2py.com/book'
p4753
asbasbasbag61
(g77
g63
NtRp4754
(dp4755
g66
(dp4756
sg75
g4712
sg68
(lp4757
g61
(g82
g63
NtRp4758
(dp4759
g66
(dp4760
sg75
g4754
sg68
(lp4761
g61
(g62
g63
NtRp4762
(dp4763
g66
(dp4764
g74
I1
ssg75
g4758
sg68
(lp4765
(lp4766
(g4198
(S's\x07\x00\x00\x00Preface'
tRp4767
I00
S'http://www.web2py.com/book/default/chapter/00'
p4768
tp4769
a(g4198
(S's\x0c\x00\x00\x00Introduction'
tRp4770
I00
S'http://www.web2py.com/book/default/chapter/01'
p4771
tp4772
a(g4198
(S's\x06\x00\x00\x00Python'
tRp4773
I00
S'http://www.web2py.com/book/default/chapter/02'
p4774
tp4775
a(g4198
(S's\x08\x00\x00\x00Overview'
tRp4776
I00
S'http://www.web2py.com/book/default/chapter/03'
p4777
tp4778
a(g4198
(S's\x08\x00\x00\x00The Core'
tRp4779
I00
S'http://www.web2py.com/book/default/chapter/04'
p4780
tp4781
a(g4198
(S's\t\x00\x00\x00The Views'
tRp4782
I00
S'http://www.web2py.com/book/default/chapter/05'
p4783
tp4784
a(g4198
(S's\x08\x00\x00\x00Database'
tRp4785
I00
S'http://www.web2py.com/book/default/chapter/06'
p4786
tp4787
a(g4198
(S's\x14\x00\x00\x00Forms and Validators'
tRp4788
I00
S'http://www.web2py.com/book/default/chapter/07'
p4789
tp4790
a(g4198
(S's\r\x00\x00\x00Email and SMS'
tRp4791
I00
S'http://www.web2py.com/book/default/chapter/08'
p4792
tp4793
a(g4198
(S's\x0e\x00\x00\x00Access Control'
tRp4794
I00
S'http://www.web2py.com/book/default/chapter/09'
p4795
tp4796
a(g4198
(S's\x08\x00\x00\x00Services'
tRp4797
I00
S'http://www.web2py.com/book/default/chapter/10'
p4798
tp4799
a(g4198
(S's\x0c\x00\x00\x00Ajax Recipes'
tRp4800
I00
S'http://www.web2py.com/book/default/chapter/11'
p4801
tp4802
a(g4198
(S's\x16\x00\x00\x00Components and Plugins'
tRp4803
I00
S'http://www.web2py.com/book/default/chapter/12'
p4804
tp4805
a(g4198
(S's\x12\x00\x00\x00Deployment Recipes'
tRp4806
I00
S'http://www.web2py.com/book/default/chapter/13'
p4807
tp4808
a(g4198
(S's\r\x00\x00\x00Other Recipes'
tRp4809
I00
S'http://www.web2py.com/book/default/chapter/14'
p4810
tp4811
a(g4198
(S's\r\x00\x00\x00Buy this book'
tRp4812
I00
S'http://stores.lulu.com/web2py'
p4813
tp4814
aasbasbasbasbasbasbasbag61
(g77
g63
NtRp4815
(dp4816
g66
(dp4817
sg75
g4457
sg68
(lp4818
g61
(g82
g63
NtRp4819
(dp4820
g66
(dp4821
sg75
g4815
sg68
(lp4822
g61
(g62
g63
NtRp4823
(dp4824
g66
(dp4825
g74
I2
ssg75
g4819
sg68
(lp4826
g61
(g70
g63
NtRp4827
(dp4828
g66
(dp4829
g74
I1
ssg75
Nsg68
(lp4830
g61
(g77
g63
NtRp4831
(dp4832
g66
(dp4833
sg75
g4827
sg68
(lp4834
g61
(g82
g63
NtRp4835
(dp4836
g66
(dp4837
sg75
g4831
sg68
(lp4838
g61
(g62
g63
NtRp4839
(dp4840
g66
(dp4841
g74
I1
ssg75
g4835
sg68
(lp4842
g4198
(S's\t\x00\x00\x00Community'
tRp4843
asbasbasbag61
(g77
g63
NtRp4844
(dp4845
g66
(dp4846
sg75
g4827
sg68
(lp4847
g61
(g82
g63
NtRp4848
(dp4849
g66
(dp4850
sg75
g4844
sg68
(lp4851
g61
(g62
g63
NtRp4852
(dp4853
g66
(dp4854
g74
I1
ssg75
g4848
sg68
(lp4855
I00
asbasbasbag61
(g77
g63
NtRp4856
(dp4857
g66
(dp4858
sg75
g4827
sg68
(lp4859
g61
(g82
g63
NtRp4860
(dp4861
g66
(dp4862
sg75
g4856
sg68
(lp4863
g61
(g62
g63
NtRp4864
(dp4865
g66
(dp4866
g74
I1
ssg75
g4860
sg68
(lp4867
Nasbasbasbag61
(g77
g63
NtRp4868
(dp4869
g66
(dp4870
sg75
g4827
sg68
(lp4871
g61
(g82
g63
NtRp4872
(dp4873
g66
(dp4874
sg75
g4868
sg68
(lp4875
g61
(g62
g63
NtRp4876
(dp4877
g66
(dp4878
g74
I1
ssg75
g4872
sg68
(lp4879
(lp4880
(g4198
(S's\x06\x00\x00\x00Groups'
tRp4881
I00
S'http://www.web2py.com/examples/default/usergroups'
p4882
tp4883
a(g4198
(S's\x07\x00\x00\x00Twitter'
tRp4884
I00
S'http://twitter.com/web2py'
p4885
tp4886
a(g4198
(S's\t\x00\x00\x00Live Chat'
tRp4887
I00
S'http://webchat.freenode.net/?channels=web2py'
p4888
tp4889
aasbasbasbasbasbasbasbag61
(g77
g63
NtRp4890
(dp4891
g66
(dp4892
sg75
g4457
sg68
(lp4893
g61
(g82
g63
NtRp4894
(dp4895
g66
(dp4896
sg75
g4890
sg68
(lp4897
g61
(g62
g63
NtRp4898
(dp4899
g66
(dp4900
g74
I2
ssg75
g4894
sg68
(lp4901
g61
(g70
g63
NtRp4902
(dp4903
g66
(dp4904
g74
I1
ssg75
Nsg68
(lp4905
g61
(g77
g63
NtRp4906
(dp4907
g66
(dp4908
sg75
g4902
sg68
(lp4909
g61
(g82
g63
NtRp4910
(dp4911
g66
(dp4912
sg75
g4906
sg68
(lp4913
g61
(g62
g63
NtRp4914
(dp4915
g66
(dp4916
g74
I1
ssg75
g4910
sg68
(lp4917
g4198
(S's\x07\x00\x00\x00Plugins'
tRp4918
asbasbasbag61
(g77
g63
NtRp4919
(dp4920
g66
(dp4921
sg75
g4902
sg68
(lp4922
g61
(g82
g63
NtRp4923
(dp4924
g66
(dp4925
sg75
g4919
sg68
(lp4926
g61
(g62
g63
NtRp4927
(dp4928
g66
(dp4929
g74
I1
ssg75
g4923
sg68
(lp4930
I00
asbasbasbag61
(g77
g63
NtRp4931
(dp4932
g66
(dp4933
sg75
g4902
sg68
(lp4934
g61
(g82
g63
NtRp4935
(dp4936
g66
(dp4937
sg75
g4931
sg68
(lp4938
g61
(g62
g63
NtRp4939
(dp4940
g66
(dp4941
g74
I1
ssg75
g4935
sg68
(lp4942
Nasbasbasbag61
(g77
g63
NtRp4943
(dp4944
g66
(dp4945
sg75
g4902
sg68
(lp4946
g61
(g82
g63
NtRp4947
(dp4948
g66
(dp4949
sg75
g4943
sg68
(lp4950
g61
(g62
g63
NtRp4951
(dp4952
g66
(dp4953
g74
I1
ssg75
g4947
sg68
(lp4954
(lp4955
(S'plugin_wiki'
p4956
I00
S'http://web2py.com/examples/default/download'
p4957
tp4958
a(g4198
(S's\r\x00\x00\x00Other Plugins'
tRp4959
I00
g4689
tp4960
a(g4198
(S's\x0e\x00\x00\x00Layout Plugins'
tRp4961
I00
g4692
tp4962
aasbasbasbasbasbasbasbasbasbasbasbasbasbasbasbasbasbasbasbag61
(g77
g63
NtRp4963
(dp4964
g66
(dp4965
sg75
g3708
sg68
(lp4966
g61
(g82
g63
NtRp4967
(dp4968
g66
(dp4969
g86
g87
ssg75
g4963
sg68
(lp4970
S'meta'
p4971
asbag61
(g82
g63
NtRp4972
(dp4973
g66
(dp4974
g93
g94
ssg75
g4963
sg68
(lp4975
S':'
asbag61
(g82
g63
NtRp4976
(dp4977
g66
(dp4978
sg75
g4963
sg68
(lp4979
g61
(g62
g63
NtRp4980
(dp4981
g66
(dp4982
g74
I5
ssg75
g4976
sg68
(lp4983
g61
(g70
g63
NtRp4984
(dp4985
g66
(dp4986
g74
I4
ssg75
Nsg68
(lp4987
g61
(g77
g63
NtRp4988
(dp4989
g66
(dp4990
sg75
g4984
sg68
(lp4991
g61
(g82
g63
NtRp4992
(dp4993
g66
(dp4994
g86
g87
ssg75
g4988
sg68
(lp4995
S'author'
p4996
asbag61
(g82
g63
NtRp4997
(dp4998
g66
(dp4999
g93
g94
ssg75
g4988
sg68
(lp5000
S':'
asbag61
(g82
g63
NtRp5001
(dp5002
g66
(dp5003
sg75
g4988
sg68
(lp5004
g61
(g62
g63
NtRp5005
(dp5006
g66
(dp5007
g74
I4
ssg75
g5001
sg68
(lp5008
S'Your Name <you@example.com>'
p5009
asbasbasbag61
(g77
g63
NtRp5010
(dp5011
g66
(dp5012
sg75
g4984
sg68
(lp5013
g61
(g82
g63
NtRp5014
(dp5015
g66
(dp5016
g86
g87
ssg75
g5010
sg68
(lp5017
S'description'
p5018
asbag61
(g82
g63
NtRp5019
(dp5020
g66
(dp5021
g93
g94
ssg75
g5010
sg68
(lp5022
S':'
asbag61
(g82
g63
NtRp5023
(dp5024
g66
(dp5025
sg75
g5010
sg68
(lp5026
g61
(g62
g63
NtRp5027
(dp5028
g66
(dp5029
g74
I4
ssg75
g5023
sg68
(lp5030
S'a cool new app'
p5031
asbasbasbag61
(g77
g63
NtRp5032
(dp5033
g66
(dp5034
sg75
g4984
sg68
(lp5035
g61
(g82
g63
NtRp5036
(dp5037
g66
(dp5038
g86
g87
ssg75
g5032
sg68
(lp5039
S'generator'
p5040
asbag61
(g82
g63
NtRp5041
(dp5042
g66
(dp5043
g93
g94
ssg75
g5032
sg68
(lp5044
S':'
asbag61
(g82
g63
NtRp5045
(dp5046
g66
(dp5047
sg75
g5032
sg68
(lp5048
g61
(g62
g63
NtRp5049
(dp5050
g66
(dp5051
g74
I4
ssg75
g5045
sg68
(lp5052
S'Web2py Web Framework'
p5053
asbasbasbag61
(g77
g63
NtRp5054
(dp5055
g66
(dp5056
sg75
g4984
sg68
(lp5057
g61
(g82
g63
NtRp5058
(dp5059
g66
(dp5060
g86
g87
ssg75
g5054
sg68
(lp5061
S'keywords'
p5062
asbag61
(g82
g63
NtRp5063
(dp5064
g66
(dp5065
g93
g94
ssg75
g5054
sg68
(lp5066
S':'
asbag61
(g82
g63
NtRp5067
(dp5068
g66
(dp5069
sg75
g5054
sg68
(lp5070
g61
(g62
g63
NtRp5071
(dp5072
g66
(dp5073
g74
I4
ssg75
g5067
sg68
(lp5074
S'web2py, python, framework'
p5075
asbasbasbasbasbasbasbag61
(g77
g63
NtRp5076
(dp5077
g66
(dp5078
sg75
g3708
sg68
(lp5079
g61
(g82
g63
NtRp5080
(dp5081
g66
(dp5082
g86
g87
ssg75
g5076
sg68
(lp5083
S'models_to_run'
p5084
asbag61
(g82
g63
NtRp5085
(dp5086
g66
(dp5087
g93
g94
ssg75
g5076
sg68
(lp5088
S':'
asbag61
(g82
g63
NtRp5089
(dp5090
g66
(dp5091
sg75
g5076
sg68
(lp5092
g61
(g62
g63
NtRp5093
(dp5094
g66
(dp5095
g74
I5
ssg75
g5089
sg68
(lp5096
g61
(g70
g63
NtRp5097
(dp5098
g66
(dp5099
g74
I4
ssg75
Nsg68
(lp5100
g61
(g77
g63
NtRp5101
(dp5102
g66
(dp5103
sg75
g5097
sg68
(lp5104
g61
(g82
g63
NtRp5105
(dp5106
g66
(dp5107
sg75
g5101
sg68
(lp5108
g61
(g62
g63
NtRp5109
(dp5110
g66
(dp5111
g74
I4
ssg75
g5105
sg68
(lp5112
S'^\\w+\\.py$'
p5113
asbasbasbag61
(g77
g63
NtRp5114
(dp5115
g66
(dp5116
sg75
g5097
sg68
(lp5117
g61
(g82
g63
NtRp5118
(dp5119
g66
(dp5120
sg75
g5114
sg68
(lp5121
g61
(g62
g63
NtRp5122
(dp5123
g66
(dp5124
g74
I4
ssg75
g5118
sg68
(lp5125
S'^charts/\\w+\\.py$'
p5126
asbasbasbag61
(g77
g63
NtRp5127
(dp5128
g66
(dp5129
sg75
g5097
sg68
(lp5130
g61
(g82
g63
NtRp5131
(dp5132
g66
(dp5133
sg75
g5127
sg68
(lp5134
g61
(g62
g63
NtRp5135
(dp5136
g66
(dp5137
g74
I4
ssg75
g5131
sg68
(lp5138
S'^charts/user_charts/\\w+\\.py$'
p5139
asbasbasbasbasbasbasbag61
(g77
g63
NtRp5140
(dp5141
g66
(dp5142
sg75
g3708
sg68
(lp5143
g61
(g82
g63
NtRp5144
(dp5145
g66
(dp5146
g86
g87
ssg75
g5140
sg68
(lp5147
S'postprocessing'
p5148
asbag61
(g82
g63
NtRp5149
(dp5150
g66
(dp5151
g93
g94
ssg75
g5140
sg68
(lp5152
S':'
asbag61
(g82
g63
NtRp5153
(dp5154
g66
(dp5155
sg75
g5140
sg68
(lp5156
g61
(g62
g63
NtRp5157
(dp5158
g66
(dp5159
g74
I5
ssg75
g5153
sg68
(lp5160
g61
(g70
g63
NtRp5161
(dp5162
g66
(dp5163
g74
I4
ssg75
Nsg68
(lp5164
sbasbasbasbag61
(g77
g63
NtRp5165
(dp5166
g66
(dp5167
sg75
g3708
sg68
(lp5168
g61
(g82
g63
NtRp5169
(dp5170
g66
(dp5171
g86
g87
ssg75
g5165
sg68
(lp5172
S'session_cookie_expires'
p5173
asbag61
(g82
g63
NtRp5174
(dp5175
g66
(dp5176
g93
g94
ssg75
g5165
sg68
(lp5177
S':'
asbag61
(g82
g63
NtRp5178
(dp5179
g66
(dp5180
sg75
g5165
sg68
(lp5181
g61
(g62
g63
NtRp5182
(dp5183
g66
(dp5184
g74
I5
ssg75
g5178
sg68
(lp5185
S'None'
p5186
asbasbasbag61
(g77
g63
NtRp5187
(dp5188
g66
(dp5189
sg75
g3708
sg68
(lp5190
g61
(g82
g63
NtRp5191
(dp5192
g66
(dp5193
g86
g87
ssg75
g5187
sg68
(lp5194
S'session_data_name'
p5195
asbag61
(g82
g63
NtRp5196
(dp5197
g66
(dp5198
g93
g94
ssg75
g5187
sg68
(lp5199
S':'
asbag61
(g82
g63
NtRp5200
(dp5201
g66
(dp5202
sg75
g5187
sg68
(lp5203
g61
(g62
g63
NtRp5204
(dp5205
g66
(dp5206
g74
I5
ssg75
g5200
sg68
(lp5207
S'session_data_web2py_xlchart_dashboard'
p5208
asbasbasbag61
(g77
g63
NtRp5209
(dp5210
g66
(dp5211
sg75
g3708
sg68
(lp5212
g61
(g82
g63
NtRp5213
(dp5214
g66
(dp5215
g86
g87
ssg75
g5209
sg68
(lp5216
S'session_file'
p5217
asbag61
(g82
g63
NtRp5218
(dp5219
g66
(dp5220
g93
g94
ssg75
g5209
sg68
(lp5221
S':'
asbag61
(g82
g63
NtRp5222
(dp5223
g66
(dp5224
sg75
g5209
sg68
(lp5225
g61
(g62
g63
NtRp5226
(dp5227
g66
(dp5228
g74
I5
ssg75
g5222
sg68
(lp5229
S"<open file 'D:\\web2py\\source\\web2py\\applications\\web2py_xlchart_dashboard\\sessions\\127.0.0.1-ac49f654-4017-4b39-a594-75c98e9fffbe', mode 'rb+' at 0x054BFC80>"
p5230
asbasbasbag61
(g77
g63
NtRp5231
(dp5232
g66
(dp5233
sg75
g3708
sg68
(lp5234
g61
(g82
g63
NtRp5235
(dp5236
g66
(dp5237
g86
g87
ssg75
g5231
sg68
(lp5238
S'session_filename'
p5239
asbag61
(g82
g63
NtRp5240
(dp5241
g66
(dp5242
g93
g94
ssg75
g5231
sg68
(lp5243
S':'
asbag61
(g82
g63
NtRp5244
(dp5245
g66
(dp5246
sg75
g5231
sg68
(lp5247
g61
(g62
g63
NtRp5248
(dp5249
g66
(dp5250
g74
I5
ssg75
g5244
sg68
(lp5251
S'D:\\web2py\\source\\web2py\\applications\\web2py_xlchart_dashboard\\sessions\\127.0.0.1-ac49f654-4017-4b39-a594-75c98e9fffbe'
p5252
asbasbasbag61
(g77
g63
NtRp5253
(dp5254
g66
(dp5255
sg75
g3708
sg68
(lp5256
g61
(g82
g63
NtRp5257
(dp5258
g66
(dp5259
g86
g87
ssg75
g5253
sg68
(lp5260
S'session_id'
p5261
asbag61
(g82
g63
NtRp5262
(dp5263
g66
(dp5264
g93
g94
ssg75
g5253
sg68
(lp5265
S':'
asbag61
(g82
g63
NtRp5266
(dp5267
g66
(dp5268
sg75
g5253
sg68
(lp5269
g61
(g62
g63
NtRp5270
(dp5271
g66
(dp5272
g74
I5
ssg75
g5266
sg68
(lp5273
g492
asbasbasbag61
(g77
g63
NtRp5274
(dp5275
g66
(dp5276
sg75
g3708
sg68
(lp5277
g61
(g82
g63
NtRp5278
(dp5279
g66
(dp5280
g86
g87
ssg75
g5274
sg68
(lp5281
S'session_id_name'
p5282
asbag61
(g82
g63
NtRp5283
(dp5284
g66
(dp5285
g93
g94
ssg75
g5274
sg68
(lp5286
S':'
asbag61
(g82
g63
NtRp5287
(dp5288
g66
(dp5289
sg75
g5274
sg68
(lp5290
g61
(g62
g63
NtRp5291
(dp5292
g66
(dp5293
g74
I5
ssg75
g5287
sg68
(lp5294
g3765
asbasbasbag61
(g77
g63
NtRp5295
(dp5296
g66
(dp5297
sg75
g3708
sg68
(lp5298
g61
(g82
g63
NtRp5299
(dp5300
g66
(dp5301
g86
g87
ssg75
g5295
sg68
(lp5302
S'session_locked'
p5303
asbag61
(g82
g63
NtRp5304
(dp5305
g66
(dp5306
g93
g94
ssg75
g5295
sg68
(lp5307
S':'
asbag61
(g82
g63
NtRp5308
(dp5309
g66
(dp5310
sg75
g5295
sg68
(lp5311
g61
(g62
g63
NtRp5312
(dp5313
g66
(dp5314
g74
I5
ssg75
g5308
sg68
(lp5315
g1599
asbasbasbag61
(g77
g63
NtRp5316
(dp5317
g66
(dp5318
sg75
g3708
sg68
(lp5319
g61
(g82
g63
NtRp5320
(dp5321
g66
(dp5322
g86
g87
ssg75
g5316
sg68
(lp5323
S'session_new'
p5324
asbag61
(g82
g63
NtRp5325
(dp5326
g66
(dp5327
g93
g94
ssg75
g5316
sg68
(lp5328
S':'
asbag61
(g82
g63
NtRp5329
(dp5330
g66
(dp5331
sg75
g5316
sg68
(lp5332
g61
(g62
g63
NtRp5333
(dp5334
g66
(dp5335
g74
I5
ssg75
g5329
sg68
(lp5336
g104
asbasbasbag61
(g77
g63
NtRp5337
(dp5338
g66
(dp5339
sg75
g3708
sg68
(lp5340
g61
(g82
g63
NtRp5341
(dp5342
g66
(dp5343
g86
g87
ssg75
g5337
sg68
(lp5344
S'session_storage_type'
p5345
asbag61
(g82
g63
NtRp5346
(dp5347
g66
(dp5348
g93
g94
ssg75
g5337
sg68
(lp5349
S':'
asbag61
(g82
g63
NtRp5350
(dp5351
g66
(dp5352
sg75
g5337
sg68
(lp5353
g61
(g62
g63
NtRp5354
(dp5355
g66
(dp5356
g74
I5
ssg75
g5350
sg68
(lp5357
g3055
asbasbasbag61
(g77
g63
NtRp5358
(dp5359
g66
(dp5360
sg75
g3708
sg68
(lp5361
g61
(g82
g63
NtRp5362
(dp5363
g66
(dp5364
g86
g87
ssg75
g5358
sg68
(lp5365
S'status'
p5366
asbag61
(g82
g63
NtRp5367
(dp5368
g66
(dp5369
g93
g94
ssg75
g5358
sg68
(lp5370
S':'
asbag61
(g82
g63
NtRp5371
(dp5372
g66
(dp5373
sg75
g5358
sg68
(lp5374
g61
(g62
g63
NtRp5375
(dp5376
g66
(dp5377
g74
I5
ssg75
g5371
sg68
(lp5378
S'200'
p5379
asbasbasbag61
(g77
g63
NtRp5380
(dp5381
g66
(dp5382
sg75
g3708
sg68
(lp5383
g61
(g82
g63
NtRp5384
(dp5385
g66
(dp5386
g86
g87
ssg75
g5380
sg68
(lp5387
S'subtitle'
p5388
asbag61
(g82
g63
NtRp5389
(dp5390
g66
(dp5391
g93
g94
ssg75
g5380
sg68
(lp5392
S':'
asbag61
(g82
g63
NtRp5393
(dp5394
g66
(dp5395
sg75
g5380
sg68
(lp5396
g61
(g62
g63
NtRp5397
(dp5398
g66
(dp5399
g74
I5
ssg75
g5393
sg68
(lp5400
g4198
(S's\r\x00\x00\x00customize me!'
tRp5401
asbasbasbag61
(g77
g63
NtRp5402
(dp5403
g66
(dp5404
sg75
g3708
sg68
(lp5405
g61
(g82
g63
NtRp5406
(dp5407
g66
(dp5408
g86
g87
ssg75
g5402
sg68
(lp5409
S'title'
p5410
asbag61
(g82
g63
NtRp5411
(dp5412
g66
(dp5413
g93
g94
ssg75
g5402
sg68
(lp5414
S':'
asbag61
(g82
g63
NtRp5415
(dp5416
g66
(dp5417
sg75
g5402
sg68
(lp5418
g61
(g62
g63
NtRp5419
(dp5420
g66
(dp5421
g74
I5
ssg75
g5415
sg68
(lp5422
S'Web2py Xlchart Dashboard'
p5423
asbasbasbag61
(g77
g63
NtRp5424
(dp5425
g66
(dp5426
sg75
g3708
sg68
(lp5427
g61
(g82
g63
NtRp5428
(dp5429
g66
(dp5430
g86
g87
ssg75
g5424
sg68
(lp5431
S'view'
p5432
asbag61
(g82
g63
NtRp5433
(dp5434
g66
(dp5435
g93
g94
ssg75
g5424
sg68
(lp5436
S':'
asbag61
(g82
g63
NtRp5437
(dp5438
g66
(dp5439
sg75
g5424
sg68
(lp5440
g61
(g62
g63
NtRp5441
(dp5442
g66
(dp5443
g74
I5
ssg75
g5437
sg68
(lp5444
S'charts/user_charts.html'
p5445
asbasbasbasbasbsS'locals'
p5446
(dp5447
S'a'
S"('SELECT  user_chart.id, user_chart.id_user, user_...hart.id > 0) AND <Set (user_chart.id_user = 1)>);',)"
p5448
sS'self'
p5449
S'<gluon.dal.SQLiteAdapter object>'
p5450
sS'b'
g21
sS'command'
p5451
S"'SELECT  user_chart.id, user_chart.id_user, user_...hart.id > 0) AND <Set (user_chart.id_user = 1)>);'"
p5452
sS't0'
p5453
S'1352291081.812'
p5454
sssS'traceback'
p5455
S'Traceback (most recent call last):\n  File "D:\\web2py\\source\\web2py\\gluon\\restricted.py", line 212, in restricted\n    exec ccode in environment\n  File "D:\\web2py\\source\\web2py\\applications\\web2py_xlchart_dashboard\\controllers/charts.py", line 12, in <module>\n  File "D:\\web2py\\source\\web2py\\gluon\\globals.py", line 188, in <lambda>\n    self._caller = lambda f: f()\n  File "D:\\web2py\\source\\web2py\\applications\\web2py_xlchart_dashboard\\controllers/charts.py", line 9, in user_charts\n    grid = SQLFORM.smartgrid(db.user_chart,constraints=constraints)\n  File "D:\\web2py\\source\\web2py\\gluon\\sqlhtml.py", line 2376, in smartgrid\n    user_signature=user_signature, **kwargs)\n  File "D:\\web2py\\source\\web2py\\gluon\\sqlhtml.py", line 2095, in grid\n    *table_fields)\n  File "D:\\web2py\\source\\web2py\\gluon\\dal.py", line 8788, in select\n    return adapter.select(self.query,fields,attributes)\n  File "D:\\web2py\\source\\web2py\\gluon\\dal.py", line 2128, in select\n    return super(SQLiteAdapter, self).select(query, fields, attributes)\n  File "D:\\web2py\\source\\web2py\\gluon\\dal.py", line 1616, in select\n    return self._select_aux(sql,fields,attributes)\n  File "D:\\web2py\\source\\web2py\\gluon\\dal.py", line 1581, in _select_aux\n    self.execute(sql)\n  File "D:\\web2py\\source\\web2py\\gluon\\dal.py", line 1694, in execute\n    return self.log_execute(*a, **b)\n  File "D:\\web2py\\source\\web2py\\gluon\\dal.py", line 1688, in log_execute\n    ret = self.cursor.execute(*a, **b)\nOperationalError: near "<": syntax error\n'
p5456
s.