(dp1
S'output'
p2
S"<type 'exceptions.IOError'> [Errno 2] No such file or directory: 'static/images/temp/1352227408.88\\\\2-Sheet_2-XLChart_pyxl1352146819.36.jpg'"
p3
sS'layer'
p4
S'D:\\web2py\\source\\web2py\\applications\\web2py_xlchart_dashboard\\controllers/default.py'
p5
sS'code'
p6
S'# -*- coding: utf-8 -*-\n# this file is released under public domain and you can use without limitations\n\n#########################################################################\n## This is a samples controller\n## - index is the default action of any application\n## - user is required for authentication and authorization\n## - download is for downloading files uploaded in the db (does streaming)\n## - call exposes all registered services (none by default)\n#########################################################################\n\n\ndef index():\n    """\n    example action using the internationalization operator T and flash\n    rendered by views/default/index.html or views/generic.html\n\n    if you need a simple wiki simple replace the two lines below with:\n    return auth.wiki()\n    """\n  \n    response.flash = T("Welcome to web2py!")\n    return dict(message=T(\'Hello World\'))\n\ndef add_workbook():\n    grid = SQLFORM.smartgrid(db.workbook)\n    return locals()\n\ndef add_chart():\n    grid = SQLFORM.smartgrid(db.chart)\n    return locals()\n\ndef register_chart_part1():\n    grid = SQLFORM.smartgrid(db.workbook,links = [lambda row: A(T(\'List charts in this workbook\'),_href=URL("default","list_workbook_charts",vars={\'wbid\':row.id})),] )\n    return dict(workbookGrid = grid)\n    \ndef list_workbook_charts():\n    import os\n    wbid = request.vars[\'wbid\']\n    rsPath = db(db.workbook.id == wbid).select(db.workbook.path)\n    wbPath = rsPath[0].path\n    ChartDetails = get_chart(wbPath)\n    chartfiles = []\n    DivCount = 0\n    for ChartDetail in ChartDetails[\'chartdetail\']: \n        DivCount += 1\n        div_name = "div" + str(DivCount)\n        #div_name = ChartDetail[\'sheetname\'].replace(\' \',\'_\') + \'_\' + ChartDetail[\'chartname\'].replace(\' \',\'_\')  \n        if checkchartindb(ChartDetail[\'chartname\']):\n            chartimage = IMG(_src=URL(ChartDetails[\'webfolder\'],str(ChartDetail[\'imagename\'])),_width="200",_height="200")\n        else:\n            chartimage = A(IMG(_src=URL(ChartDetails[\'webfolder\'],str(ChartDetail[\'imagename\'])),_width="200",_height="200"),callback = URL(f=\'registerchart\',vars={\'wbid\':wbid,\'sheetname\':ChartDetail[\'sheetname\'],\'chartname\':ChartDetail[\'chartname\'],\'imagename\':ChartDetail[\'imagename\'],\'webfolder\':ChartDetails[\'webfolder\']}), target=div_name)\n        chartfiles.append(dict(chartname = ChartDetail[\'chartname\'], divname = div_name,chartimage = chartimage, chartfolder = ChartDetails[\'webfolder\'] ))\n    #for root, dirs, files in os.walk(ChartDetails[\'osfolder\']):\n    #    for file in files:\n    #        chartfiles.append(IMG(_src=URL(ChartDetails[\'webfolder\'],file),_width="200",_height="200"))\n    return dict(chartfiles=chartfiles)\n\ndef get_chart(workbookPath, imageName="XLChart"):\n    import os, time\n    wbPath, wbFile = os.path.split(workbookPath)\n    import pythoncom\n    pythoncom.CoInitialize()\n    from pyxlchart import Pyxlchart\n    \n    ChartObj = Pyxlchart()\n    ChartObj.WorkbookDirectory = wbPath\n    ChartObj.WorkbookFilename = wbFile\n    ChartObj.ImageFilename = imageName\n    timeDir = str(time.time())\n    os.makedirs(os.path.join(request.folder, \'static\\\\images\\\\temp\', timeDir))\n    exportFolder = os.path.join(request.folder, \'static\\\\images\\\\temp\', timeDir)\n    ChartObj.ExportPath =  exportFolder\n    ChartObj.ReplaceWhiteSpaceChar = \'_\'\n    ChartDetailList = ChartObj.start_export()\n    ChartDetails = dict(chartdetail = ChartDetailList, webfolder = os.path.join(\'static/images/temp/\',timeDir),osfolder = exportFolder)\n    return ChartDetails\n\ndef registerchart():\n    import os\n    if db(db.chart.chartName==request.vars[\'chartname\']).count() == 0:\n        stream = open(os.path.join(request.vars[\'webfolder\'],request.vars[\'imagename\']),\'rb\')\n        \n        chartid = db.chart.insert(chartName=request.vars[\'chartname\'],id_workbook=request.vars[\'wbid\'],worksheet=request.vars[\'sheetname\'],file=stream)\n        return "Chart registered with id " + str(chartid)\n    else:\n        return "Chart already registered"\n\n\ndef user():\n    """\n    exposes:\n    http://..../[app]/default/user/login\n    http://..../[app]/default/user/logout\n    http://..../[app]/default/user/register\n    http://..../[app]/default/user/profile\n    http://..../[app]/default/user/retrieve_password\n    http://..../[app]/default/user/change_password\n    use @auth.requires_login()\n        @auth.requires_membership(\'group name\')\n        @auth.requires_permission(\'read\',\'table name\',record_id)\n    to decorate functions that need access control\n    """\n    return dict(form=auth())\n\n\ndef download():\n    """\n    allows downloading of uploaded files\n    http://..../[app]/default/download/[filename]\n    """\n    return response.download(request, db)\n\n\ndef call():\n    """\n    exposes services. for example:\n    http://..../[app]/default/call/jsonrpc\n    decorate with @services.jsonrpc the functions to expose\n    supports xml, json, xmlrpc, jsonrpc, amfrpc, rss, csv\n    """\n    return service()\n\n\n@auth.requires_signature()\ndef data():\n    """\n    http://..../[app]/default/data/tables\n    http://..../[app]/default/data/create/[table]\n    http://..../[app]/default/data/read/[table]/[id]\n    http://..../[app]/default/data/update/[table]/[id]\n    http://..../[app]/default/data/delete/[table]/[id]\n    http://..../[app]/default/data/select/[table]\n    http://..../[app]/default/data/search/[table]\n    but URLs must be signed, i.e. linked with\n      A(\'table\',_href=URL(\'data/tables\',user_signature=True))\n    or with the signed load operator\n      LOAD(\'default\',\'data.load\',args=\'tables\',ajax=True,user_signature=True)\n    """\n    return dict(form=crud())\n\nresponse._vars=response._caller(registerchart)\n'
p7
sS'snapshot'
p8
(dp9
S'exception'
p10
(dp11
S'__getslice__'
p12
S"<method-wrapper '__getslice__' of exceptions.IOError object>"
p13
sS'__str__'
p14
S"<method-wrapper '__str__' of exceptions.IOError object>"
p15
sS'__reduce__'
p16
S'<built-in method __reduce__ of exceptions.IOError object>'
p17
sS'__dict__'
p18
S'{}'
p19
sS'__sizeof__'
p20
S'<built-in method __sizeof__ of exceptions.IOError object>'
p21
sS'__init__'
p22
S"<method-wrapper '__init__' of exceptions.IOError object>"
p23
sS'__setattr__'
p24
S"<method-wrapper '__setattr__' of exceptions.IOError object>"
p25
sS'__reduce_ex__'
p26
S'<built-in method __reduce_ex__ of exceptions.IOError object>'
p27
sS'__new__'
p28
S'<built-in method __new__ of type object>'
p29
sS'errno'
p30
S'2'
sS'__format__'
p31
S'<built-in method __format__ of exceptions.IOError object>'
p32
sS'__class__'
p33
S"<type 'exceptions.IOError'>"
p34
sS'filename'
p35
S"r'static/images/temp/1352227408.88\\2-Sheet_2-XLChart_pyxl1352146819.36.jpg'"
p36
sS'__doc__'
p37
S"'I/O operation failed.'"
p38
sS'__getitem__'
p39
S"<method-wrapper '__getitem__' of exceptions.IOError object>"
p40
sS'__setstate__'
p41
S'<built-in method __setstate__ of exceptions.IOError object>'
p42
sS'__getattribute__'
p43
S"<method-wrapper '__getattribute__' of exceptions.IOError object>"
p44
sS'args'
p45
S"(2, 'No such file or directory')"
p46
sS'__subclasshook__'
p47
S'<built-in method __subclasshook__ of type object>'
p48
sS'__unicode__'
p49
S'<built-in method __unicode__ of exceptions.IOError object>'
p50
sS'strerror'
p51
S"'No such file or directory'"
p52
sS'__delattr__'
p53
S"<method-wrapper '__delattr__' of exceptions.IOError object>"
p54
sS'__repr__'
p55
S"<method-wrapper '__repr__' of exceptions.IOError object>"
p56
sS'__hash__'
p57
S"<method-wrapper '__hash__' of exceptions.IOError object>"
p58
ssS'evalue'
p59
S"[Errno 2] No such file or directory: 'static/images/temp/1352227408.88\\\\2-Sheet_2-XLChart_pyxl1352146819.36.jpg'"
p60
sS'request'
p61
ccopy_reg
_reconstructor
p62
(cgluon.html
BEAUTIFY
p63
c__builtin__
object
p64
NtRp65
(dp66
S'attributes'
p67
(dp68
sS'components'
p69
(lp70
g62
(cgluon.html
TABLE
p71
g64
NtRp72
(dp73
g67
(dp74
S'level'
p75
I5
ssS'parent'
p76
Nsg69
(lp77
g62
(cgluon.html
TR
p78
g64
NtRp79
(dp80
g67
(dp81
sg76
g72
sg69
(lp82
g62
(cgluon.html
TD
p83
g64
NtRp84
(dp85
g67
(dp86
S'_style'
p87
S'font-weight:bold;vertical-align:top'
p88
ssg76
g79
sg69
(lp89
S'ajax'
p90
asbag62
(g83
g64
NtRp91
(dp92
g67
(dp93
S'_valign'
p94
S'top'
p95
ssg76
g79
sg69
(lp96
S':'
asbag62
(g83
g64
NtRp97
(dp98
g67
(dp99
sg76
g79
sg69
(lp100
g62
(g63
g64
NtRp101
(dp102
g67
(dp103
g75
I5
ssg76
g97
sg69
(lp104
S'True'
p105
asbasbasbag62
(g78
g64
NtRp106
(dp107
g67
(dp108
sg76
g72
sg69
(lp109
g62
(g83
g64
NtRp110
(dp111
g67
(dp112
g87
g88
ssg76
g106
sg69
(lp113
S'application'
p114
asbag62
(g83
g64
NtRp115
(dp116
g67
(dp117
g94
g95
ssg76
g106
sg69
(lp118
S':'
asbag62
(g83
g64
NtRp119
(dp120
g67
(dp121
sg76
g106
sg69
(lp122
g62
(g63
g64
NtRp123
(dp124
g67
(dp125
g75
I5
ssg76
g119
sg69
(lp126
S'web2py_xlchart_dashboard'
p127
asbasbasbag62
(g78
g64
NtRp128
(dp129
g67
(dp130
sg76
g72
sg69
(lp131
g62
(g83
g64
NtRp132
(dp133
g67
(dp134
g87
g88
ssg76
g128
sg69
(lp135
g45
asbag62
(g83
g64
NtRp136
(dp137
g67
(dp138
g94
g95
ssg76
g128
sg69
(lp139
S':'
asbag62
(g83
g64
NtRp140
(dp141
g67
(dp142
sg76
g128
sg69
(lp143
g62
(g63
g64
NtRp144
(dp145
g67
(dp146
g75
I5
ssg76
g140
sg69
(lp147
g62
(g71
g64
NtRp148
(dp149
g67
(dp150
g75
I4
ssg76
Nsg69
(lp151
sbasbasbasbag62
(g78
g64
NtRp152
(dp153
g67
(dp154
sg76
g72
sg69
(lp155
g62
(g83
g64
NtRp156
(dp157
g67
(dp158
g87
g88
ssg76
g152
sg69
(lp159
S'body'
p160
asbag62
(g83
g64
NtRp161
(dp162
g67
(dp163
g94
g95
ssg76
g152
sg69
(lp164
S':'
asbag62
(g83
g64
NtRp165
(dp166
g67
(dp167
sg76
g152
sg69
(lp168
g62
(g63
g64
NtRp169
(dp170
g67
(dp171
g75
I5
ssg76
g165
sg69
(lp172
S"<open file '<fdopen>', mode 'w+b' at 0x04F9E390>"
p173
asbasbasbag62
(g78
g64
NtRp174
(dp175
g67
(dp176
sg76
g72
sg69
(lp177
g62
(g83
g64
NtRp178
(dp179
g67
(dp180
g87
g88
ssg76
g174
sg69
(lp181
S'cid'
p182
asbag62
(g83
g64
NtRp183
(dp184
g67
(dp185
g94
g95
ssg76
g174
sg69
(lp186
S':'
asbag62
(g83
g64
NtRp187
(dp188
g67
(dp189
sg76
g174
sg69
(lp190
g62
(g63
g64
NtRp191
(dp192
g67
(dp193
g75
I5
ssg76
g187
sg69
(lp194
S'None'
p195
asbasbasbag62
(g78
g64
NtRp196
(dp197
g67
(dp198
sg76
g72
sg69
(lp199
g62
(g83
g64
NtRp200
(dp201
g67
(dp202
g87
g88
ssg76
g196
sg69
(lp203
S'client'
p204
asbag62
(g83
g64
NtRp205
(dp206
g67
(dp207
g94
g95
ssg76
g196
sg69
(lp208
S':'
asbag62
(g83
g64
NtRp209
(dp210
g67
(dp211
sg76
g196
sg69
(lp212
g62
(g63
g64
NtRp213
(dp214
g67
(dp215
g75
I5
ssg76
g209
sg69
(lp216
S'127.0.0.1'
p217
asbasbasbag62
(g78
g64
NtRp218
(dp219
g67
(dp220
sg76
g72
sg69
(lp221
g62
(g83
g64
NtRp222
(dp223
g67
(dp224
g87
g88
ssg76
g218
sg69
(lp225
S'controller'
p226
asbag62
(g83
g64
NtRp227
(dp228
g67
(dp229
g94
g95
ssg76
g218
sg69
(lp230
S':'
asbag62
(g83
g64
NtRp231
(dp232
g67
(dp233
sg76
g218
sg69
(lp234
g62
(g63
g64
NtRp235
(dp236
g67
(dp237
g75
I5
ssg76
g231
sg69
(lp238
S'default'
p239
asbasbasbag62
(g78
g64
NtRp240
(dp241
g67
(dp242
sg76
g72
sg69
(lp243
g62
(g83
g64
NtRp244
(dp245
g67
(dp246
g87
g88
ssg76
g240
sg69
(lp247
S'cookies'
p248
asbag62
(g83
g64
NtRp249
(dp250
g67
(dp251
g94
g95
ssg76
g240
sg69
(lp252
S':'
asbag62
(g83
g64
NtRp253
(dp254
g67
(dp255
sg76
g240
sg69
(lp256
g62
(g63
g64
NtRp257
(dp258
g67
(dp259
g75
I5
ssg76
g253
sg69
(lp260
g62
(g71
g64
NtRp261
(dp262
g67
(dp263
g75
I4
ssg76
Nsg69
(lp264
g62
(g78
g64
NtRp265
(dp266
g67
(dp267
sg76
g261
sg69
(lp268
g62
(g83
g64
NtRp269
(dp270
g67
(dp271
g87
g88
ssg76
g265
sg69
(lp272
S'session_id_admin'
p273
asbag62
(g83
g64
NtRp274
(dp275
g67
(dp276
g94
g95
ssg76
g265
sg69
(lp277
S':'
asbag62
(g83
g64
NtRp278
(dp279
g67
(dp280
sg76
g265
sg69
(lp281
g62
(g63
g64
NtRp282
(dp283
g67
(dp284
g75
I4
ssg76
g278
sg69
(lp285
S'127.0.0.1-f3fe51ef-2e78-4a11-bcfb-61cfce0db185'
p286
ag62
(g71
g64
NtRp287
(dp288
g67
(dp289
g75
I3
ssg76
Nsg69
(lp290
g62
(g78
g64
NtRp291
(dp292
g67
(dp293
sg76
g287
sg69
(lp294
g62
(g83
g64
NtRp295
(dp296
g67
(dp297
g87
g88
ssg76
g291
sg69
(lp298
S'comment'
p299
asbag62
(g83
g64
NtRp300
(dp301
g67
(dp302
g94
g95
ssg76
g291
sg69
(lp303
S':'
asbag62
(g83
g64
NtRp304
(dp305
g67
(dp306
sg76
g291
sg69
(lp307
g62
(g63
g64
NtRp308
(dp309
g67
(dp310
g75
I3
ssg76
g304
sg69
(lp311
S''
asbasbasbag62
(g78
g64
NtRp312
(dp313
g67
(dp314
sg76
g287
sg69
(lp315
g62
(g83
g64
NtRp316
(dp317
g67
(dp318
g87
g88
ssg76
g312
sg69
(lp319
S'domain'
p320
asbag62
(g83
g64
NtRp321
(dp322
g67
(dp323
g94
g95
ssg76
g312
sg69
(lp324
S':'
asbag62
(g83
g64
NtRp325
(dp326
g67
(dp327
sg76
g312
sg69
(lp328
g62
(g63
g64
NtRp329
(dp330
g67
(dp331
g75
I3
ssg76
g325
sg69
(lp332
S''
asbasbasbag62
(g78
g64
NtRp333
(dp334
g67
(dp335
sg76
g287
sg69
(lp336
g62
(g83
g64
NtRp337
(dp338
g67
(dp339
g87
g88
ssg76
g333
sg69
(lp340
S'expires'
p341
asbag62
(g83
g64
NtRp342
(dp343
g67
(dp344
g94
g95
ssg76
g333
sg69
(lp345
S':'
asbag62
(g83
g64
NtRp346
(dp347
g67
(dp348
sg76
g333
sg69
(lp349
g62
(g63
g64
NtRp350
(dp351
g67
(dp352
g75
I3
ssg76
g346
sg69
(lp353
S''
asbasbasbag62
(g78
g64
NtRp354
(dp355
g67
(dp356
sg76
g287
sg69
(lp357
g62
(g83
g64
NtRp358
(dp359
g67
(dp360
g87
g88
ssg76
g354
sg69
(lp361
S'httponly'
p362
asbag62
(g83
g64
NtRp363
(dp364
g67
(dp365
g94
g95
ssg76
g354
sg69
(lp366
S':'
asbag62
(g83
g64
NtRp367
(dp368
g67
(dp369
sg76
g354
sg69
(lp370
g62
(g63
g64
NtRp371
(dp372
g67
(dp373
g75
I3
ssg76
g367
sg69
(lp374
S''
asbasbasbag62
(g78
g64
NtRp375
(dp376
g67
(dp377
sg76
g287
sg69
(lp378
g62
(g83
g64
NtRp379
(dp380
g67
(dp381
g87
g88
ssg76
g375
sg69
(lp382
S'max-age'
p383
asbag62
(g83
g64
NtRp384
(dp385
g67
(dp386
g94
g95
ssg76
g375
sg69
(lp387
S':'
asbag62
(g83
g64
NtRp388
(dp389
g67
(dp390
sg76
g375
sg69
(lp391
g62
(g63
g64
NtRp392
(dp393
g67
(dp394
g75
I3
ssg76
g388
sg69
(lp395
S''
asbasbasbag62
(g78
g64
NtRp396
(dp397
g67
(dp398
sg76
g287
sg69
(lp399
g62
(g83
g64
NtRp400
(dp401
g67
(dp402
g87
g88
ssg76
g396
sg69
(lp403
S'path'
p404
asbag62
(g83
g64
NtRp405
(dp406
g67
(dp407
g94
g95
ssg76
g396
sg69
(lp408
S':'
asbag62
(g83
g64
NtRp409
(dp410
g67
(dp411
sg76
g396
sg69
(lp412
g62
(g63
g64
NtRp413
(dp414
g67
(dp415
g75
I3
ssg76
g409
sg69
(lp416
S''
asbasbasbag62
(g78
g64
NtRp417
(dp418
g67
(dp419
sg76
g287
sg69
(lp420
g62
(g83
g64
NtRp421
(dp422
g67
(dp423
g87
g88
ssg76
g417
sg69
(lp424
S'secure'
p425
asbag62
(g83
g64
NtRp426
(dp427
g67
(dp428
g94
g95
ssg76
g417
sg69
(lp429
S':'
asbag62
(g83
g64
NtRp430
(dp431
g67
(dp432
sg76
g417
sg69
(lp433
g62
(g63
g64
NtRp434
(dp435
g67
(dp436
g75
I3
ssg76
g430
sg69
(lp437
S''
asbasbasbag62
(g78
g64
NtRp438
(dp439
g67
(dp440
sg76
g287
sg69
(lp441
g62
(g83
g64
NtRp442
(dp443
g67
(dp444
g87
g88
ssg76
g438
sg69
(lp445
S'version'
p446
asbag62
(g83
g64
NtRp447
(dp448
g67
(dp449
g94
g95
ssg76
g438
sg69
(lp450
S':'
asbag62
(g83
g64
NtRp451
(dp452
g67
(dp453
sg76
g438
sg69
(lp454
g62
(g63
g64
NtRp455
(dp456
g67
(dp457
g75
I3
ssg76
g451
sg69
(lp458
S''
asbasbasbasbasbasbasbag62
(g78
g64
NtRp459
(dp460
g67
(dp461
sg76
g261
sg69
(lp462
g62
(g83
g64
NtRp463
(dp464
g67
(dp465
g87
g88
ssg76
g459
sg69
(lp466
S'session_id_web2py_xlchart_dashboard'
p467
asbag62
(g83
g64
NtRp468
(dp469
g67
(dp470
g94
g95
ssg76
g459
sg69
(lp471
S':'
asbag62
(g83
g64
NtRp472
(dp473
g67
(dp474
sg76
g459
sg69
(lp475
g62
(g63
g64
NtRp476
(dp477
g67
(dp478
g75
I4
ssg76
g472
sg69
(lp479
S'127.0.0.1-851de123-2aae-44f2-a4e6-d452472772cf'
p480
ag62
(g71
g64
NtRp481
(dp482
g67
(dp483
g75
I3
ssg76
Nsg69
(lp484
g62
(g78
g64
NtRp485
(dp486
g67
(dp487
sg76
g481
sg69
(lp488
g62
(g83
g64
NtRp489
(dp490
g67
(dp491
g87
g88
ssg76
g485
sg69
(lp492
g299
asbag62
(g83
g64
NtRp493
(dp494
g67
(dp495
g94
g95
ssg76
g485
sg69
(lp496
S':'
asbag62
(g83
g64
NtRp497
(dp498
g67
(dp499
sg76
g485
sg69
(lp500
g62
(g63
g64
NtRp501
(dp502
g67
(dp503
g75
I3
ssg76
g497
sg69
(lp504
S''
asbasbasbag62
(g78
g64
NtRp505
(dp506
g67
(dp507
sg76
g481
sg69
(lp508
g62
(g83
g64
NtRp509
(dp510
g67
(dp511
g87
g88
ssg76
g505
sg69
(lp512
g320
asbag62
(g83
g64
NtRp513
(dp514
g67
(dp515
g94
g95
ssg76
g505
sg69
(lp516
S':'
asbag62
(g83
g64
NtRp517
(dp518
g67
(dp519
sg76
g505
sg69
(lp520
g62
(g63
g64
NtRp521
(dp522
g67
(dp523
g75
I3
ssg76
g517
sg69
(lp524
S''
asbasbasbag62
(g78
g64
NtRp525
(dp526
g67
(dp527
sg76
g481
sg69
(lp528
g62
(g83
g64
NtRp529
(dp530
g67
(dp531
g87
g88
ssg76
g525
sg69
(lp532
g341
asbag62
(g83
g64
NtRp533
(dp534
g67
(dp535
g94
g95
ssg76
g525
sg69
(lp536
S':'
asbag62
(g83
g64
NtRp537
(dp538
g67
(dp539
sg76
g525
sg69
(lp540
g62
(g63
g64
NtRp541
(dp542
g67
(dp543
g75
I3
ssg76
g537
sg69
(lp544
S''
asbasbasbag62
(g78
g64
NtRp545
(dp546
g67
(dp547
sg76
g481
sg69
(lp548
g62
(g83
g64
NtRp549
(dp550
g67
(dp551
g87
g88
ssg76
g545
sg69
(lp552
g362
asbag62
(g83
g64
NtRp553
(dp554
g67
(dp555
g94
g95
ssg76
g545
sg69
(lp556
S':'
asbag62
(g83
g64
NtRp557
(dp558
g67
(dp559
sg76
g545
sg69
(lp560
g62
(g63
g64
NtRp561
(dp562
g67
(dp563
g75
I3
ssg76
g557
sg69
(lp564
S''
asbasbasbag62
(g78
g64
NtRp565
(dp566
g67
(dp567
sg76
g481
sg69
(lp568
g62
(g83
g64
NtRp569
(dp570
g67
(dp571
g87
g88
ssg76
g565
sg69
(lp572
g383
asbag62
(g83
g64
NtRp573
(dp574
g67
(dp575
g94
g95
ssg76
g565
sg69
(lp576
S':'
asbag62
(g83
g64
NtRp577
(dp578
g67
(dp579
sg76
g565
sg69
(lp580
g62
(g63
g64
NtRp581
(dp582
g67
(dp583
g75
I3
ssg76
g577
sg69
(lp584
S''
asbasbasbag62
(g78
g64
NtRp585
(dp586
g67
(dp587
sg76
g481
sg69
(lp588
g62
(g83
g64
NtRp589
(dp590
g67
(dp591
g87
g88
ssg76
g585
sg69
(lp592
g404
asbag62
(g83
g64
NtRp593
(dp594
g67
(dp595
g94
g95
ssg76
g585
sg69
(lp596
S':'
asbag62
(g83
g64
NtRp597
(dp598
g67
(dp599
sg76
g585
sg69
(lp600
g62
(g63
g64
NtRp601
(dp602
g67
(dp603
g75
I3
ssg76
g597
sg69
(lp604
S''
asbasbasbag62
(g78
g64
NtRp605
(dp606
g67
(dp607
sg76
g481
sg69
(lp608
g62
(g83
g64
NtRp609
(dp610
g67
(dp611
g87
g88
ssg76
g605
sg69
(lp612
g425
asbag62
(g83
g64
NtRp613
(dp614
g67
(dp615
g94
g95
ssg76
g605
sg69
(lp616
S':'
asbag62
(g83
g64
NtRp617
(dp618
g67
(dp619
sg76
g605
sg69
(lp620
g62
(g63
g64
NtRp621
(dp622
g67
(dp623
g75
I3
ssg76
g617
sg69
(lp624
S''
asbasbasbag62
(g78
g64
NtRp625
(dp626
g67
(dp627
sg76
g481
sg69
(lp628
g62
(g83
g64
NtRp629
(dp630
g67
(dp631
g87
g88
ssg76
g625
sg69
(lp632
g446
asbag62
(g83
g64
NtRp633
(dp634
g67
(dp635
g94
g95
ssg76
g625
sg69
(lp636
S':'
asbag62
(g83
g64
NtRp637
(dp638
g67
(dp639
sg76
g625
sg69
(lp640
g62
(g63
g64
NtRp641
(dp642
g67
(dp643
g75
I3
ssg76
g637
sg69
(lp644
S''
asbasbasbasbasbasbasbasbasbasbasbag62
(g78
g64
NtRp645
(dp646
g67
(dp647
sg76
g72
sg69
(lp648
g62
(g83
g64
NtRp649
(dp650
g67
(dp651
g87
g88
ssg76
g645
sg69
(lp652
S'env'
p653
asbag62
(g83
g64
NtRp654
(dp655
g67
(dp656
g94
g95
ssg76
g645
sg69
(lp657
S':'
asbag62
(g83
g64
NtRp658
(dp659
g67
(dp660
sg76
g645
sg69
(lp661
g62
(g63
g64
NtRp662
(dp663
g67
(dp664
g75
I5
ssg76
g658
sg69
(lp665
g62
(g71
g64
NtRp666
(dp667
g67
(dp668
g75
I4
ssg76
Nsg69
(lp669
g62
(g78
g64
NtRp670
(dp671
g67
(dp672
sg76
g666
sg69
(lp673
g62
(g83
g64
NtRp674
(dp675
g67
(dp676
g87
g88
ssg76
g670
sg69
(lp677
S'app_folders'
p678
asbag62
(g83
g64
NtRp679
(dp680
g67
(dp681
g94
g95
ssg76
g670
sg69
(lp682
S':'
asbag62
(g83
g64
NtRp683
(dp684
g67
(dp685
sg76
g670
sg69
(lp686
g62
(g63
g64
NtRp687
(dp688
g67
(dp689
g75
I4
ssg76
g683
sg69
(lp690
S"set(['D:\\\\web2py\\\\source\\\\web2py\\\\applications\\\\admin\\\\', 'D:\\\\web2py\\\\source\\\\web2py\\\\applications\\\\welcome\\\\', 'D:\\\\web2py\\\\source\\\\web2py\\\\applications\\\\web2py_xlchart_dashboard\\\\'])"
p691
asbasbasbag62
(g78
g64
NtRp692
(dp693
g67
(dp694
sg76
g666
sg69
(lp695
g62
(g83
g64
NtRp696
(dp697
g67
(dp698
g87
g88
ssg76
g692
sg69
(lp699
S'applications_parent'
p700
asbag62
(g83
g64
NtRp701
(dp702
g67
(dp703
g94
g95
ssg76
g692
sg69
(lp704
S':'
asbag62
(g83
g64
NtRp705
(dp706
g67
(dp707
sg76
g692
sg69
(lp708
g62
(g63
g64
NtRp709
(dp710
g67
(dp711
g75
I4
ssg76
g705
sg69
(lp712
S'D:\\web2py\\source\\web2py'
p713
asbasbasbag62
(g78
g64
NtRp714
(dp715
g67
(dp716
sg76
g666
sg69
(lp717
g62
(g83
g64
NtRp718
(dp719
g67
(dp720
g87
g88
ssg76
g714
sg69
(lp721
S'cmd_args'
p722
asbag62
(g83
g64
NtRp723
(dp724
g67
(dp725
g94
g95
ssg76
g714
sg69
(lp726
S':'
asbag62
(g83
g64
NtRp727
(dp728
g67
(dp729
sg76
g714
sg69
(lp730
g62
(g63
g64
NtRp731
(dp732
g67
(dp733
g75
I4
ssg76
g727
sg69
(lp734
g62
(g71
g64
NtRp735
(dp736
g67
(dp737
g75
I3
ssg76
Nsg69
(lp738
sbasbasbasbag62
(g78
g64
NtRp739
(dp740
g67
(dp741
sg76
g666
sg69
(lp742
g62
(g83
g64
NtRp743
(dp744
g67
(dp745
g87
g88
ssg76
g739
sg69
(lp746
S'cmd_options'
p747
asbag62
(g83
g64
NtRp748
(dp749
g67
(dp750
g94
g95
ssg76
g739
sg69
(lp751
S':'
asbag62
(g83
g64
NtRp752
(dp753
g67
(dp754
sg76
g739
sg69
(lp755
g62
(g63
g64
NtRp756
(dp757
g67
(dp758
g75
I4
ssg76
g752
sg69
(lp759
S"<Values at 0xc78f58: {'verbose': False, 'ip': '127.0.0.1', 'with_scheduler': False, 'ips': ['192.168.0.14'], 'shutdown_timeout': 5, 'taskbar': False, 'port': 8000, 'maxthreads': None, 'softcron': False, 'server_name': 'GLKLAG235327', 'bpython': False, 'nogui': False, 'pid_filename': 'httpserver.pid', 'extcron': False, 'runcron': False, 'run_system_tests': False, 'test': None, 'folder': 'D:\\\\web2py\\\\source\\\\web2py', 'config': '', 'import_models': False, 'winservice': '', 'shell': None, 'run': '', 'log_filename': 'httpserver.log', 'debuglevel': 30, 'args': [''], 'socket_timeout': 5, 'ssl_ca_certificate': None, 'scheduler': None, 'profiler_filename': None, 'ssl_private_key': '', 'scheduler_groups': None, 'password': '<ask>', 'request_queue_size': 5, 'ssl_certificate': '', 'cronjob': False, 'numthreads': None, 'quiet': False, 'interfaces': None, 'minthreads': None, 'timeout': 10, 'plain': False, 'nobanner': False}>"
p760
asbasbasbag62
(g78
g64
NtRp761
(dp762
g67
(dp763
sg76
g666
sg69
(lp764
g62
(g83
g64
NtRp765
(dp766
g67
(dp767
g87
g88
ssg76
g761
sg69
(lp768
S'content_length'
p769
asbag62
(g83
g64
NtRp770
(dp771
g67
(dp772
g94
g95
ssg76
g761
sg69
(lp773
S':'
asbag62
(g83
g64
NtRp774
(dp775
g67
(dp776
sg76
g761
sg69
(lp777
g62
(g63
g64
NtRp778
(dp779
g67
(dp780
g75
I4
ssg76
g774
sg69
(lp781
S'0'
asbasbasbag62
(g78
g64
NtRp782
(dp783
g67
(dp784
sg76
g666
sg69
(lp785
g62
(g83
g64
NtRp786
(dp787
g67
(dp788
g87
g88
ssg76
g782
sg69
(lp789
S'db_sessions'
p790
asbag62
(g83
g64
NtRp791
(dp792
g67
(dp793
g94
g95
ssg76
g782
sg69
(lp794
S':'
asbag62
(g83
g64
NtRp795
(dp796
g67
(dp797
sg76
g782
sg69
(lp798
g62
(g63
g64
NtRp799
(dp800
g67
(dp801
g75
I4
ssg76
g795
sg69
(lp802
S'set([])'
p803
asbasbasbag62
(g78
g64
NtRp804
(dp805
g67
(dp806
sg76
g666
sg69
(lp807
g62
(g83
g64
NtRp808
(dp809
g67
(dp810
g87
g88
ssg76
g804
sg69
(lp811
S'debugging'
p812
asbag62
(g83
g64
NtRp813
(dp814
g67
(dp815
g94
g95
ssg76
g804
sg69
(lp816
S':'
asbag62
(g83
g64
NtRp817
(dp818
g67
(dp819
sg76
g804
sg69
(lp820
g62
(g63
g64
NtRp821
(dp822
g67
(dp823
g75
I4
ssg76
g817
sg69
(lp824
S'False'
p825
asbasbasbag62
(g78
g64
NtRp826
(dp827
g67
(dp828
sg76
g666
sg69
(lp829
g62
(g83
g64
NtRp830
(dp831
g67
(dp832
g87
g88
ssg76
g826
sg69
(lp833
S'gluon_parent'
p834
asbag62
(g83
g64
NtRp835
(dp836
g67
(dp837
g94
g95
ssg76
g826
sg69
(lp838
S':'
asbag62
(g83
g64
NtRp839
(dp840
g67
(dp841
sg76
g826
sg69
(lp842
g62
(g63
g64
NtRp843
(dp844
g67
(dp845
g75
I4
ssg76
g839
sg69
(lp846
S'D:\\web2py\\source\\web2py'
p847
asbasbasbag62
(g78
g64
NtRp848
(dp849
g67
(dp850
sg76
g666
sg69
(lp851
g62
(g83
g64
NtRp852
(dp853
g67
(dp854
g87
g88
ssg76
g848
sg69
(lp855
S'http_accept'
p856
asbag62
(g83
g64
NtRp857
(dp858
g67
(dp859
g94
g95
ssg76
g848
sg69
(lp860
S':'
asbag62
(g83
g64
NtRp861
(dp862
g67
(dp863
sg76
g848
sg69
(lp864
g62
(g63
g64
NtRp865
(dp866
g67
(dp867
g75
I4
ssg76
g861
sg69
(lp868
S'*/*'
p869
asbasbasbag62
(g78
g64
NtRp870
(dp871
g67
(dp872
sg76
g666
sg69
(lp873
g62
(g83
g64
NtRp874
(dp875
g67
(dp876
g87
g88
ssg76
g870
sg69
(lp877
S'http_accept_encoding'
p878
asbag62
(g83
g64
NtRp879
(dp880
g67
(dp881
g94
g95
ssg76
g870
sg69
(lp882
S':'
asbag62
(g83
g64
NtRp883
(dp884
g67
(dp885
sg76
g870
sg69
(lp886
g62
(g63
g64
NtRp887
(dp888
g67
(dp889
g75
I4
ssg76
g883
sg69
(lp890
S'gzip, deflate'
p891
asbasbasbag62
(g78
g64
NtRp892
(dp893
g67
(dp894
sg76
g666
sg69
(lp895
g62
(g83
g64
NtRp896
(dp897
g67
(dp898
g87
g88
ssg76
g892
sg69
(lp899
S'http_accept_language'
p900
asbag62
(g83
g64
NtRp901
(dp902
g67
(dp903
g94
g95
ssg76
g892
sg69
(lp904
S':'
asbag62
(g83
g64
NtRp905
(dp906
g67
(dp907
sg76
g892
sg69
(lp908
g62
(g63
g64
NtRp909
(dp910
g67
(dp911
g75
I4
ssg76
g905
sg69
(lp912
S'en-gb'
p913
asbasbasbag62
(g78
g64
NtRp914
(dp915
g67
(dp916
sg76
g666
sg69
(lp917
g62
(g83
g64
NtRp918
(dp919
g67
(dp920
g87
g88
ssg76
g914
sg69
(lp921
S'http_cache_control'
p922
asbag62
(g83
g64
NtRp923
(dp924
g67
(dp925
g94
g95
ssg76
g914
sg69
(lp926
S':'
asbag62
(g83
g64
NtRp927
(dp928
g67
(dp929
sg76
g914
sg69
(lp930
g62
(g63
g64
NtRp931
(dp932
g67
(dp933
g75
I4
ssg76
g927
sg69
(lp934
S'no-cache'
p935
asbasbasbag62
(g78
g64
NtRp936
(dp937
g67
(dp938
sg76
g666
sg69
(lp939
g62
(g83
g64
NtRp940
(dp941
g67
(dp942
g87
g88
ssg76
g936
sg69
(lp943
S'http_connection'
p944
asbag62
(g83
g64
NtRp945
(dp946
g67
(dp947
g94
g95
ssg76
g936
sg69
(lp948
S':'
asbag62
(g83
g64
NtRp949
(dp950
g67
(dp951
sg76
g936
sg69
(lp952
g62
(g63
g64
NtRp953
(dp954
g67
(dp955
g75
I4
ssg76
g949
sg69
(lp956
S'Keep-Alive'
p957
asbasbasbag62
(g78
g64
NtRp958
(dp959
g67
(dp960
sg76
g666
sg69
(lp961
g62
(g83
g64
NtRp962
(dp963
g67
(dp964
g87
g88
ssg76
g958
sg69
(lp965
S'http_content_length'
p966
asbag62
(g83
g64
NtRp967
(dp968
g67
(dp969
g94
g95
ssg76
g958
sg69
(lp970
S':'
asbag62
(g83
g64
NtRp971
(dp972
g67
(dp973
sg76
g958
sg69
(lp974
g62
(g63
g64
NtRp975
(dp976
g67
(dp977
g75
I4
ssg76
g971
sg69
(lp978
S'0'
asbasbasbag62
(g78
g64
NtRp979
(dp980
g67
(dp981
sg76
g666
sg69
(lp982
g62
(g83
g64
NtRp983
(dp984
g67
(dp985
g87
g88
ssg76
g979
sg69
(lp986
S'http_cookie'
p987
asbag62
(g83
g64
NtRp988
(dp989
g67
(dp990
g94
g95
ssg76
g979
sg69
(lp991
S':'
asbag62
(g83
g64
NtRp992
(dp993
g67
(dp994
sg76
g979
sg69
(lp995
g62
(g63
g64
NtRp996
(dp997
g67
(dp998
g75
I4
ssg76
g992
sg69
(lp999
S'session_id_admin=127.0.0.1-f3fe51ef-2e78-4a11-bcfb-61cfce0db185; session_id_web2py_xlchart_dashboard=127.0.0.1-851de123-2aae-44f2-a4e6-d452472772cf'
p1000
asbasbasbag62
(g78
g64
NtRp1001
(dp1002
g67
(dp1003
sg76
g666
sg69
(lp1004
g62
(g83
g64
NtRp1005
(dp1006
g67
(dp1007
g87
g88
ssg76
g1001
sg69
(lp1008
S'http_host'
p1009
asbag62
(g83
g64
NtRp1010
(dp1011
g67
(dp1012
g94
g95
ssg76
g1001
sg69
(lp1013
S':'
asbag62
(g83
g64
NtRp1014
(dp1015
g67
(dp1016
sg76
g1001
sg69
(lp1017
g62
(g63
g64
NtRp1018
(dp1019
g67
(dp1020
g75
I4
ssg76
g1014
sg69
(lp1021
S'127.0.0.1:8000'
p1022
asbasbasbag62
(g78
g64
NtRp1023
(dp1024
g67
(dp1025
sg76
g666
sg69
(lp1026
g62
(g83
g64
NtRp1027
(dp1028
g67
(dp1029
g87
g88
ssg76
g1023
sg69
(lp1030
S'http_referer'
p1031
asbag62
(g83
g64
NtRp1032
(dp1033
g67
(dp1034
g94
g95
ssg76
g1023
sg69
(lp1035
S':'
asbag62
(g83
g64
NtRp1036
(dp1037
g67
(dp1038
sg76
g1023
sg69
(lp1039
g62
(g63
g64
NtRp1040
(dp1041
g67
(dp1042
g75
I4
ssg76
g1036
sg69
(lp1043
S'http://127.0.0.1:8000/web2py_xlchart_dashboard/default/list_workbook_charts?wbid=4'
p1044
asbasbasbag62
(g78
g64
NtRp1045
(dp1046
g67
(dp1047
sg76
g666
sg69
(lp1048
g62
(g83
g64
NtRp1049
(dp1050
g67
(dp1051
g87
g88
ssg76
g1045
sg69
(lp1052
S'http_user_agent'
p1053
asbag62
(g83
g64
NtRp1054
(dp1055
g67
(dp1056
g94
g95
ssg76
g1045
sg69
(lp1057
S':'
asbag62
(g83
g64
NtRp1058
(dp1059
g67
(dp1060
sg76
g1045
sg69
(lp1061
g62
(g63
g64
NtRp1062
(dp1063
g67
(dp1064
g75
I4
ssg76
g1058
sg69
(lp1065
S'Mozilla/4.0 (compatible; MSIE 8.0; Windows NT 5.1; Trident/4.0; .NET CLR 1.1.4322; .NET CLR 2.0.50727; .NET CLR 3.0.4506.2152; .NET CLR 3.5.30729; .NET4.0C; .NET4.0E; InfoPath.3)'
p1066
asbasbasbag62
(g78
g64
NtRp1067
(dp1068
g67
(dp1069
sg76
g666
sg69
(lp1070
g62
(g83
g64
NtRp1071
(dp1072
g67
(dp1073
g87
g88
ssg76
g1067
sg69
(lp1074
S'http_x_requested_with'
p1075
asbag62
(g83
g64
NtRp1076
(dp1077
g67
(dp1078
g94
g95
ssg76
g1067
sg69
(lp1079
S':'
asbag62
(g83
g64
NtRp1080
(dp1081
g67
(dp1082
sg76
g1067
sg69
(lp1083
g62
(g63
g64
NtRp1084
(dp1085
g67
(dp1086
g75
I4
ssg76
g1080
sg69
(lp1087
S'XMLHttpRequest'
p1088
asbasbasbag62
(g78
g64
NtRp1089
(dp1090
g67
(dp1091
sg76
g666
sg69
(lp1092
g62
(g83
g64
NtRp1093
(dp1094
g67
(dp1095
g87
g88
ssg76
g1089
sg69
(lp1096
S'is_jython'
p1097
asbag62
(g83
g64
NtRp1098
(dp1099
g67
(dp1100
g94
g95
ssg76
g1089
sg69
(lp1101
S':'
asbag62
(g83
g64
NtRp1102
(dp1103
g67
(dp1104
sg76
g1089
sg69
(lp1105
g62
(g63
g64
NtRp1106
(dp1107
g67
(dp1108
g75
I4
ssg76
g1102
sg69
(lp1109
g825
asbasbasbag62
(g78
g64
NtRp1110
(dp1111
g67
(dp1112
sg76
g666
sg69
(lp1113
g62
(g83
g64
NtRp1114
(dp1115
g67
(dp1116
g87
g88
ssg76
g1110
sg69
(lp1117
S'is_pypy'
p1118
asbag62
(g83
g64
NtRp1119
(dp1120
g67
(dp1121
g94
g95
ssg76
g1110
sg69
(lp1122
S':'
asbag62
(g83
g64
NtRp1123
(dp1124
g67
(dp1125
sg76
g1110
sg69
(lp1126
g62
(g63
g64
NtRp1127
(dp1128
g67
(dp1129
g75
I4
ssg76
g1123
sg69
(lp1130
g825
asbasbasbag62
(g78
g64
NtRp1131
(dp1132
g67
(dp1133
sg76
g666
sg69
(lp1134
g62
(g83
g64
NtRp1135
(dp1136
g67
(dp1137
g87
g88
ssg76
g1131
sg69
(lp1138
S'local_hosts'
p1139
asbag62
(g83
g64
NtRp1140
(dp1141
g67
(dp1142
g94
g95
ssg76
g1131
sg69
(lp1143
S':'
asbag62
(g83
g64
NtRp1144
(dp1145
g67
(dp1146
sg76
g1131
sg69
(lp1147
g62
(g63
g64
NtRp1148
(dp1149
g67
(dp1150
g75
I4
ssg76
g1144
sg69
(lp1151
g62
(g71
g64
NtRp1152
(dp1153
g67
(dp1154
g75
I3
ssg76
Nsg69
(lp1155
g62
(g78
g64
NtRp1156
(dp1157
g67
(dp1158
sg76
g1152
sg69
(lp1159
g62
(g83
g64
NtRp1160
(dp1161
g67
(dp1162
sg76
g1156
sg69
(lp1163
g62
(g63
g64
NtRp1164
(dp1165
g67
(dp1166
g75
I3
ssg76
g1160
sg69
(lp1167
S'127.0.0.1'
p1168
asbasbasbag62
(g78
g64
NtRp1169
(dp1170
g67
(dp1171
sg76
g1152
sg69
(lp1172
g62
(g83
g64
NtRp1173
(dp1174
g67
(dp1175
sg76
g1169
sg69
(lp1176
g62
(g63
g64
NtRp1177
(dp1178
g67
(dp1179
g75
I3
ssg76
g1173
sg69
(lp1180
S'::ffff:127.0.0.1'
p1181
asbasbasbag62
(g78
g64
NtRp1182
(dp1183
g67
(dp1184
sg76
g1152
sg69
(lp1185
g62
(g83
g64
NtRp1186
(dp1187
g67
(dp1188
sg76
g1182
sg69
(lp1189
g62
(g63
g64
NtRp1190
(dp1191
g67
(dp1192
g75
I3
ssg76
g1186
sg69
(lp1193
S'GLKLAG235327'
p1194
asbasbasbag62
(g78
g64
NtRp1195
(dp1196
g67
(dp1197
sg76
g1152
sg69
(lp1198
g62
(g83
g64
NtRp1199
(dp1200
g67
(dp1201
sg76
g1195
sg69
(lp1202
g62
(g63
g64
NtRp1203
(dp1204
g67
(dp1205
g75
I3
ssg76
g1199
sg69
(lp1206
S'GLKLAG235327'
p1207
asbasbasbag62
(g78
g64
NtRp1208
(dp1209
g67
(dp1210
sg76
g1152
sg69
(lp1211
g62
(g83
g64
NtRp1212
(dp1213
g67
(dp1214
sg76
g1208
sg69
(lp1215
g62
(g63
g64
NtRp1216
(dp1217
g67
(dp1218
g75
I3
ssg76
g1212
sg69
(lp1219
S'192.168.0.14'
p1220
asbasbasbasbasbasbasbag62
(g78
g64
NtRp1221
(dp1222
g67
(dp1223
sg76
g666
sg69
(lp1224
g62
(g83
g64
NtRp1225
(dp1226
g67
(dp1227
g87
g88
ssg76
g1221
sg69
(lp1228
S'path_info'
p1229
asbag62
(g83
g64
NtRp1230
(dp1231
g67
(dp1232
g94
g95
ssg76
g1221
sg69
(lp1233
S':'
asbag62
(g83
g64
NtRp1234
(dp1235
g67
(dp1236
sg76
g1221
sg69
(lp1237
g62
(g63
g64
NtRp1238
(dp1239
g67
(dp1240
g75
I4
ssg76
g1234
sg69
(lp1241
S'/web2py_xlchart_dashboard/default/registerchart'
p1242
asbasbasbag62
(g78
g64
NtRp1243
(dp1244
g67
(dp1245
sg76
g666
sg69
(lp1246
g62
(g83
g64
NtRp1247
(dp1248
g67
(dp1249
g87
g88
ssg76
g1243
sg69
(lp1250
S'query_string'
p1251
asbag62
(g83
g64
NtRp1252
(dp1253
g67
(dp1254
g94
g95
ssg76
g1243
sg69
(lp1255
S':'
asbag62
(g83
g64
NtRp1256
(dp1257
g67
(dp1258
sg76
g1243
sg69
(lp1259
g62
(g63
g64
NtRp1260
(dp1261
g67
(dp1262
g75
I4
ssg76
g1256
sg69
(lp1263
S'chartname=pyxl1352146819.36&imagename=2-Sheet_2-XLChart_pyxl1352146819.36.jpg&sheetname=Sheet+2&wbid=4&webfolder=static%2Fimages%2Ftemp%2F1352227408.88'
p1264
asbasbasbag62
(g78
g64
NtRp1265
(dp1266
g67
(dp1267
sg76
g666
sg69
(lp1268
g62
(g83
g64
NtRp1269
(dp1270
g67
(dp1271
g87
g88
ssg76
g1265
sg69
(lp1272
S'remote_addr'
p1273
asbag62
(g83
g64
NtRp1274
(dp1275
g67
(dp1276
g94
g95
ssg76
g1265
sg69
(lp1277
S':'
asbag62
(g83
g64
NtRp1278
(dp1279
g67
(dp1280
sg76
g1265
sg69
(lp1281
g62
(g63
g64
NtRp1282
(dp1283
g67
(dp1284
g75
I4
ssg76
g1278
sg69
(lp1285
g217
asbasbasbag62
(g78
g64
NtRp1286
(dp1287
g67
(dp1288
sg76
g666
sg69
(lp1289
g62
(g83
g64
NtRp1290
(dp1291
g67
(dp1292
g87
g88
ssg76
g1286
sg69
(lp1293
S'remote_port'
p1294
asbag62
(g83
g64
NtRp1295
(dp1296
g67
(dp1297
g94
g95
ssg76
g1286
sg69
(lp1298
S':'
asbag62
(g83
g64
NtRp1299
(dp1300
g67
(dp1301
sg76
g1286
sg69
(lp1302
g62
(g63
g64
NtRp1303
(dp1304
g67
(dp1305
g75
I4
ssg76
g1299
sg69
(lp1306
S'1387'
p1307
asbasbasbag62
(g78
g64
NtRp1308
(dp1309
g67
(dp1310
sg76
g666
sg69
(lp1311
g62
(g83
g64
NtRp1312
(dp1313
g67
(dp1314
g87
g88
ssg76
g1308
sg69
(lp1315
S'request_method'
p1316
asbag62
(g83
g64
NtRp1317
(dp1318
g67
(dp1319
g94
g95
ssg76
g1308
sg69
(lp1320
S':'
asbag62
(g83
g64
NtRp1321
(dp1322
g67
(dp1323
sg76
g1308
sg69
(lp1324
g62
(g63
g64
NtRp1325
(dp1326
g67
(dp1327
g75
I4
ssg76
g1321
sg69
(lp1328
S'POST'
p1329
asbasbasbag62
(g78
g64
NtRp1330
(dp1331
g67
(dp1332
sg76
g666
sg69
(lp1333
g62
(g83
g64
NtRp1334
(dp1335
g67
(dp1336
g87
g88
ssg76
g1330
sg69
(lp1337
S'request_uri'
p1338
asbag62
(g83
g64
NtRp1339
(dp1340
g67
(dp1341
g94
g95
ssg76
g1330
sg69
(lp1342
S':'
asbag62
(g83
g64
NtRp1343
(dp1344
g67
(dp1345
sg76
g1330
sg69
(lp1346
g62
(g63
g64
NtRp1347
(dp1348
g67
(dp1349
g75
I4
ssg76
g1343
sg69
(lp1350
S'/web2py_xlchart_dashboard/default/registerchart?chartname=pyxl1352146819.36&imagename=2-Sheet_2-XLChart_pyxl1352146819.36.jpg&sheetname=Sheet+2&wbid=4&webfolder=static%2Fimages%2Ftemp%2F1352227408.88'
p1351
asbasbasbag62
(g78
g64
NtRp1352
(dp1353
g67
(dp1354
sg76
g666
sg69
(lp1355
g62
(g83
g64
NtRp1356
(dp1357
g67
(dp1358
g87
g88
ssg76
g1352
sg69
(lp1359
S'script_name'
p1360
asbag62
(g83
g64
NtRp1361
(dp1362
g67
(dp1363
g94
g95
ssg76
g1352
sg69
(lp1364
S':'
asbag62
(g83
g64
NtRp1365
(dp1366
g67
(dp1367
sg76
g1352
sg69
(lp1368
g62
(g63
g64
NtRp1369
(dp1370
g67
(dp1371
g75
I4
ssg76
g1365
sg69
(lp1372
S''
asbasbasbag62
(g78
g64
NtRp1373
(dp1374
g67
(dp1375
sg76
g666
sg69
(lp1376
g62
(g83
g64
NtRp1377
(dp1378
g67
(dp1379
g87
g88
ssg76
g1373
sg69
(lp1380
S'server_name'
p1381
asbag62
(g83
g64
NtRp1382
(dp1383
g67
(dp1384
g94
g95
ssg76
g1373
sg69
(lp1385
S':'
asbag62
(g83
g64
NtRp1386
(dp1387
g67
(dp1388
sg76
g1373
sg69
(lp1389
g62
(g63
g64
NtRp1390
(dp1391
g67
(dp1392
g75
I4
ssg76
g1386
sg69
(lp1393
g1207
asbasbasbag62
(g78
g64
NtRp1394
(dp1395
g67
(dp1396
sg76
g666
sg69
(lp1397
g62
(g83
g64
NtRp1398
(dp1399
g67
(dp1400
g87
g88
ssg76
g1394
sg69
(lp1401
S'server_port'
p1402
asbag62
(g83
g64
NtRp1403
(dp1404
g67
(dp1405
g94
g95
ssg76
g1394
sg69
(lp1406
S':'
asbag62
(g83
g64
NtRp1407
(dp1408
g67
(dp1409
sg76
g1394
sg69
(lp1410
g62
(g63
g64
NtRp1411
(dp1412
g67
(dp1413
g75
I4
ssg76
g1407
sg69
(lp1414
S'8000'
p1415
asbasbasbag62
(g78
g64
NtRp1416
(dp1417
g67
(dp1418
sg76
g666
sg69
(lp1419
g62
(g83
g64
NtRp1420
(dp1421
g67
(dp1422
g87
g88
ssg76
g1416
sg69
(lp1423
S'server_protocol'
p1424
asbag62
(g83
g64
NtRp1425
(dp1426
g67
(dp1427
g94
g95
ssg76
g1416
sg69
(lp1428
S':'
asbag62
(g83
g64
NtRp1429
(dp1430
g67
(dp1431
sg76
g1416
sg69
(lp1432
g62
(g63
g64
NtRp1433
(dp1434
g67
(dp1435
g75
I4
ssg76
g1429
sg69
(lp1436
S'HTTP/1.1'
p1437
asbasbasbag62
(g78
g64
NtRp1438
(dp1439
g67
(dp1440
sg76
g666
sg69
(lp1441
g62
(g83
g64
NtRp1442
(dp1443
g67
(dp1444
g87
g88
ssg76
g1438
sg69
(lp1445
S'server_software'
p1446
asbag62
(g83
g64
NtRp1447
(dp1448
g67
(dp1449
g94
g95
ssg76
g1438
sg69
(lp1450
S':'
asbag62
(g83
g64
NtRp1451
(dp1452
g67
(dp1453
sg76
g1438
sg69
(lp1454
g62
(g63
g64
NtRp1455
(dp1456
g67
(dp1457
g75
I4
ssg76
g1451
sg69
(lp1458
S'Rocket 1.2.5'
p1459
asbasbasbag62
(g78
g64
NtRp1460
(dp1461
g67
(dp1462
sg76
g666
sg69
(lp1463
g62
(g83
g64
NtRp1464
(dp1465
g67
(dp1466
g87
g88
ssg76
g1460
sg69
(lp1467
S'web2py_path'
p1468
asbag62
(g83
g64
NtRp1469
(dp1470
g67
(dp1471
g94
g95
ssg76
g1460
sg69
(lp1472
S':'
asbag62
(g83
g64
NtRp1473
(dp1474
g67
(dp1475
sg76
g1460
sg69
(lp1476
g62
(g63
g64
NtRp1477
(dp1478
g67
(dp1479
g75
I4
ssg76
g1473
sg69
(lp1480
g713
asbasbasbag62
(g78
g64
NtRp1481
(dp1482
g67
(dp1483
sg76
g666
sg69
(lp1484
g62
(g83
g64
NtRp1485
(dp1486
g67
(dp1487
g87
g88
ssg76
g1481
sg69
(lp1488
S'web2py_version'
p1489
asbag62
(g83
g64
NtRp1490
(dp1491
g67
(dp1492
g94
g95
ssg76
g1481
sg69
(lp1493
S':'
asbag62
(g83
g64
NtRp1494
(dp1495
g67
(dp1496
sg76
g1481
sg69
(lp1497
g62
(g63
g64
NtRp1498
(dp1499
g67
(dp1500
g75
I4
ssg76
g1494
sg69
(lp1501
g62
(g71
g64
NtRp1502
(dp1503
g67
(dp1504
g75
I3
ssg76
Nsg69
(lp1505
g62
(g78
g64
NtRp1506
(dp1507
g67
(dp1508
sg76
g1502
sg69
(lp1509
g62
(g83
g64
NtRp1510
(dp1511
g67
(dp1512
sg76
g1506
sg69
(lp1513
g62
(g63
g64
NtRp1514
(dp1515
g67
(dp1516
g75
I3
ssg76
g1510
sg69
(lp1517
S'2'
asbasbasbag62
(g78
g64
NtRp1518
(dp1519
g67
(dp1520
sg76
g1502
sg69
(lp1521
g62
(g83
g64
NtRp1522
(dp1523
g67
(dp1524
sg76
g1518
sg69
(lp1525
g62
(g63
g64
NtRp1526
(dp1527
g67
(dp1528
g75
I3
ssg76
g1522
sg69
(lp1529
S'2'
asbasbasbag62
(g78
g64
NtRp1530
(dp1531
g67
(dp1532
sg76
g1502
sg69
(lp1533
g62
(g83
g64
NtRp1534
(dp1535
g67
(dp1536
sg76
g1530
sg69
(lp1537
g62
(g63
g64
NtRp1538
(dp1539
g67
(dp1540
g75
I3
ssg76
g1534
sg69
(lp1541
S'1'
asbasbasbag62
(g78
g64
NtRp1542
(dp1543
g67
(dp1544
sg76
g1502
sg69
(lp1545
g62
(g83
g64
NtRp1546
(dp1547
g67
(dp1548
sg76
g1542
sg69
(lp1549
g62
(g63
g64
NtRp1550
(dp1551
g67
(dp1552
g75
I3
ssg76
g1546
sg69
(lp1553
S'datetime.datetime(2012, 10, 21, 16, 57, 4)'
p1554
asbasbasbag62
(g78
g64
NtRp1555
(dp1556
g67
(dp1557
sg76
g1502
sg69
(lp1558
g62
(g83
g64
NtRp1559
(dp1560
g67
(dp1561
sg76
g1555
sg69
(lp1562
g62
(g63
g64
NtRp1563
(dp1564
g67
(dp1565
g75
I3
ssg76
g1559
sg69
(lp1566
S'stable'
p1567
asbasbasbasbasbasbasbag62
(g78
g64
NtRp1568
(dp1569
g67
(dp1570
sg76
g666
sg69
(lp1571
g62
(g83
g64
NtRp1572
(dp1573
g67
(dp1574
g87
g88
ssg76
g1568
sg69
(lp1575
S'wsgi_errors'
p1576
asbag62
(g83
g64
NtRp1577
(dp1578
g67
(dp1579
g94
g95
ssg76
g1568
sg69
(lp1580
S':'
asbag62
(g83
g64
NtRp1581
(dp1582
g67
(dp1583
sg76
g1568
sg69
(lp1584
g62
(g63
g64
NtRp1585
(dp1586
g67
(dp1587
g75
I4
ssg76
g1581
sg69
(lp1588
S"<open file '<stderr>', mode 'w' at 0x00A850D0>"
p1589
asbasbasbag62
(g78
g64
NtRp1590
(dp1591
g67
(dp1592
sg76
g666
sg69
(lp1593
g62
(g83
g64
NtRp1594
(dp1595
g67
(dp1596
g87
g88
ssg76
g1590
sg69
(lp1597
S'wsgi_file_wrapper'
p1598
asbag62
(g83
g64
NtRp1599
(dp1600
g67
(dp1601
g94
g95
ssg76
g1590
sg69
(lp1602
S':'
asbag62
(g83
g64
NtRp1603
(dp1604
g67
(dp1605
sg76
g1590
sg69
(lp1606
g62
(g63
g64
NtRp1607
(dp1608
g67
(dp1609
g75
I4
ssg76
g1603
sg69
(lp1610
S'<class wsgiref.util.FileWrapper at 0x0172EE68>'
p1611
asbasbasbag62
(g78
g64
NtRp1612
(dp1613
g67
(dp1614
sg76
g666
sg69
(lp1615
g62
(g83
g64
NtRp1616
(dp1617
g67
(dp1618
g87
g88
ssg76
g1612
sg69
(lp1619
S'wsgi_input'
p1620
asbag62
(g83
g64
NtRp1621
(dp1622
g67
(dp1623
g94
g95
ssg76
g1612
sg69
(lp1624
S':'
asbag62
(g83
g64
NtRp1625
(dp1626
g67
(dp1627
sg76
g1612
sg69
(lp1628
g62
(g63
g64
NtRp1629
(dp1630
g67
(dp1631
g75
I4
ssg76
g1625
sg69
(lp1632
S'<socket._fileobject object at 0x04DA8070>'
p1633
asbasbasbag62
(g78
g64
NtRp1634
(dp1635
g67
(dp1636
sg76
g666
sg69
(lp1637
g62
(g83
g64
NtRp1638
(dp1639
g67
(dp1640
g87
g88
ssg76
g1634
sg69
(lp1641
S'wsgi_multiprocess'
p1642
asbag62
(g83
g64
NtRp1643
(dp1644
g67
(dp1645
g94
g95
ssg76
g1634
sg69
(lp1646
S':'
asbag62
(g83
g64
NtRp1647
(dp1648
g67
(dp1649
sg76
g1634
sg69
(lp1650
g62
(g63
g64
NtRp1651
(dp1652
g67
(dp1653
g75
I4
ssg76
g1647
sg69
(lp1654
g825
asbasbasbag62
(g78
g64
NtRp1655
(dp1656
g67
(dp1657
sg76
g666
sg69
(lp1658
g62
(g83
g64
NtRp1659
(dp1660
g67
(dp1661
g87
g88
ssg76
g1655
sg69
(lp1662
S'wsgi_multithread'
p1663
asbag62
(g83
g64
NtRp1664
(dp1665
g67
(dp1666
g94
g95
ssg76
g1655
sg69
(lp1667
S':'
asbag62
(g83
g64
NtRp1668
(dp1669
g67
(dp1670
sg76
g1655
sg69
(lp1671
g62
(g63
g64
NtRp1672
(dp1673
g67
(dp1674
g75
I4
ssg76
g1668
sg69
(lp1675
g105
asbasbasbag62
(g78
g64
NtRp1676
(dp1677
g67
(dp1678
sg76
g666
sg69
(lp1679
g62
(g83
g64
NtRp1680
(dp1681
g67
(dp1682
g87
g88
ssg76
g1676
sg69
(lp1683
S'wsgi_run_once'
p1684
asbag62
(g83
g64
NtRp1685
(dp1686
g67
(dp1687
g94
g95
ssg76
g1676
sg69
(lp1688
S':'
asbag62
(g83
g64
NtRp1689
(dp1690
g67
(dp1691
sg76
g1676
sg69
(lp1692
g62
(g63
g64
NtRp1693
(dp1694
g67
(dp1695
g75
I4
ssg76
g1689
sg69
(lp1696
g825
asbasbasbag62
(g78
g64
NtRp1697
(dp1698
g67
(dp1699
sg76
g666
sg69
(lp1700
g62
(g83
g64
NtRp1701
(dp1702
g67
(dp1703
g87
g88
ssg76
g1697
sg69
(lp1704
S'wsgi_url_scheme'
p1705
asbag62
(g83
g64
NtRp1706
(dp1707
g67
(dp1708
g94
g95
ssg76
g1697
sg69
(lp1709
S':'
asbag62
(g83
g64
NtRp1710
(dp1711
g67
(dp1712
sg76
g1697
sg69
(lp1713
g62
(g63
g64
NtRp1714
(dp1715
g67
(dp1716
g75
I4
ssg76
g1710
sg69
(lp1717
S'http'
p1718
asbasbasbag62
(g78
g64
NtRp1719
(dp1720
g67
(dp1721
sg76
g666
sg69
(lp1722
g62
(g83
g64
NtRp1723
(dp1724
g67
(dp1725
g87
g88
ssg76
g1719
sg69
(lp1726
S'wsgi_version'
p1727
asbag62
(g83
g64
NtRp1728
(dp1729
g67
(dp1730
g94
g95
ssg76
g1719
sg69
(lp1731
S':'
asbag62
(g83
g64
NtRp1732
(dp1733
g67
(dp1734
sg76
g1719
sg69
(lp1735
g62
(g63
g64
NtRp1736
(dp1737
g67
(dp1738
g75
I4
ssg76
g1732
sg69
(lp1739
g62
(g71
g64
NtRp1740
(dp1741
g67
(dp1742
g75
I3
ssg76
Nsg69
(lp1743
g62
(g78
g64
NtRp1744
(dp1745
g67
(dp1746
sg76
g1740
sg69
(lp1747
g62
(g83
g64
NtRp1748
(dp1749
g67
(dp1750
sg76
g1744
sg69
(lp1751
g62
(g63
g64
NtRp1752
(dp1753
g67
(dp1754
g75
I3
ssg76
g1748
sg69
(lp1755
S'1'
asbasbasbag62
(g78
g64
NtRp1756
(dp1757
g67
(dp1758
sg76
g1740
sg69
(lp1759
g62
(g83
g64
NtRp1760
(dp1761
g67
(dp1762
sg76
g1756
sg69
(lp1763
g62
(g63
g64
NtRp1764
(dp1765
g67
(dp1766
g75
I3
ssg76
g1760
sg69
(lp1767
S'0'
asbasbasbasbasbasbasbasbasbasbasbag62
(g78
g64
NtRp1768
(dp1769
g67
(dp1770
sg76
g72
sg69
(lp1771
g62
(g83
g64
NtRp1772
(dp1773
g67
(dp1774
g87
g88
ssg76
g1768
sg69
(lp1775
S'extension'
p1776
asbag62
(g83
g64
NtRp1777
(dp1778
g67
(dp1779
g94
g95
ssg76
g1768
sg69
(lp1780
S':'
asbag62
(g83
g64
NtRp1781
(dp1782
g67
(dp1783
sg76
g1768
sg69
(lp1784
g62
(g63
g64
NtRp1785
(dp1786
g67
(dp1787
g75
I5
ssg76
g1781
sg69
(lp1788
S'html'
p1789
asbasbasbag62
(g78
g64
NtRp1790
(dp1791
g67
(dp1792
sg76
g72
sg69
(lp1793
g62
(g83
g64
NtRp1794
(dp1795
g67
(dp1796
g87
g88
ssg76
g1790
sg69
(lp1797
S'folder'
p1798
asbag62
(g83
g64
NtRp1799
(dp1800
g67
(dp1801
g94
g95
ssg76
g1790
sg69
(lp1802
S':'
asbag62
(g83
g64
NtRp1803
(dp1804
g67
(dp1805
sg76
g1790
sg69
(lp1806
g62
(g63
g64
NtRp1807
(dp1808
g67
(dp1809
g75
I5
ssg76
g1803
sg69
(lp1810
S'D:\\web2py\\source\\web2py\\applications\\web2py_xlchart_dashboard\\'
p1811
asbasbasbag62
(g78
g64
NtRp1812
(dp1813
g67
(dp1814
sg76
g72
sg69
(lp1815
g62
(g83
g64
NtRp1816
(dp1817
g67
(dp1818
g87
g88
ssg76
g1812
sg69
(lp1819
S'function'
p1820
asbag62
(g83
g64
NtRp1821
(dp1822
g67
(dp1823
g94
g95
ssg76
g1812
sg69
(lp1824
S':'
asbag62
(g83
g64
NtRp1825
(dp1826
g67
(dp1827
sg76
g1812
sg69
(lp1828
g62
(g63
g64
NtRp1829
(dp1830
g67
(dp1831
g75
I5
ssg76
g1825
sg69
(lp1832
S'registerchart'
p1833
asbasbasbag62
(g78
g64
NtRp1834
(dp1835
g67
(dp1836
sg76
g72
sg69
(lp1837
g62
(g83
g64
NtRp1838
(dp1839
g67
(dp1840
g87
g88
ssg76
g1834
sg69
(lp1841
S'get_vars'
p1842
asbag62
(g83
g64
NtRp1843
(dp1844
g67
(dp1845
g94
g95
ssg76
g1834
sg69
(lp1846
S':'
asbag62
(g83
g64
NtRp1847
(dp1848
g67
(dp1849
sg76
g1834
sg69
(lp1850
g62
(g63
g64
NtRp1851
(dp1852
g67
(dp1853
g75
I5
ssg76
g1847
sg69
(lp1854
g62
(g71
g64
NtRp1855
(dp1856
g67
(dp1857
g75
I4
ssg76
Nsg69
(lp1858
g62
(g78
g64
NtRp1859
(dp1860
g67
(dp1861
sg76
g1855
sg69
(lp1862
g62
(g83
g64
NtRp1863
(dp1864
g67
(dp1865
g87
g88
ssg76
g1859
sg69
(lp1866
S'chartname'
p1867
asbag62
(g83
g64
NtRp1868
(dp1869
g67
(dp1870
g94
g95
ssg76
g1859
sg69
(lp1871
S':'
asbag62
(g83
g64
NtRp1872
(dp1873
g67
(dp1874
sg76
g1859
sg69
(lp1875
g62
(g63
g64
NtRp1876
(dp1877
g67
(dp1878
g75
I4
ssg76
g1872
sg69
(lp1879
S'pyxl1352146819.36'
p1880
asbasbasbag62
(g78
g64
NtRp1881
(dp1882
g67
(dp1883
sg76
g1855
sg69
(lp1884
g62
(g83
g64
NtRp1885
(dp1886
g67
(dp1887
g87
g88
ssg76
g1881
sg69
(lp1888
S'imagename'
p1889
asbag62
(g83
g64
NtRp1890
(dp1891
g67
(dp1892
g94
g95
ssg76
g1881
sg69
(lp1893
S':'
asbag62
(g83
g64
NtRp1894
(dp1895
g67
(dp1896
sg76
g1881
sg69
(lp1897
g62
(g63
g64
NtRp1898
(dp1899
g67
(dp1900
g75
I4
ssg76
g1894
sg69
(lp1901
S'2-Sheet_2-XLChart_pyxl1352146819.36.jpg'
p1902
asbasbasbag62
(g78
g64
NtRp1903
(dp1904
g67
(dp1905
sg76
g1855
sg69
(lp1906
g62
(g83
g64
NtRp1907
(dp1908
g67
(dp1909
g87
g88
ssg76
g1903
sg69
(lp1910
S'sheetname'
p1911
asbag62
(g83
g64
NtRp1912
(dp1913
g67
(dp1914
g94
g95
ssg76
g1903
sg69
(lp1915
S':'
asbag62
(g83
g64
NtRp1916
(dp1917
g67
(dp1918
sg76
g1903
sg69
(lp1919
g62
(g63
g64
NtRp1920
(dp1921
g67
(dp1922
g75
I4
ssg76
g1916
sg69
(lp1923
S'Sheet 2'
p1924
asbasbasbag62
(g78
g64
NtRp1925
(dp1926
g67
(dp1927
sg76
g1855
sg69
(lp1928
g62
(g83
g64
NtRp1929
(dp1930
g67
(dp1931
g87
g88
ssg76
g1925
sg69
(lp1932
S'wbid'
p1933
asbag62
(g83
g64
NtRp1934
(dp1935
g67
(dp1936
g94
g95
ssg76
g1925
sg69
(lp1937
S':'
asbag62
(g83
g64
NtRp1938
(dp1939
g67
(dp1940
sg76
g1925
sg69
(lp1941
g62
(g63
g64
NtRp1942
(dp1943
g67
(dp1944
g75
I4
ssg76
g1938
sg69
(lp1945
S'4'
asbasbasbag62
(g78
g64
NtRp1946
(dp1947
g67
(dp1948
sg76
g1855
sg69
(lp1949
g62
(g83
g64
NtRp1950
(dp1951
g67
(dp1952
g87
g88
ssg76
g1946
sg69
(lp1953
S'webfolder'
p1954
asbag62
(g83
g64
NtRp1955
(dp1956
g67
(dp1957
g94
g95
ssg76
g1946
sg69
(lp1958
S':'
asbag62
(g83
g64
NtRp1959
(dp1960
g67
(dp1961
sg76
g1946
sg69
(lp1962
g62
(g63
g64
NtRp1963
(dp1964
g67
(dp1965
g75
I4
ssg76
g1959
sg69
(lp1966
S'static/images/temp/1352227408.88'
p1967
asbasbasbasbasbasbasbag62
(g78
g64
NtRp1968
(dp1969
g67
(dp1970
sg76
g72
sg69
(lp1971
g62
(g83
g64
NtRp1972
(dp1973
g67
(dp1974
g87
g88
ssg76
g1968
sg69
(lp1975
S'global_settings'
p1976
asbag62
(g83
g64
NtRp1977
(dp1978
g67
(dp1979
g94
g95
ssg76
g1968
sg69
(lp1980
S':'
asbag62
(g83
g64
NtRp1981
(dp1982
g67
(dp1983
sg76
g1968
sg69
(lp1984
g62
(g63
g64
NtRp1985
(dp1986
g67
(dp1987
g75
I5
ssg76
g1981
sg69
(lp1988
g62
(g71
g64
NtRp1989
(dp1990
g67
(dp1991
g75
I4
ssg76
Nsg69
(lp1992
g62
(g78
g64
NtRp1993
(dp1994
g67
(dp1995
sg76
g1989
sg69
(lp1996
g62
(g83
g64
NtRp1997
(dp1998
g67
(dp1999
g87
g88
ssg76
g1993
sg69
(lp2000
g678
asbag62
(g83
g64
NtRp2001
(dp2002
g67
(dp2003
g94
g95
ssg76
g1993
sg69
(lp2004
S':'
asbag62
(g83
g64
NtRp2005
(dp2006
g67
(dp2007
sg76
g1993
sg69
(lp2008
g62
(g63
g64
NtRp2009
(dp2010
g67
(dp2011
g75
I4
ssg76
g2005
sg69
(lp2012
S"set(['D:\\\\web2py\\\\source\\\\web2py\\\\applications\\\\admin\\\\', 'D:\\\\web2py\\\\source\\\\web2py\\\\applications\\\\welcome\\\\', 'D:\\\\web2py\\\\source\\\\web2py\\\\applications\\\\web2py_xlchart_dashboard\\\\'])"
p2013
asbasbasbag62
(g78
g64
NtRp2014
(dp2015
g67
(dp2016
sg76
g1989
sg69
(lp2017
g62
(g83
g64
NtRp2018
(dp2019
g67
(dp2020
g87
g88
ssg76
g2014
sg69
(lp2021
g700
asbag62
(g83
g64
NtRp2022
(dp2023
g67
(dp2024
g94
g95
ssg76
g2014
sg69
(lp2025
S':'
asbag62
(g83
g64
NtRp2026
(dp2027
g67
(dp2028
sg76
g2014
sg69
(lp2029
g62
(g63
g64
NtRp2030
(dp2031
g67
(dp2032
g75
I4
ssg76
g2026
sg69
(lp2033
g713
asbasbasbag62
(g78
g64
NtRp2034
(dp2035
g67
(dp2036
sg76
g1989
sg69
(lp2037
g62
(g83
g64
NtRp2038
(dp2039
g67
(dp2040
g87
g88
ssg76
g2034
sg69
(lp2041
g722
asbag62
(g83
g64
NtRp2042
(dp2043
g67
(dp2044
g94
g95
ssg76
g2034
sg69
(lp2045
S':'
asbag62
(g83
g64
NtRp2046
(dp2047
g67
(dp2048
sg76
g2034
sg69
(lp2049
g62
(g63
g64
NtRp2050
(dp2051
g67
(dp2052
g75
I4
ssg76
g2046
sg69
(lp2053
g62
(g71
g64
NtRp2054
(dp2055
g67
(dp2056
g75
I3
ssg76
Nsg69
(lp2057
sbasbasbasbag62
(g78
g64
NtRp2058
(dp2059
g67
(dp2060
sg76
g1989
sg69
(lp2061
g62
(g83
g64
NtRp2062
(dp2063
g67
(dp2064
g87
g88
ssg76
g2058
sg69
(lp2065
g747
asbag62
(g83
g64
NtRp2066
(dp2067
g67
(dp2068
g94
g95
ssg76
g2058
sg69
(lp2069
S':'
asbag62
(g83
g64
NtRp2070
(dp2071
g67
(dp2072
sg76
g2058
sg69
(lp2073
g62
(g63
g64
NtRp2074
(dp2075
g67
(dp2076
g75
I4
ssg76
g2070
sg69
(lp2077
S"<Values at 0xc78f58: {'verbose': False, 'ip': '127.0.0.1', 'with_scheduler': False, 'ips': ['192.168.0.14'], 'shutdown_timeout': 5, 'taskbar': False, 'port': 8000, 'maxthreads': None, 'softcron': False, 'server_name': 'GLKLAG235327', 'bpython': False, 'nogui': False, 'pid_filename': 'httpserver.pid', 'extcron': False, 'runcron': False, 'run_system_tests': False, 'test': None, 'folder': 'D:\\\\web2py\\\\source\\\\web2py', 'config': '', 'import_models': False, 'winservice': '', 'shell': None, 'run': '', 'log_filename': 'httpserver.log', 'debuglevel': 30, 'args': [''], 'socket_timeout': 5, 'ssl_ca_certificate': None, 'scheduler': None, 'profiler_filename': None, 'ssl_private_key': '', 'scheduler_groups': None, 'password': '<ask>', 'request_queue_size': 5, 'ssl_certificate': '', 'cronjob': False, 'numthreads': None, 'quiet': False, 'interfaces': None, 'minthreads': None, 'timeout': 10, 'plain': False, 'nobanner': False}>"
p2078
asbasbasbag62
(g78
g64
NtRp2079
(dp2080
g67
(dp2081
sg76
g1989
sg69
(lp2082
g62
(g83
g64
NtRp2083
(dp2084
g67
(dp2085
g87
g88
ssg76
g2079
sg69
(lp2086
g790
asbag62
(g83
g64
NtRp2087
(dp2088
g67
(dp2089
g94
g95
ssg76
g2079
sg69
(lp2090
S':'
asbag62
(g83
g64
NtRp2091
(dp2092
g67
(dp2093
sg76
g2079
sg69
(lp2094
g62
(g63
g64
NtRp2095
(dp2096
g67
(dp2097
g75
I4
ssg76
g2091
sg69
(lp2098
S'set([])'
p2099
asbasbasbag62
(g78
g64
NtRp2100
(dp2101
g67
(dp2102
sg76
g1989
sg69
(lp2103
g62
(g83
g64
NtRp2104
(dp2105
g67
(dp2106
g87
g88
ssg76
g2100
sg69
(lp2107
g812
asbag62
(g83
g64
NtRp2108
(dp2109
g67
(dp2110
g94
g95
ssg76
g2100
sg69
(lp2111
S':'
asbag62
(g83
g64
NtRp2112
(dp2113
g67
(dp2114
sg76
g2100
sg69
(lp2115
g62
(g63
g64
NtRp2116
(dp2117
g67
(dp2118
g75
I4
ssg76
g2112
sg69
(lp2119
g825
asbasbasbag62
(g78
g64
NtRp2120
(dp2121
g67
(dp2122
sg76
g1989
sg69
(lp2123
g62
(g83
g64
NtRp2124
(dp2125
g67
(dp2126
g87
g88
ssg76
g2120
sg69
(lp2127
g834
asbag62
(g83
g64
NtRp2128
(dp2129
g67
(dp2130
g94
g95
ssg76
g2120
sg69
(lp2131
S':'
asbag62
(g83
g64
NtRp2132
(dp2133
g67
(dp2134
sg76
g2120
sg69
(lp2135
g62
(g63
g64
NtRp2136
(dp2137
g67
(dp2138
g75
I4
ssg76
g2132
sg69
(lp2139
g847
asbasbasbag62
(g78
g64
NtRp2140
(dp2141
g67
(dp2142
sg76
g1989
sg69
(lp2143
g62
(g83
g64
NtRp2144
(dp2145
g67
(dp2146
g87
g88
ssg76
g2140
sg69
(lp2147
g1097
asbag62
(g83
g64
NtRp2148
(dp2149
g67
(dp2150
g94
g95
ssg76
g2140
sg69
(lp2151
S':'
asbag62
(g83
g64
NtRp2152
(dp2153
g67
(dp2154
sg76
g2140
sg69
(lp2155
g62
(g63
g64
NtRp2156
(dp2157
g67
(dp2158
g75
I4
ssg76
g2152
sg69
(lp2159
g825
asbasbasbag62
(g78
g64
NtRp2160
(dp2161
g67
(dp2162
sg76
g1989
sg69
(lp2163
g62
(g83
g64
NtRp2164
(dp2165
g67
(dp2166
g87
g88
ssg76
g2160
sg69
(lp2167
g1118
asbag62
(g83
g64
NtRp2168
(dp2169
g67
(dp2170
g94
g95
ssg76
g2160
sg69
(lp2171
S':'
asbag62
(g83
g64
NtRp2172
(dp2173
g67
(dp2174
sg76
g2160
sg69
(lp2175
g62
(g63
g64
NtRp2176
(dp2177
g67
(dp2178
g75
I4
ssg76
g2172
sg69
(lp2179
g825
asbasbasbag62
(g78
g64
NtRp2180
(dp2181
g67
(dp2182
sg76
g1989
sg69
(lp2183
g62
(g83
g64
NtRp2184
(dp2185
g67
(dp2186
g87
g88
ssg76
g2180
sg69
(lp2187
g1139
asbag62
(g83
g64
NtRp2188
(dp2189
g67
(dp2190
g94
g95
ssg76
g2180
sg69
(lp2191
S':'
asbag62
(g83
g64
NtRp2192
(dp2193
g67
(dp2194
sg76
g2180
sg69
(lp2195
g62
(g63
g64
NtRp2196
(dp2197
g67
(dp2198
g75
I4
ssg76
g2192
sg69
(lp2199
g62
(g71
g64
NtRp2200
(dp2201
g67
(dp2202
g75
I3
ssg76
Nsg69
(lp2203
g62
(g78
g64
NtRp2204
(dp2205
g67
(dp2206
sg76
g2200
sg69
(lp2207
g62
(g83
g64
NtRp2208
(dp2209
g67
(dp2210
sg76
g2204
sg69
(lp2211
g62
(g63
g64
NtRp2212
(dp2213
g67
(dp2214
g75
I3
ssg76
g2208
sg69
(lp2215
g1168
asbasbasbag62
(g78
g64
NtRp2216
(dp2217
g67
(dp2218
sg76
g2200
sg69
(lp2219
g62
(g83
g64
NtRp2220
(dp2221
g67
(dp2222
sg76
g2216
sg69
(lp2223
g62
(g63
g64
NtRp2224
(dp2225
g67
(dp2226
g75
I3
ssg76
g2220
sg69
(lp2227
g1181
asbasbasbag62
(g78
g64
NtRp2228
(dp2229
g67
(dp2230
sg76
g2200
sg69
(lp2231
g62
(g83
g64
NtRp2232
(dp2233
g67
(dp2234
sg76
g2228
sg69
(lp2235
g62
(g63
g64
NtRp2236
(dp2237
g67
(dp2238
g75
I3
ssg76
g2232
sg69
(lp2239
g1194
asbasbasbag62
(g78
g64
NtRp2240
(dp2241
g67
(dp2242
sg76
g2200
sg69
(lp2243
g62
(g83
g64
NtRp2244
(dp2245
g67
(dp2246
sg76
g2240
sg69
(lp2247
g62
(g63
g64
NtRp2248
(dp2249
g67
(dp2250
g75
I3
ssg76
g2244
sg69
(lp2251
g1207
asbasbasbag62
(g78
g64
NtRp2252
(dp2253
g67
(dp2254
sg76
g2200
sg69
(lp2255
g62
(g83
g64
NtRp2256
(dp2257
g67
(dp2258
sg76
g2252
sg69
(lp2259
g62
(g63
g64
NtRp2260
(dp2261
g67
(dp2262
g75
I3
ssg76
g2256
sg69
(lp2263
g1220
asbasbasbasbasbasbasbag62
(g78
g64
NtRp2264
(dp2265
g67
(dp2266
sg76
g1989
sg69
(lp2267
g62
(g83
g64
NtRp2268
(dp2269
g67
(dp2270
g87
g88
ssg76
g2264
sg69
(lp2271
g1489
asbag62
(g83
g64
NtRp2272
(dp2273
g67
(dp2274
g94
g95
ssg76
g2264
sg69
(lp2275
S':'
asbag62
(g83
g64
NtRp2276
(dp2277
g67
(dp2278
sg76
g2264
sg69
(lp2279
g62
(g63
g64
NtRp2280
(dp2281
g67
(dp2282
g75
I4
ssg76
g2276
sg69
(lp2283
g62
(g71
g64
NtRp2284
(dp2285
g67
(dp2286
g75
I3
ssg76
Nsg69
(lp2287
g62
(g78
g64
NtRp2288
(dp2289
g67
(dp2290
sg76
g2284
sg69
(lp2291
g62
(g83
g64
NtRp2292
(dp2293
g67
(dp2294
sg76
g2288
sg69
(lp2295
g62
(g63
g64
NtRp2296
(dp2297
g67
(dp2298
g75
I3
ssg76
g2292
sg69
(lp2299
S'2'
asbasbasbag62
(g78
g64
NtRp2300
(dp2301
g67
(dp2302
sg76
g2284
sg69
(lp2303
g62
(g83
g64
NtRp2304
(dp2305
g67
(dp2306
sg76
g2300
sg69
(lp2307
g62
(g63
g64
NtRp2308
(dp2309
g67
(dp2310
g75
I3
ssg76
g2304
sg69
(lp2311
S'2'
asbasbasbag62
(g78
g64
NtRp2312
(dp2313
g67
(dp2314
sg76
g2284
sg69
(lp2315
g62
(g83
g64
NtRp2316
(dp2317
g67
(dp2318
sg76
g2312
sg69
(lp2319
g62
(g63
g64
NtRp2320
(dp2321
g67
(dp2322
g75
I3
ssg76
g2316
sg69
(lp2323
S'1'
asbasbasbag62
(g78
g64
NtRp2324
(dp2325
g67
(dp2326
sg76
g2284
sg69
(lp2327
g62
(g83
g64
NtRp2328
(dp2329
g67
(dp2330
sg76
g2324
sg69
(lp2331
g62
(g63
g64
NtRp2332
(dp2333
g67
(dp2334
g75
I3
ssg76
g2328
sg69
(lp2335
S'datetime.datetime(2012, 10, 21, 16, 57, 4)'
p2336
asbasbasbag62
(g78
g64
NtRp2337
(dp2338
g67
(dp2339
sg76
g2284
sg69
(lp2340
g62
(g83
g64
NtRp2341
(dp2342
g67
(dp2343
sg76
g2337
sg69
(lp2344
g62
(g63
g64
NtRp2345
(dp2346
g67
(dp2347
g75
I3
ssg76
g2341
sg69
(lp2348
g1567
asbasbasbasbasbasbasbasbasbasbasbag62
(g78
g64
NtRp2349
(dp2350
g67
(dp2351
sg76
g72
sg69
(lp2352
g62
(g83
g64
NtRp2353
(dp2354
g67
(dp2355
g87
g88
ssg76
g2349
sg69
(lp2356
S'is_https'
p2357
asbag62
(g83
g64
NtRp2358
(dp2359
g67
(dp2360
g94
g95
ssg76
g2349
sg69
(lp2361
S':'
asbag62
(g83
g64
NtRp2362
(dp2363
g67
(dp2364
sg76
g2349
sg69
(lp2365
g62
(g63
g64
NtRp2366
(dp2367
g67
(dp2368
g75
I5
ssg76
g2362
sg69
(lp2369
g825
asbasbasbag62
(g78
g64
NtRp2370
(dp2371
g67
(dp2372
sg76
g72
sg69
(lp2373
g62
(g83
g64
NtRp2374
(dp2375
g67
(dp2376
g87
g88
ssg76
g2370
sg69
(lp2377
S'is_local'
p2378
asbag62
(g83
g64
NtRp2379
(dp2380
g67
(dp2381
g94
g95
ssg76
g2370
sg69
(lp2382
S':'
asbag62
(g83
g64
NtRp2383
(dp2384
g67
(dp2385
sg76
g2370
sg69
(lp2386
g62
(g63
g64
NtRp2387
(dp2388
g67
(dp2389
g75
I5
ssg76
g2383
sg69
(lp2390
g105
asbasbasbag62
(g78
g64
NtRp2391
(dp2392
g67
(dp2393
sg76
g72
sg69
(lp2394
g62
(g83
g64
NtRp2395
(dp2396
g67
(dp2397
g87
g88
ssg76
g2391
sg69
(lp2398
S'is_restful'
p2399
asbag62
(g83
g64
NtRp2400
(dp2401
g67
(dp2402
g94
g95
ssg76
g2391
sg69
(lp2403
S':'
asbag62
(g83
g64
NtRp2404
(dp2405
g67
(dp2406
sg76
g2391
sg69
(lp2407
g62
(g63
g64
NtRp2408
(dp2409
g67
(dp2410
g75
I5
ssg76
g2404
sg69
(lp2411
g825
asbasbasbag62
(g78
g64
NtRp2412
(dp2413
g67
(dp2414
sg76
g72
sg69
(lp2415
g62
(g83
g64
NtRp2416
(dp2417
g67
(dp2418
g87
g88
ssg76
g2412
sg69
(lp2419
S'now'
p2420
asbag62
(g83
g64
NtRp2421
(dp2422
g67
(dp2423
g94
g95
ssg76
g2412
sg69
(lp2424
S':'
asbag62
(g83
g64
NtRp2425
(dp2426
g67
(dp2427
sg76
g2412
sg69
(lp2428
g62
(g63
g64
NtRp2429
(dp2430
g67
(dp2431
g75
I5
ssg76
g2425
sg69
(lp2432
S'datetime.datetime(2012, 11, 6, 18, 43, 49, 609000)'
p2433
asbasbasbag62
(g78
g64
NtRp2434
(dp2435
g67
(dp2436
sg76
g72
sg69
(lp2437
g62
(g83
g64
NtRp2438
(dp2439
g67
(dp2440
g87
g88
ssg76
g2434
sg69
(lp2441
S'post_vars'
p2442
asbag62
(g83
g64
NtRp2443
(dp2444
g67
(dp2445
g94
g95
ssg76
g2434
sg69
(lp2446
S':'
asbag62
(g83
g64
NtRp2447
(dp2448
g67
(dp2449
sg76
g2434
sg69
(lp2450
g62
(g63
g64
NtRp2451
(dp2452
g67
(dp2453
g75
I5
ssg76
g2447
sg69
(lp2454
g62
(g71
g64
NtRp2455
(dp2456
g67
(dp2457
g75
I4
ssg76
Nsg69
(lp2458
sbasbasbasbag62
(g78
g64
NtRp2459
(dp2460
g67
(dp2461
sg76
g72
sg69
(lp2462
g62
(g83
g64
NtRp2463
(dp2464
g67
(dp2465
g87
g88
ssg76
g2459
sg69
(lp2466
S'raw_args'
p2467
asbag62
(g83
g64
NtRp2468
(dp2469
g67
(dp2470
g94
g95
ssg76
g2459
sg69
(lp2471
S':'
asbag62
(g83
g64
NtRp2472
(dp2473
g67
(dp2474
sg76
g2459
sg69
(lp2475
g62
(g63
g64
NtRp2476
(dp2477
g67
(dp2478
g75
I5
ssg76
g2472
sg69
(lp2479
S''
asbasbasbag62
(g78
g64
NtRp2480
(dp2481
g67
(dp2482
sg76
g72
sg69
(lp2483
g62
(g83
g64
NtRp2484
(dp2485
g67
(dp2486
g87
g88
ssg76
g2480
sg69
(lp2487
S'raw_extension'
p2488
asbag62
(g83
g64
NtRp2489
(dp2490
g67
(dp2491
g94
g95
ssg76
g2480
sg69
(lp2492
S':'
asbag62
(g83
g64
NtRp2493
(dp2494
g67
(dp2495
sg76
g2480
sg69
(lp2496
g62
(g63
g64
NtRp2497
(dp2498
g67
(dp2499
g75
I5
ssg76
g2493
sg69
(lp2500
S'None'
p2501
asbasbasbag62
(g78
g64
NtRp2502
(dp2503
g67
(dp2504
sg76
g72
sg69
(lp2505
g62
(g83
g64
NtRp2506
(dp2507
g67
(dp2508
g87
g88
ssg76
g2502
sg69
(lp2509
S'url'
p2510
asbag62
(g83
g64
NtRp2511
(dp2512
g67
(dp2513
g94
g95
ssg76
g2502
sg69
(lp2514
S':'
asbag62
(g83
g64
NtRp2515
(dp2516
g67
(dp2517
sg76
g2502
sg69
(lp2518
g62
(g63
g64
NtRp2519
(dp2520
g67
(dp2521
g75
I5
ssg76
g2515
sg69
(lp2522
g1242
asbasbasbag62
(g78
g64
NtRp2523
(dp2524
g67
(dp2525
sg76
g72
sg69
(lp2526
g62
(g83
g64
NtRp2527
(dp2528
g67
(dp2529
g87
g88
ssg76
g2523
sg69
(lp2530
S'utcnow'
p2531
asbag62
(g83
g64
NtRp2532
(dp2533
g67
(dp2534
g94
g95
ssg76
g2523
sg69
(lp2535
S':'
asbag62
(g83
g64
NtRp2536
(dp2537
g67
(dp2538
sg76
g2523
sg69
(lp2539
g62
(g63
g64
NtRp2540
(dp2541
g67
(dp2542
g75
I5
ssg76
g2536
sg69
(lp2543
S'datetime.datetime(2012, 11, 6, 18, 43, 49, 609000)'
p2544
asbasbasbag62
(g78
g64
NtRp2545
(dp2546
g67
(dp2547
sg76
g72
sg69
(lp2548
g62
(g83
g64
NtRp2549
(dp2550
g67
(dp2551
g87
g88
ssg76
g2545
sg69
(lp2552
S'uuid'
p2553
asbag62
(g83
g64
NtRp2554
(dp2555
g67
(dp2556
g94
g95
ssg76
g2545
sg69
(lp2557
S':'
asbag62
(g83
g64
NtRp2558
(dp2559
g67
(dp2560
sg76
g2545
sg69
(lp2561
g62
(g63
g64
NtRp2562
(dp2563
g67
(dp2564
g75
I5
ssg76
g2558
sg69
(lp2565
S'web2py_xlchart_dashboard/127.0.0.1.2012-11-06.18-43-49.2fe4ade1-60da-4e05-87f5-361893083e5e'
p2566
asbasbasbag62
(g78
g64
NtRp2567
(dp2568
g67
(dp2569
sg76
g72
sg69
(lp2570
g62
(g83
g64
NtRp2571
(dp2572
g67
(dp2573
g87
g88
ssg76
g2567
sg69
(lp2574
S'vars'
p2575
asbag62
(g83
g64
NtRp2576
(dp2577
g67
(dp2578
g94
g95
ssg76
g2567
sg69
(lp2579
S':'
asbag62
(g83
g64
NtRp2580
(dp2581
g67
(dp2582
sg76
g2567
sg69
(lp2583
g62
(g63
g64
NtRp2584
(dp2585
g67
(dp2586
g75
I5
ssg76
g2580
sg69
(lp2587
g62
(g71
g64
NtRp2588
(dp2589
g67
(dp2590
g75
I4
ssg76
Nsg69
(lp2591
g62
(g78
g64
NtRp2592
(dp2593
g67
(dp2594
sg76
g2588
sg69
(lp2595
g62
(g83
g64
NtRp2596
(dp2597
g67
(dp2598
g87
g88
ssg76
g2592
sg69
(lp2599
g1867
asbag62
(g83
g64
NtRp2600
(dp2601
g67
(dp2602
g94
g95
ssg76
g2592
sg69
(lp2603
S':'
asbag62
(g83
g64
NtRp2604
(dp2605
g67
(dp2606
sg76
g2592
sg69
(lp2607
g62
(g63
g64
NtRp2608
(dp2609
g67
(dp2610
g75
I4
ssg76
g2604
sg69
(lp2611
S'pyxl1352146819.36'
p2612
asbasbasbag62
(g78
g64
NtRp2613
(dp2614
g67
(dp2615
sg76
g2588
sg69
(lp2616
g62
(g83
g64
NtRp2617
(dp2618
g67
(dp2619
g87
g88
ssg76
g2613
sg69
(lp2620
g1889
asbag62
(g83
g64
NtRp2621
(dp2622
g67
(dp2623
g94
g95
ssg76
g2613
sg69
(lp2624
S':'
asbag62
(g83
g64
NtRp2625
(dp2626
g67
(dp2627
sg76
g2613
sg69
(lp2628
g62
(g63
g64
NtRp2629
(dp2630
g67
(dp2631
g75
I4
ssg76
g2625
sg69
(lp2632
S'2-Sheet_2-XLChart_pyxl1352146819.36.jpg'
p2633
asbasbasbag62
(g78
g64
NtRp2634
(dp2635
g67
(dp2636
sg76
g2588
sg69
(lp2637
g62
(g83
g64
NtRp2638
(dp2639
g67
(dp2640
g87
g88
ssg76
g2634
sg69
(lp2641
g1911
asbag62
(g83
g64
NtRp2642
(dp2643
g67
(dp2644
g94
g95
ssg76
g2634
sg69
(lp2645
S':'
asbag62
(g83
g64
NtRp2646
(dp2647
g67
(dp2648
sg76
g2634
sg69
(lp2649
g62
(g63
g64
NtRp2650
(dp2651
g67
(dp2652
g75
I4
ssg76
g2646
sg69
(lp2653
S'Sheet 2'
p2654
asbasbasbag62
(g78
g64
NtRp2655
(dp2656
g67
(dp2657
sg76
g2588
sg69
(lp2658
g62
(g83
g64
NtRp2659
(dp2660
g67
(dp2661
g87
g88
ssg76
g2655
sg69
(lp2662
g1933
asbag62
(g83
g64
NtRp2663
(dp2664
g67
(dp2665
g94
g95
ssg76
g2655
sg69
(lp2666
S':'
asbag62
(g83
g64
NtRp2667
(dp2668
g67
(dp2669
sg76
g2655
sg69
(lp2670
g62
(g63
g64
NtRp2671
(dp2672
g67
(dp2673
g75
I4
ssg76
g2667
sg69
(lp2674
S'4'
asbasbasbag62
(g78
g64
NtRp2675
(dp2676
g67
(dp2677
sg76
g2588
sg69
(lp2678
g62
(g83
g64
NtRp2679
(dp2680
g67
(dp2681
g87
g88
ssg76
g2675
sg69
(lp2682
g1954
asbag62
(g83
g64
NtRp2683
(dp2684
g67
(dp2685
g94
g95
ssg76
g2675
sg69
(lp2686
S':'
asbag62
(g83
g64
NtRp2687
(dp2688
g67
(dp2689
sg76
g2675
sg69
(lp2690
g62
(g63
g64
NtRp2691
(dp2692
g67
(dp2693
g75
I4
ssg76
g2687
sg69
(lp2694
S'static/images/temp/1352227408.88'
p2695
asbasbasbasbasbasbasbag62
(g78
g64
NtRp2696
(dp2697
g67
(dp2698
sg76
g72
sg69
(lp2699
g62
(g83
g64
NtRp2700
(dp2701
g67
(dp2702
g87
g88
ssg76
g2696
sg69
(lp2703
S'wsgi'
p2704
asbag62
(g83
g64
NtRp2705
(dp2706
g67
(dp2707
g94
g95
ssg76
g2696
sg69
(lp2708
S':'
asbag62
(g83
g64
NtRp2709
(dp2710
g67
(dp2711
sg76
g2696
sg69
(lp2712
g62
(g63
g64
NtRp2713
(dp2714
g67
(dp2715
g75
I5
ssg76
g2709
sg69
(lp2716
g62
(g71
g64
NtRp2717
(dp2718
g67
(dp2719
g75
I4
ssg76
Nsg69
(lp2720
g62
(g78
g64
NtRp2721
(dp2722
g67
(dp2723
sg76
g2717
sg69
(lp2724
g62
(g83
g64
NtRp2725
(dp2726
g67
(dp2727
g87
g88
ssg76
g2721
sg69
(lp2728
S'environ'
p2729
asbag62
(g83
g64
NtRp2730
(dp2731
g67
(dp2732
g94
g95
ssg76
g2721
sg69
(lp2733
S':'
asbag62
(g83
g64
NtRp2734
(dp2735
g67
(dp2736
sg76
g2721
sg69
(lp2737
g62
(g63
g64
NtRp2738
(dp2739
g67
(dp2740
g75
I4
ssg76
g2734
sg69
(lp2741
g62
(g71
g64
NtRp2742
(dp2743
g67
(dp2744
g75
I3
ssg76
Nsg69
(lp2745
g62
(g78
g64
NtRp2746
(dp2747
g67
(dp2748
sg76
g2742
sg69
(lp2749
g62
(g83
g64
NtRp2750
(dp2751
g67
(dp2752
g87
g88
ssg76
g2746
sg69
(lp2753
S'CONTENT_LENGTH'
p2754
asbag62
(g83
g64
NtRp2755
(dp2756
g67
(dp2757
g94
g95
ssg76
g2746
sg69
(lp2758
S':'
asbag62
(g83
g64
NtRp2759
(dp2760
g67
(dp2761
sg76
g2746
sg69
(lp2762
g62
(g63
g64
NtRp2763
(dp2764
g67
(dp2765
g75
I3
ssg76
g2759
sg69
(lp2766
S'0'
asbasbasbag62
(g78
g64
NtRp2767
(dp2768
g67
(dp2769
sg76
g2742
sg69
(lp2770
g62
(g83
g64
NtRp2771
(dp2772
g67
(dp2773
g87
g88
ssg76
g2767
sg69
(lp2774
S'HTTP_ACCEPT'
p2775
asbag62
(g83
g64
NtRp2776
(dp2777
g67
(dp2778
g94
g95
ssg76
g2767
sg69
(lp2779
S':'
asbag62
(g83
g64
NtRp2780
(dp2781
g67
(dp2782
sg76
g2767
sg69
(lp2783
g62
(g63
g64
NtRp2784
(dp2785
g67
(dp2786
g75
I3
ssg76
g2780
sg69
(lp2787
g869
asbasbasbag62
(g78
g64
NtRp2788
(dp2789
g67
(dp2790
sg76
g2742
sg69
(lp2791
g62
(g83
g64
NtRp2792
(dp2793
g67
(dp2794
g87
g88
ssg76
g2788
sg69
(lp2795
S'HTTP_ACCEPT_ENCODING'
p2796
asbag62
(g83
g64
NtRp2797
(dp2798
g67
(dp2799
g94
g95
ssg76
g2788
sg69
(lp2800
S':'
asbag62
(g83
g64
NtRp2801
(dp2802
g67
(dp2803
sg76
g2788
sg69
(lp2804
g62
(g63
g64
NtRp2805
(dp2806
g67
(dp2807
g75
I3
ssg76
g2801
sg69
(lp2808
g891
asbasbasbag62
(g78
g64
NtRp2809
(dp2810
g67
(dp2811
sg76
g2742
sg69
(lp2812
g62
(g83
g64
NtRp2813
(dp2814
g67
(dp2815
g87
g88
ssg76
g2809
sg69
(lp2816
S'HTTP_ACCEPT_LANGUAGE'
p2817
asbag62
(g83
g64
NtRp2818
(dp2819
g67
(dp2820
g94
g95
ssg76
g2809
sg69
(lp2821
S':'
asbag62
(g83
g64
NtRp2822
(dp2823
g67
(dp2824
sg76
g2809
sg69
(lp2825
g62
(g63
g64
NtRp2826
(dp2827
g67
(dp2828
g75
I3
ssg76
g2822
sg69
(lp2829
g913
asbasbasbag62
(g78
g64
NtRp2830
(dp2831
g67
(dp2832
sg76
g2742
sg69
(lp2833
g62
(g83
g64
NtRp2834
(dp2835
g67
(dp2836
g87
g88
ssg76
g2830
sg69
(lp2837
S'HTTP_CACHE_CONTROL'
p2838
asbag62
(g83
g64
NtRp2839
(dp2840
g67
(dp2841
g94
g95
ssg76
g2830
sg69
(lp2842
S':'
asbag62
(g83
g64
NtRp2843
(dp2844
g67
(dp2845
sg76
g2830
sg69
(lp2846
g62
(g63
g64
NtRp2847
(dp2848
g67
(dp2849
g75
I3
ssg76
g2843
sg69
(lp2850
g935
asbasbasbag62
(g78
g64
NtRp2851
(dp2852
g67
(dp2853
sg76
g2742
sg69
(lp2854
g62
(g83
g64
NtRp2855
(dp2856
g67
(dp2857
g87
g88
ssg76
g2851
sg69
(lp2858
S'HTTP_CONNECTION'
p2859
asbag62
(g83
g64
NtRp2860
(dp2861
g67
(dp2862
g94
g95
ssg76
g2851
sg69
(lp2863
S':'
asbag62
(g83
g64
NtRp2864
(dp2865
g67
(dp2866
sg76
g2851
sg69
(lp2867
g62
(g63
g64
NtRp2868
(dp2869
g67
(dp2870
g75
I3
ssg76
g2864
sg69
(lp2871
g957
asbasbasbag62
(g78
g64
NtRp2872
(dp2873
g67
(dp2874
sg76
g2742
sg69
(lp2875
g62
(g83
g64
NtRp2876
(dp2877
g67
(dp2878
g87
g88
ssg76
g2872
sg69
(lp2879
S'HTTP_CONTENT_LENGTH'
p2880
asbag62
(g83
g64
NtRp2881
(dp2882
g67
(dp2883
g94
g95
ssg76
g2872
sg69
(lp2884
S':'
asbag62
(g83
g64
NtRp2885
(dp2886
g67
(dp2887
sg76
g2872
sg69
(lp2888
g62
(g63
g64
NtRp2889
(dp2890
g67
(dp2891
g75
I3
ssg76
g2885
sg69
(lp2892
S'0'
asbasbasbag62
(g78
g64
NtRp2893
(dp2894
g67
(dp2895
sg76
g2742
sg69
(lp2896
g62
(g83
g64
NtRp2897
(dp2898
g67
(dp2899
g87
g88
ssg76
g2893
sg69
(lp2900
S'HTTP_COOKIE'
p2901
asbag62
(g83
g64
NtRp2902
(dp2903
g67
(dp2904
g94
g95
ssg76
g2893
sg69
(lp2905
S':'
asbag62
(g83
g64
NtRp2906
(dp2907
g67
(dp2908
sg76
g2893
sg69
(lp2909
g62
(g63
g64
NtRp2910
(dp2911
g67
(dp2912
g75
I3
ssg76
g2906
sg69
(lp2913
g1000
asbasbasbag62
(g78
g64
NtRp2914
(dp2915
g67
(dp2916
sg76
g2742
sg69
(lp2917
g62
(g83
g64
NtRp2918
(dp2919
g67
(dp2920
g87
g88
ssg76
g2914
sg69
(lp2921
S'HTTP_HOST'
p2922
asbag62
(g83
g64
NtRp2923
(dp2924
g67
(dp2925
g94
g95
ssg76
g2914
sg69
(lp2926
S':'
asbag62
(g83
g64
NtRp2927
(dp2928
g67
(dp2929
sg76
g2914
sg69
(lp2930
g62
(g63
g64
NtRp2931
(dp2932
g67
(dp2933
g75
I3
ssg76
g2927
sg69
(lp2934
g1022
asbasbasbag62
(g78
g64
NtRp2935
(dp2936
g67
(dp2937
sg76
g2742
sg69
(lp2938
g62
(g83
g64
NtRp2939
(dp2940
g67
(dp2941
g87
g88
ssg76
g2935
sg69
(lp2942
S'HTTP_REFERER'
p2943
asbag62
(g83
g64
NtRp2944
(dp2945
g67
(dp2946
g94
g95
ssg76
g2935
sg69
(lp2947
S':'
asbag62
(g83
g64
NtRp2948
(dp2949
g67
(dp2950
sg76
g2935
sg69
(lp2951
g62
(g63
g64
NtRp2952
(dp2953
g67
(dp2954
g75
I3
ssg76
g2948
sg69
(lp2955
g1044
asbasbasbag62
(g78
g64
NtRp2956
(dp2957
g67
(dp2958
sg76
g2742
sg69
(lp2959
g62
(g83
g64
NtRp2960
(dp2961
g67
(dp2962
g87
g88
ssg76
g2956
sg69
(lp2963
S'HTTP_USER_AGENT'
p2964
asbag62
(g83
g64
NtRp2965
(dp2966
g67
(dp2967
g94
g95
ssg76
g2956
sg69
(lp2968
S':'
asbag62
(g83
g64
NtRp2969
(dp2970
g67
(dp2971
sg76
g2956
sg69
(lp2972
g62
(g63
g64
NtRp2973
(dp2974
g67
(dp2975
g75
I3
ssg76
g2969
sg69
(lp2976
g1066
asbasbasbag62
(g78
g64
NtRp2977
(dp2978
g67
(dp2979
sg76
g2742
sg69
(lp2980
g62
(g83
g64
NtRp2981
(dp2982
g67
(dp2983
g87
g88
ssg76
g2977
sg69
(lp2984
S'HTTP_X_REQUESTED_WITH'
p2985
asbag62
(g83
g64
NtRp2986
(dp2987
g67
(dp2988
g94
g95
ssg76
g2977
sg69
(lp2989
S':'
asbag62
(g83
g64
NtRp2990
(dp2991
g67
(dp2992
sg76
g2977
sg69
(lp2993
g62
(g63
g64
NtRp2994
(dp2995
g67
(dp2996
g75
I3
ssg76
g2990
sg69
(lp2997
g1088
asbasbasbag62
(g78
g64
NtRp2998
(dp2999
g67
(dp3000
sg76
g2742
sg69
(lp3001
g62
(g83
g64
NtRp3002
(dp3003
g67
(dp3004
g87
g88
ssg76
g2998
sg69
(lp3005
S'PATH_INFO'
p3006
asbag62
(g83
g64
NtRp3007
(dp3008
g67
(dp3009
g94
g95
ssg76
g2998
sg69
(lp3010
S':'
asbag62
(g83
g64
NtRp3011
(dp3012
g67
(dp3013
sg76
g2998
sg69
(lp3014
g62
(g63
g64
NtRp3015
(dp3016
g67
(dp3017
g75
I3
ssg76
g3011
sg69
(lp3018
g1242
asbasbasbag62
(g78
g64
NtRp3019
(dp3020
g67
(dp3021
sg76
g2742
sg69
(lp3022
g62
(g83
g64
NtRp3023
(dp3024
g67
(dp3025
g87
g88
ssg76
g3019
sg69
(lp3026
S'QUERY_STRING'
p3027
asbag62
(g83
g64
NtRp3028
(dp3029
g67
(dp3030
g94
g95
ssg76
g3019
sg69
(lp3031
S':'
asbag62
(g83
g64
NtRp3032
(dp3033
g67
(dp3034
sg76
g3019
sg69
(lp3035
g62
(g63
g64
NtRp3036
(dp3037
g67
(dp3038
g75
I3
ssg76
g3032
sg69
(lp3039
g1264
asbasbasbag62
(g78
g64
NtRp3040
(dp3041
g67
(dp3042
sg76
g2742
sg69
(lp3043
g62
(g83
g64
NtRp3044
(dp3045
g67
(dp3046
g87
g88
ssg76
g3040
sg69
(lp3047
S'REMOTE_ADDR'
p3048
asbag62
(g83
g64
NtRp3049
(dp3050
g67
(dp3051
g94
g95
ssg76
g3040
sg69
(lp3052
S':'
asbag62
(g83
g64
NtRp3053
(dp3054
g67
(dp3055
sg76
g3040
sg69
(lp3056
g62
(g63
g64
NtRp3057
(dp3058
g67
(dp3059
g75
I3
ssg76
g3053
sg69
(lp3060
g217
asbasbasbag62
(g78
g64
NtRp3061
(dp3062
g67
(dp3063
sg76
g2742
sg69
(lp3064
g62
(g83
g64
NtRp3065
(dp3066
g67
(dp3067
g87
g88
ssg76
g3061
sg69
(lp3068
S'REMOTE_PORT'
p3069
asbag62
(g83
g64
NtRp3070
(dp3071
g67
(dp3072
g94
g95
ssg76
g3061
sg69
(lp3073
S':'
asbag62
(g83
g64
NtRp3074
(dp3075
g67
(dp3076
sg76
g3061
sg69
(lp3077
g62
(g63
g64
NtRp3078
(dp3079
g67
(dp3080
g75
I3
ssg76
g3074
sg69
(lp3081
g1307
asbasbasbag62
(g78
g64
NtRp3082
(dp3083
g67
(dp3084
sg76
g2742
sg69
(lp3085
g62
(g83
g64
NtRp3086
(dp3087
g67
(dp3088
g87
g88
ssg76
g3082
sg69
(lp3089
S'REQUEST_METHOD'
p3090
asbag62
(g83
g64
NtRp3091
(dp3092
g67
(dp3093
g94
g95
ssg76
g3082
sg69
(lp3094
S':'
asbag62
(g83
g64
NtRp3095
(dp3096
g67
(dp3097
sg76
g3082
sg69
(lp3098
g62
(g63
g64
NtRp3099
(dp3100
g67
(dp3101
g75
I3
ssg76
g3095
sg69
(lp3102
g1329
asbasbasbag62
(g78
g64
NtRp3103
(dp3104
g67
(dp3105
sg76
g2742
sg69
(lp3106
g62
(g83
g64
NtRp3107
(dp3108
g67
(dp3109
g87
g88
ssg76
g3103
sg69
(lp3110
S'REQUEST_URI'
p3111
asbag62
(g83
g64
NtRp3112
(dp3113
g67
(dp3114
g94
g95
ssg76
g3103
sg69
(lp3115
S':'
asbag62
(g83
g64
NtRp3116
(dp3117
g67
(dp3118
sg76
g3103
sg69
(lp3119
g62
(g63
g64
NtRp3120
(dp3121
g67
(dp3122
g75
I3
ssg76
g3116
sg69
(lp3123
g1351
asbasbasbag62
(g78
g64
NtRp3124
(dp3125
g67
(dp3126
sg76
g2742
sg69
(lp3127
g62
(g83
g64
NtRp3128
(dp3129
g67
(dp3130
g87
g88
ssg76
g3124
sg69
(lp3131
S'SCRIPT_NAME'
p3132
asbag62
(g83
g64
NtRp3133
(dp3134
g67
(dp3135
g94
g95
ssg76
g3124
sg69
(lp3136
S':'
asbag62
(g83
g64
NtRp3137
(dp3138
g67
(dp3139
sg76
g3124
sg69
(lp3140
g62
(g63
g64
NtRp3141
(dp3142
g67
(dp3143
g75
I3
ssg76
g3137
sg69
(lp3144
S''
asbasbasbag62
(g78
g64
NtRp3145
(dp3146
g67
(dp3147
sg76
g2742
sg69
(lp3148
g62
(g83
g64
NtRp3149
(dp3150
g67
(dp3151
g87
g88
ssg76
g3145
sg69
(lp3152
S'SERVER_NAME'
p3153
asbag62
(g83
g64
NtRp3154
(dp3155
g67
(dp3156
g94
g95
ssg76
g3145
sg69
(lp3157
S':'
asbag62
(g83
g64
NtRp3158
(dp3159
g67
(dp3160
sg76
g3145
sg69
(lp3161
g62
(g63
g64
NtRp3162
(dp3163
g67
(dp3164
g75
I3
ssg76
g3158
sg69
(lp3165
g1207
asbasbasbag62
(g78
g64
NtRp3166
(dp3167
g67
(dp3168
sg76
g2742
sg69
(lp3169
g62
(g83
g64
NtRp3170
(dp3171
g67
(dp3172
g87
g88
ssg76
g3166
sg69
(lp3173
S'SERVER_PORT'
p3174
asbag62
(g83
g64
NtRp3175
(dp3176
g67
(dp3177
g94
g95
ssg76
g3166
sg69
(lp3178
S':'
asbag62
(g83
g64
NtRp3179
(dp3180
g67
(dp3181
sg76
g3166
sg69
(lp3182
g62
(g63
g64
NtRp3183
(dp3184
g67
(dp3185
g75
I3
ssg76
g3179
sg69
(lp3186
g1415
asbasbasbag62
(g78
g64
NtRp3187
(dp3188
g67
(dp3189
sg76
g2742
sg69
(lp3190
g62
(g83
g64
NtRp3191
(dp3192
g67
(dp3193
g87
g88
ssg76
g3187
sg69
(lp3194
S'SERVER_PROTOCOL'
p3195
asbag62
(g83
g64
NtRp3196
(dp3197
g67
(dp3198
g94
g95
ssg76
g3187
sg69
(lp3199
S':'
asbag62
(g83
g64
NtRp3200
(dp3201
g67
(dp3202
sg76
g3187
sg69
(lp3203
g62
(g63
g64
NtRp3204
(dp3205
g67
(dp3206
g75
I3
ssg76
g3200
sg69
(lp3207
g1437
asbasbasbag62
(g78
g64
NtRp3208
(dp3209
g67
(dp3210
sg76
g2742
sg69
(lp3211
g62
(g83
g64
NtRp3212
(dp3213
g67
(dp3214
g87
g88
ssg76
g3208
sg69
(lp3215
S'SERVER_SOFTWARE'
p3216
asbag62
(g83
g64
NtRp3217
(dp3218
g67
(dp3219
g94
g95
ssg76
g3208
sg69
(lp3220
S':'
asbag62
(g83
g64
NtRp3221
(dp3222
g67
(dp3223
sg76
g3208
sg69
(lp3224
g62
(g63
g64
NtRp3225
(dp3226
g67
(dp3227
g75
I3
ssg76
g3221
sg69
(lp3228
g1459
asbasbasbag62
(g78
g64
NtRp3229
(dp3230
g67
(dp3231
sg76
g2742
sg69
(lp3232
g62
(g83
g64
NtRp3233
(dp3234
g67
(dp3235
g87
g88
ssg76
g3229
sg69
(lp3236
S'wsgi.errors'
p3237
asbag62
(g83
g64
NtRp3238
(dp3239
g67
(dp3240
g94
g95
ssg76
g3229
sg69
(lp3241
S':'
asbag62
(g83
g64
NtRp3242
(dp3243
g67
(dp3244
sg76
g3229
sg69
(lp3245
g62
(g63
g64
NtRp3246
(dp3247
g67
(dp3248
g75
I3
ssg76
g3242
sg69
(lp3249
S"<open file '<stderr>', mode 'w' at 0x00A850D0>"
p3250
asbasbasbag62
(g78
g64
NtRp3251
(dp3252
g67
(dp3253
sg76
g2742
sg69
(lp3254
g62
(g83
g64
NtRp3255
(dp3256
g67
(dp3257
g87
g88
ssg76
g3251
sg69
(lp3258
S'wsgi.file_wrapper'
p3259
asbag62
(g83
g64
NtRp3260
(dp3261
g67
(dp3262
g94
g95
ssg76
g3251
sg69
(lp3263
S':'
asbag62
(g83
g64
NtRp3264
(dp3265
g67
(dp3266
sg76
g3251
sg69
(lp3267
g62
(g63
g64
NtRp3268
(dp3269
g67
(dp3270
g75
I3
ssg76
g3264
sg69
(lp3271
S'<class wsgiref.util.FileWrapper at 0x0172EE68>'
p3272
asbasbasbag62
(g78
g64
NtRp3273
(dp3274
g67
(dp3275
sg76
g2742
sg69
(lp3276
g62
(g83
g64
NtRp3277
(dp3278
g67
(dp3279
g87
g88
ssg76
g3273
sg69
(lp3280
S'wsgi.input'
p3281
asbag62
(g83
g64
NtRp3282
(dp3283
g67
(dp3284
g94
g95
ssg76
g3273
sg69
(lp3285
S':'
asbag62
(g83
g64
NtRp3286
(dp3287
g67
(dp3288
sg76
g3273
sg69
(lp3289
g62
(g63
g64
NtRp3290
(dp3291
g67
(dp3292
g75
I3
ssg76
g3286
sg69
(lp3293
S"<open file '<fdopen>', mode 'w+b' at 0x04F9E390>"
p3294
asbasbasbag62
(g78
g64
NtRp3295
(dp3296
g67
(dp3297
sg76
g2742
sg69
(lp3298
g62
(g83
g64
NtRp3299
(dp3300
g67
(dp3301
g87
g88
ssg76
g3295
sg69
(lp3302
S'wsgi.multiprocess'
p3303
asbag62
(g83
g64
NtRp3304
(dp3305
g67
(dp3306
g94
g95
ssg76
g3295
sg69
(lp3307
S':'
asbag62
(g83
g64
NtRp3308
(dp3309
g67
(dp3310
sg76
g3295
sg69
(lp3311
g62
(g63
g64
NtRp3312
(dp3313
g67
(dp3314
g75
I3
ssg76
g3308
sg69
(lp3315
g825
asbasbasbag62
(g78
g64
NtRp3316
(dp3317
g67
(dp3318
sg76
g2742
sg69
(lp3319
g62
(g83
g64
NtRp3320
(dp3321
g67
(dp3322
g87
g88
ssg76
g3316
sg69
(lp3323
S'wsgi.multithread'
p3324
asbag62
(g83
g64
NtRp3325
(dp3326
g67
(dp3327
g94
g95
ssg76
g3316
sg69
(lp3328
S':'
asbag62
(g83
g64
NtRp3329
(dp3330
g67
(dp3331
sg76
g3316
sg69
(lp3332
g62
(g63
g64
NtRp3333
(dp3334
g67
(dp3335
g75
I3
ssg76
g3329
sg69
(lp3336
g105
asbasbasbag62
(g78
g64
NtRp3337
(dp3338
g67
(dp3339
sg76
g2742
sg69
(lp3340
g62
(g83
g64
NtRp3341
(dp3342
g67
(dp3343
g87
g88
ssg76
g3337
sg69
(lp3344
S'wsgi.run_once'
p3345
asbag62
(g83
g64
NtRp3346
(dp3347
g67
(dp3348
g94
g95
ssg76
g3337
sg69
(lp3349
S':'
asbag62
(g83
g64
NtRp3350
(dp3351
g67
(dp3352
sg76
g3337
sg69
(lp3353
g62
(g63
g64
NtRp3354
(dp3355
g67
(dp3356
g75
I3
ssg76
g3350
sg69
(lp3357
g825
asbasbasbag62
(g78
g64
NtRp3358
(dp3359
g67
(dp3360
sg76
g2742
sg69
(lp3361
g62
(g83
g64
NtRp3362
(dp3363
g67
(dp3364
g87
g88
ssg76
g3358
sg69
(lp3365
S'wsgi.url_scheme'
p3366
asbag62
(g83
g64
NtRp3367
(dp3368
g67
(dp3369
g94
g95
ssg76
g3358
sg69
(lp3370
S':'
asbag62
(g83
g64
NtRp3371
(dp3372
g67
(dp3373
sg76
g3358
sg69
(lp3374
g62
(g63
g64
NtRp3375
(dp3376
g67
(dp3377
g75
I3
ssg76
g3371
sg69
(lp3378
g1718
asbasbasbag62
(g78
g64
NtRp3379
(dp3380
g67
(dp3381
sg76
g2742
sg69
(lp3382
g62
(g83
g64
NtRp3383
(dp3384
g67
(dp3385
g87
g88
ssg76
g3379
sg69
(lp3386
S'wsgi.version'
p3387
asbag62
(g83
g64
NtRp3388
(dp3389
g67
(dp3390
g94
g95
ssg76
g3379
sg69
(lp3391
S':'
asbag62
(g83
g64
NtRp3392
(dp3393
g67
(dp3394
sg76
g3379
sg69
(lp3395
g62
(g63
g64
NtRp3396
(dp3397
g67
(dp3398
g75
I3
ssg76
g3392
sg69
(lp3399
S'1'
asbasbasbasbasbasbasbasbasbasbasbasbasbsS'frames'
p3400
(lp3401
(dp3402
S'file'
p3403
S'D:\\web2py\\source\\web2py\\gluon\\restricted.py'
p3404
sS'dump'
p3405
(dp3406
S'environment'
p3407
S"{'A': <class 'gluon.html.A'>, 'Auth': <class 'gluon.tools.Auth'>, 'B': <class 'gluon.html.B'>, 'BEAUTIFY': <class 'gluon.html.BEAUTIFY'>, 'BODY': <class 'gluon.html.BODY'>, 'BR': <class 'gluon.html.BR'>, 'BUTTON': <class 'gluon.html.BUTTON'>, 'CAT': <class 'gluon.html.CAT'>, 'CENTER': <class 'gluon.html.CENTER'>, 'CLEANUP': <class 'gluon.validators.CLEANUP'>, ...}"
p3408
sS'ccode'
p3409
S'<code object <module> at 04F83188, file "D:\\web2...chart_dashboard\\controllers/default.py", line 13>'
p3410
ssS'lnum'
p3411
I212
sS'lines'
p3412
(dp3413
I207
S'    try:'
p3414
sI208
S'        if isinstance(code, types.CodeType):'
p3415
sI209
S'            ccode = code'
p3416
sI210
S'        else:'
p3417
sI211
S'            ccode = compile2(code, layer)'
p3418
sI212
S'        exec ccode in environment'
p3419
sI213
S'    except HTTP:'
p3420
sI214
S'        raise'
p3421
sI215
S'    except RestrictedError:'
p3422
sI216
S'        # do not encapsulate (obfuscate) the original RestrictedError'
p3423
ssS'call'
p3424
S"(code='# -*- coding: utf-8 -*-\\n# this file is released ...\\n\\nresponse._vars=response._caller(registerchart)\\n', environment={'A': <class 'gluon.html.A'>, 'Auth': <class 'gluon.tools.Auth'>, 'B': <class 'gluon.html.B'>, 'BEAUTIFY': <class 'gluon.html.BEAUTIFY'>, 'BODY': <class 'gluon.html.BODY'>, 'BR': <class 'gluon.html.BR'>, 'BUTTON': <class 'gluon.html.BUTTON'>, 'CAT': <class 'gluon.html.CAT'>, 'CENTER': <class 'gluon.html.CENTER'>, 'CLEANUP': <class 'gluon.validators.CLEANUP'>, ...}, layer=r'D:\\web2py\\source\\web2py\\applications\\web2py_xlchart_dashboard\\controllers/default.py')"
p3425
sS'func'
p3426
S'restricted'
p3427
sa(dp3428
g3403
S'D:\\web2py\\source\\web2py\\applications\\web2py_xlchart_dashboard\\controllers\\default.py'
p3429
sg3405
(dp3430
sg3411
I142
sg3412
(dp3431
I131
S'    http://..../[app]/default/data/update/[table]/[id]'
p3432
sI132
S'    http://..../[app]/default/data/delete/[table]/[id]'
p3433
sI133
S'    http://..../[app]/default/data/select/[table]'
p3434
sI134
S'    http://..../[app]/default/data/search/[table]'
p3435
sI135
S'    but URLs must be signed, i.e. linked with'
p3436
sI136
S"      A('table',_href=URL('data/tables',user_signature=True))"
p3437
sI137
S'    or with the signed load operator'
p3438
sI138
S"      LOAD('default','data.load',args='tables',ajax=True,user_signature=True)"
p3439
sI139
S'    """'
p3440
sI140
S'    return dict(form=crud())'
p3441
ssg3424
S'()'
p3442
sg3426
S'<module>'
p3443
sa(dp3444
g3403
S'D:\\web2py\\source\\web2py\\gluon\\globals.py'
p3445
sg3405
(dp3446
S'self'
p3447
S'undefined'
p3448
sS'f'
S'<function registerchart>'
p3449
ssg3411
I188
sg3412
(dp3450
I192
S''
sI183
S'        self.menu = []             # used by the default view layout'
p3451
sI184
S'        self.files = []            # used by web2py_ajax.html'
p3452
sI185
S'        self.generic_patterns = []  # patterns to allow generic views'
p3453
sI186
S"        self.delimiters = ('{{', '}}')"
p3454
sI187
S'        self._vars = None'
p3455
sI188
S'        self._caller = lambda f: f()'
p3456
sI189
S'        self._view_environment = None'
p3457
sI190
S'        self._custom_commit = None'
p3458
sI191
S'        self._custom_rollback = None'
p3459
ssg3424
S'(f=<function registerchart>)'
p3460
sg3426
S'<lambda>'
p3461
sa(dp3462
g3403
S'D:\\web2py\\source\\web2py\\applications\\web2py_xlchart_dashboard\\controllers\\default.py'
p3463
sg3405
(dp3464
S'global user'
p3465
S'<function user>'
p3466
ssg3411
I82
sg3412
(dp3467
I77
S'    return ChartDetails'
p3468
sI78
S''
sI79
S'def registerchart():'
p3469
sI80
S'    import os'
p3470
sI81
S"    if db(db.chart.chartName==request.vars['chartname']).count() == 0:"
p3471
sI82
S"        stream = open(os.path.join(request.vars['webfolder'],request.vars['imagename']),'rb')"
p3472
sI83
S''
sI84
S"        chartid = db.chart.insert(chartName=request.vars['chartname'],id_workbook=request.vars['wbid'],worksheet=request.vars['sheetname'],file=stream)"
p3473
sI85
S'        return "Chart registered with id " + str(chartid)'
p3474
sI86
S'    else:'
p3475
ssg3424
S'()'
p3476
sg3426
S'registerchart'
p3477
sasS'pyver'
p3478
S'Python 2.7: d:\\python27\\python.exe'
p3479
sS'session'
p3480
g62
(g63
g64
NtRp3481
(dp3482
g67
(dp3483
sg69
(lp3484
g62
(g71
g64
NtRp3485
(dp3486
g67
(dp3487
g75
I5
ssg76
Nsg69
(lp3488
g62
(g78
g64
NtRp3489
(dp3490
g67
(dp3491
sg76
g3485
sg69
(lp3492
g62
(g83
g64
NtRp3493
(dp3494
g67
(dp3495
g87
g88
ssg76
g3489
sg69
(lp3496
S'auth'
p3497
asbag62
(g83
g64
NtRp3498
(dp3499
g67
(dp3500
g94
g95
ssg76
g3489
sg69
(lp3501
S':'
asbag62
(g83
g64
NtRp3502
(dp3503
g67
(dp3504
sg76
g3489
sg69
(lp3505
g62
(g63
g64
NtRp3506
(dp3507
g67
(dp3508
g75
I5
ssg76
g3502
sg69
(lp3509
g62
(g71
g64
NtRp3510
(dp3511
g67
(dp3512
g75
I4
ssg76
Nsg69
(lp3513
g62
(g78
g64
NtRp3514
(dp3515
g67
(dp3516
sg76
g3510
sg69
(lp3517
g62
(g83
g64
NtRp3518
(dp3519
g67
(dp3520
g87
g88
ssg76
g3514
sg69
(lp3521
S'expiration'
p3522
asbag62
(g83
g64
NtRp3523
(dp3524
g67
(dp3525
g94
g95
ssg76
g3514
sg69
(lp3526
S':'
asbag62
(g83
g64
NtRp3527
(dp3528
g67
(dp3529
sg76
g3514
sg69
(lp3530
g62
(g63
g64
NtRp3531
(dp3532
g67
(dp3533
g75
I4
ssg76
g3527
sg69
(lp3534
S'3600'
p3535
asbasbasbag62
(g78
g64
NtRp3536
(dp3537
g67
(dp3538
sg76
g3510
sg69
(lp3539
g62
(g83
g64
NtRp3540
(dp3541
g67
(dp3542
g87
g88
ssg76
g3536
sg69
(lp3543
S'hmac_key'
p3544
asbag62
(g83
g64
NtRp3545
(dp3546
g67
(dp3547
g94
g95
ssg76
g3536
sg69
(lp3548
S':'
asbag62
(g83
g64
NtRp3549
(dp3550
g67
(dp3551
sg76
g3536
sg69
(lp3552
g62
(g63
g64
NtRp3553
(dp3554
g67
(dp3555
g75
I4
ssg76
g3549
sg69
(lp3556
S'16b7b658-263a-4549-8d22-7219e478eee6'
p3557
asbasbasbag62
(g78
g64
NtRp3558
(dp3559
g67
(dp3560
sg76
g3510
sg69
(lp3561
g62
(g83
g64
NtRp3562
(dp3563
g67
(dp3564
g87
g88
ssg76
g3558
sg69
(lp3565
S'last_visit'
p3566
asbag62
(g83
g64
NtRp3567
(dp3568
g67
(dp3569
g94
g95
ssg76
g3558
sg69
(lp3570
S':'
asbag62
(g83
g64
NtRp3571
(dp3572
g67
(dp3573
sg76
g3558
sg69
(lp3574
g62
(g63
g64
NtRp3575
(dp3576
g67
(dp3577
g75
I4
ssg76
g3571
sg69
(lp3578
S'datetime.datetime(2012, 11, 6, 18, 41, 51, 250000)'
p3579
asbasbasbag62
(g78
g64
NtRp3580
(dp3581
g67
(dp3582
sg76
g3510
sg69
(lp3583
g62
(g83
g64
NtRp3584
(dp3585
g67
(dp3586
g87
g88
ssg76
g3580
sg69
(lp3587
S'remember'
p3588
asbag62
(g83
g64
NtRp3589
(dp3590
g67
(dp3591
g94
g95
ssg76
g3580
sg69
(lp3592
S':'
asbag62
(g83
g64
NtRp3593
(dp3594
g67
(dp3595
sg76
g3580
sg69
(lp3596
g62
(g63
g64
NtRp3597
(dp3598
g67
(dp3599
g75
I4
ssg76
g3593
sg69
(lp3600
g825
asbasbasbag62
(g78
g64
NtRp3601
(dp3602
g67
(dp3603
sg76
g3510
sg69
(lp3604
g62
(g83
g64
NtRp3605
(dp3606
g67
(dp3607
g87
g88
ssg76
g3601
sg69
(lp3608
S'user'
p3609
asbag62
(g83
g64
NtRp3610
(dp3611
g67
(dp3612
g94
g95
ssg76
g3601
sg69
(lp3613
S':'
asbag62
(g83
g64
NtRp3614
(dp3615
g67
(dp3616
sg76
g3601
sg69
(lp3617
g62
(g63
g64
NtRp3618
(dp3619
g67
(dp3620
g75
I4
ssg76
g3614
sg69
(lp3621
g62
(g71
g64
NtRp3622
(dp3623
g67
(dp3624
g75
I3
ssg76
Nsg69
(lp3625
g62
(g78
g64
NtRp3626
(dp3627
g67
(dp3628
sg76
g3622
sg69
(lp3629
g62
(g83
g64
NtRp3630
(dp3631
g67
(dp3632
g87
g88
ssg76
g3626
sg69
(lp3633
S'email'
p3634
asbag62
(g83
g64
NtRp3635
(dp3636
g67
(dp3637
g94
g95
ssg76
g3626
sg69
(lp3638
S':'
asbag62
(g83
g64
NtRp3639
(dp3640
g67
(dp3641
sg76
g3626
sg69
(lp3642
g62
(g63
g64
NtRp3643
(dp3644
g67
(dp3645
g75
I3
ssg76
g3639
sg69
(lp3646
S'simon.carr2@baesystems.com'
p3647
asbasbasbag62
(g78
g64
NtRp3648
(dp3649
g67
(dp3650
sg76
g3622
sg69
(lp3651
g62
(g83
g64
NtRp3652
(dp3653
g67
(dp3654
g87
g88
ssg76
g3648
sg69
(lp3655
S'first_name'
p3656
asbag62
(g83
g64
NtRp3657
(dp3658
g67
(dp3659
g94
g95
ssg76
g3648
sg69
(lp3660
S':'
asbag62
(g83
g64
NtRp3661
(dp3662
g67
(dp3663
sg76
g3648
sg69
(lp3664
g62
(g63
g64
NtRp3665
(dp3666
g67
(dp3667
g75
I3
ssg76
g3661
sg69
(lp3668
S'Simon'
p3669
asbasbasbag62
(g78
g64
NtRp3670
(dp3671
g67
(dp3672
sg76
g3622
sg69
(lp3673
g62
(g83
g64
NtRp3674
(dp3675
g67
(dp3676
g87
g88
ssg76
g3670
sg69
(lp3677
S'id'
p3678
asbag62
(g83
g64
NtRp3679
(dp3680
g67
(dp3681
g94
g95
ssg76
g3670
sg69
(lp3682
S':'
asbag62
(g83
g64
NtRp3683
(dp3684
g67
(dp3685
sg76
g3670
sg69
(lp3686
g62
(g63
g64
NtRp3687
(dp3688
g67
(dp3689
g75
I3
ssg76
g3683
sg69
(lp3690
S'1'
asbasbasbag62
(g78
g64
NtRp3691
(dp3692
g67
(dp3693
sg76
g3622
sg69
(lp3694
g62
(g83
g64
NtRp3695
(dp3696
g67
(dp3697
g87
g88
ssg76
g3691
sg69
(lp3698
S'last_name'
p3699
asbag62
(g83
g64
NtRp3700
(dp3701
g67
(dp3702
g94
g95
ssg76
g3691
sg69
(lp3703
S':'
asbag62
(g83
g64
NtRp3704
(dp3705
g67
(dp3706
sg76
g3691
sg69
(lp3707
g62
(g63
g64
NtRp3708
(dp3709
g67
(dp3710
g75
I3
ssg76
g3704
sg69
(lp3711
S'Carr'
p3712
asbasbasbag62
(g78
g64
NtRp3713
(dp3714
g67
(dp3715
sg76
g3622
sg69
(lp3716
g62
(g83
g64
NtRp3717
(dp3718
g67
(dp3719
g87
g88
ssg76
g3713
sg69
(lp3720
S'registration_id'
p3721
asbag62
(g83
g64
NtRp3722
(dp3723
g67
(dp3724
g94
g95
ssg76
g3713
sg69
(lp3725
S':'
asbag62
(g83
g64
NtRp3726
(dp3727
g67
(dp3728
sg76
g3713
sg69
(lp3729
g62
(g63
g64
NtRp3730
(dp3731
g67
(dp3732
g75
I3
ssg76
g3726
sg69
(lp3733
S''
asbasbasbag62
(g78
g64
NtRp3734
(dp3735
g67
(dp3736
sg76
g3622
sg69
(lp3737
g62
(g83
g64
NtRp3738
(dp3739
g67
(dp3740
g87
g88
ssg76
g3734
sg69
(lp3741
S'registration_key'
p3742
asbag62
(g83
g64
NtRp3743
(dp3744
g67
(dp3745
g94
g95
ssg76
g3734
sg69
(lp3746
S':'
asbag62
(g83
g64
NtRp3747
(dp3748
g67
(dp3749
sg76
g3734
sg69
(lp3750
g62
(g63
g64
NtRp3751
(dp3752
g67
(dp3753
g75
I3
ssg76
g3747
sg69
(lp3754
S''
asbasbasbag62
(g78
g64
NtRp3755
(dp3756
g67
(dp3757
sg76
g3622
sg69
(lp3758
g62
(g83
g64
NtRp3759
(dp3760
g67
(dp3761
g87
g88
ssg76
g3755
sg69
(lp3762
S'reset_password_key'
p3763
asbag62
(g83
g64
NtRp3764
(dp3765
g67
(dp3766
g94
g95
ssg76
g3755
sg69
(lp3767
S':'
asbag62
(g83
g64
NtRp3768
(dp3769
g67
(dp3770
sg76
g3755
sg69
(lp3771
g62
(g63
g64
NtRp3772
(dp3773
g67
(dp3774
g75
I3
ssg76
g3768
sg69
(lp3775
S''
asbasbasbasbasbasbasbag62
(g78
g64
NtRp3776
(dp3777
g67
(dp3778
sg76
g3510
sg69
(lp3779
g62
(g83
g64
NtRp3780
(dp3781
g67
(dp3782
g87
g88
ssg76
g3776
sg69
(lp3783
S'user_groups'
p3784
asbag62
(g83
g64
NtRp3785
(dp3786
g67
(dp3787
g94
g95
ssg76
g3776
sg69
(lp3788
S':'
asbag62
(g83
g64
NtRp3789
(dp3790
g67
(dp3791
sg76
g3776
sg69
(lp3792
g62
(g63
g64
NtRp3793
(dp3794
g67
(dp3795
g75
I4
ssg76
g3789
sg69
(lp3796
g62
(g71
g64
NtRp3797
(dp3798
g67
(dp3799
g75
I3
ssg76
Nsg69
(lp3800
g62
(g78
g64
NtRp3801
(dp3802
g67
(dp3803
sg76
g3797
sg69
(lp3804
g62
(g83
g64
NtRp3805
(dp3806
g67
(dp3807
g87
g88
ssg76
g3801
sg69
(lp3808
S'1'
asbag62
(g83
g64
NtRp3809
(dp3810
g67
(dp3811
g94
g95
ssg76
g3801
sg69
(lp3812
S':'
asbag62
(g83
g64
NtRp3813
(dp3814
g67
(dp3815
sg76
g3801
sg69
(lp3816
g62
(g63
g64
NtRp3817
(dp3818
g67
(dp3819
g75
I3
ssg76
g3813
sg69
(lp3820
S'user_1'
p3821
asbasbasbag62
(g78
g64
NtRp3822
(dp3823
g67
(dp3824
sg76
g3797
sg69
(lp3825
g62
(g83
g64
NtRp3826
(dp3827
g67
(dp3828
g87
g88
ssg76
g3822
sg69
(lp3829
S'2'
asbag62
(g83
g64
NtRp3830
(dp3831
g67
(dp3832
g94
g95
ssg76
g3822
sg69
(lp3833
S':'
asbag62
(g83
g64
NtRp3834
(dp3835
g67
(dp3836
sg76
g3822
sg69
(lp3837
g62
(g63
g64
NtRp3838
(dp3839
g67
(dp3840
g75
I3
ssg76
g3834
sg69
(lp3841
S'wiki_editor'
p3842
asbasbasbasbasbasbasbasbasbasbasbag62
(g78
g64
NtRp3843
(dp3844
g67
(dp3845
sg76
g3485
sg69
(lp3846
g62
(g83
g64
NtRp3847
(dp3848
g67
(dp3849
g87
g88
ssg76
g3843
sg69
(lp3850
S'flash'
p3851
asbag62
(g83
g64
NtRp3852
(dp3853
g67
(dp3854
g94
g95
ssg76
g3843
sg69
(lp3855
S':'
asbag62
(g83
g64
NtRp3856
(dp3857
g67
(dp3858
sg76
g3843
sg69
(lp3859
g62
(g63
g64
NtRp3860
(dp3861
g67
(dp3862
g75
I5
ssg76
g3856
sg69
(lp3863
S'None'
p3864
asbasbasbasbasbsS'etype'
p3865
S"<type 'exceptions.IOError'>"
p3866
sS'date'
p3867
S'Tue Nov 06 18:43:49 2012'
p3868
sS'response'
p3869
g62
(g63
g64
NtRp3870
(dp3871
g67
(dp3872
sg69
(lp3873
g62
(g71
g64
NtRp3874
(dp3875
g67
(dp3876
g75
I5
ssg76
Nsg69
(lp3877
g62
(g78
g64
NtRp3878
(dp3879
g67
(dp3880
sg76
g3874
sg69
(lp3881
g62
(g83
g64
NtRp3882
(dp3883
g67
(dp3884
g87
g88
ssg76
g3878
sg69
(lp3885
g160
asbag62
(g83
g64
NtRp3886
(dp3887
g67
(dp3888
g94
g95
ssg76
g3878
sg69
(lp3889
S':'
asbag62
(g83
g64
NtRp3890
(dp3891
g67
(dp3892
sg76
g3878
sg69
(lp3893
g62
(g63
g64
NtRp3894
(dp3895
g67
(dp3896
g75
I5
ssg76
g3890
sg69
(lp3897
S'<cStringIO.StringO object at 0x050403A0>'
p3898
asbasbasbag62
(g78
g64
NtRp3899
(dp3900
g67
(dp3901
sg76
g3874
sg69
(lp3902
g62
(g83
g64
NtRp3903
(dp3904
g67
(dp3905
g87
g88
ssg76
g3899
sg69
(lp3906
g248
asbag62
(g83
g64
NtRp3907
(dp3908
g67
(dp3909
g94
g95
ssg76
g3899
sg69
(lp3910
S':'
asbag62
(g83
g64
NtRp3911
(dp3912
g67
(dp3913
sg76
g3899
sg69
(lp3914
g62
(g63
g64
NtRp3915
(dp3916
g67
(dp3917
g75
I5
ssg76
g3911
sg69
(lp3918
g62
(g71
g64
NtRp3919
(dp3920
g67
(dp3921
g75
I4
ssg76
Nsg69
(lp3922
g62
(g78
g64
NtRp3923
(dp3924
g67
(dp3925
sg76
g3919
sg69
(lp3926
g62
(g83
g64
NtRp3927
(dp3928
g67
(dp3929
g87
g88
ssg76
g3923
sg69
(lp3930
S'session_id_web2py_xlchart_dashboard'
p3931
asbag62
(g83
g64
NtRp3932
(dp3933
g67
(dp3934
g94
g95
ssg76
g3923
sg69
(lp3935
S':'
asbag62
(g83
g64
NtRp3936
(dp3937
g67
(dp3938
sg76
g3923
sg69
(lp3939
g62
(g63
g64
NtRp3940
(dp3941
g67
(dp3942
g75
I4
ssg76
g3936
sg69
(lp3943
g480
ag62
(g71
g64
NtRp3944
(dp3945
g67
(dp3946
g75
I3
ssg76
Nsg69
(lp3947
g62
(g78
g64
NtRp3948
(dp3949
g67
(dp3950
sg76
g3944
sg69
(lp3951
g62
(g83
g64
NtRp3952
(dp3953
g67
(dp3954
g87
g88
ssg76
g3948
sg69
(lp3955
g299
asbag62
(g83
g64
NtRp3956
(dp3957
g67
(dp3958
g94
g95
ssg76
g3948
sg69
(lp3959
S':'
asbag62
(g83
g64
NtRp3960
(dp3961
g67
(dp3962
sg76
g3948
sg69
(lp3963
g62
(g63
g64
NtRp3964
(dp3965
g67
(dp3966
g75
I3
ssg76
g3960
sg69
(lp3967
S''
asbasbasbag62
(g78
g64
NtRp3968
(dp3969
g67
(dp3970
sg76
g3944
sg69
(lp3971
g62
(g83
g64
NtRp3972
(dp3973
g67
(dp3974
g87
g88
ssg76
g3968
sg69
(lp3975
g320
asbag62
(g83
g64
NtRp3976
(dp3977
g67
(dp3978
g94
g95
ssg76
g3968
sg69
(lp3979
S':'
asbag62
(g83
g64
NtRp3980
(dp3981
g67
(dp3982
sg76
g3968
sg69
(lp3983
g62
(g63
g64
NtRp3984
(dp3985
g67
(dp3986
g75
I3
ssg76
g3980
sg69
(lp3987
S''
asbasbasbag62
(g78
g64
NtRp3988
(dp3989
g67
(dp3990
sg76
g3944
sg69
(lp3991
g62
(g83
g64
NtRp3992
(dp3993
g67
(dp3994
g87
g88
ssg76
g3988
sg69
(lp3995
g341
asbag62
(g83
g64
NtRp3996
(dp3997
g67
(dp3998
g94
g95
ssg76
g3988
sg69
(lp3999
S':'
asbag62
(g83
g64
NtRp4000
(dp4001
g67
(dp4002
sg76
g3988
sg69
(lp4003
g62
(g63
g64
NtRp4004
(dp4005
g67
(dp4006
g75
I3
ssg76
g4000
sg69
(lp4007
S''
asbasbasbag62
(g78
g64
NtRp4008
(dp4009
g67
(dp4010
sg76
g3944
sg69
(lp4011
g62
(g83
g64
NtRp4012
(dp4013
g67
(dp4014
g87
g88
ssg76
g4008
sg69
(lp4015
g362
asbag62
(g83
g64
NtRp4016
(dp4017
g67
(dp4018
g94
g95
ssg76
g4008
sg69
(lp4019
S':'
asbag62
(g83
g64
NtRp4020
(dp4021
g67
(dp4022
sg76
g4008
sg69
(lp4023
g62
(g63
g64
NtRp4024
(dp4025
g67
(dp4026
g75
I3
ssg76
g4020
sg69
(lp4027
S''
asbasbasbag62
(g78
g64
NtRp4028
(dp4029
g67
(dp4030
sg76
g3944
sg69
(lp4031
g62
(g83
g64
NtRp4032
(dp4033
g67
(dp4034
g87
g88
ssg76
g4028
sg69
(lp4035
g383
asbag62
(g83
g64
NtRp4036
(dp4037
g67
(dp4038
g94
g95
ssg76
g4028
sg69
(lp4039
S':'
asbag62
(g83
g64
NtRp4040
(dp4041
g67
(dp4042
sg76
g4028
sg69
(lp4043
g62
(g63
g64
NtRp4044
(dp4045
g67
(dp4046
g75
I3
ssg76
g4040
sg69
(lp4047
S''
asbasbasbag62
(g78
g64
NtRp4048
(dp4049
g67
(dp4050
sg76
g3944
sg69
(lp4051
g62
(g83
g64
NtRp4052
(dp4053
g67
(dp4054
g87
g88
ssg76
g4048
sg69
(lp4055
g404
asbag62
(g83
g64
NtRp4056
(dp4057
g67
(dp4058
g94
g95
ssg76
g4048
sg69
(lp4059
S':'
asbag62
(g83
g64
NtRp4060
(dp4061
g67
(dp4062
sg76
g4048
sg69
(lp4063
g62
(g63
g64
NtRp4064
(dp4065
g67
(dp4066
g75
I3
ssg76
g4060
sg69
(lp4067
S'/'
asbasbasbag62
(g78
g64
NtRp4068
(dp4069
g67
(dp4070
sg76
g3944
sg69
(lp4071
g62
(g83
g64
NtRp4072
(dp4073
g67
(dp4074
g87
g88
ssg76
g4068
sg69
(lp4075
g425
asbag62
(g83
g64
NtRp4076
(dp4077
g67
(dp4078
g94
g95
ssg76
g4068
sg69
(lp4079
S':'
asbag62
(g83
g64
NtRp4080
(dp4081
g67
(dp4082
sg76
g4068
sg69
(lp4083
g62
(g63
g64
NtRp4084
(dp4085
g67
(dp4086
g75
I3
ssg76
g4080
sg69
(lp4087
S''
asbasbasbag62
(g78
g64
NtRp4088
(dp4089
g67
(dp4090
sg76
g3944
sg69
(lp4091
g62
(g83
g64
NtRp4092
(dp4093
g67
(dp4094
g87
g88
ssg76
g4088
sg69
(lp4095
g446
asbag62
(g83
g64
NtRp4096
(dp4097
g67
(dp4098
g94
g95
ssg76
g4088
sg69
(lp4099
S':'
asbag62
(g83
g64
NtRp4100
(dp4101
g67
(dp4102
sg76
g4088
sg69
(lp4103
g62
(g63
g64
NtRp4104
(dp4105
g67
(dp4106
g75
I3
ssg76
g4100
sg69
(lp4107
S''
asbasbasbasbasbasbasbasbasbasbasbag62
(g78
g64
NtRp4108
(dp4109
g67
(dp4110
sg76
g3874
sg69
(lp4111
g62
(g83
g64
NtRp4112
(dp4113
g67
(dp4114
g87
g88
ssg76
g4108
sg69
(lp4115
S'delimiters'
p4116
asbag62
(g83
g64
NtRp4117
(dp4118
g67
(dp4119
g94
g95
ssg76
g4108
sg69
(lp4120
S':'
asbag62
(g83
g64
NtRp4121
(dp4122
g67
(dp4123
sg76
g4108
sg69
(lp4124
g62
(g63
g64
NtRp4125
(dp4126
g67
(dp4127
g75
I5
ssg76
g4121
sg69
(lp4128
g62
(g71
g64
NtRp4129
(dp4130
g67
(dp4131
g75
I4
ssg76
Nsg69
(lp4132
g62
(g78
g64
NtRp4133
(dp4134
g67
(dp4135
sg76
g4129
sg69
(lp4136
g62
(g83
g64
NtRp4137
(dp4138
g67
(dp4139
sg76
g4133
sg69
(lp4140
g62
(g63
g64
NtRp4141
(dp4142
g67
(dp4143
g75
I4
ssg76
g4137
sg69
(lp4144
S'{{'
p4145
asbasbasbag62
(g78
g64
NtRp4146
(dp4147
g67
(dp4148
sg76
g4129
sg69
(lp4149
g62
(g83
g64
NtRp4150
(dp4151
g67
(dp4152
sg76
g4146
sg69
(lp4153
g62
(g63
g64
NtRp4154
(dp4155
g67
(dp4156
g75
I4
ssg76
g4150
sg69
(lp4157
S'}}'
p4158
asbasbasbasbasbasbasbag62
(g78
g64
NtRp4159
(dp4160
g67
(dp4161
sg76
g3874
sg69
(lp4162
g62
(g83
g64
NtRp4163
(dp4164
g67
(dp4165
g87
g88
ssg76
g4159
sg69
(lp4166
S'files'
p4167
asbag62
(g83
g64
NtRp4168
(dp4169
g67
(dp4170
g94
g95
ssg76
g4159
sg69
(lp4171
S':'
asbag62
(g83
g64
NtRp4172
(dp4173
g67
(dp4174
sg76
g4159
sg69
(lp4175
g62
(g63
g64
NtRp4176
(dp4177
g67
(dp4178
g75
I5
ssg76
g4172
sg69
(lp4179
g62
(g71
g64
NtRp4180
(dp4181
g67
(dp4182
g75
I4
ssg76
Nsg69
(lp4183
sbasbasbasbag62
(g78
g64
NtRp4184
(dp4185
g67
(dp4186
sg76
g3874
sg69
(lp4187
g62
(g83
g64
NtRp4188
(dp4189
g67
(dp4190
g87
g88
ssg76
g4184
sg69
(lp4191
S'flash'
p4192
asbag62
(g83
g64
NtRp4193
(dp4194
g67
(dp4195
g94
g95
ssg76
g4184
sg69
(lp4196
S':'
asbag62
(g83
g64
NtRp4197
(dp4198
g67
(dp4199
sg76
g4184
sg69
(lp4200
g62
(g63
g64
NtRp4201
(dp4202
g67
(dp4203
g75
I5
ssg76
g4197
sg69
(lp4204
S''
asbasbasbag62
(g78
g64
NtRp4205
(dp4206
g67
(dp4207
sg76
g3874
sg69
(lp4208
g62
(g83
g64
NtRp4209
(dp4210
g67
(dp4211
g87
g88
ssg76
g4205
sg69
(lp4212
S'generic_patterns'
p4213
asbag62
(g83
g64
NtRp4214
(dp4215
g67
(dp4216
g94
g95
ssg76
g4205
sg69
(lp4217
S':'
asbag62
(g83
g64
NtRp4218
(dp4219
g67
(dp4220
sg76
g4205
sg69
(lp4221
g62
(g63
g64
NtRp4222
(dp4223
g67
(dp4224
g75
I5
ssg76
g4218
sg69
(lp4225
g62
(g71
g64
NtRp4226
(dp4227
g67
(dp4228
g75
I4
ssg76
Nsg69
(lp4229
g62
(g78
g64
NtRp4230
(dp4231
g67
(dp4232
sg76
g4226
sg69
(lp4233
g62
(g83
g64
NtRp4234
(dp4235
g67
(dp4236
sg76
g4230
sg69
(lp4237
g62
(g63
g64
NtRp4238
(dp4239
g67
(dp4240
g75
I4
ssg76
g4234
sg69
(lp4241
S'*'
asbasbasbasbasbasbasbag62
(g78
g64
NtRp4242
(dp4243
g67
(dp4244
sg76
g3874
sg69
(lp4245
g62
(g83
g64
NtRp4246
(dp4247
g67
(dp4248
g87
g88
ssg76
g4242
sg69
(lp4249
S'google_analytics_id'
p4250
asbag62
(g83
g64
NtRp4251
(dp4252
g67
(dp4253
g94
g95
ssg76
g4242
sg69
(lp4254
S':'
asbag62
(g83
g64
NtRp4255
(dp4256
g67
(dp4257
sg76
g4242
sg69
(lp4258
g62
(g63
g64
NtRp4259
(dp4260
g67
(dp4261
g75
I5
ssg76
g4255
sg69
(lp4262
S'None'
p4263
asbasbasbag62
(g78
g64
NtRp4264
(dp4265
g67
(dp4266
sg76
g3874
sg69
(lp4267
g62
(g83
g64
NtRp4268
(dp4269
g67
(dp4270
g87
g88
ssg76
g4264
sg69
(lp4271
S'headers'
p4272
asbag62
(g83
g64
NtRp4273
(dp4274
g67
(dp4275
g94
g95
ssg76
g4264
sg69
(lp4276
S':'
asbag62
(g83
g64
NtRp4277
(dp4278
g67
(dp4279
sg76
g4264
sg69
(lp4280
g62
(g63
g64
NtRp4281
(dp4282
g67
(dp4283
g75
I5
ssg76
g4277
sg69
(lp4284
g62
(g71
g64
NtRp4285
(dp4286
g67
(dp4287
g75
I4
ssg76
Nsg69
(lp4288
g62
(g78
g64
NtRp4289
(dp4290
g67
(dp4291
sg76
g4285
sg69
(lp4292
g62
(g83
g64
NtRp4293
(dp4294
g67
(dp4295
g87
g88
ssg76
g4289
sg69
(lp4296
S'X-Powered-By'
p4297
asbag62
(g83
g64
NtRp4298
(dp4299
g67
(dp4300
g94
g95
ssg76
g4289
sg69
(lp4301
S':'
asbag62
(g83
g64
NtRp4302
(dp4303
g67
(dp4304
sg76
g4289
sg69
(lp4305
g62
(g63
g64
NtRp4306
(dp4307
g67
(dp4308
g75
I4
ssg76
g4302
sg69
(lp4309
S'web2py'
p4310
asbasbasbasbasbasbasbag62
(g78
g64
NtRp4311
(dp4312
g67
(dp4313
sg76
g3874
sg69
(lp4314
g62
(g83
g64
NtRp4315
(dp4316
g67
(dp4317
g87
g88
ssg76
g4311
sg69
(lp4318
S'menu'
p4319
asbag62
(g83
g64
NtRp4320
(dp4321
g67
(dp4322
g94
g95
ssg76
g4311
sg69
(lp4323
S':'
asbag62
(g83
g64
NtRp4324
(dp4325
g67
(dp4326
sg76
g4311
sg69
(lp4327
g62
(g63
g64
NtRp4328
(dp4329
g67
(dp4330
g75
I5
ssg76
g4324
sg69
(lp4331
g62
(g71
g64
NtRp4332
(dp4333
g67
(dp4334
g75
I4
ssg76
Nsg69
(lp4335
g62
(g78
g64
NtRp4336
(dp4337
g67
(dp4338
sg76
g4332
sg69
(lp4339
g62
(g83
g64
NtRp4340
(dp4341
g67
(dp4342
sg76
g4336
sg69
(lp4343
g62
(g63
g64
NtRp4344
(dp4345
g67
(dp4346
g75
I4
ssg76
g4340
sg69
(lp4347
g62
(g71
g64
NtRp4348
(dp4349
g67
(dp4350
g75
I3
ssg76
Nsg69
(lp4351
g62
(g78
g64
NtRp4352
(dp4353
g67
(dp4354
sg76
g4348
sg69
(lp4355
g62
(g83
g64
NtRp4356
(dp4357
g67
(dp4358
sg76
g4352
sg69
(lp4359
g62
(g63
g64
NtRp4360
(dp4361
g67
(dp4362
g75
I3
ssg76
g4356
sg69
(lp4363
cgluon.languages
lazyT_unpickle
p4364
(S't\t\x00\x00\x00Dashboard'
tRp4365
asbasbasbag62
(g78
g64
NtRp4366
(dp4367
g67
(dp4368
sg76
g4348
sg69
(lp4369
g62
(g83
g64
NtRp4370
(dp4371
g67
(dp4372
sg76
g4366
sg69
(lp4373
g62
(g63
g64
NtRp4374
(dp4375
g67
(dp4376
g75
I3
ssg76
g4370
sg69
(lp4377
g825
asbasbasbag62
(g78
g64
NtRp4378
(dp4379
g67
(dp4380
sg76
g4348
sg69
(lp4381
g62
(g83
g64
NtRp4382
(dp4383
g67
(dp4384
sg76
g4378
sg69
(lp4385
g62
(g63
g64
NtRp4386
(dp4387
g67
(dp4388
g75
I3
ssg76
g4382
sg69
(lp4389
S'/web2py_xlchart_dashboard/default/index'
p4390
asbasbasbag62
(g78
g64
NtRp4391
(dp4392
g67
(dp4393
sg76
g4348
sg69
(lp4394
g62
(g83
g64
NtRp4395
(dp4396
g67
(dp4397
sg76
g4391
sg69
(lp4398
g62
(g63
g64
NtRp4399
(dp4400
g67
(dp4401
g75
I3
ssg76
g4395
sg69
(lp4402
g62
(g71
g64
NtRp4403
(dp4404
g67
(dp4405
g75
I2
ssg76
Nsg69
(lp4406
g62
(g78
g64
NtRp4407
(dp4408
g67
(dp4409
sg76
g4403
sg69
(lp4410
g62
(g83
g64
NtRp4411
(dp4412
g67
(dp4413
sg76
g4407
sg69
(lp4414
g62
(g63
g64
NtRp4415
(dp4416
g67
(dp4417
g75
I2
ssg76
g4411
sg69
(lp4418
g62
(g71
g64
NtRp4419
(dp4420
g67
(dp4421
g75
I1
ssg76
Nsg69
(lp4422
g62
(g78
g64
NtRp4423
(dp4424
g67
(dp4425
sg76
g4419
sg69
(lp4426
g62
(g83
g64
NtRp4427
(dp4428
g67
(dp4429
sg76
g4423
sg69
(lp4430
g62
(g63
g64
NtRp4431
(dp4432
g67
(dp4433
g75
I1
ssg76
g4427
sg69
(lp4434
g4364
(S's\x0c\x00\x00\x00My Dashboard'
tRp4435
asbasbasbag62
(g78
g64
NtRp4436
(dp4437
g67
(dp4438
sg76
g4419
sg69
(lp4439
g62
(g83
g64
NtRp4440
(dp4441
g67
(dp4442
sg76
g4436
sg69
(lp4443
g62
(g63
g64
NtRp4444
(dp4445
g67
(dp4446
g75
I1
ssg76
g4440
sg69
(lp4447
I00
asbasbasbag62
(g78
g64
NtRp4448
(dp4449
g67
(dp4450
sg76
g4419
sg69
(lp4451
g62
(g83
g64
NtRp4452
(dp4453
g67
(dp4454
sg76
g4448
sg69
(lp4455
g62
(g63
g64
NtRp4456
(dp4457
g67
(dp4458
g75
I1
ssg76
g4452
sg69
(lp4459
S'/web2py_xlchart_dashboard/default/index'
p4460
asbasbasbag62
(g78
g64
NtRp4461
(dp4462
g67
(dp4463
sg76
g4419
sg69
(lp4464
g62
(g83
g64
NtRp4465
(dp4466
g67
(dp4467
sg76
g4461
sg69
(lp4468
g62
(g63
g64
NtRp4469
(dp4470
g67
(dp4471
g75
I1
ssg76
g4465
sg69
(lp4472
(lp4473
(g4364
(S's\x11\x00\x00\x00Manage Dashboards'
tRp4474
I00
S'/web2py_xlchart_dashboard/dashboard/index'
tp4475
a(g4364
(S's\r\x00\x00\x00Add Dashboard'
tRp4476
I00
S'/web2py_xlchart_dashboard/default/add_workbook'
tp4477
a(g4364
(S's\x0f\x00\x00\x00Manage Projects'
tRp4478
I00
S'/web2py_xlchart_dashboard/default/add_workbook'
tp4479
a(g4364
(S's\x0b\x00\x00\x00Add Project'
tRp4480
I00
S'/web2py_xlchart_dashboard/default/add_workbook'
tp4481
aasbasbasbasbasbasbasbag62
(g78
g64
NtRp4482
(dp4483
g67
(dp4484
sg76
g4403
sg69
(lp4485
g62
(g83
g64
NtRp4486
(dp4487
g67
(dp4488
sg76
g4482
sg69
(lp4489
g62
(g63
g64
NtRp4490
(dp4491
g67
(dp4492
g75
I2
ssg76
g4486
sg69
(lp4493
g62
(g71
g64
NtRp4494
(dp4495
g67
(dp4496
g75
I1
ssg76
Nsg69
(lp4497
g62
(g78
g64
NtRp4498
(dp4499
g67
(dp4500
sg76
g4494
sg69
(lp4501
g62
(g83
g64
NtRp4502
(dp4503
g67
(dp4504
sg76
g4498
sg69
(lp4505
g62
(g63
g64
NtRp4506
(dp4507
g67
(dp4508
g75
I1
ssg76
g4502
sg69
(lp4509
g4364
(S't\t\x00\x00\x00Workbooks'
tRp4510
asbasbasbag62
(g78
g64
NtRp4511
(dp4512
g67
(dp4513
sg76
g4494
sg69
(lp4514
g62
(g83
g64
NtRp4515
(dp4516
g67
(dp4517
sg76
g4511
sg69
(lp4518
g62
(g63
g64
NtRp4519
(dp4520
g67
(dp4521
g75
I1
ssg76
g4515
sg69
(lp4522
I00
asbasbasbag62
(g78
g64
NtRp4523
(dp4524
g67
(dp4525
sg76
g4494
sg69
(lp4526
g62
(g83
g64
NtRp4527
(dp4528
g67
(dp4529
sg76
g4523
sg69
(lp4530
g62
(g63
g64
NtRp4531
(dp4532
g67
(dp4533
g75
I1
ssg76
g4527
sg69
(lp4534
S'/web2py_xlchart_dashboard/default/index'
p4535
asbasbasbag62
(g78
g64
NtRp4536
(dp4537
g67
(dp4538
sg76
g4494
sg69
(lp4539
g62
(g83
g64
NtRp4540
(dp4541
g67
(dp4542
sg76
g4536
sg69
(lp4543
g62
(g63
g64
NtRp4544
(dp4545
g67
(dp4546
g75
I1
ssg76
g4540
sg69
(lp4547
(lp4548
(g4364
(S's\x0c\x00\x00\x00Add Workbook'
tRp4549
I00
S'/web2py_xlchart_dashboard/default/add_workbook'
tp4550
aasbasbasbasbasbasbasbasbasbasbasbasbasbasbasbag62
(g78
g64
NtRp4551
(dp4552
g67
(dp4553
sg76
g4332
sg69
(lp4554
g62
(g83
g64
NtRp4555
(dp4556
g67
(dp4557
sg76
g4551
sg69
(lp4558
g62
(g63
g64
NtRp4559
(dp4560
g67
(dp4561
g75
I4
ssg76
g4555
sg69
(lp4562
g62
(g71
g64
NtRp4563
(dp4564
g67
(dp4565
g75
I3
ssg76
Nsg69
(lp4566
g62
(g78
g64
NtRp4567
(dp4568
g67
(dp4569
sg76
g4563
sg69
(lp4570
g62
(g83
g64
NtRp4571
(dp4572
g67
(dp4573
sg76
g4567
sg69
(lp4574
g62
(g63
g64
NtRp4575
(dp4576
g67
(dp4577
g75
I3
ssg76
g4571
sg69
(lp4578
g62
(cgluon.html
SPAN
p4579
g64
NtRp4580
(dp4581
g67
(dp4582
S'_class'
p4583
S'highlighted'
p4584
ssg76
Nsg69
(lp4585
g4310
asbasbasbasbag62
(g78
g64
NtRp4586
(dp4587
g67
(dp4588
sg76
g4563
sg69
(lp4589
g62
(g83
g64
NtRp4590
(dp4591
g67
(dp4592
sg76
g4586
sg69
(lp4593
g62
(g63
g64
NtRp4594
(dp4595
g67
(dp4596
g75
I3
ssg76
g4590
sg69
(lp4597
g825
asbasbasbag62
(g78
g64
NtRp4598
(dp4599
g67
(dp4600
sg76
g4563
sg69
(lp4601
g62
(g83
g64
NtRp4602
(dp4603
g67
(dp4604
sg76
g4598
sg69
(lp4605
g62
(g63
g64
NtRp4606
(dp4607
g67
(dp4608
g75
I3
ssg76
g4602
sg69
(lp4609
S'http://web2py.com'
p4610
asbasbasbag62
(g78
g64
NtRp4611
(dp4612
g67
(dp4613
sg76
g4563
sg69
(lp4614
g62
(g83
g64
NtRp4615
(dp4616
g67
(dp4617
sg76
g4611
sg69
(lp4618
g62
(g63
g64
NtRp4619
(dp4620
g67
(dp4621
g75
I3
ssg76
g4615
sg69
(lp4622
g62
(g71
g64
NtRp4623
(dp4624
g67
(dp4625
g75
I2
ssg76
Nsg69
(lp4626
g62
(g78
g64
NtRp4627
(dp4628
g67
(dp4629
sg76
g4623
sg69
(lp4630
g62
(g83
g64
NtRp4631
(dp4632
g67
(dp4633
sg76
g4627
sg69
(lp4634
g62
(g63
g64
NtRp4635
(dp4636
g67
(dp4637
g75
I2
ssg76
g4631
sg69
(lp4638
g62
(g71
g64
NtRp4639
(dp4640
g67
(dp4641
g75
I1
ssg76
Nsg69
(lp4642
g62
(g78
g64
NtRp4643
(dp4644
g67
(dp4645
sg76
g4639
sg69
(lp4646
g62
(g83
g64
NtRp4647
(dp4648
g67
(dp4649
sg76
g4643
sg69
(lp4650
g62
(g63
g64
NtRp4651
(dp4652
g67
(dp4653
g75
I1
ssg76
g4647
sg69
(lp4654
g4364
(S's\x08\x00\x00\x00My Sites'
tRp4655
asbasbasbag62
(g78
g64
NtRp4656
(dp4657
g67
(dp4658
sg76
g4639
sg69
(lp4659
g62
(g83
g64
NtRp4660
(dp4661
g67
(dp4662
sg76
g4656
sg69
(lp4663
g62
(g63
g64
NtRp4664
(dp4665
g67
(dp4666
g75
I1
ssg76
g4660
sg69
(lp4667
I00
asbasbasbag62
(g78
g64
NtRp4668
(dp4669
g67
(dp4670
sg76
g4639
sg69
(lp4671
g62
(g83
g64
NtRp4672
(dp4673
g67
(dp4674
sg76
g4668
sg69
(lp4675
g62
(g63
g64
NtRp4676
(dp4677
g67
(dp4678
g75
I1
ssg76
g4672
sg69
(lp4679
S'/admin/default/site'
p4680
asbasbasbasbasbasbasbag62
(g78
g64
NtRp4681
(dp4682
g67
(dp4683
sg76
g4623
sg69
(lp4684
g62
(g83
g64
NtRp4685
(dp4686
g67
(dp4687
sg76
g4681
sg69
(lp4688
g62
(g63
g64
NtRp4689
(dp4690
g67
(dp4691
g75
I2
ssg76
g4685
sg69
(lp4692
g62
(g71
g64
NtRp4693
(dp4694
g67
(dp4695
g75
I1
ssg76
Nsg69
(lp4696
g62
(g78
g64
NtRp4697
(dp4698
g67
(dp4699
sg76
g4693
sg69
(lp4700
g62
(g83
g64
NtRp4701
(dp4702
g67
(dp4703
sg76
g4697
sg69
(lp4704
g62
(g63
g64
NtRp4705
(dp4706
g67
(dp4707
g75
I1
ssg76
g4701
sg69
(lp4708
g4364
(S's\x08\x00\x00\x00This App'
tRp4709
asbasbasbag62
(g78
g64
NtRp4710
(dp4711
g67
(dp4712
sg76
g4693
sg69
(lp4713
g62
(g83
g64
NtRp4714
(dp4715
g67
(dp4716
sg76
g4710
sg69
(lp4717
g62
(g63
g64
NtRp4718
(dp4719
g67
(dp4720
g75
I1
ssg76
g4714
sg69
(lp4721
I00
asbasbasbag62
(g78
g64
NtRp4722
(dp4723
g67
(dp4724
sg76
g4693
sg69
(lp4725
g62
(g83
g64
NtRp4726
(dp4727
g67
(dp4728
sg76
g4722
sg69
(lp4729
g62
(g63
g64
NtRp4730
(dp4731
g67
(dp4732
g75
I1
ssg76
g4726
sg69
(lp4733
S'/admin/default/design/web2py_xlchart_dashboard'
p4734
asbasbasbag62
(g78
g64
NtRp4735
(dp4736
g67
(dp4737
sg76
g4693
sg69
(lp4738
g62
(g83
g64
NtRp4739
(dp4740
g67
(dp4741
sg76
g4735
sg69
(lp4742
g62
(g63
g64
NtRp4743
(dp4744
g67
(dp4745
g75
I1
ssg76
g4739
sg69
(lp4746
(lp4747
(g4364
(S's\n\x00\x00\x00Controller'
tRp4748
I00
S'/admin/default/edit/web2py_xlchart_dashboard/controllers/default.py'
tp4749
a(g4364
(S's\x04\x00\x00\x00View'
tRp4750
I00
S'/admin/default/edit/web2py_xlchart_dashboard/views/default/registerchart.html'
tp4751
a(g4364
(S's\x06\x00\x00\x00Layout'
tRp4752
I00
S'/admin/default/edit/web2py_xlchart_dashboard/views/layout.html'
tp4753
a(g4364
(S's\n\x00\x00\x00Stylesheet'
tRp4754
I00
S'/admin/default/edit/web2py_xlchart_dashboard/static/css/web2py.css'
tp4755
a(g4364
(S's\x08\x00\x00\x00DB Model'
tRp4756
I00
S'/admin/default/edit/web2py_xlchart_dashboard/models/db.py'
tp4757
a(g4364
(S's\n\x00\x00\x00Menu Model'
tRp4758
I00
S'/admin/default/edit/web2py_xlchart_dashboard/models/menu.py'
tp4759
a(g4364
(S's\x08\x00\x00\x00Database'
tRp4760
I00
S'/web2py_xlchart_dashboard/appadmin/index'
tp4761
a(g4364
(S's\x06\x00\x00\x00Errors'
tRp4762
I00
S'/admin/default/errors/web2py_xlchart_dashboard'
tp4763
a(g4364
(S's\x05\x00\x00\x00About'
tRp4764
I00
S'/admin/default/about/web2py_xlchart_dashboard'
tp4765
aasbasbasbasbasbasbasbag62
(g78
g64
NtRp4766
(dp4767
g67
(dp4768
sg76
g4623
sg69
(lp4769
g62
(g83
g64
NtRp4770
(dp4771
g67
(dp4772
sg76
g4766
sg69
(lp4773
g62
(g63
g64
NtRp4774
(dp4775
g67
(dp4776
g75
I2
ssg76
g4770
sg69
(lp4777
g62
(g71
g64
NtRp4778
(dp4779
g67
(dp4780
g75
I1
ssg76
Nsg69
(lp4781
g62
(g78
g64
NtRp4782
(dp4783
g67
(dp4784
sg76
g4778
sg69
(lp4785
g62
(g83
g64
NtRp4786
(dp4787
g67
(dp4788
sg76
g4782
sg69
(lp4789
g62
(g63
g64
NtRp4790
(dp4791
g67
(dp4792
g75
I1
ssg76
g4786
sg69
(lp4793
S'web2py.com'
p4794
asbasbasbag62
(g78
g64
NtRp4795
(dp4796
g67
(dp4797
sg76
g4778
sg69
(lp4798
g62
(g83
g64
NtRp4799
(dp4800
g67
(dp4801
sg76
g4795
sg69
(lp4802
g62
(g63
g64
NtRp4803
(dp4804
g67
(dp4805
g75
I1
ssg76
g4799
sg69
(lp4806
I00
asbasbasbag62
(g78
g64
NtRp4807
(dp4808
g67
(dp4809
sg76
g4778
sg69
(lp4810
g62
(g83
g64
NtRp4811
(dp4812
g67
(dp4813
sg76
g4807
sg69
(lp4814
g62
(g63
g64
NtRp4815
(dp4816
g67
(dp4817
g75
I1
ssg76
g4811
sg69
(lp4818
S'http://www.web2py.com'
p4819
asbasbasbag62
(g78
g64
NtRp4820
(dp4821
g67
(dp4822
sg76
g4778
sg69
(lp4823
g62
(g83
g64
NtRp4824
(dp4825
g67
(dp4826
sg76
g4820
sg69
(lp4827
g62
(g63
g64
NtRp4828
(dp4829
g67
(dp4830
g75
I1
ssg76
g4824
sg69
(lp4831
(lp4832
(g4364
(S's\x08\x00\x00\x00Download'
tRp4833
I00
S'http://www.web2py.com/examples/default/download'
p4834
tp4835
a(g4364
(S's\x07\x00\x00\x00Support'
tRp4836
I00
S'http://www.web2py.com/examples/default/support'
p4837
tp4838
a(g4364
(S's\x04\x00\x00\x00Demo'
tRp4839
I00
S'http://web2py.com/demo_admin'
p4840
tp4841
a(g4364
(S's\x0e\x00\x00\x00Quick Examples'
tRp4842
I00
S'http://web2py.com/examples/default/examples'
p4843
tp4844
a(g4364
(S's\x03\x00\x00\x00FAQ'
tRp4845
I00
S'http://web2py.com/AlterEgo'
p4846
tp4847
a(g4364
(S's\x06\x00\x00\x00Videos'
tRp4848
I00
S'http://www.web2py.com/examples/default/videos/'
p4849
tp4850
a(g4364
(S's\x11\x00\x00\x00Free Applications'
tRp4851
I00
S'http://web2py.com/appliances'
p4852
tp4853
a(g4364
(S's\x07\x00\x00\x00Plugins'
tRp4854
I00
S'http://web2py.com/plugins'
p4855
tp4856
a(g4364
(S's\x07\x00\x00\x00Layouts'
tRp4857
I00
S'http://web2py.com/layouts'
p4858
tp4859
a(g4364
(S's\x07\x00\x00\x00Recipes'
tRp4860
I00
S'http://web2pyslices.com/'
p4861
tp4862
a(g4364
(S's\x08\x00\x00\x00Semantic'
tRp4863
I00
S'http://web2py.com/semantic'
p4864
tp4865
aasbasbasbasbasbasbasbag62
(g78
g64
NtRp4866
(dp4867
g67
(dp4868
sg76
g4623
sg69
(lp4869
g62
(g83
g64
NtRp4870
(dp4871
g67
(dp4872
sg76
g4866
sg69
(lp4873
g62
(g63
g64
NtRp4874
(dp4875
g67
(dp4876
g75
I2
ssg76
g4870
sg69
(lp4877
g62
(g71
g64
NtRp4878
(dp4879
g67
(dp4880
g75
I1
ssg76
Nsg69
(lp4881
g62
(g78
g64
NtRp4882
(dp4883
g67
(dp4884
sg76
g4878
sg69
(lp4885
g62
(g83
g64
NtRp4886
(dp4887
g67
(dp4888
sg76
g4882
sg69
(lp4889
g62
(g63
g64
NtRp4890
(dp4891
g67
(dp4892
g75
I1
ssg76
g4886
sg69
(lp4893
g4364
(S's\r\x00\x00\x00Documentation'
tRp4894
asbasbasbag62
(g78
g64
NtRp4895
(dp4896
g67
(dp4897
sg76
g4878
sg69
(lp4898
g62
(g83
g64
NtRp4899
(dp4900
g67
(dp4901
sg76
g4895
sg69
(lp4902
g62
(g63
g64
NtRp4903
(dp4904
g67
(dp4905
g75
I1
ssg76
g4899
sg69
(lp4906
I00
asbasbasbag62
(g78
g64
NtRp4907
(dp4908
g67
(dp4909
sg76
g4878
sg69
(lp4910
g62
(g83
g64
NtRp4911
(dp4912
g67
(dp4913
sg76
g4907
sg69
(lp4914
g62
(g63
g64
NtRp4915
(dp4916
g67
(dp4917
g75
I1
ssg76
g4911
sg69
(lp4918
S'http://www.web2py.com/book'
p4919
asbasbasbag62
(g78
g64
NtRp4920
(dp4921
g67
(dp4922
sg76
g4878
sg69
(lp4923
g62
(g83
g64
NtRp4924
(dp4925
g67
(dp4926
sg76
g4920
sg69
(lp4927
g62
(g63
g64
NtRp4928
(dp4929
g67
(dp4930
g75
I1
ssg76
g4924
sg69
(lp4931
(lp4932
(g4364
(S's\x07\x00\x00\x00Preface'
tRp4933
I00
S'http://www.web2py.com/book/default/chapter/00'
p4934
tp4935
a(g4364
(S's\x0c\x00\x00\x00Introduction'
tRp4936
I00
S'http://www.web2py.com/book/default/chapter/01'
p4937
tp4938
a(g4364
(S's\x06\x00\x00\x00Python'
tRp4939
I00
S'http://www.web2py.com/book/default/chapter/02'
p4940
tp4941
a(g4364
(S's\x08\x00\x00\x00Overview'
tRp4942
I00
S'http://www.web2py.com/book/default/chapter/03'
p4943
tp4944
a(g4364
(S's\x08\x00\x00\x00The Core'
tRp4945
I00
S'http://www.web2py.com/book/default/chapter/04'
p4946
tp4947
a(g4364
(S's\t\x00\x00\x00The Views'
tRp4948
I00
S'http://www.web2py.com/book/default/chapter/05'
p4949
tp4950
a(g4364
(S's\x08\x00\x00\x00Database'
tRp4951
I00
S'http://www.web2py.com/book/default/chapter/06'
p4952
tp4953
a(g4364
(S's\x14\x00\x00\x00Forms and Validators'
tRp4954
I00
S'http://www.web2py.com/book/default/chapter/07'
p4955
tp4956
a(g4364
(S's\r\x00\x00\x00Email and SMS'
tRp4957
I00
S'http://www.web2py.com/book/default/chapter/08'
p4958
tp4959
a(g4364
(S's\x0e\x00\x00\x00Access Control'
tRp4960
I00
S'http://www.web2py.com/book/default/chapter/09'
p4961
tp4962
a(g4364
(S's\x08\x00\x00\x00Services'
tRp4963
I00
S'http://www.web2py.com/book/default/chapter/10'
p4964
tp4965
a(g4364
(S's\x0c\x00\x00\x00Ajax Recipes'
tRp4966
I00
S'http://www.web2py.com/book/default/chapter/11'
p4967
tp4968
a(g4364
(S's\x16\x00\x00\x00Components and Plugins'
tRp4969
I00
S'http://www.web2py.com/book/default/chapter/12'
p4970
tp4971
a(g4364
(S's\x12\x00\x00\x00Deployment Recipes'
tRp4972
I00
S'http://www.web2py.com/book/default/chapter/13'
p4973
tp4974
a(g4364
(S's\r\x00\x00\x00Other Recipes'
tRp4975
I00
S'http://www.web2py.com/book/default/chapter/14'
p4976
tp4977
a(g4364
(S's\r\x00\x00\x00Buy this book'
tRp4978
I00
S'http://stores.lulu.com/web2py'
p4979
tp4980
aasbasbasbasbasbasbasbag62
(g78
g64
NtRp4981
(dp4982
g67
(dp4983
sg76
g4623
sg69
(lp4984
g62
(g83
g64
NtRp4985
(dp4986
g67
(dp4987
sg76
g4981
sg69
(lp4988
g62
(g63
g64
NtRp4989
(dp4990
g67
(dp4991
g75
I2
ssg76
g4985
sg69
(lp4992
g62
(g71
g64
NtRp4993
(dp4994
g67
(dp4995
g75
I1
ssg76
Nsg69
(lp4996
g62
(g78
g64
NtRp4997
(dp4998
g67
(dp4999
sg76
g4993
sg69
(lp5000
g62
(g83
g64
NtRp5001
(dp5002
g67
(dp5003
sg76
g4997
sg69
(lp5004
g62
(g63
g64
NtRp5005
(dp5006
g67
(dp5007
g75
I1
ssg76
g5001
sg69
(lp5008
g4364
(S's\t\x00\x00\x00Community'
tRp5009
asbasbasbag62
(g78
g64
NtRp5010
(dp5011
g67
(dp5012
sg76
g4993
sg69
(lp5013
g62
(g83
g64
NtRp5014
(dp5015
g67
(dp5016
sg76
g5010
sg69
(lp5017
g62
(g63
g64
NtRp5018
(dp5019
g67
(dp5020
g75
I1
ssg76
g5014
sg69
(lp5021
I00
asbasbasbag62
(g78
g64
NtRp5022
(dp5023
g67
(dp5024
sg76
g4993
sg69
(lp5025
g62
(g83
g64
NtRp5026
(dp5027
g67
(dp5028
sg76
g5022
sg69
(lp5029
g62
(g63
g64
NtRp5030
(dp5031
g67
(dp5032
g75
I1
ssg76
g5026
sg69
(lp5033
Nasbasbasbag62
(g78
g64
NtRp5034
(dp5035
g67
(dp5036
sg76
g4993
sg69
(lp5037
g62
(g83
g64
NtRp5038
(dp5039
g67
(dp5040
sg76
g5034
sg69
(lp5041
g62
(g63
g64
NtRp5042
(dp5043
g67
(dp5044
g75
I1
ssg76
g5038
sg69
(lp5045
(lp5046
(g4364
(S's\x06\x00\x00\x00Groups'
tRp5047
I00
S'http://www.web2py.com/examples/default/usergroups'
p5048
tp5049
a(g4364
(S's\x07\x00\x00\x00Twitter'
tRp5050
I00
S'http://twitter.com/web2py'
p5051
tp5052
a(g4364
(S's\t\x00\x00\x00Live Chat'
tRp5053
I00
S'http://webchat.freenode.net/?channels=web2py'
p5054
tp5055
aasbasbasbasbasbasbasbag62
(g78
g64
NtRp5056
(dp5057
g67
(dp5058
sg76
g4623
sg69
(lp5059
g62
(g83
g64
NtRp5060
(dp5061
g67
(dp5062
sg76
g5056
sg69
(lp5063
g62
(g63
g64
NtRp5064
(dp5065
g67
(dp5066
g75
I2
ssg76
g5060
sg69
(lp5067
g62
(g71
g64
NtRp5068
(dp5069
g67
(dp5070
g75
I1
ssg76
Nsg69
(lp5071
g62
(g78
g64
NtRp5072
(dp5073
g67
(dp5074
sg76
g5068
sg69
(lp5075
g62
(g83
g64
NtRp5076
(dp5077
g67
(dp5078
sg76
g5072
sg69
(lp5079
g62
(g63
g64
NtRp5080
(dp5081
g67
(dp5082
g75
I1
ssg76
g5076
sg69
(lp5083
g4364
(S's\x07\x00\x00\x00Plugins'
tRp5084
asbasbasbag62
(g78
g64
NtRp5085
(dp5086
g67
(dp5087
sg76
g5068
sg69
(lp5088
g62
(g83
g64
NtRp5089
(dp5090
g67
(dp5091
sg76
g5085
sg69
(lp5092
g62
(g63
g64
NtRp5093
(dp5094
g67
(dp5095
g75
I1
ssg76
g5089
sg69
(lp5096
I00
asbasbasbag62
(g78
g64
NtRp5097
(dp5098
g67
(dp5099
sg76
g5068
sg69
(lp5100
g62
(g83
g64
NtRp5101
(dp5102
g67
(dp5103
sg76
g5097
sg69
(lp5104
g62
(g63
g64
NtRp5105
(dp5106
g67
(dp5107
g75
I1
ssg76
g5101
sg69
(lp5108
Nasbasbasbag62
(g78
g64
NtRp5109
(dp5110
g67
(dp5111
sg76
g5068
sg69
(lp5112
g62
(g83
g64
NtRp5113
(dp5114
g67
(dp5115
sg76
g5109
sg69
(lp5116
g62
(g63
g64
NtRp5117
(dp5118
g67
(dp5119
g75
I1
ssg76
g5113
sg69
(lp5120
(lp5121
(S'plugin_wiki'
p5122
I00
S'http://web2py.com/examples/default/download'
p5123
tp5124
a(g4364
(S's\r\x00\x00\x00Other Plugins'
tRp5125
I00
g4855
tp5126
a(g4364
(S's\x0e\x00\x00\x00Layout Plugins'
tRp5127
I00
g4858
tp5128
aasbasbasbasbasbasbasbasbasbasbasbasbasbasbasbasbasbasbasbag62
(g78
g64
NtRp5129
(dp5130
g67
(dp5131
sg76
g3874
sg69
(lp5132
g62
(g83
g64
NtRp5133
(dp5134
g67
(dp5135
g87
g88
ssg76
g5129
sg69
(lp5136
S'meta'
p5137
asbag62
(g83
g64
NtRp5138
(dp5139
g67
(dp5140
g94
g95
ssg76
g5129
sg69
(lp5141
S':'
asbag62
(g83
g64
NtRp5142
(dp5143
g67
(dp5144
sg76
g5129
sg69
(lp5145
g62
(g63
g64
NtRp5146
(dp5147
g67
(dp5148
g75
I5
ssg76
g5142
sg69
(lp5149
g62
(g71
g64
NtRp5150
(dp5151
g67
(dp5152
g75
I4
ssg76
Nsg69
(lp5153
g62
(g78
g64
NtRp5154
(dp5155
g67
(dp5156
sg76
g5150
sg69
(lp5157
g62
(g83
g64
NtRp5158
(dp5159
g67
(dp5160
g87
g88
ssg76
g5154
sg69
(lp5161
S'author'
p5162
asbag62
(g83
g64
NtRp5163
(dp5164
g67
(dp5165
g94
g95
ssg76
g5154
sg69
(lp5166
S':'
asbag62
(g83
g64
NtRp5167
(dp5168
g67
(dp5169
sg76
g5154
sg69
(lp5170
g62
(g63
g64
NtRp5171
(dp5172
g67
(dp5173
g75
I4
ssg76
g5167
sg69
(lp5174
S'Your Name <you@example.com>'
p5175
asbasbasbag62
(g78
g64
NtRp5176
(dp5177
g67
(dp5178
sg76
g5150
sg69
(lp5179
g62
(g83
g64
NtRp5180
(dp5181
g67
(dp5182
g87
g88
ssg76
g5176
sg69
(lp5183
S'description'
p5184
asbag62
(g83
g64
NtRp5185
(dp5186
g67
(dp5187
g94
g95
ssg76
g5176
sg69
(lp5188
S':'
asbag62
(g83
g64
NtRp5189
(dp5190
g67
(dp5191
sg76
g5176
sg69
(lp5192
g62
(g63
g64
NtRp5193
(dp5194
g67
(dp5195
g75
I4
ssg76
g5189
sg69
(lp5196
S'a cool new app'
p5197
asbasbasbag62
(g78
g64
NtRp5198
(dp5199
g67
(dp5200
sg76
g5150
sg69
(lp5201
g62
(g83
g64
NtRp5202
(dp5203
g67
(dp5204
g87
g88
ssg76
g5198
sg69
(lp5205
S'generator'
p5206
asbag62
(g83
g64
NtRp5207
(dp5208
g67
(dp5209
g94
g95
ssg76
g5198
sg69
(lp5210
S':'
asbag62
(g83
g64
NtRp5211
(dp5212
g67
(dp5213
sg76
g5198
sg69
(lp5214
g62
(g63
g64
NtRp5215
(dp5216
g67
(dp5217
g75
I4
ssg76
g5211
sg69
(lp5218
S'Web2py Web Framework'
p5219
asbasbasbag62
(g78
g64
NtRp5220
(dp5221
g67
(dp5222
sg76
g5150
sg69
(lp5223
g62
(g83
g64
NtRp5224
(dp5225
g67
(dp5226
g87
g88
ssg76
g5220
sg69
(lp5227
S'keywords'
p5228
asbag62
(g83
g64
NtRp5229
(dp5230
g67
(dp5231
g94
g95
ssg76
g5220
sg69
(lp5232
S':'
asbag62
(g83
g64
NtRp5233
(dp5234
g67
(dp5235
sg76
g5220
sg69
(lp5236
g62
(g63
g64
NtRp5237
(dp5238
g67
(dp5239
g75
I4
ssg76
g5233
sg69
(lp5240
S'web2py, python, framework'
p5241
asbasbasbasbasbasbasbag62
(g78
g64
NtRp5242
(dp5243
g67
(dp5244
sg76
g3874
sg69
(lp5245
g62
(g83
g64
NtRp5246
(dp5247
g67
(dp5248
g87
g88
ssg76
g5242
sg69
(lp5249
S'models_to_run'
p5250
asbag62
(g83
g64
NtRp5251
(dp5252
g67
(dp5253
g94
g95
ssg76
g5242
sg69
(lp5254
S':'
asbag62
(g83
g64
NtRp5255
(dp5256
g67
(dp5257
sg76
g5242
sg69
(lp5258
g62
(g63
g64
NtRp5259
(dp5260
g67
(dp5261
g75
I5
ssg76
g5255
sg69
(lp5262
g62
(g71
g64
NtRp5263
(dp5264
g67
(dp5265
g75
I4
ssg76
Nsg69
(lp5266
g62
(g78
g64
NtRp5267
(dp5268
g67
(dp5269
sg76
g5263
sg69
(lp5270
g62
(g83
g64
NtRp5271
(dp5272
g67
(dp5273
sg76
g5267
sg69
(lp5274
g62
(g63
g64
NtRp5275
(dp5276
g67
(dp5277
g75
I4
ssg76
g5271
sg69
(lp5278
S'^\\w+\\.py$'
p5279
asbasbasbag62
(g78
g64
NtRp5280
(dp5281
g67
(dp5282
sg76
g5263
sg69
(lp5283
g62
(g83
g64
NtRp5284
(dp5285
g67
(dp5286
sg76
g5280
sg69
(lp5287
g62
(g63
g64
NtRp5288
(dp5289
g67
(dp5290
g75
I4
ssg76
g5284
sg69
(lp5291
S'^default/\\w+\\.py$'
p5292
asbasbasbag62
(g78
g64
NtRp5293
(dp5294
g67
(dp5295
sg76
g5263
sg69
(lp5296
g62
(g83
g64
NtRp5297
(dp5298
g67
(dp5299
sg76
g5293
sg69
(lp5300
g62
(g63
g64
NtRp5301
(dp5302
g67
(dp5303
g75
I4
ssg76
g5297
sg69
(lp5304
S'^default/registerchart/\\w+\\.py$'
p5305
asbasbasbasbasbasbasbag62
(g78
g64
NtRp5306
(dp5307
g67
(dp5308
sg76
g3874
sg69
(lp5309
g62
(g83
g64
NtRp5310
(dp5311
g67
(dp5312
g87
g88
ssg76
g5306
sg69
(lp5313
S'postprocessing'
p5314
asbag62
(g83
g64
NtRp5315
(dp5316
g67
(dp5317
g94
g95
ssg76
g5306
sg69
(lp5318
S':'
asbag62
(g83
g64
NtRp5319
(dp5320
g67
(dp5321
sg76
g5306
sg69
(lp5322
g62
(g63
g64
NtRp5323
(dp5324
g67
(dp5325
g75
I5
ssg76
g5319
sg69
(lp5326
g62
(g71
g64
NtRp5327
(dp5328
g67
(dp5329
g75
I4
ssg76
Nsg69
(lp5330
sbasbasbasbag62
(g78
g64
NtRp5331
(dp5332
g67
(dp5333
sg76
g3874
sg69
(lp5334
g62
(g83
g64
NtRp5335
(dp5336
g67
(dp5337
g87
g88
ssg76
g5331
sg69
(lp5338
S'session_cookie_expires'
p5339
asbag62
(g83
g64
NtRp5340
(dp5341
g67
(dp5342
g94
g95
ssg76
g5331
sg69
(lp5343
S':'
asbag62
(g83
g64
NtRp5344
(dp5345
g67
(dp5346
sg76
g5331
sg69
(lp5347
g62
(g63
g64
NtRp5348
(dp5349
g67
(dp5350
g75
I5
ssg76
g5344
sg69
(lp5351
S'None'
p5352
asbasbasbag62
(g78
g64
NtRp5353
(dp5354
g67
(dp5355
sg76
g3874
sg69
(lp5356
g62
(g83
g64
NtRp5357
(dp5358
g67
(dp5359
g87
g88
ssg76
g5353
sg69
(lp5360
S'session_data_name'
p5361
asbag62
(g83
g64
NtRp5362
(dp5363
g67
(dp5364
g94
g95
ssg76
g5353
sg69
(lp5365
S':'
asbag62
(g83
g64
NtRp5366
(dp5367
g67
(dp5368
sg76
g5353
sg69
(lp5369
g62
(g63
g64
NtRp5370
(dp5371
g67
(dp5372
g75
I5
ssg76
g5366
sg69
(lp5373
S'session_data_web2py_xlchart_dashboard'
p5374
asbasbasbag62
(g78
g64
NtRp5375
(dp5376
g67
(dp5377
sg76
g3874
sg69
(lp5378
g62
(g83
g64
NtRp5379
(dp5380
g67
(dp5381
g87
g88
ssg76
g5375
sg69
(lp5382
S'session_file'
p5383
asbag62
(g83
g64
NtRp5384
(dp5385
g67
(dp5386
g94
g95
ssg76
g5375
sg69
(lp5387
S':'
asbag62
(g83
g64
NtRp5388
(dp5389
g67
(dp5390
sg76
g5375
sg69
(lp5391
g62
(g63
g64
NtRp5392
(dp5393
g67
(dp5394
g75
I5
ssg76
g5388
sg69
(lp5395
S"<open file 'D:\\web2py\\source\\web2py\\applications\\web2py_xlchart_dashboard\\sessions\\127.0.0.1-851de123-2aae-44f2-a4e6-d452472772cf', mode 'rb+' at 0x04F9E8B8>"
p5396
asbasbasbag62
(g78
g64
NtRp5397
(dp5398
g67
(dp5399
sg76
g3874
sg69
(lp5400
g62
(g83
g64
NtRp5401
(dp5402
g67
(dp5403
g87
g88
ssg76
g5397
sg69
(lp5404
S'session_filename'
p5405
asbag62
(g83
g64
NtRp5406
(dp5407
g67
(dp5408
g94
g95
ssg76
g5397
sg69
(lp5409
S':'
asbag62
(g83
g64
NtRp5410
(dp5411
g67
(dp5412
sg76
g5397
sg69
(lp5413
g62
(g63
g64
NtRp5414
(dp5415
g67
(dp5416
g75
I5
ssg76
g5410
sg69
(lp5417
S'D:\\web2py\\source\\web2py\\applications\\web2py_xlchart_dashboard\\sessions\\127.0.0.1-851de123-2aae-44f2-a4e6-d452472772cf'
p5418
asbasbasbag62
(g78
g64
NtRp5419
(dp5420
g67
(dp5421
sg76
g3874
sg69
(lp5422
g62
(g83
g64
NtRp5423
(dp5424
g67
(dp5425
g87
g88
ssg76
g5419
sg69
(lp5426
S'session_id'
p5427
asbag62
(g83
g64
NtRp5428
(dp5429
g67
(dp5430
g94
g95
ssg76
g5419
sg69
(lp5431
S':'
asbag62
(g83
g64
NtRp5432
(dp5433
g67
(dp5434
sg76
g5419
sg69
(lp5435
g62
(g63
g64
NtRp5436
(dp5437
g67
(dp5438
g75
I5
ssg76
g5432
sg69
(lp5439
g480
asbasbasbag62
(g78
g64
NtRp5440
(dp5441
g67
(dp5442
sg76
g3874
sg69
(lp5443
g62
(g83
g64
NtRp5444
(dp5445
g67
(dp5446
g87
g88
ssg76
g5440
sg69
(lp5447
S'session_id_name'
p5448
asbag62
(g83
g64
NtRp5449
(dp5450
g67
(dp5451
g94
g95
ssg76
g5440
sg69
(lp5452
S':'
asbag62
(g83
g64
NtRp5453
(dp5454
g67
(dp5455
sg76
g5440
sg69
(lp5456
g62
(g63
g64
NtRp5457
(dp5458
g67
(dp5459
g75
I5
ssg76
g5453
sg69
(lp5460
g3931
asbasbasbag62
(g78
g64
NtRp5461
(dp5462
g67
(dp5463
sg76
g3874
sg69
(lp5464
g62
(g83
g64
NtRp5465
(dp5466
g67
(dp5467
g87
g88
ssg76
g5461
sg69
(lp5468
S'session_locked'
p5469
asbag62
(g83
g64
NtRp5470
(dp5471
g67
(dp5472
g94
g95
ssg76
g5461
sg69
(lp5473
S':'
asbag62
(g83
g64
NtRp5474
(dp5475
g67
(dp5476
sg76
g5461
sg69
(lp5477
g62
(g63
g64
NtRp5478
(dp5479
g67
(dp5480
g75
I5
ssg76
g5474
sg69
(lp5481
g105
asbasbasbag62
(g78
g64
NtRp5482
(dp5483
g67
(dp5484
sg76
g3874
sg69
(lp5485
g62
(g83
g64
NtRp5486
(dp5487
g67
(dp5488
g87
g88
ssg76
g5482
sg69
(lp5489
S'session_new'
p5490
asbag62
(g83
g64
NtRp5491
(dp5492
g67
(dp5493
g94
g95
ssg76
g5482
sg69
(lp5494
S':'
asbag62
(g83
g64
NtRp5495
(dp5496
g67
(dp5497
sg76
g5482
sg69
(lp5498
g62
(g63
g64
NtRp5499
(dp5500
g67
(dp5501
g75
I5
ssg76
g5495
sg69
(lp5502
g825
asbasbasbag62
(g78
g64
NtRp5503
(dp5504
g67
(dp5505
sg76
g3874
sg69
(lp5506
g62
(g83
g64
NtRp5507
(dp5508
g67
(dp5509
g87
g88
ssg76
g5503
sg69
(lp5510
S'session_storage_type'
p5511
asbag62
(g83
g64
NtRp5512
(dp5513
g67
(dp5514
g94
g95
ssg76
g5503
sg69
(lp5515
S':'
asbag62
(g83
g64
NtRp5516
(dp5517
g67
(dp5518
sg76
g5503
sg69
(lp5519
g62
(g63
g64
NtRp5520
(dp5521
g67
(dp5522
g75
I5
ssg76
g5516
sg69
(lp5523
g3403
asbasbasbag62
(g78
g64
NtRp5524
(dp5525
g67
(dp5526
sg76
g3874
sg69
(lp5527
g62
(g83
g64
NtRp5528
(dp5529
g67
(dp5530
g87
g88
ssg76
g5524
sg69
(lp5531
S'status'
p5532
asbag62
(g83
g64
NtRp5533
(dp5534
g67
(dp5535
g94
g95
ssg76
g5524
sg69
(lp5536
S':'
asbag62
(g83
g64
NtRp5537
(dp5538
g67
(dp5539
sg76
g5524
sg69
(lp5540
g62
(g63
g64
NtRp5541
(dp5542
g67
(dp5543
g75
I5
ssg76
g5537
sg69
(lp5544
S'200'
p5545
asbasbasbag62
(g78
g64
NtRp5546
(dp5547
g67
(dp5548
sg76
g3874
sg69
(lp5549
g62
(g83
g64
NtRp5550
(dp5551
g67
(dp5552
g87
g88
ssg76
g5546
sg69
(lp5553
S'subtitle'
p5554
asbag62
(g83
g64
NtRp5555
(dp5556
g67
(dp5557
g94
g95
ssg76
g5546
sg69
(lp5558
S':'
asbag62
(g83
g64
NtRp5559
(dp5560
g67
(dp5561
sg76
g5546
sg69
(lp5562
g62
(g63
g64
NtRp5563
(dp5564
g67
(dp5565
g75
I5
ssg76
g5559
sg69
(lp5566
g4364
(S's\r\x00\x00\x00customize me!'
tRp5567
asbasbasbag62
(g78
g64
NtRp5568
(dp5569
g67
(dp5570
sg76
g3874
sg69
(lp5571
g62
(g83
g64
NtRp5572
(dp5573
g67
(dp5574
g87
g88
ssg76
g5568
sg69
(lp5575
S'title'
p5576
asbag62
(g83
g64
NtRp5577
(dp5578
g67
(dp5579
g94
g95
ssg76
g5568
sg69
(lp5580
S':'
asbag62
(g83
g64
NtRp5581
(dp5582
g67
(dp5583
sg76
g5568
sg69
(lp5584
g62
(g63
g64
NtRp5585
(dp5586
g67
(dp5587
g75
I5
ssg76
g5581
sg69
(lp5588
S'Web2py Xlchart Dashboard'
p5589
asbasbasbag62
(g78
g64
NtRp5590
(dp5591
g67
(dp5592
sg76
g3874
sg69
(lp5593
g62
(g83
g64
NtRp5594
(dp5595
g67
(dp5596
g87
g88
ssg76
g5590
sg69
(lp5597
S'view'
p5598
asbag62
(g83
g64
NtRp5599
(dp5600
g67
(dp5601
g94
g95
ssg76
g5590
sg69
(lp5602
S':'
asbag62
(g83
g64
NtRp5603
(dp5604
g67
(dp5605
sg76
g5590
sg69
(lp5606
g62
(g63
g64
NtRp5607
(dp5608
g67
(dp5609
g75
I5
ssg76
g5603
sg69
(lp5610
S'default/registerchart.html'
p5611
asbasbasbasbasbsS'locals'
p5612
(dp5613
S'os'
p5614
S"<module 'os' from 'd:\\python27\\lib\\os.pyc'>"
p5615
sssS'traceback'
p5616
S'Traceback (most recent call last):\n  File "D:\\web2py\\source\\web2py\\gluon\\restricted.py", line 212, in restricted\n    exec ccode in environment\n  File "D:\\web2py\\source\\web2py\\applications\\web2py_xlchart_dashboard\\controllers/default.py", line 142, in <module>\n  File "D:\\web2py\\source\\web2py\\gluon\\globals.py", line 188, in <lambda>\n    self._caller = lambda f: f()\n  File "D:\\web2py\\source\\web2py\\applications\\web2py_xlchart_dashboard\\controllers/default.py", line 82, in registerchart\n    stream = open(os.path.join(request.vars[\'webfolder\'],request.vars[\'imagename\']),\'rb\')\nIOError: [Errno 2] No such file or directory: \'static/images/temp/1352227408.88\\\\2-Sheet_2-XLChart_pyxl1352146819.36.jpg\'\n'
p5617
s.