(dp1
S'output'
p2
S"<type 'exceptions.KeyError'> 'chartname'"
p3
sS'layer'
p4
S'D:\\web2py\\source\\web2py\\applications\\web2py_xlchart_dashboard\\views\\default/list_workbook_charts.html'
p5
sS'code'
p6
S'response.write(\'<!DOCTYPE html>\\n<!-- paulirish.com/2008/conditional-stylesheets-vs-css-hacks-answer-neither/ -->\\n<!--[if lt IE 7]><html class="ie ie6 ie-lte9 ie-lte8 ie-lte7 no-js" lang="\', escape=False)\nresponse.write(T.accepted_language or \'en\')\nresponse.write(\'"> <![endif]-->\\n<!--[if IE 7]><html class="ie ie7 ie-lte9 ie-lte8 ie-lte7 no-js" lang="\', escape=False)\nresponse.write(T.accepted_language or \'en\')\nresponse.write(\'"> <![endif]-->\\n<!--[if IE 8]><html class="ie ie8 ie-lte9 ie-lte8 no-js" lang="\', escape=False)\nresponse.write(T.accepted_language or \'en\')\nresponse.write(\'"> <![endif]-->\\n<!--[if IE 9]><html class="ie9 ie-lte9 no-js" lang="\', escape=False)\nresponse.write(T.accepted_language or \'en\')\nresponse.write(\'"> <![endif]-->\\n<!--[if (gt IE 9)|!(IE)]><!--> <html class="no-js" lang="\', escape=False)\nresponse.write(T.accepted_language or \'en\')\nresponse.write(\'"> <!--<![endif]-->\\n<head>\\n  <meta charset="utf-8" />\\n  <!-- www.phpied.com/conditional-comments-block-downloads/ -->\\n  <!-- Always force latest IE rendering engine\\n       (even in intranet) & Chrome Frame\\n       Remove this if you use the .htaccess -->\\n  <!--[if IE]>\\n      <meta http-equiv="X-UA-Compatible" content="IE=edge\', escape=False)\nresponse.write(not request.is_local and \',chrome=1\' or \'\')\nresponse.write(\'">\\n      <![endif]-->\\n\\n  <title>\', escape=False)\nresponse.write(response.title or request.application)\nresponse.write(\'</title>\\n\\n  <!-- http://dev.w3.org/html5/markup/meta.name.html -->\\n  <meta name="application-name" content="\', escape=False)\nresponse.write(request.application)\nresponse.write(\'" />\\n\\n  <!-- Speaking of Google, don\\\'t forget to set your site up:\\n       http://google.com/webmasters -->\\n  <meta name="google-site-verification" content="" />\\n\\n  <!--  Mobile Viewport Fix\\n        j.mp/mobileviewport & davidbcalhoun.com/2010/viewport-metatag\\n        device-width: Occupy full width of the screen in its current orientation\\n        initial-scale = 1.0 retains dimensions instead of zooming out if page height > device height\\n        user-scalable = yes allows the user to zoom in -->\\n  <meta name="viewport" content="width=device-width, initial-scale=1.0">\\n\\n  <link rel="shortcut icon" href="\', escape=False)\nresponse.write(URL(\'static\',\'images/favicon.ico\'))\nresponse.write(\'" type="image/x-icon">\\n  <link rel="apple-touch-icon" href="\', escape=False)\nresponse.write(URL(\'static\',\'images/favicon.png\'))\nresponse.write(\'">\\n\\n  <!-- All JavaScript at the bottom, except for Modernizr which enables\\n       HTML5 elements & feature detects -->\\n  <script src="\', escape=False)\nresponse.write(URL(\'static\',\'js/modernizr.custom.js\'))\nresponse.write(\'"></script>\\n\\n  <!-- include stylesheets -->\\n  \', escape=False)\nresponse.files.append(URL(\'static\',\'css/web2py.css\'))\nresponse.files.append(URL(\'static\',\'css/bootstrap.min.css\'))\nresponse.files.append(URL(\'static\',\'css/bootstrap-responsive.min.css\'))\nresponse.files.append(URL(\'static\',\'css/web2py_bootstrap.css\'))\nresponse.write(\'\\n\\n  \', escape=False)\nresponse.write(\'<script type="text/javascript"><!--\\n    // These variables are used by the web2py_ajax_init function in web2py_ajax.js (which is loaded below).\\n    var w2p_ajax_confirm_message = "\', escape=False)\nresponse.write(T(\'Are you sure you want to delete this object?\'))\nresponse.write(\'";\\n    var w2p_ajax_date_format = "\', escape=False)\nresponse.write(T(\'%Y-%m-%d\'))\nresponse.write(\'";\\n    var w2p_ajax_datetime_format = "\', escape=False)\nresponse.write(T(\'%Y-%m-%d %H:%M:%S\'))\nresponse.write(\'";\\n    //--></script>\\n\', escape=False)\nresponse.files.insert(0,URL(\'static\',\'js/jquery.js\'))\nresponse.files.insert(1,URL(\'static\',\'css/calendar.css\'))\nresponse.files.insert(2,URL(\'static\',\'js/calendar.js\'))\nresponse.files.insert(3,URL(\'static\',\'js/web2py.js\'))\nresponse.include_meta()\nresponse.include_files()\nresponse.write(\'\\n\', escape=False)\nresponse.write(\'\\n\\n  \', escape=False)\n# using sidebars need to know what sidebar you want to use\nleft_sidebar_enabled = globals().get(\'left_sidebar_enabled\',False)\nright_sidebar_enabled = globals().get(\'right_sidebar_enabled\',False)\nmiddle_columns = {0:\'span12\',1:\'span9\',2:\'span6\'}[\n(left_sidebar_enabled and 1 or 0)+(right_sidebar_enabled and 1 or 0)]\nresponse.write(\'\\n\\n  <!-- uncomment here to load jquery-ui\\n       <link rel="stylesheet" href="http://ajax.googleapis.com/ajax/libs/jqueryui/1.8.16/themes/base/jquery-ui.css" type="text/css" media="all" />\\n       <script src="http://ajax.googleapis.com/ajax/libs/jqueryui/1.8.16/jquery-ui.min.js" type="text/javascript"></script>\\n       uncomment to load jquery-ui //-->\\n  <noscript><link href="\', escape=False)\nresponse.write(URL(\'static\', \'css/web2py_bootstrap_nojs.css\'))\nresponse.write(\'" rel="stylesheet" type="text/css" /></noscript>\\n  \', escape=False)\nresponse.write(\'\\n</head>\\n\\n<body>\\n  <!-- Navbar ================================================== -->\\n  <div class="navbar navbar-inverse navbar-fixed-top">\\n    <div class="flash">\', escape=False)\nresponse.write(response.flash or \'\')\nresponse.write(\'</div>\\n    <div class="navbar-inner">\\n      <div class="container">\\n        <!-- the next tag is necessary for bootstrap menus, do not remove -->\\n        <button type="button" class="btn btn-navbar" data-toggle="collapse" data-target=".nav-collapse">\\n          <span class="icon-bar"></span>\\n          <span class="icon-bar"></span>\\n          <span class="icon-bar"></span>\\n        </button>\\n        <a class="brand" href="http://www.web2py.com/"><b>web<span>2</span>py</b>&trade;&nbsp;</a>\\n        <ul id="navbar" class="nav pull-right">\', escape=False)\nresponse.write(\'auth\' in globals() and auth.navbar(mode="dropdown") or \'\')\nresponse.write(\'</ul>\\n        <div class="nav-collapse">\\n          \', escape=False)\nis_mobile=request.user_agent().is_mobile\nresponse.write(\'\\n          \', escape=False)\nif response.menu:\n    response.write(\'\\n          \', escape=False)\n    response.write(MENU(response.menu, _class=\'mobile-menu nav\' if is_mobile else \'nav\',mobile=is_mobile,li_class=\'dropdown\',ul_class=\'dropdown-menu\'))\n    response.write(\'\\n          \', escape=False)\n    pass\nresponse.write(\'\\n        </div><!--/.nav-collapse -->\\n      </div>\\n    </div>\\n  </div><!--/top navbar -->\\n\\n  <div class="container">\\n    <!-- Masthead ================================================== -->\\n    <header class="mastheader row" id="header">\\n        <div class="span12">\\n            <div class="page-header">\\n                <h1>\\n                    \', escape=False)\nresponse.write(response.title or request.application)\nresponse.write(\'\\n                    <small>\', escape=False)\nresponse.write(response.subtitle or \'\')\nresponse.write(\'</small>\\n                </h1>\\n            </div>\\n        </div>\\n    </header>\\n\\n    <section id="main" class="main row">\\n        \', escape=False)\nif left_sidebar_enabled:\n    response.write(\'\\n        <div class="span3 left-sidebar">\\n            \', escape=False)\n    response.write(\'\\n            <h3>Left Sidebar</h3>\\n            <p></p>\\n            \', escape=False)\n    response.write(\'\\n        </div>\\n        \', escape=False)\n    pass\nresponse.write(\'\\n\\n        <div class="\', escape=False)\nresponse.write(middle_columns)\nresponse.write(\'">\\n            \', escape=False)\nresponse.write(\'\\n            \', escape=False)\nresponse.write(\'\\r\\n<style>\\r\\n    .registered\\r\\n    {\\r\\n        background-color: #00CC00;\\r\\n        display:inline-block;\\r\\n    }\\r\\n</style>\\r\\n<h3>Charts found in workbook</h3>\\r\\nSelect a chart below to register it.<br>\\r\\n<hr>\\r\\n\', escape=False)\nfor chartfile in chartfiles:\n    response.write(\'\\r\\n\', escape=False)\n    response.write(chartfile[\'chartimage\'])\n    response.write(\'"<br>\\r\\n<div id=\\\'\', escape=False)\n    response.write(chartfile[\'divname\'])\n    response.write("\' class=\'registered\'>", escape=False)\n    response.write(checkchartindb(chartfile[\'chartname\']))\n    response.write(\'/div><br>\\r\\n\', escape=False)\n    pass\nresponse.write(\'\\r\\n\', escape=False)\nresponse.write(\'\\n            \', escape=False)\nresponse.write(\'\\n        </div>\\n\\n        \', escape=False)\nif right_sidebar_enabled:\n    response.write(\'\\n        <div class="span3">\\n            \', escape=False)\n    response.write(\'\\n            <h3>Right Sidebar</h3>\\n            <p></p>\\n            \', escape=False)\n    response.write(\'\\n        </div>\\n        \', escape=False)\n    pass\nresponse.write(\'\\n    </section><!--/main-->\\n\\n    <!-- Footer ================================================== -->\\n    <div class="row">\\n        <footer class="footer span12" id="footer">\\n            <div class="footer-content">\\n                \', escape=False)\nresponse.write(\' <!-- this is default footer -->\\n                <div class="copyright pull-left">\', escape=False)\nresponse.write(T(\'Copyright\'))\nresponse.write(\' &#169; \', escape=False)\nresponse.write(request.now.year)\nresponse.write(\'</div>\\n                <div id="poweredBy" class="pull-right">\\n                    \', escape=False)\nresponse.write(T(\'Powered by\'))\nresponse.write(\'\\n                    <a href="http://www.web2py.com/">web2py</a>\\n                </div>\\n                \', escape=False)\nresponse.write(\'\\n            </div>\\n        </footer>\\n    </div>\\n\\n  </div> <!-- /container -->\\n\\n  <!-- The javascript =============================================\\n       (Placed at the end of the document so the pages load faster) -->\\n  <script src="\', escape=False)\nresponse.write(URL(\'static\',\'js/bootstrap.min.js\'))\nresponse.write(\'"></script>\\n  <script src="\', escape=False)\nresponse.write(URL(\'static\',\'js/web2py_bootstrap.js\'))\nresponse.write(\'"></script>\\n  <!--[if lt IE 7 ]>\\n      <script src="\', escape=False)\nresponse.write(URL(\'static\',\'js/dd_belatedpng.js\'))\nresponse.write(\'"></script>\\n      <script> DD_belatedPNG.fix(\\\'img, .png_bg\\\'); //fix any <img> or .png_bg background-images </script>\\n      <![endif]-->\\n  \', escape=False)\nif response.google_analytics_id:\n    response.write(\'<script type="text/javascript"> var _gaq = _gaq || []; _gaq.push([\\\'_setAccount\\\', \\\'\', escape=False)\n    response.write(response.google_analytics_id)\n    response.write("\']); _gaq.push([\'_trackPageview\']); (function() { var ga = document.createElement(\'script\'); ga.type = \'text/javascript\'; ga.async = true; ga.src = (\'https:\' == document.location.protocol ? \'https://ssl\' : \'http://www\') + \'.google-analytics.com/ga.js\'; var s = document.getElementsByTagName(\'script\')[0]; s.parentNode.insertBefore(ga, s); })(); </script> ", escape=False)\n    pass\nresponse.write(\'\\n  <script src="\', escape=False)\nresponse.write(URL(\'static\',\'js/share.js\',vars=dict(static=URL(\'static\',\'images\'))))\nresponse.write(\'"></script>\\n</body>\\n</html>\\n\\n\', escape=False)'
p7
sS'snapshot'
p8
(dp9
S'exception'
p10
(dp11
S'__hash__'
p12
S"<method-wrapper '__hash__' of exceptions.KeyError object>"
p13
sS'__setattr__'
p14
S"<method-wrapper '__setattr__' of exceptions.KeyError object>"
p15
sS'__reduce_ex__'
p16
S'<built-in method __reduce_ex__ of exceptions.KeyError object>'
p17
sS'__getslice__'
p18
S"<method-wrapper '__getslice__' of exceptions.KeyError object>"
p19
sS'__getitem__'
p20
S"<method-wrapper '__getitem__' of exceptions.KeyError object>"
p21
sS'__setstate__'
p22
S'<built-in method __setstate__ of exceptions.KeyError object>'
p23
sS'__reduce__'
p24
S'<built-in method __reduce__ of exceptions.KeyError object>'
p25
sS'__str__'
p26
S"<method-wrapper '__str__' of exceptions.KeyError object>"
p27
sS'__format__'
p28
S'<built-in method __format__ of exceptions.KeyError object>'
p29
sS'__getattribute__'
p30
S"<method-wrapper '__getattribute__' of exceptions.KeyError object>"
p31
sS'__class__'
p32
S"<type 'exceptions.KeyError'>"
p33
sS'__unicode__'
p34
S'<built-in method __unicode__ of exceptions.KeyError object>'
p35
sS'__delattr__'
p36
S"<method-wrapper '__delattr__' of exceptions.KeyError object>"
p37
sS'__subclasshook__'
p38
S'<built-in method __subclasshook__ of type object>'
p39
sS'__repr__'
p40
S"<method-wrapper '__repr__' of exceptions.KeyError object>"
p41
sS'args'
p42
S"('chartname',)"
p43
sS'__dict__'
p44
S'{}'
p45
sS'__sizeof__'
p46
S'<built-in method __sizeof__ of exceptions.KeyError object>'
p47
sS'__doc__'
p48
S"'Mapping key not found.'"
p49
sS'__init__'
p50
S"<method-wrapper '__init__' of exceptions.KeyError object>"
p51
sS'__new__'
p52
S'<built-in method __new__ of type object>'
p53
ssS'evalue'
p54
S"'chartname'"
p55
sS'request'
p56
ccopy_reg
_reconstructor
p57
(cgluon.html
BEAUTIFY
p58
c__builtin__
object
p59
NtRp60
(dp61
S'attributes'
p62
(dp63
sS'components'
p64
(lp65
g57
(cgluon.html
TABLE
p66
g59
NtRp67
(dp68
g62
(dp69
S'level'
p70
I5
ssS'parent'
p71
Nsg64
(lp72
g57
(cgluon.html
TR
p73
g59
NtRp74
(dp75
g62
(dp76
sg71
g67
sg64
(lp77
g57
(cgluon.html
TD
p78
g59
NtRp79
(dp80
g62
(dp81
S'_style'
p82
S'font-weight:bold;vertical-align:top'
p83
ssg71
g74
sg64
(lp84
S'ajax'
p85
asbag57
(g78
g59
NtRp86
(dp87
g62
(dp88
S'_valign'
p89
S'top'
p90
ssg71
g74
sg64
(lp91
S':'
asbag57
(g78
g59
NtRp92
(dp93
g62
(dp94
sg71
g74
sg64
(lp95
g57
(g58
g59
NtRp96
(dp97
g62
(dp98
g70
I5
ssg71
g92
sg64
(lp99
S'False'
p100
asbasbasbag57
(g73
g59
NtRp101
(dp102
g62
(dp103
sg71
g67
sg64
(lp104
g57
(g78
g59
NtRp105
(dp106
g62
(dp107
g82
g83
ssg71
g101
sg64
(lp108
S'application'
p109
asbag57
(g78
g59
NtRp110
(dp111
g62
(dp112
g89
g90
ssg71
g101
sg64
(lp113
S':'
asbag57
(g78
g59
NtRp114
(dp115
g62
(dp116
sg71
g101
sg64
(lp117
g57
(g58
g59
NtRp118
(dp119
g62
(dp120
g70
I5
ssg71
g114
sg64
(lp121
S'web2py_xlchart_dashboard'
p122
asbasbasbag57
(g73
g59
NtRp123
(dp124
g62
(dp125
sg71
g67
sg64
(lp126
g57
(g78
g59
NtRp127
(dp128
g62
(dp129
g82
g83
ssg71
g123
sg64
(lp130
g42
asbag57
(g78
g59
NtRp131
(dp132
g62
(dp133
g89
g90
ssg71
g123
sg64
(lp134
S':'
asbag57
(g78
g59
NtRp135
(dp136
g62
(dp137
sg71
g123
sg64
(lp138
g57
(g58
g59
NtRp139
(dp140
g62
(dp141
g70
I5
ssg71
g135
sg64
(lp142
g57
(g66
g59
NtRp143
(dp144
g62
(dp145
g70
I4
ssg71
Nsg64
(lp146
sbasbasbasbag57
(g73
g59
NtRp147
(dp148
g62
(dp149
sg71
g67
sg64
(lp150
g57
(g78
g59
NtRp151
(dp152
g62
(dp153
g82
g83
ssg71
g147
sg64
(lp154
S'body'
p155
asbag57
(g78
g59
NtRp156
(dp157
g62
(dp158
g89
g90
ssg71
g147
sg64
(lp159
S':'
asbag57
(g78
g59
NtRp160
(dp161
g62
(dp162
sg71
g147
sg64
(lp163
g57
(g58
g59
NtRp164
(dp165
g62
(dp166
g70
I5
ssg71
g160
sg64
(lp167
S'<cStringIO.StringO object at 0x04DF3740>'
p168
asbasbasbag57
(g73
g59
NtRp169
(dp170
g62
(dp171
sg71
g67
sg64
(lp172
g57
(g78
g59
NtRp173
(dp174
g62
(dp175
g82
g83
ssg71
g169
sg64
(lp176
S'cid'
p177
asbag57
(g78
g59
NtRp178
(dp179
g62
(dp180
g89
g90
ssg71
g169
sg64
(lp181
S':'
asbag57
(g78
g59
NtRp182
(dp183
g62
(dp184
sg71
g169
sg64
(lp185
g57
(g58
g59
NtRp186
(dp187
g62
(dp188
g70
I5
ssg71
g182
sg64
(lp189
S'None'
p190
asbasbasbag57
(g73
g59
NtRp191
(dp192
g62
(dp193
sg71
g67
sg64
(lp194
g57
(g78
g59
NtRp195
(dp196
g62
(dp197
g82
g83
ssg71
g191
sg64
(lp198
S'client'
p199
asbag57
(g78
g59
NtRp200
(dp201
g62
(dp202
g89
g90
ssg71
g191
sg64
(lp203
S':'
asbag57
(g78
g59
NtRp204
(dp205
g62
(dp206
sg71
g191
sg64
(lp207
g57
(g58
g59
NtRp208
(dp209
g62
(dp210
g70
I5
ssg71
g204
sg64
(lp211
S'127.0.0.1'
p212
asbasbasbag57
(g73
g59
NtRp213
(dp214
g62
(dp215
sg71
g67
sg64
(lp216
g57
(g78
g59
NtRp217
(dp218
g62
(dp219
g82
g83
ssg71
g213
sg64
(lp220
S'controller'
p221
asbag57
(g78
g59
NtRp222
(dp223
g62
(dp224
g89
g90
ssg71
g213
sg64
(lp225
S':'
asbag57
(g78
g59
NtRp226
(dp227
g62
(dp228
sg71
g213
sg64
(lp229
g57
(g58
g59
NtRp230
(dp231
g62
(dp232
g70
I5
ssg71
g226
sg64
(lp233
S'default'
p234
asbasbasbag57
(g73
g59
NtRp235
(dp236
g62
(dp237
sg71
g67
sg64
(lp238
g57
(g78
g59
NtRp239
(dp240
g62
(dp241
g82
g83
ssg71
g235
sg64
(lp242
S'cookies'
p243
asbag57
(g78
g59
NtRp244
(dp245
g62
(dp246
g89
g90
ssg71
g235
sg64
(lp247
S':'
asbag57
(g78
g59
NtRp248
(dp249
g62
(dp250
sg71
g235
sg64
(lp251
g57
(g58
g59
NtRp252
(dp253
g62
(dp254
g70
I5
ssg71
g248
sg64
(lp255
g57
(g66
g59
NtRp256
(dp257
g62
(dp258
g70
I4
ssg71
Nsg64
(lp259
g57
(g73
g59
NtRp260
(dp261
g62
(dp262
sg71
g256
sg64
(lp263
g57
(g78
g59
NtRp264
(dp265
g62
(dp266
g82
g83
ssg71
g260
sg64
(lp267
S'session_id_admin'
p268
asbag57
(g78
g59
NtRp269
(dp270
g62
(dp271
g89
g90
ssg71
g260
sg64
(lp272
S':'
asbag57
(g78
g59
NtRp273
(dp274
g62
(dp275
sg71
g260
sg64
(lp276
g57
(g58
g59
NtRp277
(dp278
g62
(dp279
g70
I4
ssg71
g273
sg64
(lp280
S'127.0.0.1-189697a8-de08-4a1c-93cd-ff5044ef6776'
p281
ag57
(g66
g59
NtRp282
(dp283
g62
(dp284
g70
I3
ssg71
Nsg64
(lp285
g57
(g73
g59
NtRp286
(dp287
g62
(dp288
sg71
g282
sg64
(lp289
g57
(g78
g59
NtRp290
(dp291
g62
(dp292
g82
g83
ssg71
g286
sg64
(lp293
S'comment'
p294
asbag57
(g78
g59
NtRp295
(dp296
g62
(dp297
g89
g90
ssg71
g286
sg64
(lp298
S':'
asbag57
(g78
g59
NtRp299
(dp300
g62
(dp301
sg71
g286
sg64
(lp302
g57
(g58
g59
NtRp303
(dp304
g62
(dp305
g70
I3
ssg71
g299
sg64
(lp306
S''
asbasbasbag57
(g73
g59
NtRp307
(dp308
g62
(dp309
sg71
g282
sg64
(lp310
g57
(g78
g59
NtRp311
(dp312
g62
(dp313
g82
g83
ssg71
g307
sg64
(lp314
S'domain'
p315
asbag57
(g78
g59
NtRp316
(dp317
g62
(dp318
g89
g90
ssg71
g307
sg64
(lp319
S':'
asbag57
(g78
g59
NtRp320
(dp321
g62
(dp322
sg71
g307
sg64
(lp323
g57
(g58
g59
NtRp324
(dp325
g62
(dp326
g70
I3
ssg71
g320
sg64
(lp327
S''
asbasbasbag57
(g73
g59
NtRp328
(dp329
g62
(dp330
sg71
g282
sg64
(lp331
g57
(g78
g59
NtRp332
(dp333
g62
(dp334
g82
g83
ssg71
g328
sg64
(lp335
S'expires'
p336
asbag57
(g78
g59
NtRp337
(dp338
g62
(dp339
g89
g90
ssg71
g328
sg64
(lp340
S':'
asbag57
(g78
g59
NtRp341
(dp342
g62
(dp343
sg71
g328
sg64
(lp344
g57
(g58
g59
NtRp345
(dp346
g62
(dp347
g70
I3
ssg71
g341
sg64
(lp348
S''
asbasbasbag57
(g73
g59
NtRp349
(dp350
g62
(dp351
sg71
g282
sg64
(lp352
g57
(g78
g59
NtRp353
(dp354
g62
(dp355
g82
g83
ssg71
g349
sg64
(lp356
S'httponly'
p357
asbag57
(g78
g59
NtRp358
(dp359
g62
(dp360
g89
g90
ssg71
g349
sg64
(lp361
S':'
asbag57
(g78
g59
NtRp362
(dp363
g62
(dp364
sg71
g349
sg64
(lp365
g57
(g58
g59
NtRp366
(dp367
g62
(dp368
g70
I3
ssg71
g362
sg64
(lp369
S''
asbasbasbag57
(g73
g59
NtRp370
(dp371
g62
(dp372
sg71
g282
sg64
(lp373
g57
(g78
g59
NtRp374
(dp375
g62
(dp376
g82
g83
ssg71
g370
sg64
(lp377
S'max-age'
p378
asbag57
(g78
g59
NtRp379
(dp380
g62
(dp381
g89
g90
ssg71
g370
sg64
(lp382
S':'
asbag57
(g78
g59
NtRp383
(dp384
g62
(dp385
sg71
g370
sg64
(lp386
g57
(g58
g59
NtRp387
(dp388
g62
(dp389
g70
I3
ssg71
g383
sg64
(lp390
S''
asbasbasbag57
(g73
g59
NtRp391
(dp392
g62
(dp393
sg71
g282
sg64
(lp394
g57
(g78
g59
NtRp395
(dp396
g62
(dp397
g82
g83
ssg71
g391
sg64
(lp398
S'path'
p399
asbag57
(g78
g59
NtRp400
(dp401
g62
(dp402
g89
g90
ssg71
g391
sg64
(lp403
S':'
asbag57
(g78
g59
NtRp404
(dp405
g62
(dp406
sg71
g391
sg64
(lp407
g57
(g58
g59
NtRp408
(dp409
g62
(dp410
g70
I3
ssg71
g404
sg64
(lp411
S''
asbasbasbag57
(g73
g59
NtRp412
(dp413
g62
(dp414
sg71
g282
sg64
(lp415
g57
(g78
g59
NtRp416
(dp417
g62
(dp418
g82
g83
ssg71
g412
sg64
(lp419
S'secure'
p420
asbag57
(g78
g59
NtRp421
(dp422
g62
(dp423
g89
g90
ssg71
g412
sg64
(lp424
S':'
asbag57
(g78
g59
NtRp425
(dp426
g62
(dp427
sg71
g412
sg64
(lp428
g57
(g58
g59
NtRp429
(dp430
g62
(dp431
g70
I3
ssg71
g425
sg64
(lp432
S''
asbasbasbag57
(g73
g59
NtRp433
(dp434
g62
(dp435
sg71
g282
sg64
(lp436
g57
(g78
g59
NtRp437
(dp438
g62
(dp439
g82
g83
ssg71
g433
sg64
(lp440
S'version'
p441
asbag57
(g78
g59
NtRp442
(dp443
g62
(dp444
g89
g90
ssg71
g433
sg64
(lp445
S':'
asbag57
(g78
g59
NtRp446
(dp447
g62
(dp448
sg71
g433
sg64
(lp449
g57
(g58
g59
NtRp450
(dp451
g62
(dp452
g70
I3
ssg71
g446
sg64
(lp453
S''
asbasbasbasbasbasbasbag57
(g73
g59
NtRp454
(dp455
g62
(dp456
sg71
g256
sg64
(lp457
g57
(g78
g59
NtRp458
(dp459
g62
(dp460
g82
g83
ssg71
g454
sg64
(lp461
S'session_id_web2py_xlchart_dashboard'
p462
asbag57
(g78
g59
NtRp463
(dp464
g62
(dp465
g89
g90
ssg71
g454
sg64
(lp466
S':'
asbag57
(g78
g59
NtRp467
(dp468
g62
(dp469
sg71
g454
sg64
(lp470
g57
(g58
g59
NtRp471
(dp472
g62
(dp473
g70
I4
ssg71
g467
sg64
(lp474
S'127.0.0.1-44a3aeb7-c008-49d5-9b24-ee4003137a90'
p475
ag57
(g66
g59
NtRp476
(dp477
g62
(dp478
g70
I3
ssg71
Nsg64
(lp479
g57
(g73
g59
NtRp480
(dp481
g62
(dp482
sg71
g476
sg64
(lp483
g57
(g78
g59
NtRp484
(dp485
g62
(dp486
g82
g83
ssg71
g480
sg64
(lp487
g294
asbag57
(g78
g59
NtRp488
(dp489
g62
(dp490
g89
g90
ssg71
g480
sg64
(lp491
S':'
asbag57
(g78
g59
NtRp492
(dp493
g62
(dp494
sg71
g480
sg64
(lp495
g57
(g58
g59
NtRp496
(dp497
g62
(dp498
g70
I3
ssg71
g492
sg64
(lp499
S''
asbasbasbag57
(g73
g59
NtRp500
(dp501
g62
(dp502
sg71
g476
sg64
(lp503
g57
(g78
g59
NtRp504
(dp505
g62
(dp506
g82
g83
ssg71
g500
sg64
(lp507
g315
asbag57
(g78
g59
NtRp508
(dp509
g62
(dp510
g89
g90
ssg71
g500
sg64
(lp511
S':'
asbag57
(g78
g59
NtRp512
(dp513
g62
(dp514
sg71
g500
sg64
(lp515
g57
(g58
g59
NtRp516
(dp517
g62
(dp518
g70
I3
ssg71
g512
sg64
(lp519
S''
asbasbasbag57
(g73
g59
NtRp520
(dp521
g62
(dp522
sg71
g476
sg64
(lp523
g57
(g78
g59
NtRp524
(dp525
g62
(dp526
g82
g83
ssg71
g520
sg64
(lp527
g336
asbag57
(g78
g59
NtRp528
(dp529
g62
(dp530
g89
g90
ssg71
g520
sg64
(lp531
S':'
asbag57
(g78
g59
NtRp532
(dp533
g62
(dp534
sg71
g520
sg64
(lp535
g57
(g58
g59
NtRp536
(dp537
g62
(dp538
g70
I3
ssg71
g532
sg64
(lp539
S''
asbasbasbag57
(g73
g59
NtRp540
(dp541
g62
(dp542
sg71
g476
sg64
(lp543
g57
(g78
g59
NtRp544
(dp545
g62
(dp546
g82
g83
ssg71
g540
sg64
(lp547
g357
asbag57
(g78
g59
NtRp548
(dp549
g62
(dp550
g89
g90
ssg71
g540
sg64
(lp551
S':'
asbag57
(g78
g59
NtRp552
(dp553
g62
(dp554
sg71
g540
sg64
(lp555
g57
(g58
g59
NtRp556
(dp557
g62
(dp558
g70
I3
ssg71
g552
sg64
(lp559
S''
asbasbasbag57
(g73
g59
NtRp560
(dp561
g62
(dp562
sg71
g476
sg64
(lp563
g57
(g78
g59
NtRp564
(dp565
g62
(dp566
g82
g83
ssg71
g560
sg64
(lp567
g378
asbag57
(g78
g59
NtRp568
(dp569
g62
(dp570
g89
g90
ssg71
g560
sg64
(lp571
S':'
asbag57
(g78
g59
NtRp572
(dp573
g62
(dp574
sg71
g560
sg64
(lp575
g57
(g58
g59
NtRp576
(dp577
g62
(dp578
g70
I3
ssg71
g572
sg64
(lp579
S''
asbasbasbag57
(g73
g59
NtRp580
(dp581
g62
(dp582
sg71
g476
sg64
(lp583
g57
(g78
g59
NtRp584
(dp585
g62
(dp586
g82
g83
ssg71
g580
sg64
(lp587
g399
asbag57
(g78
g59
NtRp588
(dp589
g62
(dp590
g89
g90
ssg71
g580
sg64
(lp591
S':'
asbag57
(g78
g59
NtRp592
(dp593
g62
(dp594
sg71
g580
sg64
(lp595
g57
(g58
g59
NtRp596
(dp597
g62
(dp598
g70
I3
ssg71
g592
sg64
(lp599
S''
asbasbasbag57
(g73
g59
NtRp600
(dp601
g62
(dp602
sg71
g476
sg64
(lp603
g57
(g78
g59
NtRp604
(dp605
g62
(dp606
g82
g83
ssg71
g600
sg64
(lp607
g420
asbag57
(g78
g59
NtRp608
(dp609
g62
(dp610
g89
g90
ssg71
g600
sg64
(lp611
S':'
asbag57
(g78
g59
NtRp612
(dp613
g62
(dp614
sg71
g600
sg64
(lp615
g57
(g58
g59
NtRp616
(dp617
g62
(dp618
g70
I3
ssg71
g612
sg64
(lp619
S''
asbasbasbag57
(g73
g59
NtRp620
(dp621
g62
(dp622
sg71
g476
sg64
(lp623
g57
(g78
g59
NtRp624
(dp625
g62
(dp626
g82
g83
ssg71
g620
sg64
(lp627
g441
asbag57
(g78
g59
NtRp628
(dp629
g62
(dp630
g89
g90
ssg71
g620
sg64
(lp631
S':'
asbag57
(g78
g59
NtRp632
(dp633
g62
(dp634
sg71
g620
sg64
(lp635
g57
(g58
g59
NtRp636
(dp637
g62
(dp638
g70
I3
ssg71
g632
sg64
(lp639
S''
asbasbasbasbasbasbasbasbasbasbasbag57
(g73
g59
NtRp640
(dp641
g62
(dp642
sg71
g67
sg64
(lp643
g57
(g78
g59
NtRp644
(dp645
g62
(dp646
g82
g83
ssg71
g640
sg64
(lp647
S'env'
p648
asbag57
(g78
g59
NtRp649
(dp650
g62
(dp651
g89
g90
ssg71
g640
sg64
(lp652
S':'
asbag57
(g78
g59
NtRp653
(dp654
g62
(dp655
sg71
g640
sg64
(lp656
g57
(g58
g59
NtRp657
(dp658
g62
(dp659
g70
I5
ssg71
g653
sg64
(lp660
g57
(g66
g59
NtRp661
(dp662
g62
(dp663
g70
I4
ssg71
Nsg64
(lp664
g57
(g73
g59
NtRp665
(dp666
g62
(dp667
sg71
g661
sg64
(lp668
g57
(g78
g59
NtRp669
(dp670
g62
(dp671
g82
g83
ssg71
g665
sg64
(lp672
S'app_folders'
p673
asbag57
(g78
g59
NtRp674
(dp675
g62
(dp676
g89
g90
ssg71
g665
sg64
(lp677
S':'
asbag57
(g78
g59
NtRp678
(dp679
g62
(dp680
sg71
g665
sg64
(lp681
g57
(g58
g59
NtRp682
(dp683
g62
(dp684
g70
I4
ssg71
g678
sg64
(lp685
S"set(['D:\\\\web2py\\\\source\\\\web2py\\\\applications\\\\admin\\\\', 'D:\\\\web2py\\\\source\\\\web2py\\\\applications\\\\welcome\\\\', 'D:\\\\web2py\\\\source\\\\web2py\\\\applications\\\\web2py_xlchart_dashboard\\\\'])"
p686
asbasbasbag57
(g73
g59
NtRp687
(dp688
g62
(dp689
sg71
g661
sg64
(lp690
g57
(g78
g59
NtRp691
(dp692
g62
(dp693
g82
g83
ssg71
g687
sg64
(lp694
S'applications_parent'
p695
asbag57
(g78
g59
NtRp696
(dp697
g62
(dp698
g89
g90
ssg71
g687
sg64
(lp699
S':'
asbag57
(g78
g59
NtRp700
(dp701
g62
(dp702
sg71
g687
sg64
(lp703
g57
(g58
g59
NtRp704
(dp705
g62
(dp706
g70
I4
ssg71
g700
sg64
(lp707
S'D:\\web2py\\source\\web2py'
p708
asbasbasbag57
(g73
g59
NtRp709
(dp710
g62
(dp711
sg71
g661
sg64
(lp712
g57
(g78
g59
NtRp713
(dp714
g62
(dp715
g82
g83
ssg71
g709
sg64
(lp716
S'cmd_args'
p717
asbag57
(g78
g59
NtRp718
(dp719
g62
(dp720
g89
g90
ssg71
g709
sg64
(lp721
S':'
asbag57
(g78
g59
NtRp722
(dp723
g62
(dp724
sg71
g709
sg64
(lp725
g57
(g58
g59
NtRp726
(dp727
g62
(dp728
g70
I4
ssg71
g722
sg64
(lp729
g57
(g66
g59
NtRp730
(dp731
g62
(dp732
g70
I3
ssg71
Nsg64
(lp733
sbasbasbasbag57
(g73
g59
NtRp734
(dp735
g62
(dp736
sg71
g661
sg64
(lp737
g57
(g78
g59
NtRp738
(dp739
g62
(dp740
g82
g83
ssg71
g734
sg64
(lp741
S'cmd_options'
p742
asbag57
(g78
g59
NtRp743
(dp744
g62
(dp745
g89
g90
ssg71
g734
sg64
(lp746
S':'
asbag57
(g78
g59
NtRp747
(dp748
g62
(dp749
sg71
g734
sg64
(lp750
g57
(g58
g59
NtRp751
(dp752
g62
(dp753
g70
I4
ssg71
g747
sg64
(lp754
S"<Values at 0xc77f58: {'verbose': False, 'ip': '127.0.0.1', 'with_scheduler': False, 'ips': ['192.168.0.14'], 'shutdown_timeout': 5, 'taskbar': False, 'port': 8000, 'maxthreads': None, 'softcron': False, 'server_name': 'GLKLAG235327', 'bpython': False, 'nogui': False, 'pid_filename': 'httpserver.pid', 'extcron': False, 'runcron': False, 'run_system_tests': False, 'test': None, 'folder': 'D:\\\\web2py\\\\source\\\\web2py', 'config': '', 'import_models': False, 'winservice': '', 'shell': None, 'run': '', 'log_filename': 'httpserver.log', 'debuglevel': 30, 'args': [''], 'socket_timeout': 5, 'ssl_ca_certificate': None, 'scheduler': None, 'profiler_filename': None, 'ssl_private_key': '', 'scheduler_groups': None, 'password': '<ask>', 'request_queue_size': 5, 'ssl_certificate': '', 'cronjob': False, 'numthreads': None, 'quiet': False, 'interfaces': None, 'minthreads': None, 'timeout': 10, 'plain': False, 'nobanner': False}>"
p755
asbasbasbag57
(g73
g59
NtRp756
(dp757
g62
(dp758
sg71
g661
sg64
(lp759
g57
(g78
g59
NtRp760
(dp761
g62
(dp762
g82
g83
ssg71
g756
sg64
(lp763
S'db_sessions'
p764
asbag57
(g78
g59
NtRp765
(dp766
g62
(dp767
g89
g90
ssg71
g756
sg64
(lp768
S':'
asbag57
(g78
g59
NtRp769
(dp770
g62
(dp771
sg71
g756
sg64
(lp772
g57
(g58
g59
NtRp773
(dp774
g62
(dp775
g70
I4
ssg71
g769
sg64
(lp776
S'set([])'
p777
asbasbasbag57
(g73
g59
NtRp778
(dp779
g62
(dp780
sg71
g661
sg64
(lp781
g57
(g78
g59
NtRp782
(dp783
g62
(dp784
g82
g83
ssg71
g778
sg64
(lp785
S'debugging'
p786
asbag57
(g78
g59
NtRp787
(dp788
g62
(dp789
g89
g90
ssg71
g778
sg64
(lp790
S':'
asbag57
(g78
g59
NtRp791
(dp792
g62
(dp793
sg71
g778
sg64
(lp794
g57
(g58
g59
NtRp795
(dp796
g62
(dp797
g70
I4
ssg71
g791
sg64
(lp798
g100
asbasbasbag57
(g73
g59
NtRp799
(dp800
g62
(dp801
sg71
g661
sg64
(lp802
g57
(g78
g59
NtRp803
(dp804
g62
(dp805
g82
g83
ssg71
g799
sg64
(lp806
S'gluon_parent'
p807
asbag57
(g78
g59
NtRp808
(dp809
g62
(dp810
g89
g90
ssg71
g799
sg64
(lp811
S':'
asbag57
(g78
g59
NtRp812
(dp813
g62
(dp814
sg71
g799
sg64
(lp815
g57
(g58
g59
NtRp816
(dp817
g62
(dp818
g70
I4
ssg71
g812
sg64
(lp819
S'D:\\web2py\\source\\web2py'
p820
asbasbasbag57
(g73
g59
NtRp821
(dp822
g62
(dp823
sg71
g661
sg64
(lp824
g57
(g78
g59
NtRp825
(dp826
g62
(dp827
g82
g83
ssg71
g821
sg64
(lp828
S'http_accept'
p829
asbag57
(g78
g59
NtRp830
(dp831
g62
(dp832
g89
g90
ssg71
g821
sg64
(lp833
S':'
asbag57
(g78
g59
NtRp834
(dp835
g62
(dp836
sg71
g821
sg64
(lp837
g57
(g58
g59
NtRp838
(dp839
g62
(dp840
g70
I4
ssg71
g834
sg64
(lp841
S'text/html,application/xhtml+xml,application/xml;q=0.9,*/*;q=0.8'
p842
asbasbasbag57
(g73
g59
NtRp843
(dp844
g62
(dp845
sg71
g661
sg64
(lp846
g57
(g78
g59
NtRp847
(dp848
g62
(dp849
g82
g83
ssg71
g843
sg64
(lp850
S'http_accept_charset'
p851
asbag57
(g78
g59
NtRp852
(dp853
g62
(dp854
g89
g90
ssg71
g843
sg64
(lp855
S':'
asbag57
(g78
g59
NtRp856
(dp857
g62
(dp858
sg71
g843
sg64
(lp859
g57
(g58
g59
NtRp860
(dp861
g62
(dp862
g70
I4
ssg71
g856
sg64
(lp863
S'ISO-8859-1,utf-8;q=0.7,*;q=0.3'
p864
asbasbasbag57
(g73
g59
NtRp865
(dp866
g62
(dp867
sg71
g661
sg64
(lp868
g57
(g78
g59
NtRp869
(dp870
g62
(dp871
g82
g83
ssg71
g865
sg64
(lp872
S'http_accept_encoding'
p873
asbag57
(g78
g59
NtRp874
(dp875
g62
(dp876
g89
g90
ssg71
g865
sg64
(lp877
S':'
asbag57
(g78
g59
NtRp878
(dp879
g62
(dp880
sg71
g865
sg64
(lp881
g57
(g58
g59
NtRp882
(dp883
g62
(dp884
g70
I4
ssg71
g878
sg64
(lp885
S'gzip,deflate,sdch'
p886
asbasbasbag57
(g73
g59
NtRp887
(dp888
g62
(dp889
sg71
g661
sg64
(lp890
g57
(g78
g59
NtRp891
(dp892
g62
(dp893
g82
g83
ssg71
g887
sg64
(lp894
S'http_accept_language'
p895
asbag57
(g78
g59
NtRp896
(dp897
g62
(dp898
g89
g90
ssg71
g887
sg64
(lp899
S':'
asbag57
(g78
g59
NtRp900
(dp901
g62
(dp902
sg71
g887
sg64
(lp903
g57
(g58
g59
NtRp904
(dp905
g62
(dp906
g70
I4
ssg71
g900
sg64
(lp907
S'en-US,en;q=0.8'
p908
asbasbasbag57
(g73
g59
NtRp909
(dp910
g62
(dp911
sg71
g661
sg64
(lp912
g57
(g78
g59
NtRp913
(dp914
g62
(dp915
g82
g83
ssg71
g909
sg64
(lp916
S'http_connection'
p917
asbag57
(g78
g59
NtRp918
(dp919
g62
(dp920
g89
g90
ssg71
g909
sg64
(lp921
S':'
asbag57
(g78
g59
NtRp922
(dp923
g62
(dp924
sg71
g909
sg64
(lp925
g57
(g58
g59
NtRp926
(dp927
g62
(dp928
g70
I4
ssg71
g922
sg64
(lp929
S'keep-alive'
p930
asbasbasbag57
(g73
g59
NtRp931
(dp932
g62
(dp933
sg71
g661
sg64
(lp934
g57
(g78
g59
NtRp935
(dp936
g62
(dp937
g82
g83
ssg71
g931
sg64
(lp938
S'http_cookie'
p939
asbag57
(g78
g59
NtRp940
(dp941
g62
(dp942
g89
g90
ssg71
g931
sg64
(lp943
S':'
asbag57
(g78
g59
NtRp944
(dp945
g62
(dp946
sg71
g931
sg64
(lp947
g57
(g58
g59
NtRp948
(dp949
g62
(dp950
g70
I4
ssg71
g944
sg64
(lp951
S'session_id_admin=127.0.0.1-189697a8-de08-4a1c-93cd-ff5044ef6776; session_id_web2py_xlchart_dashboard=127.0.0.1-44a3aeb7-c008-49d5-9b24-ee4003137a90'
p952
asbasbasbag57
(g73
g59
NtRp953
(dp954
g62
(dp955
sg71
g661
sg64
(lp956
g57
(g78
g59
NtRp957
(dp958
g62
(dp959
g82
g83
ssg71
g953
sg64
(lp960
S'http_host'
p961
asbag57
(g78
g59
NtRp962
(dp963
g62
(dp964
g89
g90
ssg71
g953
sg64
(lp965
S':'
asbag57
(g78
g59
NtRp966
(dp967
g62
(dp968
sg71
g953
sg64
(lp969
g57
(g58
g59
NtRp970
(dp971
g62
(dp972
g70
I4
ssg71
g966
sg64
(lp973
S'localhost:8000'
p974
asbasbasbag57
(g73
g59
NtRp975
(dp976
g62
(dp977
sg71
g661
sg64
(lp978
g57
(g78
g59
NtRp979
(dp980
g62
(dp981
g82
g83
ssg71
g975
sg64
(lp982
S'http_referer'
p983
asbag57
(g78
g59
NtRp984
(dp985
g62
(dp986
g89
g90
ssg71
g975
sg64
(lp987
S':'
asbag57
(g78
g59
NtRp988
(dp989
g62
(dp990
sg71
g975
sg64
(lp991
g57
(g58
g59
NtRp992
(dp993
g62
(dp994
g70
I4
ssg71
g988
sg64
(lp995
S'http://localhost:8000/web2py_xlchart_dashboard/default/register_chart_part1'
p996
asbasbasbag57
(g73
g59
NtRp997
(dp998
g62
(dp999
sg71
g661
sg64
(lp1000
g57
(g78
g59
NtRp1001
(dp1002
g62
(dp1003
g82
g83
ssg71
g997
sg64
(lp1004
S'http_user_agent'
p1005
asbag57
(g78
g59
NtRp1006
(dp1007
g62
(dp1008
g89
g90
ssg71
g997
sg64
(lp1009
S':'
asbag57
(g78
g59
NtRp1010
(dp1011
g62
(dp1012
sg71
g997
sg64
(lp1013
g57
(g58
g59
NtRp1014
(dp1015
g62
(dp1016
g70
I4
ssg71
g1010
sg64
(lp1017
S'Mozilla/5.0 (Windows NT 5.1) AppleWebKit/537.4 (KHTML, like Gecko) Chrome/22.0.1229.94 Safari/537.4'
p1018
asbasbasbag57
(g73
g59
NtRp1019
(dp1020
g62
(dp1021
sg71
g661
sg64
(lp1022
g57
(g78
g59
NtRp1023
(dp1024
g62
(dp1025
g82
g83
ssg71
g1019
sg64
(lp1026
S'is_jython'
p1027
asbag57
(g78
g59
NtRp1028
(dp1029
g62
(dp1030
g89
g90
ssg71
g1019
sg64
(lp1031
S':'
asbag57
(g78
g59
NtRp1032
(dp1033
g62
(dp1034
sg71
g1019
sg64
(lp1035
g57
(g58
g59
NtRp1036
(dp1037
g62
(dp1038
g70
I4
ssg71
g1032
sg64
(lp1039
g100
asbasbasbag57
(g73
g59
NtRp1040
(dp1041
g62
(dp1042
sg71
g661
sg64
(lp1043
g57
(g78
g59
NtRp1044
(dp1045
g62
(dp1046
g82
g83
ssg71
g1040
sg64
(lp1047
S'is_pypy'
p1048
asbag57
(g78
g59
NtRp1049
(dp1050
g62
(dp1051
g89
g90
ssg71
g1040
sg64
(lp1052
S':'
asbag57
(g78
g59
NtRp1053
(dp1054
g62
(dp1055
sg71
g1040
sg64
(lp1056
g57
(g58
g59
NtRp1057
(dp1058
g62
(dp1059
g70
I4
ssg71
g1053
sg64
(lp1060
g100
asbasbasbag57
(g73
g59
NtRp1061
(dp1062
g62
(dp1063
sg71
g661
sg64
(lp1064
g57
(g78
g59
NtRp1065
(dp1066
g62
(dp1067
g82
g83
ssg71
g1061
sg64
(lp1068
S'local_hosts'
p1069
asbag57
(g78
g59
NtRp1070
(dp1071
g62
(dp1072
g89
g90
ssg71
g1061
sg64
(lp1073
S':'
asbag57
(g78
g59
NtRp1074
(dp1075
g62
(dp1076
sg71
g1061
sg64
(lp1077
g57
(g58
g59
NtRp1078
(dp1079
g62
(dp1080
g70
I4
ssg71
g1074
sg64
(lp1081
g57
(g66
g59
NtRp1082
(dp1083
g62
(dp1084
g70
I3
ssg71
Nsg64
(lp1085
g57
(g73
g59
NtRp1086
(dp1087
g62
(dp1088
sg71
g1082
sg64
(lp1089
g57
(g78
g59
NtRp1090
(dp1091
g62
(dp1092
sg71
g1086
sg64
(lp1093
g57
(g58
g59
NtRp1094
(dp1095
g62
(dp1096
g70
I3
ssg71
g1090
sg64
(lp1097
S'127.0.0.1'
p1098
asbasbasbag57
(g73
g59
NtRp1099
(dp1100
g62
(dp1101
sg71
g1082
sg64
(lp1102
g57
(g78
g59
NtRp1103
(dp1104
g62
(dp1105
sg71
g1099
sg64
(lp1106
g57
(g58
g59
NtRp1107
(dp1108
g62
(dp1109
g70
I3
ssg71
g1103
sg64
(lp1110
S'::ffff:127.0.0.1'
p1111
asbasbasbag57
(g73
g59
NtRp1112
(dp1113
g62
(dp1114
sg71
g1082
sg64
(lp1115
g57
(g78
g59
NtRp1116
(dp1117
g62
(dp1118
sg71
g1112
sg64
(lp1119
g57
(g58
g59
NtRp1120
(dp1121
g62
(dp1122
g70
I3
ssg71
g1116
sg64
(lp1123
S'GLKLAG235327'
p1124
asbasbasbag57
(g73
g59
NtRp1125
(dp1126
g62
(dp1127
sg71
g1082
sg64
(lp1128
g57
(g78
g59
NtRp1129
(dp1130
g62
(dp1131
sg71
g1125
sg64
(lp1132
g57
(g58
g59
NtRp1133
(dp1134
g62
(dp1135
g70
I3
ssg71
g1129
sg64
(lp1136
S'GLKLAG235327'
p1137
asbasbasbag57
(g73
g59
NtRp1138
(dp1139
g62
(dp1140
sg71
g1082
sg64
(lp1141
g57
(g78
g59
NtRp1142
(dp1143
g62
(dp1144
sg71
g1138
sg64
(lp1145
g57
(g58
g59
NtRp1146
(dp1147
g62
(dp1148
g70
I3
ssg71
g1142
sg64
(lp1149
S'192.168.0.14'
p1150
asbasbasbasbasbasbasbag57
(g73
g59
NtRp1151
(dp1152
g62
(dp1153
sg71
g661
sg64
(lp1154
g57
(g78
g59
NtRp1155
(dp1156
g62
(dp1157
g82
g83
ssg71
g1151
sg64
(lp1158
S'path_info'
p1159
asbag57
(g78
g59
NtRp1160
(dp1161
g62
(dp1162
g89
g90
ssg71
g1151
sg64
(lp1163
S':'
asbag57
(g78
g59
NtRp1164
(dp1165
g62
(dp1166
sg71
g1151
sg64
(lp1167
g57
(g58
g59
NtRp1168
(dp1169
g62
(dp1170
g70
I4
ssg71
g1164
sg64
(lp1171
S'/web2py_xlchart_dashboard/default/list_workbook_charts'
p1172
asbasbasbag57
(g73
g59
NtRp1173
(dp1174
g62
(dp1175
sg71
g661
sg64
(lp1176
g57
(g78
g59
NtRp1177
(dp1178
g62
(dp1179
g82
g83
ssg71
g1173
sg64
(lp1180
S'query_string'
p1181
asbag57
(g78
g59
NtRp1182
(dp1183
g62
(dp1184
g89
g90
ssg71
g1173
sg64
(lp1185
S':'
asbag57
(g78
g59
NtRp1186
(dp1187
g62
(dp1188
sg71
g1173
sg64
(lp1189
g57
(g58
g59
NtRp1190
(dp1191
g62
(dp1192
g70
I4
ssg71
g1186
sg64
(lp1193
S'wbid=4'
p1194
asbasbasbag57
(g73
g59
NtRp1195
(dp1196
g62
(dp1197
sg71
g661
sg64
(lp1198
g57
(g78
g59
NtRp1199
(dp1200
g62
(dp1201
g82
g83
ssg71
g1195
sg64
(lp1202
S'remote_addr'
p1203
asbag57
(g78
g59
NtRp1204
(dp1205
g62
(dp1206
g89
g90
ssg71
g1195
sg64
(lp1207
S':'
asbag57
(g78
g59
NtRp1208
(dp1209
g62
(dp1210
sg71
g1195
sg64
(lp1211
g57
(g58
g59
NtRp1212
(dp1213
g62
(dp1214
g70
I4
ssg71
g1208
sg64
(lp1215
g212
asbasbasbag57
(g73
g59
NtRp1216
(dp1217
g62
(dp1218
sg71
g661
sg64
(lp1219
g57
(g78
g59
NtRp1220
(dp1221
g62
(dp1222
g82
g83
ssg71
g1216
sg64
(lp1223
S'remote_port'
p1224
asbag57
(g78
g59
NtRp1225
(dp1226
g62
(dp1227
g89
g90
ssg71
g1216
sg64
(lp1228
S':'
asbag57
(g78
g59
NtRp1229
(dp1230
g62
(dp1231
sg71
g1216
sg64
(lp1232
g57
(g58
g59
NtRp1233
(dp1234
g62
(dp1235
g70
I4
ssg71
g1229
sg64
(lp1236
S'2092'
p1237
asbasbasbag57
(g73
g59
NtRp1238
(dp1239
g62
(dp1240
sg71
g661
sg64
(lp1241
g57
(g78
g59
NtRp1242
(dp1243
g62
(dp1244
g82
g83
ssg71
g1238
sg64
(lp1245
S'request_method'
p1246
asbag57
(g78
g59
NtRp1247
(dp1248
g62
(dp1249
g89
g90
ssg71
g1238
sg64
(lp1250
S':'
asbag57
(g78
g59
NtRp1251
(dp1252
g62
(dp1253
sg71
g1238
sg64
(lp1254
g57
(g58
g59
NtRp1255
(dp1256
g62
(dp1257
g70
I4
ssg71
g1251
sg64
(lp1258
S'GET'
p1259
asbasbasbag57
(g73
g59
NtRp1260
(dp1261
g62
(dp1262
sg71
g661
sg64
(lp1263
g57
(g78
g59
NtRp1264
(dp1265
g62
(dp1266
g82
g83
ssg71
g1260
sg64
(lp1267
S'request_uri'
p1268
asbag57
(g78
g59
NtRp1269
(dp1270
g62
(dp1271
g89
g90
ssg71
g1260
sg64
(lp1272
S':'
asbag57
(g78
g59
NtRp1273
(dp1274
g62
(dp1275
sg71
g1260
sg64
(lp1276
g57
(g58
g59
NtRp1277
(dp1278
g62
(dp1279
g70
I4
ssg71
g1273
sg64
(lp1280
S'/web2py_xlchart_dashboard/default/list_workbook_charts?wbid=4'
p1281
asbasbasbag57
(g73
g59
NtRp1282
(dp1283
g62
(dp1284
sg71
g661
sg64
(lp1285
g57
(g78
g59
NtRp1286
(dp1287
g62
(dp1288
g82
g83
ssg71
g1282
sg64
(lp1289
S'script_name'
p1290
asbag57
(g78
g59
NtRp1291
(dp1292
g62
(dp1293
g89
g90
ssg71
g1282
sg64
(lp1294
S':'
asbag57
(g78
g59
NtRp1295
(dp1296
g62
(dp1297
sg71
g1282
sg64
(lp1298
g57
(g58
g59
NtRp1299
(dp1300
g62
(dp1301
g70
I4
ssg71
g1295
sg64
(lp1302
S''
asbasbasbag57
(g73
g59
NtRp1303
(dp1304
g62
(dp1305
sg71
g661
sg64
(lp1306
g57
(g78
g59
NtRp1307
(dp1308
g62
(dp1309
g82
g83
ssg71
g1303
sg64
(lp1310
S'server_name'
p1311
asbag57
(g78
g59
NtRp1312
(dp1313
g62
(dp1314
g89
g90
ssg71
g1303
sg64
(lp1315
S':'
asbag57
(g78
g59
NtRp1316
(dp1317
g62
(dp1318
sg71
g1303
sg64
(lp1319
g57
(g58
g59
NtRp1320
(dp1321
g62
(dp1322
g70
I4
ssg71
g1316
sg64
(lp1323
g1137
asbasbasbag57
(g73
g59
NtRp1324
(dp1325
g62
(dp1326
sg71
g661
sg64
(lp1327
g57
(g78
g59
NtRp1328
(dp1329
g62
(dp1330
g82
g83
ssg71
g1324
sg64
(lp1331
S'server_port'
p1332
asbag57
(g78
g59
NtRp1333
(dp1334
g62
(dp1335
g89
g90
ssg71
g1324
sg64
(lp1336
S':'
asbag57
(g78
g59
NtRp1337
(dp1338
g62
(dp1339
sg71
g1324
sg64
(lp1340
g57
(g58
g59
NtRp1341
(dp1342
g62
(dp1343
g70
I4
ssg71
g1337
sg64
(lp1344
S'8000'
p1345
asbasbasbag57
(g73
g59
NtRp1346
(dp1347
g62
(dp1348
sg71
g661
sg64
(lp1349
g57
(g78
g59
NtRp1350
(dp1351
g62
(dp1352
g82
g83
ssg71
g1346
sg64
(lp1353
S'server_protocol'
p1354
asbag57
(g78
g59
NtRp1355
(dp1356
g62
(dp1357
g89
g90
ssg71
g1346
sg64
(lp1358
S':'
asbag57
(g78
g59
NtRp1359
(dp1360
g62
(dp1361
sg71
g1346
sg64
(lp1362
g57
(g58
g59
NtRp1363
(dp1364
g62
(dp1365
g70
I4
ssg71
g1359
sg64
(lp1366
S'HTTP/1.1'
p1367
asbasbasbag57
(g73
g59
NtRp1368
(dp1369
g62
(dp1370
sg71
g661
sg64
(lp1371
g57
(g78
g59
NtRp1372
(dp1373
g62
(dp1374
g82
g83
ssg71
g1368
sg64
(lp1375
S'server_software'
p1376
asbag57
(g78
g59
NtRp1377
(dp1378
g62
(dp1379
g89
g90
ssg71
g1368
sg64
(lp1380
S':'
asbag57
(g78
g59
NtRp1381
(dp1382
g62
(dp1383
sg71
g1368
sg64
(lp1384
g57
(g58
g59
NtRp1385
(dp1386
g62
(dp1387
g70
I4
ssg71
g1381
sg64
(lp1388
S'Rocket 1.2.5'
p1389
asbasbasbag57
(g73
g59
NtRp1390
(dp1391
g62
(dp1392
sg71
g661
sg64
(lp1393
g57
(g78
g59
NtRp1394
(dp1395
g62
(dp1396
g82
g83
ssg71
g1390
sg64
(lp1397
S'web2py_path'
p1398
asbag57
(g78
g59
NtRp1399
(dp1400
g62
(dp1401
g89
g90
ssg71
g1390
sg64
(lp1402
S':'
asbag57
(g78
g59
NtRp1403
(dp1404
g62
(dp1405
sg71
g1390
sg64
(lp1406
g57
(g58
g59
NtRp1407
(dp1408
g62
(dp1409
g70
I4
ssg71
g1403
sg64
(lp1410
g708
asbasbasbag57
(g73
g59
NtRp1411
(dp1412
g62
(dp1413
sg71
g661
sg64
(lp1414
g57
(g78
g59
NtRp1415
(dp1416
g62
(dp1417
g82
g83
ssg71
g1411
sg64
(lp1418
S'web2py_version'
p1419
asbag57
(g78
g59
NtRp1420
(dp1421
g62
(dp1422
g89
g90
ssg71
g1411
sg64
(lp1423
S':'
asbag57
(g78
g59
NtRp1424
(dp1425
g62
(dp1426
sg71
g1411
sg64
(lp1427
g57
(g58
g59
NtRp1428
(dp1429
g62
(dp1430
g70
I4
ssg71
g1424
sg64
(lp1431
g57
(g66
g59
NtRp1432
(dp1433
g62
(dp1434
g70
I3
ssg71
Nsg64
(lp1435
g57
(g73
g59
NtRp1436
(dp1437
g62
(dp1438
sg71
g1432
sg64
(lp1439
g57
(g78
g59
NtRp1440
(dp1441
g62
(dp1442
sg71
g1436
sg64
(lp1443
g57
(g58
g59
NtRp1444
(dp1445
g62
(dp1446
g70
I3
ssg71
g1440
sg64
(lp1447
S'2'
asbasbasbag57
(g73
g59
NtRp1448
(dp1449
g62
(dp1450
sg71
g1432
sg64
(lp1451
g57
(g78
g59
NtRp1452
(dp1453
g62
(dp1454
sg71
g1448
sg64
(lp1455
g57
(g58
g59
NtRp1456
(dp1457
g62
(dp1458
g70
I3
ssg71
g1452
sg64
(lp1459
S'2'
asbasbasbag57
(g73
g59
NtRp1460
(dp1461
g62
(dp1462
sg71
g1432
sg64
(lp1463
g57
(g78
g59
NtRp1464
(dp1465
g62
(dp1466
sg71
g1460
sg64
(lp1467
g57
(g58
g59
NtRp1468
(dp1469
g62
(dp1470
g70
I3
ssg71
g1464
sg64
(lp1471
S'1'
asbasbasbag57
(g73
g59
NtRp1472
(dp1473
g62
(dp1474
sg71
g1432
sg64
(lp1475
g57
(g78
g59
NtRp1476
(dp1477
g62
(dp1478
sg71
g1472
sg64
(lp1479
g57
(g58
g59
NtRp1480
(dp1481
g62
(dp1482
g70
I3
ssg71
g1476
sg64
(lp1483
S'datetime.datetime(2012, 10, 21, 16, 57, 4)'
p1484
asbasbasbag57
(g73
g59
NtRp1485
(dp1486
g62
(dp1487
sg71
g1432
sg64
(lp1488
g57
(g78
g59
NtRp1489
(dp1490
g62
(dp1491
sg71
g1485
sg64
(lp1492
g57
(g58
g59
NtRp1493
(dp1494
g62
(dp1495
g70
I3
ssg71
g1489
sg64
(lp1496
S'stable'
p1497
asbasbasbasbasbasbasbag57
(g73
g59
NtRp1498
(dp1499
g62
(dp1500
sg71
g661
sg64
(lp1501
g57
(g78
g59
NtRp1502
(dp1503
g62
(dp1504
g82
g83
ssg71
g1498
sg64
(lp1505
S'wsgi_errors'
p1506
asbag57
(g78
g59
NtRp1507
(dp1508
g62
(dp1509
g89
g90
ssg71
g1498
sg64
(lp1510
S':'
asbag57
(g78
g59
NtRp1511
(dp1512
g62
(dp1513
sg71
g1498
sg64
(lp1514
g57
(g58
g59
NtRp1515
(dp1516
g62
(dp1517
g70
I4
ssg71
g1511
sg64
(lp1518
S"<open file '<stderr>', mode 'w' at 0x00A850D0>"
p1519
asbasbasbag57
(g73
g59
NtRp1520
(dp1521
g62
(dp1522
sg71
g661
sg64
(lp1523
g57
(g78
g59
NtRp1524
(dp1525
g62
(dp1526
g82
g83
ssg71
g1520
sg64
(lp1527
S'wsgi_file_wrapper'
p1528
asbag57
(g78
g59
NtRp1529
(dp1530
g62
(dp1531
g89
g90
ssg71
g1520
sg64
(lp1532
S':'
asbag57
(g78
g59
NtRp1533
(dp1534
g62
(dp1535
sg71
g1520
sg64
(lp1536
g57
(g58
g59
NtRp1537
(dp1538
g62
(dp1539
g70
I4
ssg71
g1533
sg64
(lp1540
S'<class wsgiref.util.FileWrapper at 0x0172EE68>'
p1541
asbasbasbag57
(g73
g59
NtRp1542
(dp1543
g62
(dp1544
sg71
g661
sg64
(lp1545
g57
(g78
g59
NtRp1546
(dp1547
g62
(dp1548
g82
g83
ssg71
g1542
sg64
(lp1549
S'wsgi_input'
p1550
asbag57
(g78
g59
NtRp1551
(dp1552
g62
(dp1553
g89
g90
ssg71
g1542
sg64
(lp1554
S':'
asbag57
(g78
g59
NtRp1555
(dp1556
g62
(dp1557
sg71
g1542
sg64
(lp1558
g57
(g58
g59
NtRp1559
(dp1560
g62
(dp1561
g70
I4
ssg71
g1555
sg64
(lp1562
S'<socket._fileobject object at 0x052F8430>'
p1563
asbasbasbag57
(g73
g59
NtRp1564
(dp1565
g62
(dp1566
sg71
g661
sg64
(lp1567
g57
(g78
g59
NtRp1568
(dp1569
g62
(dp1570
g82
g83
ssg71
g1564
sg64
(lp1571
S'wsgi_multiprocess'
p1572
asbag57
(g78
g59
NtRp1573
(dp1574
g62
(dp1575
g89
g90
ssg71
g1564
sg64
(lp1576
S':'
asbag57
(g78
g59
NtRp1577
(dp1578
g62
(dp1579
sg71
g1564
sg64
(lp1580
g57
(g58
g59
NtRp1581
(dp1582
g62
(dp1583
g70
I4
ssg71
g1577
sg64
(lp1584
g100
asbasbasbag57
(g73
g59
NtRp1585
(dp1586
g62
(dp1587
sg71
g661
sg64
(lp1588
g57
(g78
g59
NtRp1589
(dp1590
g62
(dp1591
g82
g83
ssg71
g1585
sg64
(lp1592
S'wsgi_multithread'
p1593
asbag57
(g78
g59
NtRp1594
(dp1595
g62
(dp1596
g89
g90
ssg71
g1585
sg64
(lp1597
S':'
asbag57
(g78
g59
NtRp1598
(dp1599
g62
(dp1600
sg71
g1585
sg64
(lp1601
g57
(g58
g59
NtRp1602
(dp1603
g62
(dp1604
g70
I4
ssg71
g1598
sg64
(lp1605
S'True'
p1606
asbasbasbag57
(g73
g59
NtRp1607
(dp1608
g62
(dp1609
sg71
g661
sg64
(lp1610
g57
(g78
g59
NtRp1611
(dp1612
g62
(dp1613
g82
g83
ssg71
g1607
sg64
(lp1614
S'wsgi_run_once'
p1615
asbag57
(g78
g59
NtRp1616
(dp1617
g62
(dp1618
g89
g90
ssg71
g1607
sg64
(lp1619
S':'
asbag57
(g78
g59
NtRp1620
(dp1621
g62
(dp1622
sg71
g1607
sg64
(lp1623
g57
(g58
g59
NtRp1624
(dp1625
g62
(dp1626
g70
I4
ssg71
g1620
sg64
(lp1627
g100
asbasbasbag57
(g73
g59
NtRp1628
(dp1629
g62
(dp1630
sg71
g661
sg64
(lp1631
g57
(g78
g59
NtRp1632
(dp1633
g62
(dp1634
g82
g83
ssg71
g1628
sg64
(lp1635
S'wsgi_url_scheme'
p1636
asbag57
(g78
g59
NtRp1637
(dp1638
g62
(dp1639
g89
g90
ssg71
g1628
sg64
(lp1640
S':'
asbag57
(g78
g59
NtRp1641
(dp1642
g62
(dp1643
sg71
g1628
sg64
(lp1644
g57
(g58
g59
NtRp1645
(dp1646
g62
(dp1647
g70
I4
ssg71
g1641
sg64
(lp1648
S'http'
p1649
asbasbasbag57
(g73
g59
NtRp1650
(dp1651
g62
(dp1652
sg71
g661
sg64
(lp1653
g57
(g78
g59
NtRp1654
(dp1655
g62
(dp1656
g82
g83
ssg71
g1650
sg64
(lp1657
S'wsgi_version'
p1658
asbag57
(g78
g59
NtRp1659
(dp1660
g62
(dp1661
g89
g90
ssg71
g1650
sg64
(lp1662
S':'
asbag57
(g78
g59
NtRp1663
(dp1664
g62
(dp1665
sg71
g1650
sg64
(lp1666
g57
(g58
g59
NtRp1667
(dp1668
g62
(dp1669
g70
I4
ssg71
g1663
sg64
(lp1670
g57
(g66
g59
NtRp1671
(dp1672
g62
(dp1673
g70
I3
ssg71
Nsg64
(lp1674
g57
(g73
g59
NtRp1675
(dp1676
g62
(dp1677
sg71
g1671
sg64
(lp1678
g57
(g78
g59
NtRp1679
(dp1680
g62
(dp1681
sg71
g1675
sg64
(lp1682
g57
(g58
g59
NtRp1683
(dp1684
g62
(dp1685
g70
I3
ssg71
g1679
sg64
(lp1686
S'1'
asbasbasbag57
(g73
g59
NtRp1687
(dp1688
g62
(dp1689
sg71
g1671
sg64
(lp1690
g57
(g78
g59
NtRp1691
(dp1692
g62
(dp1693
sg71
g1687
sg64
(lp1694
g57
(g58
g59
NtRp1695
(dp1696
g62
(dp1697
g70
I3
ssg71
g1691
sg64
(lp1698
S'0'
asbasbasbasbasbasbasbasbasbasbasbag57
(g73
g59
NtRp1699
(dp1700
g62
(dp1701
sg71
g67
sg64
(lp1702
g57
(g78
g59
NtRp1703
(dp1704
g62
(dp1705
g82
g83
ssg71
g1699
sg64
(lp1706
S'extension'
p1707
asbag57
(g78
g59
NtRp1708
(dp1709
g62
(dp1710
g89
g90
ssg71
g1699
sg64
(lp1711
S':'
asbag57
(g78
g59
NtRp1712
(dp1713
g62
(dp1714
sg71
g1699
sg64
(lp1715
g57
(g58
g59
NtRp1716
(dp1717
g62
(dp1718
g70
I5
ssg71
g1712
sg64
(lp1719
S'html'
p1720
asbasbasbag57
(g73
g59
NtRp1721
(dp1722
g62
(dp1723
sg71
g67
sg64
(lp1724
g57
(g78
g59
NtRp1725
(dp1726
g62
(dp1727
g82
g83
ssg71
g1721
sg64
(lp1728
S'folder'
p1729
asbag57
(g78
g59
NtRp1730
(dp1731
g62
(dp1732
g89
g90
ssg71
g1721
sg64
(lp1733
S':'
asbag57
(g78
g59
NtRp1734
(dp1735
g62
(dp1736
sg71
g1721
sg64
(lp1737
g57
(g58
g59
NtRp1738
(dp1739
g62
(dp1740
g70
I5
ssg71
g1734
sg64
(lp1741
S'D:\\web2py\\source\\web2py\\applications\\web2py_xlchart_dashboard\\'
p1742
asbasbasbag57
(g73
g59
NtRp1743
(dp1744
g62
(dp1745
sg71
g67
sg64
(lp1746
g57
(g78
g59
NtRp1747
(dp1748
g62
(dp1749
g82
g83
ssg71
g1743
sg64
(lp1750
S'function'
p1751
asbag57
(g78
g59
NtRp1752
(dp1753
g62
(dp1754
g89
g90
ssg71
g1743
sg64
(lp1755
S':'
asbag57
(g78
g59
NtRp1756
(dp1757
g62
(dp1758
sg71
g1743
sg64
(lp1759
g57
(g58
g59
NtRp1760
(dp1761
g62
(dp1762
g70
I5
ssg71
g1756
sg64
(lp1763
S'list_workbook_charts'
p1764
asbasbasbag57
(g73
g59
NtRp1765
(dp1766
g62
(dp1767
sg71
g67
sg64
(lp1768
g57
(g78
g59
NtRp1769
(dp1770
g62
(dp1771
g82
g83
ssg71
g1765
sg64
(lp1772
S'get_vars'
p1773
asbag57
(g78
g59
NtRp1774
(dp1775
g62
(dp1776
g89
g90
ssg71
g1765
sg64
(lp1777
S':'
asbag57
(g78
g59
NtRp1778
(dp1779
g62
(dp1780
sg71
g1765
sg64
(lp1781
g57
(g58
g59
NtRp1782
(dp1783
g62
(dp1784
g70
I5
ssg71
g1778
sg64
(lp1785
g57
(g66
g59
NtRp1786
(dp1787
g62
(dp1788
g70
I4
ssg71
Nsg64
(lp1789
g57
(g73
g59
NtRp1790
(dp1791
g62
(dp1792
sg71
g1786
sg64
(lp1793
g57
(g78
g59
NtRp1794
(dp1795
g62
(dp1796
g82
g83
ssg71
g1790
sg64
(lp1797
S'wbid'
p1798
asbag57
(g78
g59
NtRp1799
(dp1800
g62
(dp1801
g89
g90
ssg71
g1790
sg64
(lp1802
S':'
asbag57
(g78
g59
NtRp1803
(dp1804
g62
(dp1805
sg71
g1790
sg64
(lp1806
g57
(g58
g59
NtRp1807
(dp1808
g62
(dp1809
g70
I4
ssg71
g1803
sg64
(lp1810
S'4'
asbasbasbasbasbasbasbag57
(g73
g59
NtRp1811
(dp1812
g62
(dp1813
sg71
g67
sg64
(lp1814
g57
(g78
g59
NtRp1815
(dp1816
g62
(dp1817
g82
g83
ssg71
g1811
sg64
(lp1818
S'global_settings'
p1819
asbag57
(g78
g59
NtRp1820
(dp1821
g62
(dp1822
g89
g90
ssg71
g1811
sg64
(lp1823
S':'
asbag57
(g78
g59
NtRp1824
(dp1825
g62
(dp1826
sg71
g1811
sg64
(lp1827
g57
(g58
g59
NtRp1828
(dp1829
g62
(dp1830
g70
I5
ssg71
g1824
sg64
(lp1831
g57
(g66
g59
NtRp1832
(dp1833
g62
(dp1834
g70
I4
ssg71
Nsg64
(lp1835
g57
(g73
g59
NtRp1836
(dp1837
g62
(dp1838
sg71
g1832
sg64
(lp1839
g57
(g78
g59
NtRp1840
(dp1841
g62
(dp1842
g82
g83
ssg71
g1836
sg64
(lp1843
g673
asbag57
(g78
g59
NtRp1844
(dp1845
g62
(dp1846
g89
g90
ssg71
g1836
sg64
(lp1847
S':'
asbag57
(g78
g59
NtRp1848
(dp1849
g62
(dp1850
sg71
g1836
sg64
(lp1851
g57
(g58
g59
NtRp1852
(dp1853
g62
(dp1854
g70
I4
ssg71
g1848
sg64
(lp1855
S"set(['D:\\\\web2py\\\\source\\\\web2py\\\\applications\\\\admin\\\\', 'D:\\\\web2py\\\\source\\\\web2py\\\\applications\\\\welcome\\\\', 'D:\\\\web2py\\\\source\\\\web2py\\\\applications\\\\web2py_xlchart_dashboard\\\\'])"
p1856
asbasbasbag57
(g73
g59
NtRp1857
(dp1858
g62
(dp1859
sg71
g1832
sg64
(lp1860
g57
(g78
g59
NtRp1861
(dp1862
g62
(dp1863
g82
g83
ssg71
g1857
sg64
(lp1864
g695
asbag57
(g78
g59
NtRp1865
(dp1866
g62
(dp1867
g89
g90
ssg71
g1857
sg64
(lp1868
S':'
asbag57
(g78
g59
NtRp1869
(dp1870
g62
(dp1871
sg71
g1857
sg64
(lp1872
g57
(g58
g59
NtRp1873
(dp1874
g62
(dp1875
g70
I4
ssg71
g1869
sg64
(lp1876
g708
asbasbasbag57
(g73
g59
NtRp1877
(dp1878
g62
(dp1879
sg71
g1832
sg64
(lp1880
g57
(g78
g59
NtRp1881
(dp1882
g62
(dp1883
g82
g83
ssg71
g1877
sg64
(lp1884
g717
asbag57
(g78
g59
NtRp1885
(dp1886
g62
(dp1887
g89
g90
ssg71
g1877
sg64
(lp1888
S':'
asbag57
(g78
g59
NtRp1889
(dp1890
g62
(dp1891
sg71
g1877
sg64
(lp1892
g57
(g58
g59
NtRp1893
(dp1894
g62
(dp1895
g70
I4
ssg71
g1889
sg64
(lp1896
g57
(g66
g59
NtRp1897
(dp1898
g62
(dp1899
g70
I3
ssg71
Nsg64
(lp1900
sbasbasbasbag57
(g73
g59
NtRp1901
(dp1902
g62
(dp1903
sg71
g1832
sg64
(lp1904
g57
(g78
g59
NtRp1905
(dp1906
g62
(dp1907
g82
g83
ssg71
g1901
sg64
(lp1908
g742
asbag57
(g78
g59
NtRp1909
(dp1910
g62
(dp1911
g89
g90
ssg71
g1901
sg64
(lp1912
S':'
asbag57
(g78
g59
NtRp1913
(dp1914
g62
(dp1915
sg71
g1901
sg64
(lp1916
g57
(g58
g59
NtRp1917
(dp1918
g62
(dp1919
g70
I4
ssg71
g1913
sg64
(lp1920
S"<Values at 0xc77f58: {'verbose': False, 'ip': '127.0.0.1', 'with_scheduler': False, 'ips': ['192.168.0.14'], 'shutdown_timeout': 5, 'taskbar': False, 'port': 8000, 'maxthreads': None, 'softcron': False, 'server_name': 'GLKLAG235327', 'bpython': False, 'nogui': False, 'pid_filename': 'httpserver.pid', 'extcron': False, 'runcron': False, 'run_system_tests': False, 'test': None, 'folder': 'D:\\\\web2py\\\\source\\\\web2py', 'config': '', 'import_models': False, 'winservice': '', 'shell': None, 'run': '', 'log_filename': 'httpserver.log', 'debuglevel': 30, 'args': [''], 'socket_timeout': 5, 'ssl_ca_certificate': None, 'scheduler': None, 'profiler_filename': None, 'ssl_private_key': '', 'scheduler_groups': None, 'password': '<ask>', 'request_queue_size': 5, 'ssl_certificate': '', 'cronjob': False, 'numthreads': None, 'quiet': False, 'interfaces': None, 'minthreads': None, 'timeout': 10, 'plain': False, 'nobanner': False}>"
p1921
asbasbasbag57
(g73
g59
NtRp1922
(dp1923
g62
(dp1924
sg71
g1832
sg64
(lp1925
g57
(g78
g59
NtRp1926
(dp1927
g62
(dp1928
g82
g83
ssg71
g1922
sg64
(lp1929
g764
asbag57
(g78
g59
NtRp1930
(dp1931
g62
(dp1932
g89
g90
ssg71
g1922
sg64
(lp1933
S':'
asbag57
(g78
g59
NtRp1934
(dp1935
g62
(dp1936
sg71
g1922
sg64
(lp1937
g57
(g58
g59
NtRp1938
(dp1939
g62
(dp1940
g70
I4
ssg71
g1934
sg64
(lp1941
S'set([])'
p1942
asbasbasbag57
(g73
g59
NtRp1943
(dp1944
g62
(dp1945
sg71
g1832
sg64
(lp1946
g57
(g78
g59
NtRp1947
(dp1948
g62
(dp1949
g82
g83
ssg71
g1943
sg64
(lp1950
g786
asbag57
(g78
g59
NtRp1951
(dp1952
g62
(dp1953
g89
g90
ssg71
g1943
sg64
(lp1954
S':'
asbag57
(g78
g59
NtRp1955
(dp1956
g62
(dp1957
sg71
g1943
sg64
(lp1958
g57
(g58
g59
NtRp1959
(dp1960
g62
(dp1961
g70
I4
ssg71
g1955
sg64
(lp1962
g100
asbasbasbag57
(g73
g59
NtRp1963
(dp1964
g62
(dp1965
sg71
g1832
sg64
(lp1966
g57
(g78
g59
NtRp1967
(dp1968
g62
(dp1969
g82
g83
ssg71
g1963
sg64
(lp1970
g807
asbag57
(g78
g59
NtRp1971
(dp1972
g62
(dp1973
g89
g90
ssg71
g1963
sg64
(lp1974
S':'
asbag57
(g78
g59
NtRp1975
(dp1976
g62
(dp1977
sg71
g1963
sg64
(lp1978
g57
(g58
g59
NtRp1979
(dp1980
g62
(dp1981
g70
I4
ssg71
g1975
sg64
(lp1982
g820
asbasbasbag57
(g73
g59
NtRp1983
(dp1984
g62
(dp1985
sg71
g1832
sg64
(lp1986
g57
(g78
g59
NtRp1987
(dp1988
g62
(dp1989
g82
g83
ssg71
g1983
sg64
(lp1990
g1027
asbag57
(g78
g59
NtRp1991
(dp1992
g62
(dp1993
g89
g90
ssg71
g1983
sg64
(lp1994
S':'
asbag57
(g78
g59
NtRp1995
(dp1996
g62
(dp1997
sg71
g1983
sg64
(lp1998
g57
(g58
g59
NtRp1999
(dp2000
g62
(dp2001
g70
I4
ssg71
g1995
sg64
(lp2002
g100
asbasbasbag57
(g73
g59
NtRp2003
(dp2004
g62
(dp2005
sg71
g1832
sg64
(lp2006
g57
(g78
g59
NtRp2007
(dp2008
g62
(dp2009
g82
g83
ssg71
g2003
sg64
(lp2010
g1048
asbag57
(g78
g59
NtRp2011
(dp2012
g62
(dp2013
g89
g90
ssg71
g2003
sg64
(lp2014
S':'
asbag57
(g78
g59
NtRp2015
(dp2016
g62
(dp2017
sg71
g2003
sg64
(lp2018
g57
(g58
g59
NtRp2019
(dp2020
g62
(dp2021
g70
I4
ssg71
g2015
sg64
(lp2022
g100
asbasbasbag57
(g73
g59
NtRp2023
(dp2024
g62
(dp2025
sg71
g1832
sg64
(lp2026
g57
(g78
g59
NtRp2027
(dp2028
g62
(dp2029
g82
g83
ssg71
g2023
sg64
(lp2030
g1069
asbag57
(g78
g59
NtRp2031
(dp2032
g62
(dp2033
g89
g90
ssg71
g2023
sg64
(lp2034
S':'
asbag57
(g78
g59
NtRp2035
(dp2036
g62
(dp2037
sg71
g2023
sg64
(lp2038
g57
(g58
g59
NtRp2039
(dp2040
g62
(dp2041
g70
I4
ssg71
g2035
sg64
(lp2042
g57
(g66
g59
NtRp2043
(dp2044
g62
(dp2045
g70
I3
ssg71
Nsg64
(lp2046
g57
(g73
g59
NtRp2047
(dp2048
g62
(dp2049
sg71
g2043
sg64
(lp2050
g57
(g78
g59
NtRp2051
(dp2052
g62
(dp2053
sg71
g2047
sg64
(lp2054
g57
(g58
g59
NtRp2055
(dp2056
g62
(dp2057
g70
I3
ssg71
g2051
sg64
(lp2058
g1098
asbasbasbag57
(g73
g59
NtRp2059
(dp2060
g62
(dp2061
sg71
g2043
sg64
(lp2062
g57
(g78
g59
NtRp2063
(dp2064
g62
(dp2065
sg71
g2059
sg64
(lp2066
g57
(g58
g59
NtRp2067
(dp2068
g62
(dp2069
g70
I3
ssg71
g2063
sg64
(lp2070
g1111
asbasbasbag57
(g73
g59
NtRp2071
(dp2072
g62
(dp2073
sg71
g2043
sg64
(lp2074
g57
(g78
g59
NtRp2075
(dp2076
g62
(dp2077
sg71
g2071
sg64
(lp2078
g57
(g58
g59
NtRp2079
(dp2080
g62
(dp2081
g70
I3
ssg71
g2075
sg64
(lp2082
g1124
asbasbasbag57
(g73
g59
NtRp2083
(dp2084
g62
(dp2085
sg71
g2043
sg64
(lp2086
g57
(g78
g59
NtRp2087
(dp2088
g62
(dp2089
sg71
g2083
sg64
(lp2090
g57
(g58
g59
NtRp2091
(dp2092
g62
(dp2093
g70
I3
ssg71
g2087
sg64
(lp2094
g1137
asbasbasbag57
(g73
g59
NtRp2095
(dp2096
g62
(dp2097
sg71
g2043
sg64
(lp2098
g57
(g78
g59
NtRp2099
(dp2100
g62
(dp2101
sg71
g2095
sg64
(lp2102
g57
(g58
g59
NtRp2103
(dp2104
g62
(dp2105
g70
I3
ssg71
g2099
sg64
(lp2106
g1150
asbasbasbasbasbasbasbag57
(g73
g59
NtRp2107
(dp2108
g62
(dp2109
sg71
g1832
sg64
(lp2110
g57
(g78
g59
NtRp2111
(dp2112
g62
(dp2113
g82
g83
ssg71
g2107
sg64
(lp2114
g1419
asbag57
(g78
g59
NtRp2115
(dp2116
g62
(dp2117
g89
g90
ssg71
g2107
sg64
(lp2118
S':'
asbag57
(g78
g59
NtRp2119
(dp2120
g62
(dp2121
sg71
g2107
sg64
(lp2122
g57
(g58
g59
NtRp2123
(dp2124
g62
(dp2125
g70
I4
ssg71
g2119
sg64
(lp2126
g57
(g66
g59
NtRp2127
(dp2128
g62
(dp2129
g70
I3
ssg71
Nsg64
(lp2130
g57
(g73
g59
NtRp2131
(dp2132
g62
(dp2133
sg71
g2127
sg64
(lp2134
g57
(g78
g59
NtRp2135
(dp2136
g62
(dp2137
sg71
g2131
sg64
(lp2138
g57
(g58
g59
NtRp2139
(dp2140
g62
(dp2141
g70
I3
ssg71
g2135
sg64
(lp2142
S'2'
asbasbasbag57
(g73
g59
NtRp2143
(dp2144
g62
(dp2145
sg71
g2127
sg64
(lp2146
g57
(g78
g59
NtRp2147
(dp2148
g62
(dp2149
sg71
g2143
sg64
(lp2150
g57
(g58
g59
NtRp2151
(dp2152
g62
(dp2153
g70
I3
ssg71
g2147
sg64
(lp2154
S'2'
asbasbasbag57
(g73
g59
NtRp2155
(dp2156
g62
(dp2157
sg71
g2127
sg64
(lp2158
g57
(g78
g59
NtRp2159
(dp2160
g62
(dp2161
sg71
g2155
sg64
(lp2162
g57
(g58
g59
NtRp2163
(dp2164
g62
(dp2165
g70
I3
ssg71
g2159
sg64
(lp2166
S'1'
asbasbasbag57
(g73
g59
NtRp2167
(dp2168
g62
(dp2169
sg71
g2127
sg64
(lp2170
g57
(g78
g59
NtRp2171
(dp2172
g62
(dp2173
sg71
g2167
sg64
(lp2174
g57
(g58
g59
NtRp2175
(dp2176
g62
(dp2177
g70
I3
ssg71
g2171
sg64
(lp2178
S'datetime.datetime(2012, 10, 21, 16, 57, 4)'
p2179
asbasbasbag57
(g73
g59
NtRp2180
(dp2181
g62
(dp2182
sg71
g2127
sg64
(lp2183
g57
(g78
g59
NtRp2184
(dp2185
g62
(dp2186
sg71
g2180
sg64
(lp2187
g57
(g58
g59
NtRp2188
(dp2189
g62
(dp2190
g70
I3
ssg71
g2184
sg64
(lp2191
g1497
asbasbasbasbasbasbasbasbasbasbasbag57
(g73
g59
NtRp2192
(dp2193
g62
(dp2194
sg71
g67
sg64
(lp2195
g57
(g78
g59
NtRp2196
(dp2197
g62
(dp2198
g82
g83
ssg71
g2192
sg64
(lp2199
S'is_https'
p2200
asbag57
(g78
g59
NtRp2201
(dp2202
g62
(dp2203
g89
g90
ssg71
g2192
sg64
(lp2204
S':'
asbag57
(g78
g59
NtRp2205
(dp2206
g62
(dp2207
sg71
g2192
sg64
(lp2208
g57
(g58
g59
NtRp2209
(dp2210
g62
(dp2211
g70
I5
ssg71
g2205
sg64
(lp2212
g100
asbasbasbag57
(g73
g59
NtRp2213
(dp2214
g62
(dp2215
sg71
g67
sg64
(lp2216
g57
(g78
g59
NtRp2217
(dp2218
g62
(dp2219
g82
g83
ssg71
g2213
sg64
(lp2220
S'is_local'
p2221
asbag57
(g78
g59
NtRp2222
(dp2223
g62
(dp2224
g89
g90
ssg71
g2213
sg64
(lp2225
S':'
asbag57
(g78
g59
NtRp2226
(dp2227
g62
(dp2228
sg71
g2213
sg64
(lp2229
g57
(g58
g59
NtRp2230
(dp2231
g62
(dp2232
g70
I5
ssg71
g2226
sg64
(lp2233
g1606
asbasbasbag57
(g73
g59
NtRp2234
(dp2235
g62
(dp2236
sg71
g67
sg64
(lp2237
g57
(g78
g59
NtRp2238
(dp2239
g62
(dp2240
g82
g83
ssg71
g2234
sg64
(lp2241
S'is_restful'
p2242
asbag57
(g78
g59
NtRp2243
(dp2244
g62
(dp2245
g89
g90
ssg71
g2234
sg64
(lp2246
S':'
asbag57
(g78
g59
NtRp2247
(dp2248
g62
(dp2249
sg71
g2234
sg64
(lp2250
g57
(g58
g59
NtRp2251
(dp2252
g62
(dp2253
g70
I5
ssg71
g2247
sg64
(lp2254
g100
asbasbasbag57
(g73
g59
NtRp2255
(dp2256
g62
(dp2257
sg71
g67
sg64
(lp2258
g57
(g78
g59
NtRp2259
(dp2260
g62
(dp2261
g82
g83
ssg71
g2255
sg64
(lp2262
S'now'
p2263
asbag57
(g78
g59
NtRp2264
(dp2265
g62
(dp2266
g89
g90
ssg71
g2255
sg64
(lp2267
S':'
asbag57
(g78
g59
NtRp2268
(dp2269
g62
(dp2270
sg71
g2255
sg64
(lp2271
g57
(g58
g59
NtRp2272
(dp2273
g62
(dp2274
g70
I5
ssg71
g2268
sg64
(lp2275
S'datetime.datetime(2012, 11, 5, 21, 23, 2, 421000)'
p2276
asbasbasbag57
(g73
g59
NtRp2277
(dp2278
g62
(dp2279
sg71
g67
sg64
(lp2280
g57
(g78
g59
NtRp2281
(dp2282
g62
(dp2283
g82
g83
ssg71
g2277
sg64
(lp2284
S'post_vars'
p2285
asbag57
(g78
g59
NtRp2286
(dp2287
g62
(dp2288
g89
g90
ssg71
g2277
sg64
(lp2289
S':'
asbag57
(g78
g59
NtRp2290
(dp2291
g62
(dp2292
sg71
g2277
sg64
(lp2293
g57
(g58
g59
NtRp2294
(dp2295
g62
(dp2296
g70
I5
ssg71
g2290
sg64
(lp2297
g57
(g66
g59
NtRp2298
(dp2299
g62
(dp2300
g70
I4
ssg71
Nsg64
(lp2301
sbasbasbasbag57
(g73
g59
NtRp2302
(dp2303
g62
(dp2304
sg71
g67
sg64
(lp2305
g57
(g78
g59
NtRp2306
(dp2307
g62
(dp2308
g82
g83
ssg71
g2302
sg64
(lp2309
S'raw_args'
p2310
asbag57
(g78
g59
NtRp2311
(dp2312
g62
(dp2313
g89
g90
ssg71
g2302
sg64
(lp2314
S':'
asbag57
(g78
g59
NtRp2315
(dp2316
g62
(dp2317
sg71
g2302
sg64
(lp2318
g57
(g58
g59
NtRp2319
(dp2320
g62
(dp2321
g70
I5
ssg71
g2315
sg64
(lp2322
S''
asbasbasbag57
(g73
g59
NtRp2323
(dp2324
g62
(dp2325
sg71
g67
sg64
(lp2326
g57
(g78
g59
NtRp2327
(dp2328
g62
(dp2329
g82
g83
ssg71
g2323
sg64
(lp2330
S'raw_extension'
p2331
asbag57
(g78
g59
NtRp2332
(dp2333
g62
(dp2334
g89
g90
ssg71
g2323
sg64
(lp2335
S':'
asbag57
(g78
g59
NtRp2336
(dp2337
g62
(dp2338
sg71
g2323
sg64
(lp2339
g57
(g58
g59
NtRp2340
(dp2341
g62
(dp2342
g70
I5
ssg71
g2336
sg64
(lp2343
S'None'
p2344
asbasbasbag57
(g73
g59
NtRp2345
(dp2346
g62
(dp2347
sg71
g67
sg64
(lp2348
g57
(g78
g59
NtRp2349
(dp2350
g62
(dp2351
g82
g83
ssg71
g2345
sg64
(lp2352
S'url'
p2353
asbag57
(g78
g59
NtRp2354
(dp2355
g62
(dp2356
g89
g90
ssg71
g2345
sg64
(lp2357
S':'
asbag57
(g78
g59
NtRp2358
(dp2359
g62
(dp2360
sg71
g2345
sg64
(lp2361
g57
(g58
g59
NtRp2362
(dp2363
g62
(dp2364
g70
I5
ssg71
g2358
sg64
(lp2365
g1172
asbasbasbag57
(g73
g59
NtRp2366
(dp2367
g62
(dp2368
sg71
g67
sg64
(lp2369
g57
(g78
g59
NtRp2370
(dp2371
g62
(dp2372
g82
g83
ssg71
g2366
sg64
(lp2373
S'utcnow'
p2374
asbag57
(g78
g59
NtRp2375
(dp2376
g62
(dp2377
g89
g90
ssg71
g2366
sg64
(lp2378
S':'
asbag57
(g78
g59
NtRp2379
(dp2380
g62
(dp2381
sg71
g2366
sg64
(lp2382
g57
(g58
g59
NtRp2383
(dp2384
g62
(dp2385
g70
I5
ssg71
g2379
sg64
(lp2386
S'datetime.datetime(2012, 11, 5, 21, 23, 2, 421000)'
p2387
asbasbasbag57
(g73
g59
NtRp2388
(dp2389
g62
(dp2390
sg71
g67
sg64
(lp2391
g57
(g78
g59
NtRp2392
(dp2393
g62
(dp2394
g82
g83
ssg71
g2388
sg64
(lp2395
S'uuid'
p2396
asbag57
(g78
g59
NtRp2397
(dp2398
g62
(dp2399
g89
g90
ssg71
g2388
sg64
(lp2400
S':'
asbag57
(g78
g59
NtRp2401
(dp2402
g62
(dp2403
sg71
g2388
sg64
(lp2404
g57
(g58
g59
NtRp2405
(dp2406
g62
(dp2407
g70
I5
ssg71
g2401
sg64
(lp2408
S'web2py_xlchart_dashboard/127.0.0.1.2012-11-05.21-23-02.914b4827-cc28-4c60-a697-efc557c08c57'
p2409
asbasbasbag57
(g73
g59
NtRp2410
(dp2411
g62
(dp2412
sg71
g67
sg64
(lp2413
g57
(g78
g59
NtRp2414
(dp2415
g62
(dp2416
g82
g83
ssg71
g2410
sg64
(lp2417
S'vars'
p2418
asbag57
(g78
g59
NtRp2419
(dp2420
g62
(dp2421
g89
g90
ssg71
g2410
sg64
(lp2422
S':'
asbag57
(g78
g59
NtRp2423
(dp2424
g62
(dp2425
sg71
g2410
sg64
(lp2426
g57
(g58
g59
NtRp2427
(dp2428
g62
(dp2429
g70
I5
ssg71
g2423
sg64
(lp2430
g57
(g66
g59
NtRp2431
(dp2432
g62
(dp2433
g70
I4
ssg71
Nsg64
(lp2434
g57
(g73
g59
NtRp2435
(dp2436
g62
(dp2437
sg71
g2431
sg64
(lp2438
g57
(g78
g59
NtRp2439
(dp2440
g62
(dp2441
g82
g83
ssg71
g2435
sg64
(lp2442
g1798
asbag57
(g78
g59
NtRp2443
(dp2444
g62
(dp2445
g89
g90
ssg71
g2435
sg64
(lp2446
S':'
asbag57
(g78
g59
NtRp2447
(dp2448
g62
(dp2449
sg71
g2435
sg64
(lp2450
g57
(g58
g59
NtRp2451
(dp2452
g62
(dp2453
g70
I4
ssg71
g2447
sg64
(lp2454
S'4'
asbasbasbasbasbasbasbag57
(g73
g59
NtRp2455
(dp2456
g62
(dp2457
sg71
g67
sg64
(lp2458
g57
(g78
g59
NtRp2459
(dp2460
g62
(dp2461
g82
g83
ssg71
g2455
sg64
(lp2462
S'wsgi'
p2463
asbag57
(g78
g59
NtRp2464
(dp2465
g62
(dp2466
g89
g90
ssg71
g2455
sg64
(lp2467
S':'
asbag57
(g78
g59
NtRp2468
(dp2469
g62
(dp2470
sg71
g2455
sg64
(lp2471
g57
(g58
g59
NtRp2472
(dp2473
g62
(dp2474
g70
I5
ssg71
g2468
sg64
(lp2475
g57
(g66
g59
NtRp2476
(dp2477
g62
(dp2478
g70
I4
ssg71
Nsg64
(lp2479
g57
(g73
g59
NtRp2480
(dp2481
g62
(dp2482
sg71
g2476
sg64
(lp2483
g57
(g78
g59
NtRp2484
(dp2485
g62
(dp2486
g82
g83
ssg71
g2480
sg64
(lp2487
S'environ'
p2488
asbag57
(g78
g59
NtRp2489
(dp2490
g62
(dp2491
g89
g90
ssg71
g2480
sg64
(lp2492
S':'
asbag57
(g78
g59
NtRp2493
(dp2494
g62
(dp2495
sg71
g2480
sg64
(lp2496
g57
(g58
g59
NtRp2497
(dp2498
g62
(dp2499
g70
I4
ssg71
g2493
sg64
(lp2500
g57
(g66
g59
NtRp2501
(dp2502
g62
(dp2503
g70
I3
ssg71
Nsg64
(lp2504
g57
(g73
g59
NtRp2505
(dp2506
g62
(dp2507
sg71
g2501
sg64
(lp2508
g57
(g78
g59
NtRp2509
(dp2510
g62
(dp2511
g82
g83
ssg71
g2505
sg64
(lp2512
S'HTTP_ACCEPT'
p2513
asbag57
(g78
g59
NtRp2514
(dp2515
g62
(dp2516
g89
g90
ssg71
g2505
sg64
(lp2517
S':'
asbag57
(g78
g59
NtRp2518
(dp2519
g62
(dp2520
sg71
g2505
sg64
(lp2521
g57
(g58
g59
NtRp2522
(dp2523
g62
(dp2524
g70
I3
ssg71
g2518
sg64
(lp2525
g842
asbasbasbag57
(g73
g59
NtRp2526
(dp2527
g62
(dp2528
sg71
g2501
sg64
(lp2529
g57
(g78
g59
NtRp2530
(dp2531
g62
(dp2532
g82
g83
ssg71
g2526
sg64
(lp2533
S'HTTP_ACCEPT_CHARSET'
p2534
asbag57
(g78
g59
NtRp2535
(dp2536
g62
(dp2537
g89
g90
ssg71
g2526
sg64
(lp2538
S':'
asbag57
(g78
g59
NtRp2539
(dp2540
g62
(dp2541
sg71
g2526
sg64
(lp2542
g57
(g58
g59
NtRp2543
(dp2544
g62
(dp2545
g70
I3
ssg71
g2539
sg64
(lp2546
g864
asbasbasbag57
(g73
g59
NtRp2547
(dp2548
g62
(dp2549
sg71
g2501
sg64
(lp2550
g57
(g78
g59
NtRp2551
(dp2552
g62
(dp2553
g82
g83
ssg71
g2547
sg64
(lp2554
S'HTTP_ACCEPT_ENCODING'
p2555
asbag57
(g78
g59
NtRp2556
(dp2557
g62
(dp2558
g89
g90
ssg71
g2547
sg64
(lp2559
S':'
asbag57
(g78
g59
NtRp2560
(dp2561
g62
(dp2562
sg71
g2547
sg64
(lp2563
g57
(g58
g59
NtRp2564
(dp2565
g62
(dp2566
g70
I3
ssg71
g2560
sg64
(lp2567
g886
asbasbasbag57
(g73
g59
NtRp2568
(dp2569
g62
(dp2570
sg71
g2501
sg64
(lp2571
g57
(g78
g59
NtRp2572
(dp2573
g62
(dp2574
g82
g83
ssg71
g2568
sg64
(lp2575
S'HTTP_ACCEPT_LANGUAGE'
p2576
asbag57
(g78
g59
NtRp2577
(dp2578
g62
(dp2579
g89
g90
ssg71
g2568
sg64
(lp2580
S':'
asbag57
(g78
g59
NtRp2581
(dp2582
g62
(dp2583
sg71
g2568
sg64
(lp2584
g57
(g58
g59
NtRp2585
(dp2586
g62
(dp2587
g70
I3
ssg71
g2581
sg64
(lp2588
g908
asbasbasbag57
(g73
g59
NtRp2589
(dp2590
g62
(dp2591
sg71
g2501
sg64
(lp2592
g57
(g78
g59
NtRp2593
(dp2594
g62
(dp2595
g82
g83
ssg71
g2589
sg64
(lp2596
S'HTTP_CONNECTION'
p2597
asbag57
(g78
g59
NtRp2598
(dp2599
g62
(dp2600
g89
g90
ssg71
g2589
sg64
(lp2601
S':'
asbag57
(g78
g59
NtRp2602
(dp2603
g62
(dp2604
sg71
g2589
sg64
(lp2605
g57
(g58
g59
NtRp2606
(dp2607
g62
(dp2608
g70
I3
ssg71
g2602
sg64
(lp2609
g930
asbasbasbag57
(g73
g59
NtRp2610
(dp2611
g62
(dp2612
sg71
g2501
sg64
(lp2613
g57
(g78
g59
NtRp2614
(dp2615
g62
(dp2616
g82
g83
ssg71
g2610
sg64
(lp2617
S'HTTP_COOKIE'
p2618
asbag57
(g78
g59
NtRp2619
(dp2620
g62
(dp2621
g89
g90
ssg71
g2610
sg64
(lp2622
S':'
asbag57
(g78
g59
NtRp2623
(dp2624
g62
(dp2625
sg71
g2610
sg64
(lp2626
g57
(g58
g59
NtRp2627
(dp2628
g62
(dp2629
g70
I3
ssg71
g2623
sg64
(lp2630
g952
asbasbasbag57
(g73
g59
NtRp2631
(dp2632
g62
(dp2633
sg71
g2501
sg64
(lp2634
g57
(g78
g59
NtRp2635
(dp2636
g62
(dp2637
g82
g83
ssg71
g2631
sg64
(lp2638
S'HTTP_HOST'
p2639
asbag57
(g78
g59
NtRp2640
(dp2641
g62
(dp2642
g89
g90
ssg71
g2631
sg64
(lp2643
S':'
asbag57
(g78
g59
NtRp2644
(dp2645
g62
(dp2646
sg71
g2631
sg64
(lp2647
g57
(g58
g59
NtRp2648
(dp2649
g62
(dp2650
g70
I3
ssg71
g2644
sg64
(lp2651
g974
asbasbasbag57
(g73
g59
NtRp2652
(dp2653
g62
(dp2654
sg71
g2501
sg64
(lp2655
g57
(g78
g59
NtRp2656
(dp2657
g62
(dp2658
g82
g83
ssg71
g2652
sg64
(lp2659
S'HTTP_REFERER'
p2660
asbag57
(g78
g59
NtRp2661
(dp2662
g62
(dp2663
g89
g90
ssg71
g2652
sg64
(lp2664
S':'
asbag57
(g78
g59
NtRp2665
(dp2666
g62
(dp2667
sg71
g2652
sg64
(lp2668
g57
(g58
g59
NtRp2669
(dp2670
g62
(dp2671
g70
I3
ssg71
g2665
sg64
(lp2672
g996
asbasbasbag57
(g73
g59
NtRp2673
(dp2674
g62
(dp2675
sg71
g2501
sg64
(lp2676
g57
(g78
g59
NtRp2677
(dp2678
g62
(dp2679
g82
g83
ssg71
g2673
sg64
(lp2680
S'HTTP_USER_AGENT'
p2681
asbag57
(g78
g59
NtRp2682
(dp2683
g62
(dp2684
g89
g90
ssg71
g2673
sg64
(lp2685
S':'
asbag57
(g78
g59
NtRp2686
(dp2687
g62
(dp2688
sg71
g2673
sg64
(lp2689
g57
(g58
g59
NtRp2690
(dp2691
g62
(dp2692
g70
I3
ssg71
g2686
sg64
(lp2693
g1018
asbasbasbag57
(g73
g59
NtRp2694
(dp2695
g62
(dp2696
sg71
g2501
sg64
(lp2697
g57
(g78
g59
NtRp2698
(dp2699
g62
(dp2700
g82
g83
ssg71
g2694
sg64
(lp2701
S'PATH_INFO'
p2702
asbag57
(g78
g59
NtRp2703
(dp2704
g62
(dp2705
g89
g90
ssg71
g2694
sg64
(lp2706
S':'
asbag57
(g78
g59
NtRp2707
(dp2708
g62
(dp2709
sg71
g2694
sg64
(lp2710
g57
(g58
g59
NtRp2711
(dp2712
g62
(dp2713
g70
I3
ssg71
g2707
sg64
(lp2714
g1172
asbasbasbag57
(g73
g59
NtRp2715
(dp2716
g62
(dp2717
sg71
g2501
sg64
(lp2718
g57
(g78
g59
NtRp2719
(dp2720
g62
(dp2721
g82
g83
ssg71
g2715
sg64
(lp2722
S'QUERY_STRING'
p2723
asbag57
(g78
g59
NtRp2724
(dp2725
g62
(dp2726
g89
g90
ssg71
g2715
sg64
(lp2727
S':'
asbag57
(g78
g59
NtRp2728
(dp2729
g62
(dp2730
sg71
g2715
sg64
(lp2731
g57
(g58
g59
NtRp2732
(dp2733
g62
(dp2734
g70
I3
ssg71
g2728
sg64
(lp2735
g1194
asbasbasbag57
(g73
g59
NtRp2736
(dp2737
g62
(dp2738
sg71
g2501
sg64
(lp2739
g57
(g78
g59
NtRp2740
(dp2741
g62
(dp2742
g82
g83
ssg71
g2736
sg64
(lp2743
S'REMOTE_ADDR'
p2744
asbag57
(g78
g59
NtRp2745
(dp2746
g62
(dp2747
g89
g90
ssg71
g2736
sg64
(lp2748
S':'
asbag57
(g78
g59
NtRp2749
(dp2750
g62
(dp2751
sg71
g2736
sg64
(lp2752
g57
(g58
g59
NtRp2753
(dp2754
g62
(dp2755
g70
I3
ssg71
g2749
sg64
(lp2756
g212
asbasbasbag57
(g73
g59
NtRp2757
(dp2758
g62
(dp2759
sg71
g2501
sg64
(lp2760
g57
(g78
g59
NtRp2761
(dp2762
g62
(dp2763
g82
g83
ssg71
g2757
sg64
(lp2764
S'REMOTE_PORT'
p2765
asbag57
(g78
g59
NtRp2766
(dp2767
g62
(dp2768
g89
g90
ssg71
g2757
sg64
(lp2769
S':'
asbag57
(g78
g59
NtRp2770
(dp2771
g62
(dp2772
sg71
g2757
sg64
(lp2773
g57
(g58
g59
NtRp2774
(dp2775
g62
(dp2776
g70
I3
ssg71
g2770
sg64
(lp2777
g1237
asbasbasbag57
(g73
g59
NtRp2778
(dp2779
g62
(dp2780
sg71
g2501
sg64
(lp2781
g57
(g78
g59
NtRp2782
(dp2783
g62
(dp2784
g82
g83
ssg71
g2778
sg64
(lp2785
S'REQUEST_METHOD'
p2786
asbag57
(g78
g59
NtRp2787
(dp2788
g62
(dp2789
g89
g90
ssg71
g2778
sg64
(lp2790
S':'
asbag57
(g78
g59
NtRp2791
(dp2792
g62
(dp2793
sg71
g2778
sg64
(lp2794
g57
(g58
g59
NtRp2795
(dp2796
g62
(dp2797
g70
I3
ssg71
g2791
sg64
(lp2798
g1259
asbasbasbag57
(g73
g59
NtRp2799
(dp2800
g62
(dp2801
sg71
g2501
sg64
(lp2802
g57
(g78
g59
NtRp2803
(dp2804
g62
(dp2805
g82
g83
ssg71
g2799
sg64
(lp2806
S'REQUEST_URI'
p2807
asbag57
(g78
g59
NtRp2808
(dp2809
g62
(dp2810
g89
g90
ssg71
g2799
sg64
(lp2811
S':'
asbag57
(g78
g59
NtRp2812
(dp2813
g62
(dp2814
sg71
g2799
sg64
(lp2815
g57
(g58
g59
NtRp2816
(dp2817
g62
(dp2818
g70
I3
ssg71
g2812
sg64
(lp2819
g1281
asbasbasbag57
(g73
g59
NtRp2820
(dp2821
g62
(dp2822
sg71
g2501
sg64
(lp2823
g57
(g78
g59
NtRp2824
(dp2825
g62
(dp2826
g82
g83
ssg71
g2820
sg64
(lp2827
S'SCRIPT_NAME'
p2828
asbag57
(g78
g59
NtRp2829
(dp2830
g62
(dp2831
g89
g90
ssg71
g2820
sg64
(lp2832
S':'
asbag57
(g78
g59
NtRp2833
(dp2834
g62
(dp2835
sg71
g2820
sg64
(lp2836
g57
(g58
g59
NtRp2837
(dp2838
g62
(dp2839
g70
I3
ssg71
g2833
sg64
(lp2840
S''
asbasbasbag57
(g73
g59
NtRp2841
(dp2842
g62
(dp2843
sg71
g2501
sg64
(lp2844
g57
(g78
g59
NtRp2845
(dp2846
g62
(dp2847
g82
g83
ssg71
g2841
sg64
(lp2848
S'SERVER_NAME'
p2849
asbag57
(g78
g59
NtRp2850
(dp2851
g62
(dp2852
g89
g90
ssg71
g2841
sg64
(lp2853
S':'
asbag57
(g78
g59
NtRp2854
(dp2855
g62
(dp2856
sg71
g2841
sg64
(lp2857
g57
(g58
g59
NtRp2858
(dp2859
g62
(dp2860
g70
I3
ssg71
g2854
sg64
(lp2861
g1137
asbasbasbag57
(g73
g59
NtRp2862
(dp2863
g62
(dp2864
sg71
g2501
sg64
(lp2865
g57
(g78
g59
NtRp2866
(dp2867
g62
(dp2868
g82
g83
ssg71
g2862
sg64
(lp2869
S'SERVER_PORT'
p2870
asbag57
(g78
g59
NtRp2871
(dp2872
g62
(dp2873
g89
g90
ssg71
g2862
sg64
(lp2874
S':'
asbag57
(g78
g59
NtRp2875
(dp2876
g62
(dp2877
sg71
g2862
sg64
(lp2878
g57
(g58
g59
NtRp2879
(dp2880
g62
(dp2881
g70
I3
ssg71
g2875
sg64
(lp2882
g1345
asbasbasbag57
(g73
g59
NtRp2883
(dp2884
g62
(dp2885
sg71
g2501
sg64
(lp2886
g57
(g78
g59
NtRp2887
(dp2888
g62
(dp2889
g82
g83
ssg71
g2883
sg64
(lp2890
S'SERVER_PROTOCOL'
p2891
asbag57
(g78
g59
NtRp2892
(dp2893
g62
(dp2894
g89
g90
ssg71
g2883
sg64
(lp2895
S':'
asbag57
(g78
g59
NtRp2896
(dp2897
g62
(dp2898
sg71
g2883
sg64
(lp2899
g57
(g58
g59
NtRp2900
(dp2901
g62
(dp2902
g70
I3
ssg71
g2896
sg64
(lp2903
g1367
asbasbasbag57
(g73
g59
NtRp2904
(dp2905
g62
(dp2906
sg71
g2501
sg64
(lp2907
g57
(g78
g59
NtRp2908
(dp2909
g62
(dp2910
g82
g83
ssg71
g2904
sg64
(lp2911
S'SERVER_SOFTWARE'
p2912
asbag57
(g78
g59
NtRp2913
(dp2914
g62
(dp2915
g89
g90
ssg71
g2904
sg64
(lp2916
S':'
asbag57
(g78
g59
NtRp2917
(dp2918
g62
(dp2919
sg71
g2904
sg64
(lp2920
g57
(g58
g59
NtRp2921
(dp2922
g62
(dp2923
g70
I3
ssg71
g2917
sg64
(lp2924
g1389
asbasbasbag57
(g73
g59
NtRp2925
(dp2926
g62
(dp2927
sg71
g2501
sg64
(lp2928
g57
(g78
g59
NtRp2929
(dp2930
g62
(dp2931
g82
g83
ssg71
g2925
sg64
(lp2932
S'wsgi.errors'
p2933
asbag57
(g78
g59
NtRp2934
(dp2935
g62
(dp2936
g89
g90
ssg71
g2925
sg64
(lp2937
S':'
asbag57
(g78
g59
NtRp2938
(dp2939
g62
(dp2940
sg71
g2925
sg64
(lp2941
g57
(g58
g59
NtRp2942
(dp2943
g62
(dp2944
g70
I3
ssg71
g2938
sg64
(lp2945
S"<open file '<stderr>', mode 'w' at 0x00A850D0>"
p2946
asbasbasbag57
(g73
g59
NtRp2947
(dp2948
g62
(dp2949
sg71
g2501
sg64
(lp2950
g57
(g78
g59
NtRp2951
(dp2952
g62
(dp2953
g82
g83
ssg71
g2947
sg64
(lp2954
S'wsgi.file_wrapper'
p2955
asbag57
(g78
g59
NtRp2956
(dp2957
g62
(dp2958
g89
g90
ssg71
g2947
sg64
(lp2959
S':'
asbag57
(g78
g59
NtRp2960
(dp2961
g62
(dp2962
sg71
g2947
sg64
(lp2963
g57
(g58
g59
NtRp2964
(dp2965
g62
(dp2966
g70
I3
ssg71
g2960
sg64
(lp2967
S'<class wsgiref.util.FileWrapper at 0x0172EE68>'
p2968
asbasbasbag57
(g73
g59
NtRp2969
(dp2970
g62
(dp2971
sg71
g2501
sg64
(lp2972
g57
(g78
g59
NtRp2973
(dp2974
g62
(dp2975
g82
g83
ssg71
g2969
sg64
(lp2976
S'wsgi.input'
p2977
asbag57
(g78
g59
NtRp2978
(dp2979
g62
(dp2980
g89
g90
ssg71
g2969
sg64
(lp2981
S':'
asbag57
(g78
g59
NtRp2982
(dp2983
g62
(dp2984
sg71
g2969
sg64
(lp2985
g57
(g58
g59
NtRp2986
(dp2987
g62
(dp2988
g70
I3
ssg71
g2982
sg64
(lp2989
S'<cStringIO.StringO object at 0x04DF3740>'
p2990
asbasbasbag57
(g73
g59
NtRp2991
(dp2992
g62
(dp2993
sg71
g2501
sg64
(lp2994
g57
(g78
g59
NtRp2995
(dp2996
g62
(dp2997
g82
g83
ssg71
g2991
sg64
(lp2998
S'wsgi.multiprocess'
p2999
asbag57
(g78
g59
NtRp3000
(dp3001
g62
(dp3002
g89
g90
ssg71
g2991
sg64
(lp3003
S':'
asbag57
(g78
g59
NtRp3004
(dp3005
g62
(dp3006
sg71
g2991
sg64
(lp3007
g57
(g58
g59
NtRp3008
(dp3009
g62
(dp3010
g70
I3
ssg71
g3004
sg64
(lp3011
g100
asbasbasbag57
(g73
g59
NtRp3012
(dp3013
g62
(dp3014
sg71
g2501
sg64
(lp3015
g57
(g78
g59
NtRp3016
(dp3017
g62
(dp3018
g82
g83
ssg71
g3012
sg64
(lp3019
S'wsgi.multithread'
p3020
asbag57
(g78
g59
NtRp3021
(dp3022
g62
(dp3023
g89
g90
ssg71
g3012
sg64
(lp3024
S':'
asbag57
(g78
g59
NtRp3025
(dp3026
g62
(dp3027
sg71
g3012
sg64
(lp3028
g57
(g58
g59
NtRp3029
(dp3030
g62
(dp3031
g70
I3
ssg71
g3025
sg64
(lp3032
g1606
asbasbasbag57
(g73
g59
NtRp3033
(dp3034
g62
(dp3035
sg71
g2501
sg64
(lp3036
g57
(g78
g59
NtRp3037
(dp3038
g62
(dp3039
g82
g83
ssg71
g3033
sg64
(lp3040
S'wsgi.run_once'
p3041
asbag57
(g78
g59
NtRp3042
(dp3043
g62
(dp3044
g89
g90
ssg71
g3033
sg64
(lp3045
S':'
asbag57
(g78
g59
NtRp3046
(dp3047
g62
(dp3048
sg71
g3033
sg64
(lp3049
g57
(g58
g59
NtRp3050
(dp3051
g62
(dp3052
g70
I3
ssg71
g3046
sg64
(lp3053
g100
asbasbasbag57
(g73
g59
NtRp3054
(dp3055
g62
(dp3056
sg71
g2501
sg64
(lp3057
g57
(g78
g59
NtRp3058
(dp3059
g62
(dp3060
g82
g83
ssg71
g3054
sg64
(lp3061
S'wsgi.url_scheme'
p3062
asbag57
(g78
g59
NtRp3063
(dp3064
g62
(dp3065
g89
g90
ssg71
g3054
sg64
(lp3066
S':'
asbag57
(g78
g59
NtRp3067
(dp3068
g62
(dp3069
sg71
g3054
sg64
(lp3070
g57
(g58
g59
NtRp3071
(dp3072
g62
(dp3073
g70
I3
ssg71
g3067
sg64
(lp3074
g1649
asbasbasbag57
(g73
g59
NtRp3075
(dp3076
g62
(dp3077
sg71
g2501
sg64
(lp3078
g57
(g78
g59
NtRp3079
(dp3080
g62
(dp3081
g82
g83
ssg71
g3075
sg64
(lp3082
S'wsgi.version'
p3083
asbag57
(g78
g59
NtRp3084
(dp3085
g62
(dp3086
g89
g90
ssg71
g3075
sg64
(lp3087
S':'
asbag57
(g78
g59
NtRp3088
(dp3089
g62
(dp3090
sg71
g3075
sg64
(lp3091
g57
(g58
g59
NtRp3092
(dp3093
g62
(dp3094
g70
I3
ssg71
g3088
sg64
(lp3095
S'1'
asbasbasbasbasbasbasbasbasbasbasbasbasbsS'frames'
p3096
(lp3097
(dp3098
S'file'
p3099
S'D:\\web2py\\source\\web2py\\gluon\\restricted.py'
p3100
sS'dump'
p3101
(dp3102
S'environment'
p3103
S"{'A': <class 'gluon.html.A'>, 'Auth': <class 'gluon.tools.Auth'>, 'B': <class 'gluon.html.B'>, 'BEAUTIFY': <class 'gluon.html.BEAUTIFY'>, 'BODY': <class 'gluon.html.BODY'>, 'BR': <class 'gluon.html.BR'>, 'BUTTON': <class 'gluon.html.BUTTON'>, 'CAT': <class 'gluon.html.CAT'>, 'CENTER': <class 'gluon.html.CENTER'>, 'CLEANUP': <class 'gluon.validators.CLEANUP'>, ...}"
p3104
sS'ccode'
p3105
S'<code object <module> at 04C29020, file "D:\\web2...views\\default/list_workbook_charts.html", line 1>'
p3106
ssS'lnum'
p3107
I212
sS'lines'
p3108
(dp3109
I207
S'    try:'
p3110
sI208
S'        if isinstance(code, types.CodeType):'
p3111
sI209
S'            ccode = code'
p3112
sI210
S'        else:'
p3113
sI211
S'            ccode = compile2(code, layer)'
p3114
sI212
S'        exec ccode in environment'
p3115
sI213
S'    except HTTP:'
p3116
sI214
S'        raise'
p3117
sI215
S'    except RestrictedError:'
p3118
sI216
S'        # do not encapsulate (obfuscate) the original RestrictedError'
p3119
ssS'call'
p3120
S'(code=\'response.write(\\\'<!DOCTYPE html>\\\\n<!-- paulirish...."></script>\\\\n</body>\\\\n</html>\\\\n\\\\n\\\', escape=False)\', environment={\'A\': <class \'gluon.html.A\'>, \'Auth\': <class \'gluon.tools.Auth\'>, \'B\': <class \'gluon.html.B\'>, \'BEAUTIFY\': <class \'gluon.html.BEAUTIFY\'>, \'BODY\': <class \'gluon.html.BODY\'>, \'BR\': <class \'gluon.html.BR\'>, \'BUTTON\': <class \'gluon.html.BUTTON\'>, \'CAT\': <class \'gluon.html.CAT\'>, \'CENTER\': <class \'gluon.html.CENTER\'>, \'CLEANUP\': <class \'gluon.validators.CLEANUP\'>, ...}, layer=r\'D:\\web2py\\source\\web2py\\applications\\web2py_xlch...dashboard\\views\\default/list_workbook_charts.html\')'
p3121
sS'func'
p3122
S'restricted'
p3123
sa(dp3124
g3099
S'D:\\web2py\\source\\web2py\\applications\\web2py_xlchart_dashboard\\views\\default\\list_workbook_charts.html'
p3125
sg3101
(dp3126
sg3107
I85
sg3108
(dp3127
I76
S'response.write(\'">\\n            \', escape=False)'
p3128
sI77
S"response.write('\\n            ', escape=False)"
p3129
sI78
S"response.write('\\r\\n<style>\\r\\n    .registered\\r\\n    {\\r\\n        background-color: #00CC00;\\r\\n        display:inline-block;\\r\\n    }\\r\\n</style>\\r\\n<h3>Charts found in workbook</h3>\\r\\nSelect a chart below to register it.<br>\\r\\n<hr>\\r\\n', escape=False)"
p3130
sI79
S'for chartfile in chartfiles:'
p3131
sI80
S"    response.write('\\r\\n', escape=False)"
p3132
sI81
S"    response.write(chartfile['chartimage'])"
p3133
sI82
S'    response.write(\'"<br>\\r\\n<div id=\\\'\', escape=False)'
p3134
sI83
S"    response.write(chartfile['divname'])"
p3135
sI84
S'    response.write("\' class=\'registered\'>", escape=False)'
p3136
sI85
S"    response.write(checkchartindb(chartfile['chartname']))"
p3137
sI86
S"    response.write('/div><br>\\r\\n', escape=False)"
p3138
sI87
S'    pass'
p3139
sI88
S"response.write('\\r\\n', escape=False)"
p3140
sI89
S"response.write('\\n            ', escape=False)"
p3141
sI90
S"response.write('\\n        </div>\\n\\n        ', escape=False)"
p3142
sI91
S'if right_sidebar_enabled:'
p3143
sI92
S'    response.write(\'\\n        <div class="span3">\\n            \', escape=False)'
p3144
sI93
S"    response.write('\\n            <h3>Right Sidebar</h3>\\n            <p></p>\\n            ', escape=False)"
p3145
sI94
S"    response.write('\\n        </div>\\n        ', escape=False)"
p3146
sI95
S'    pass'
p3147
ssg3120
S'()'
p3148
sg3122
S'<module>'
p3149
sasS'pyver'
p3150
S'Python 2.7: d:\\python27\\python.exe'
p3151
sS'session'
p3152
g57
(g58
g59
NtRp3153
(dp3154
g62
(dp3155
sg64
(lp3156
g57
(g66
g59
NtRp3157
(dp3158
g62
(dp3159
g70
I5
ssg71
Nsg64
(lp3160
g57
(g73
g59
NtRp3161
(dp3162
g62
(dp3163
sg71
g3157
sg64
(lp3164
g57
(g78
g59
NtRp3165
(dp3166
g62
(dp3167
g82
g83
ssg71
g3161
sg64
(lp3168
S'auth'
p3169
asbag57
(g78
g59
NtRp3170
(dp3171
g62
(dp3172
g89
g90
ssg71
g3161
sg64
(lp3173
S':'
asbag57
(g78
g59
NtRp3174
(dp3175
g62
(dp3176
sg71
g3161
sg64
(lp3177
g57
(g58
g59
NtRp3178
(dp3179
g62
(dp3180
g70
I5
ssg71
g3174
sg64
(lp3181
g57
(g66
g59
NtRp3182
(dp3183
g62
(dp3184
g70
I4
ssg71
Nsg64
(lp3185
g57
(g73
g59
NtRp3186
(dp3187
g62
(dp3188
sg71
g3182
sg64
(lp3189
g57
(g78
g59
NtRp3190
(dp3191
g62
(dp3192
g82
g83
ssg71
g3186
sg64
(lp3193
S'expiration'
p3194
asbag57
(g78
g59
NtRp3195
(dp3196
g62
(dp3197
g89
g90
ssg71
g3186
sg64
(lp3198
S':'
asbag57
(g78
g59
NtRp3199
(dp3200
g62
(dp3201
sg71
g3186
sg64
(lp3202
g57
(g58
g59
NtRp3203
(dp3204
g62
(dp3205
g70
I4
ssg71
g3199
sg64
(lp3206
S'3600'
p3207
asbasbasbag57
(g73
g59
NtRp3208
(dp3209
g62
(dp3210
sg71
g3182
sg64
(lp3211
g57
(g78
g59
NtRp3212
(dp3213
g62
(dp3214
g82
g83
ssg71
g3208
sg64
(lp3215
S'hmac_key'
p3216
asbag57
(g78
g59
NtRp3217
(dp3218
g62
(dp3219
g89
g90
ssg71
g3208
sg64
(lp3220
S':'
asbag57
(g78
g59
NtRp3221
(dp3222
g62
(dp3223
sg71
g3208
sg64
(lp3224
g57
(g58
g59
NtRp3225
(dp3226
g62
(dp3227
g70
I4
ssg71
g3221
sg64
(lp3228
S'39834112-a800-435f-ae9f-a11f670252db'
p3229
asbasbasbag57
(g73
g59
NtRp3230
(dp3231
g62
(dp3232
sg71
g3182
sg64
(lp3233
g57
(g78
g59
NtRp3234
(dp3235
g62
(dp3236
g82
g83
ssg71
g3230
sg64
(lp3237
S'last_visit'
p3238
asbag57
(g78
g59
NtRp3239
(dp3240
g62
(dp3241
g89
g90
ssg71
g3230
sg64
(lp3242
S':'
asbag57
(g78
g59
NtRp3243
(dp3244
g62
(dp3245
sg71
g3230
sg64
(lp3246
g57
(g58
g59
NtRp3247
(dp3248
g62
(dp3249
g70
I4
ssg71
g3243
sg64
(lp3250
S'datetime.datetime(2012, 11, 5, 21, 20, 15, 906000)'
p3251
asbasbasbag57
(g73
g59
NtRp3252
(dp3253
g62
(dp3254
sg71
g3182
sg64
(lp3255
g57
(g78
g59
NtRp3256
(dp3257
g62
(dp3258
g82
g83
ssg71
g3252
sg64
(lp3259
S'remember'
p3260
asbag57
(g78
g59
NtRp3261
(dp3262
g62
(dp3263
g89
g90
ssg71
g3252
sg64
(lp3264
S':'
asbag57
(g78
g59
NtRp3265
(dp3266
g62
(dp3267
sg71
g3252
sg64
(lp3268
g57
(g58
g59
NtRp3269
(dp3270
g62
(dp3271
g70
I4
ssg71
g3265
sg64
(lp3272
g100
asbasbasbag57
(g73
g59
NtRp3273
(dp3274
g62
(dp3275
sg71
g3182
sg64
(lp3276
g57
(g78
g59
NtRp3277
(dp3278
g62
(dp3279
g82
g83
ssg71
g3273
sg64
(lp3280
S'user'
p3281
asbag57
(g78
g59
NtRp3282
(dp3283
g62
(dp3284
g89
g90
ssg71
g3273
sg64
(lp3285
S':'
asbag57
(g78
g59
NtRp3286
(dp3287
g62
(dp3288
sg71
g3273
sg64
(lp3289
g57
(g58
g59
NtRp3290
(dp3291
g62
(dp3292
g70
I4
ssg71
g3286
sg64
(lp3293
g57
(g66
g59
NtRp3294
(dp3295
g62
(dp3296
g70
I3
ssg71
Nsg64
(lp3297
g57
(g73
g59
NtRp3298
(dp3299
g62
(dp3300
sg71
g3294
sg64
(lp3301
g57
(g78
g59
NtRp3302
(dp3303
g62
(dp3304
g82
g83
ssg71
g3298
sg64
(lp3305
S'email'
p3306
asbag57
(g78
g59
NtRp3307
(dp3308
g62
(dp3309
g89
g90
ssg71
g3298
sg64
(lp3310
S':'
asbag57
(g78
g59
NtRp3311
(dp3312
g62
(dp3313
sg71
g3298
sg64
(lp3314
g57
(g58
g59
NtRp3315
(dp3316
g62
(dp3317
g70
I3
ssg71
g3311
sg64
(lp3318
S'simon.carr2@baesystems.com'
p3319
asbasbasbag57
(g73
g59
NtRp3320
(dp3321
g62
(dp3322
sg71
g3294
sg64
(lp3323
g57
(g78
g59
NtRp3324
(dp3325
g62
(dp3326
g82
g83
ssg71
g3320
sg64
(lp3327
S'first_name'
p3328
asbag57
(g78
g59
NtRp3329
(dp3330
g62
(dp3331
g89
g90
ssg71
g3320
sg64
(lp3332
S':'
asbag57
(g78
g59
NtRp3333
(dp3334
g62
(dp3335
sg71
g3320
sg64
(lp3336
g57
(g58
g59
NtRp3337
(dp3338
g62
(dp3339
g70
I3
ssg71
g3333
sg64
(lp3340
S'Simon'
p3341
asbasbasbag57
(g73
g59
NtRp3342
(dp3343
g62
(dp3344
sg71
g3294
sg64
(lp3345
g57
(g78
g59
NtRp3346
(dp3347
g62
(dp3348
g82
g83
ssg71
g3342
sg64
(lp3349
S'id'
p3350
asbag57
(g78
g59
NtRp3351
(dp3352
g62
(dp3353
g89
g90
ssg71
g3342
sg64
(lp3354
S':'
asbag57
(g78
g59
NtRp3355
(dp3356
g62
(dp3357
sg71
g3342
sg64
(lp3358
g57
(g58
g59
NtRp3359
(dp3360
g62
(dp3361
g70
I3
ssg71
g3355
sg64
(lp3362
S'1'
asbasbasbag57
(g73
g59
NtRp3363
(dp3364
g62
(dp3365
sg71
g3294
sg64
(lp3366
g57
(g78
g59
NtRp3367
(dp3368
g62
(dp3369
g82
g83
ssg71
g3363
sg64
(lp3370
S'last_name'
p3371
asbag57
(g78
g59
NtRp3372
(dp3373
g62
(dp3374
g89
g90
ssg71
g3363
sg64
(lp3375
S':'
asbag57
(g78
g59
NtRp3376
(dp3377
g62
(dp3378
sg71
g3363
sg64
(lp3379
g57
(g58
g59
NtRp3380
(dp3381
g62
(dp3382
g70
I3
ssg71
g3376
sg64
(lp3383
S'Carr'
p3384
asbasbasbag57
(g73
g59
NtRp3385
(dp3386
g62
(dp3387
sg71
g3294
sg64
(lp3388
g57
(g78
g59
NtRp3389
(dp3390
g62
(dp3391
g82
g83
ssg71
g3385
sg64
(lp3392
S'registration_id'
p3393
asbag57
(g78
g59
NtRp3394
(dp3395
g62
(dp3396
g89
g90
ssg71
g3385
sg64
(lp3397
S':'
asbag57
(g78
g59
NtRp3398
(dp3399
g62
(dp3400
sg71
g3385
sg64
(lp3401
g57
(g58
g59
NtRp3402
(dp3403
g62
(dp3404
g70
I3
ssg71
g3398
sg64
(lp3405
S''
asbasbasbag57
(g73
g59
NtRp3406
(dp3407
g62
(dp3408
sg71
g3294
sg64
(lp3409
g57
(g78
g59
NtRp3410
(dp3411
g62
(dp3412
g82
g83
ssg71
g3406
sg64
(lp3413
S'registration_key'
p3414
asbag57
(g78
g59
NtRp3415
(dp3416
g62
(dp3417
g89
g90
ssg71
g3406
sg64
(lp3418
S':'
asbag57
(g78
g59
NtRp3419
(dp3420
g62
(dp3421
sg71
g3406
sg64
(lp3422
g57
(g58
g59
NtRp3423
(dp3424
g62
(dp3425
g70
I3
ssg71
g3419
sg64
(lp3426
S''
asbasbasbag57
(g73
g59
NtRp3427
(dp3428
g62
(dp3429
sg71
g3294
sg64
(lp3430
g57
(g78
g59
NtRp3431
(dp3432
g62
(dp3433
g82
g83
ssg71
g3427
sg64
(lp3434
S'reset_password_key'
p3435
asbag57
(g78
g59
NtRp3436
(dp3437
g62
(dp3438
g89
g90
ssg71
g3427
sg64
(lp3439
S':'
asbag57
(g78
g59
NtRp3440
(dp3441
g62
(dp3442
sg71
g3427
sg64
(lp3443
g57
(g58
g59
NtRp3444
(dp3445
g62
(dp3446
g70
I3
ssg71
g3440
sg64
(lp3447
S''
asbasbasbasbasbasbasbag57
(g73
g59
NtRp3448
(dp3449
g62
(dp3450
sg71
g3182
sg64
(lp3451
g57
(g78
g59
NtRp3452
(dp3453
g62
(dp3454
g82
g83
ssg71
g3448
sg64
(lp3455
S'user_groups'
p3456
asbag57
(g78
g59
NtRp3457
(dp3458
g62
(dp3459
g89
g90
ssg71
g3448
sg64
(lp3460
S':'
asbag57
(g78
g59
NtRp3461
(dp3462
g62
(dp3463
sg71
g3448
sg64
(lp3464
g57
(g58
g59
NtRp3465
(dp3466
g62
(dp3467
g70
I4
ssg71
g3461
sg64
(lp3468
g57
(g66
g59
NtRp3469
(dp3470
g62
(dp3471
g70
I3
ssg71
Nsg64
(lp3472
g57
(g73
g59
NtRp3473
(dp3474
g62
(dp3475
sg71
g3469
sg64
(lp3476
g57
(g78
g59
NtRp3477
(dp3478
g62
(dp3479
g82
g83
ssg71
g3473
sg64
(lp3480
S'1'
asbag57
(g78
g59
NtRp3481
(dp3482
g62
(dp3483
g89
g90
ssg71
g3473
sg64
(lp3484
S':'
asbag57
(g78
g59
NtRp3485
(dp3486
g62
(dp3487
sg71
g3473
sg64
(lp3488
g57
(g58
g59
NtRp3489
(dp3490
g62
(dp3491
g70
I3
ssg71
g3485
sg64
(lp3492
S'user_1'
p3493
asbasbasbasbasbasbasbasbasbasbasbag57
(g73
g59
NtRp3494
(dp3495
g62
(dp3496
sg71
g3157
sg64
(lp3497
g57
(g78
g59
NtRp3498
(dp3499
g62
(dp3500
g82
g83
ssg71
g3494
sg64
(lp3501
S'flash'
p3502
asbag57
(g78
g59
NtRp3503
(dp3504
g62
(dp3505
g89
g90
ssg71
g3494
sg64
(lp3506
S':'
asbag57
(g78
g59
NtRp3507
(dp3508
g62
(dp3509
sg71
g3494
sg64
(lp3510
g57
(g58
g59
NtRp3511
(dp3512
g62
(dp3513
g70
I5
ssg71
g3507
sg64
(lp3514
S'None'
p3515
asbasbasbag57
(g73
g59
NtRp3516
(dp3517
g62
(dp3518
sg71
g3157
sg64
(lp3519
g57
(g78
g59
NtRp3520
(dp3521
g62
(dp3522
g82
g83
ssg71
g3516
sg64
(lp3523
S'last_orderby'
p3524
asbag57
(g78
g59
NtRp3525
(dp3526
g62
(dp3527
g89
g90
ssg71
g3516
sg64
(lp3528
S':'
asbag57
(g78
g59
NtRp3529
(dp3530
g62
(dp3531
sg71
g3516
sg64
(lp3532
g57
(g58
g59
NtRp3533
(dp3534
g62
(dp3535
g70
I5
ssg71
g3529
sg64
(lp3536
S'None'
p3537
asbasbasbag57
(g73
g59
NtRp3538
(dp3539
g62
(dp3540
sg71
g3157
sg64
(lp3541
g57
(g78
g59
NtRp3542
(dp3543
g62
(dp3544
g82
g83
ssg71
g3538
sg64
(lp3545
S'last_query'
p3546
asbag57
(g78
g59
NtRp3547
(dp3548
g62
(dp3549
g89
g90
ssg71
g3538
sg64
(lp3550
S':'
asbag57
(g78
g59
NtRp3551
(dp3552
g62
(dp3553
sg71
g3538
sg64
(lp3554
g57
(g58
g59
NtRp3555
(dp3556
g62
(dp3557
g70
I5
ssg71
g3551
sg64
(lp3558
S'db.chart.id>0'
p3559
asbasbasbasbasbsS'etype'
p3560
S"<type 'exceptions.KeyError'>"
p3561
sS'date'
p3562
S'Mon Nov 05 21:23:06 2012'
p3563
sS'response'
p3564
g57
(g58
g59
NtRp3565
(dp3566
g62
(dp3567
sg64
(lp3568
g57
(g66
g59
NtRp3569
(dp3570
g62
(dp3571
g70
I5
ssg71
Nsg64
(lp3572
g57
(g73
g59
NtRp3573
(dp3574
g62
(dp3575
sg71
g3569
sg64
(lp3576
g57
(g78
g59
NtRp3577
(dp3578
g62
(dp3579
g82
g83
ssg71
g3573
sg64
(lp3580
g155
asbag57
(g78
g59
NtRp3581
(dp3582
g62
(dp3583
g89
g90
ssg71
g3573
sg64
(lp3584
S':'
asbag57
(g78
g59
NtRp3585
(dp3586
g62
(dp3587
sg71
g3573
sg64
(lp3588
g57
(g58
g59
NtRp3589
(dp3590
g62
(dp3591
g70
I5
ssg71
g3585
sg64
(lp3592
S'<cStringIO.StringO object at 0x054506E0>'
p3593
asbasbasbag57
(g73
g59
NtRp3594
(dp3595
g62
(dp3596
sg71
g3569
sg64
(lp3597
g57
(g78
g59
NtRp3598
(dp3599
g62
(dp3600
g82
g83
ssg71
g3594
sg64
(lp3601
g243
asbag57
(g78
g59
NtRp3602
(dp3603
g62
(dp3604
g89
g90
ssg71
g3594
sg64
(lp3605
S':'
asbag57
(g78
g59
NtRp3606
(dp3607
g62
(dp3608
sg71
g3594
sg64
(lp3609
g57
(g58
g59
NtRp3610
(dp3611
g62
(dp3612
g70
I5
ssg71
g3606
sg64
(lp3613
g57
(g66
g59
NtRp3614
(dp3615
g62
(dp3616
g70
I4
ssg71
Nsg64
(lp3617
g57
(g73
g59
NtRp3618
(dp3619
g62
(dp3620
sg71
g3614
sg64
(lp3621
g57
(g78
g59
NtRp3622
(dp3623
g62
(dp3624
g82
g83
ssg71
g3618
sg64
(lp3625
S'session_id_web2py_xlchart_dashboard'
p3626
asbag57
(g78
g59
NtRp3627
(dp3628
g62
(dp3629
g89
g90
ssg71
g3618
sg64
(lp3630
S':'
asbag57
(g78
g59
NtRp3631
(dp3632
g62
(dp3633
sg71
g3618
sg64
(lp3634
g57
(g58
g59
NtRp3635
(dp3636
g62
(dp3637
g70
I4
ssg71
g3631
sg64
(lp3638
g475
ag57
(g66
g59
NtRp3639
(dp3640
g62
(dp3641
g70
I3
ssg71
Nsg64
(lp3642
g57
(g73
g59
NtRp3643
(dp3644
g62
(dp3645
sg71
g3639
sg64
(lp3646
g57
(g78
g59
NtRp3647
(dp3648
g62
(dp3649
g82
g83
ssg71
g3643
sg64
(lp3650
g294
asbag57
(g78
g59
NtRp3651
(dp3652
g62
(dp3653
g89
g90
ssg71
g3643
sg64
(lp3654
S':'
asbag57
(g78
g59
NtRp3655
(dp3656
g62
(dp3657
sg71
g3643
sg64
(lp3658
g57
(g58
g59
NtRp3659
(dp3660
g62
(dp3661
g70
I3
ssg71
g3655
sg64
(lp3662
S''
asbasbasbag57
(g73
g59
NtRp3663
(dp3664
g62
(dp3665
sg71
g3639
sg64
(lp3666
g57
(g78
g59
NtRp3667
(dp3668
g62
(dp3669
g82
g83
ssg71
g3663
sg64
(lp3670
g315
asbag57
(g78
g59
NtRp3671
(dp3672
g62
(dp3673
g89
g90
ssg71
g3663
sg64
(lp3674
S':'
asbag57
(g78
g59
NtRp3675
(dp3676
g62
(dp3677
sg71
g3663
sg64
(lp3678
g57
(g58
g59
NtRp3679
(dp3680
g62
(dp3681
g70
I3
ssg71
g3675
sg64
(lp3682
S''
asbasbasbag57
(g73
g59
NtRp3683
(dp3684
g62
(dp3685
sg71
g3639
sg64
(lp3686
g57
(g78
g59
NtRp3687
(dp3688
g62
(dp3689
g82
g83
ssg71
g3683
sg64
(lp3690
g336
asbag57
(g78
g59
NtRp3691
(dp3692
g62
(dp3693
g89
g90
ssg71
g3683
sg64
(lp3694
S':'
asbag57
(g78
g59
NtRp3695
(dp3696
g62
(dp3697
sg71
g3683
sg64
(lp3698
g57
(g58
g59
NtRp3699
(dp3700
g62
(dp3701
g70
I3
ssg71
g3695
sg64
(lp3702
S''
asbasbasbag57
(g73
g59
NtRp3703
(dp3704
g62
(dp3705
sg71
g3639
sg64
(lp3706
g57
(g78
g59
NtRp3707
(dp3708
g62
(dp3709
g82
g83
ssg71
g3703
sg64
(lp3710
g357
asbag57
(g78
g59
NtRp3711
(dp3712
g62
(dp3713
g89
g90
ssg71
g3703
sg64
(lp3714
S':'
asbag57
(g78
g59
NtRp3715
(dp3716
g62
(dp3717
sg71
g3703
sg64
(lp3718
g57
(g58
g59
NtRp3719
(dp3720
g62
(dp3721
g70
I3
ssg71
g3715
sg64
(lp3722
S''
asbasbasbag57
(g73
g59
NtRp3723
(dp3724
g62
(dp3725
sg71
g3639
sg64
(lp3726
g57
(g78
g59
NtRp3727
(dp3728
g62
(dp3729
g82
g83
ssg71
g3723
sg64
(lp3730
g378
asbag57
(g78
g59
NtRp3731
(dp3732
g62
(dp3733
g89
g90
ssg71
g3723
sg64
(lp3734
S':'
asbag57
(g78
g59
NtRp3735
(dp3736
g62
(dp3737
sg71
g3723
sg64
(lp3738
g57
(g58
g59
NtRp3739
(dp3740
g62
(dp3741
g70
I3
ssg71
g3735
sg64
(lp3742
S''
asbasbasbag57
(g73
g59
NtRp3743
(dp3744
g62
(dp3745
sg71
g3639
sg64
(lp3746
g57
(g78
g59
NtRp3747
(dp3748
g62
(dp3749
g82
g83
ssg71
g3743
sg64
(lp3750
g399
asbag57
(g78
g59
NtRp3751
(dp3752
g62
(dp3753
g89
g90
ssg71
g3743
sg64
(lp3754
S':'
asbag57
(g78
g59
NtRp3755
(dp3756
g62
(dp3757
sg71
g3743
sg64
(lp3758
g57
(g58
g59
NtRp3759
(dp3760
g62
(dp3761
g70
I3
ssg71
g3755
sg64
(lp3762
S'/'
asbasbasbag57
(g73
g59
NtRp3763
(dp3764
g62
(dp3765
sg71
g3639
sg64
(lp3766
g57
(g78
g59
NtRp3767
(dp3768
g62
(dp3769
g82
g83
ssg71
g3763
sg64
(lp3770
g420
asbag57
(g78
g59
NtRp3771
(dp3772
g62
(dp3773
g89
g90
ssg71
g3763
sg64
(lp3774
S':'
asbag57
(g78
g59
NtRp3775
(dp3776
g62
(dp3777
sg71
g3763
sg64
(lp3778
g57
(g58
g59
NtRp3779
(dp3780
g62
(dp3781
g70
I3
ssg71
g3775
sg64
(lp3782
S''
asbasbasbag57
(g73
g59
NtRp3783
(dp3784
g62
(dp3785
sg71
g3639
sg64
(lp3786
g57
(g78
g59
NtRp3787
(dp3788
g62
(dp3789
g82
g83
ssg71
g3783
sg64
(lp3790
g441
asbag57
(g78
g59
NtRp3791
(dp3792
g62
(dp3793
g89
g90
ssg71
g3783
sg64
(lp3794
S':'
asbag57
(g78
g59
NtRp3795
(dp3796
g62
(dp3797
sg71
g3783
sg64
(lp3798
g57
(g58
g59
NtRp3799
(dp3800
g62
(dp3801
g70
I3
ssg71
g3795
sg64
(lp3802
S''
asbasbasbasbasbasbasbasbasbasbasbag57
(g73
g59
NtRp3803
(dp3804
g62
(dp3805
sg71
g3569
sg64
(lp3806
g57
(g78
g59
NtRp3807
(dp3808
g62
(dp3809
g82
g83
ssg71
g3803
sg64
(lp3810
S'delimiters'
p3811
asbag57
(g78
g59
NtRp3812
(dp3813
g62
(dp3814
g89
g90
ssg71
g3803
sg64
(lp3815
S':'
asbag57
(g78
g59
NtRp3816
(dp3817
g62
(dp3818
sg71
g3803
sg64
(lp3819
g57
(g58
g59
NtRp3820
(dp3821
g62
(dp3822
g70
I5
ssg71
g3816
sg64
(lp3823
g57
(g66
g59
NtRp3824
(dp3825
g62
(dp3826
g70
I4
ssg71
Nsg64
(lp3827
g57
(g73
g59
NtRp3828
(dp3829
g62
(dp3830
sg71
g3824
sg64
(lp3831
g57
(g78
g59
NtRp3832
(dp3833
g62
(dp3834
sg71
g3828
sg64
(lp3835
g57
(g58
g59
NtRp3836
(dp3837
g62
(dp3838
g70
I4
ssg71
g3832
sg64
(lp3839
S'{{'
p3840
asbasbasbag57
(g73
g59
NtRp3841
(dp3842
g62
(dp3843
sg71
g3824
sg64
(lp3844
g57
(g78
g59
NtRp3845
(dp3846
g62
(dp3847
sg71
g3841
sg64
(lp3848
g57
(g58
g59
NtRp3849
(dp3850
g62
(dp3851
g70
I4
ssg71
g3845
sg64
(lp3852
S'}}'
p3853
asbasbasbasbasbasbasbag57
(g73
g59
NtRp3854
(dp3855
g62
(dp3856
sg71
g3569
sg64
(lp3857
g57
(g78
g59
NtRp3858
(dp3859
g62
(dp3860
g82
g83
ssg71
g3854
sg64
(lp3861
S'files'
p3862
asbag57
(g78
g59
NtRp3863
(dp3864
g62
(dp3865
g89
g90
ssg71
g3854
sg64
(lp3866
S':'
asbag57
(g78
g59
NtRp3867
(dp3868
g62
(dp3869
sg71
g3854
sg64
(lp3870
g57
(g58
g59
NtRp3871
(dp3872
g62
(dp3873
g70
I5
ssg71
g3867
sg64
(lp3874
g57
(g66
g59
NtRp3875
(dp3876
g62
(dp3877
g70
I4
ssg71
Nsg64
(lp3878
g57
(g73
g59
NtRp3879
(dp3880
g62
(dp3881
sg71
g3875
sg64
(lp3882
g57
(g78
g59
NtRp3883
(dp3884
g62
(dp3885
sg71
g3879
sg64
(lp3886
g57
(g58
g59
NtRp3887
(dp3888
g62
(dp3889
g70
I4
ssg71
g3883
sg64
(lp3890
S'/web2py_xlchart_dashboard/static/js/jquery.js'
p3891
asbasbasbag57
(g73
g59
NtRp3892
(dp3893
g62
(dp3894
sg71
g3875
sg64
(lp3895
g57
(g78
g59
NtRp3896
(dp3897
g62
(dp3898
sg71
g3892
sg64
(lp3899
g57
(g58
g59
NtRp3900
(dp3901
g62
(dp3902
g70
I4
ssg71
g3896
sg64
(lp3903
S'/web2py_xlchart_dashboard/static/css/calendar.css'
p3904
asbasbasbag57
(g73
g59
NtRp3905
(dp3906
g62
(dp3907
sg71
g3875
sg64
(lp3908
g57
(g78
g59
NtRp3909
(dp3910
g62
(dp3911
sg71
g3905
sg64
(lp3912
g57
(g58
g59
NtRp3913
(dp3914
g62
(dp3915
g70
I4
ssg71
g3909
sg64
(lp3916
S'/web2py_xlchart_dashboard/static/js/calendar.js'
p3917
asbasbasbag57
(g73
g59
NtRp3918
(dp3919
g62
(dp3920
sg71
g3875
sg64
(lp3921
g57
(g78
g59
NtRp3922
(dp3923
g62
(dp3924
sg71
g3918
sg64
(lp3925
g57
(g58
g59
NtRp3926
(dp3927
g62
(dp3928
g70
I4
ssg71
g3922
sg64
(lp3929
S'/web2py_xlchart_dashboard/static/js/web2py.js'
p3930
asbasbasbag57
(g73
g59
NtRp3931
(dp3932
g62
(dp3933
sg71
g3875
sg64
(lp3934
g57
(g78
g59
NtRp3935
(dp3936
g62
(dp3937
sg71
g3931
sg64
(lp3938
g57
(g58
g59
NtRp3939
(dp3940
g62
(dp3941
g70
I4
ssg71
g3935
sg64
(lp3942
S'/web2py_xlchart_dashboard/static/css/web2py.css'
p3943
asbasbasbag57
(g73
g59
NtRp3944
(dp3945
g62
(dp3946
sg71
g3875
sg64
(lp3947
g57
(g78
g59
NtRp3948
(dp3949
g62
(dp3950
sg71
g3944
sg64
(lp3951
g57
(g58
g59
NtRp3952
(dp3953
g62
(dp3954
g70
I4
ssg71
g3948
sg64
(lp3955
S'/web2py_xlchart_dashboard/static/css/bootstrap.min.css'
p3956
asbasbasbag57
(g73
g59
NtRp3957
(dp3958
g62
(dp3959
sg71
g3875
sg64
(lp3960
g57
(g78
g59
NtRp3961
(dp3962
g62
(dp3963
sg71
g3957
sg64
(lp3964
g57
(g58
g59
NtRp3965
(dp3966
g62
(dp3967
g70
I4
ssg71
g3961
sg64
(lp3968
S'/web2py_xlchart_dashboard/static/css/bootstrap-responsive.min.css'
p3969
asbasbasbag57
(g73
g59
NtRp3970
(dp3971
g62
(dp3972
sg71
g3875
sg64
(lp3973
g57
(g78
g59
NtRp3974
(dp3975
g62
(dp3976
sg71
g3970
sg64
(lp3977
g57
(g58
g59
NtRp3978
(dp3979
g62
(dp3980
g70
I4
ssg71
g3974
sg64
(lp3981
S'/web2py_xlchart_dashboard/static/css/web2py_bootstrap.css'
p3982
asbasbasbasbasbasbasbag57
(g73
g59
NtRp3983
(dp3984
g62
(dp3985
sg71
g3569
sg64
(lp3986
g57
(g78
g59
NtRp3987
(dp3988
g62
(dp3989
g82
g83
ssg71
g3983
sg64
(lp3990
S'flash'
p3991
asbag57
(g78
g59
NtRp3992
(dp3993
g62
(dp3994
g89
g90
ssg71
g3983
sg64
(lp3995
S':'
asbag57
(g78
g59
NtRp3996
(dp3997
g62
(dp3998
sg71
g3983
sg64
(lp3999
g57
(g58
g59
NtRp4000
(dp4001
g62
(dp4002
g70
I5
ssg71
g3996
sg64
(lp4003
S''
asbasbasbag57
(g73
g59
NtRp4004
(dp4005
g62
(dp4006
sg71
g3569
sg64
(lp4007
g57
(g78
g59
NtRp4008
(dp4009
g62
(dp4010
g82
g83
ssg71
g4004
sg64
(lp4011
S'generic_patterns'
p4012
asbag57
(g78
g59
NtRp4013
(dp4014
g62
(dp4015
g89
g90
ssg71
g4004
sg64
(lp4016
S':'
asbag57
(g78
g59
NtRp4017
(dp4018
g62
(dp4019
sg71
g4004
sg64
(lp4020
g57
(g58
g59
NtRp4021
(dp4022
g62
(dp4023
g70
I5
ssg71
g4017
sg64
(lp4024
g57
(g66
g59
NtRp4025
(dp4026
g62
(dp4027
g70
I4
ssg71
Nsg64
(lp4028
g57
(g73
g59
NtRp4029
(dp4030
g62
(dp4031
sg71
g4025
sg64
(lp4032
g57
(g78
g59
NtRp4033
(dp4034
g62
(dp4035
sg71
g4029
sg64
(lp4036
g57
(g58
g59
NtRp4037
(dp4038
g62
(dp4039
g70
I4
ssg71
g4033
sg64
(lp4040
S'*'
asbasbasbasbasbasbasbag57
(g73
g59
NtRp4041
(dp4042
g62
(dp4043
sg71
g3569
sg64
(lp4044
g57
(g78
g59
NtRp4045
(dp4046
g62
(dp4047
g82
g83
ssg71
g4041
sg64
(lp4048
S'google_analytics_id'
p4049
asbag57
(g78
g59
NtRp4050
(dp4051
g62
(dp4052
g89
g90
ssg71
g4041
sg64
(lp4053
S':'
asbag57
(g78
g59
NtRp4054
(dp4055
g62
(dp4056
sg71
g4041
sg64
(lp4057
g57
(g58
g59
NtRp4058
(dp4059
g62
(dp4060
g70
I5
ssg71
g4054
sg64
(lp4061
S'None'
p4062
asbasbasbag57
(g73
g59
NtRp4063
(dp4064
g62
(dp4065
sg71
g3569
sg64
(lp4066
g57
(g78
g59
NtRp4067
(dp4068
g62
(dp4069
g82
g83
ssg71
g4063
sg64
(lp4070
S'headers'
p4071
asbag57
(g78
g59
NtRp4072
(dp4073
g62
(dp4074
g89
g90
ssg71
g4063
sg64
(lp4075
S':'
asbag57
(g78
g59
NtRp4076
(dp4077
g62
(dp4078
sg71
g4063
sg64
(lp4079
g57
(g58
g59
NtRp4080
(dp4081
g62
(dp4082
g70
I5
ssg71
g4076
sg64
(lp4083
g57
(g66
g59
NtRp4084
(dp4085
g62
(dp4086
g70
I4
ssg71
Nsg64
(lp4087
g57
(g73
g59
NtRp4088
(dp4089
g62
(dp4090
sg71
g4084
sg64
(lp4091
g57
(g78
g59
NtRp4092
(dp4093
g62
(dp4094
g82
g83
ssg71
g4088
sg64
(lp4095
S'X-Powered-By'
p4096
asbag57
(g78
g59
NtRp4097
(dp4098
g62
(dp4099
g89
g90
ssg71
g4088
sg64
(lp4100
S':'
asbag57
(g78
g59
NtRp4101
(dp4102
g62
(dp4103
sg71
g4088
sg64
(lp4104
g57
(g58
g59
NtRp4105
(dp4106
g62
(dp4107
g70
I4
ssg71
g4101
sg64
(lp4108
S'web2py'
p4109
asbasbasbasbasbasbasbag57
(g73
g59
NtRp4110
(dp4111
g62
(dp4112
sg71
g3569
sg64
(lp4113
g57
(g78
g59
NtRp4114
(dp4115
g62
(dp4116
g82
g83
ssg71
g4110
sg64
(lp4117
S'menu'
p4118
asbag57
(g78
g59
NtRp4119
(dp4120
g62
(dp4121
g89
g90
ssg71
g4110
sg64
(lp4122
S':'
asbag57
(g78
g59
NtRp4123
(dp4124
g62
(dp4125
sg71
g4110
sg64
(lp4126
g57
(g58
g59
NtRp4127
(dp4128
g62
(dp4129
g70
I5
ssg71
g4123
sg64
(lp4130
g57
(g66
g59
NtRp4131
(dp4132
g62
(dp4133
g70
I4
ssg71
Nsg64
(lp4134
g57
(g73
g59
NtRp4135
(dp4136
g62
(dp4137
sg71
g4131
sg64
(lp4138
g57
(g78
g59
NtRp4139
(dp4140
g62
(dp4141
sg71
g4135
sg64
(lp4142
g57
(g58
g59
NtRp4143
(dp4144
g62
(dp4145
g70
I4
ssg71
g4139
sg64
(lp4146
g57
(g66
g59
NtRp4147
(dp4148
g62
(dp4149
g70
I3
ssg71
Nsg64
(lp4150
g57
(g73
g59
NtRp4151
(dp4152
g62
(dp4153
sg71
g4147
sg64
(lp4154
g57
(g78
g59
NtRp4155
(dp4156
g62
(dp4157
sg71
g4151
sg64
(lp4158
g57
(g58
g59
NtRp4159
(dp4160
g62
(dp4161
g70
I3
ssg71
g4155
sg64
(lp4162
cgluon.languages
lazyT_unpickle
p4163
(S's\x04\x00\x00\x00Home'
tRp4164
asbasbasbag57
(g73
g59
NtRp4165
(dp4166
g62
(dp4167
sg71
g4147
sg64
(lp4168
g57
(g78
g59
NtRp4169
(dp4170
g62
(dp4171
sg71
g4165
sg64
(lp4172
g57
(g58
g59
NtRp4173
(dp4174
g62
(dp4175
g70
I3
ssg71
g4169
sg64
(lp4176
g100
asbasbasbag57
(g73
g59
NtRp4177
(dp4178
g62
(dp4179
sg71
g4147
sg64
(lp4180
g57
(g78
g59
NtRp4181
(dp4182
g62
(dp4183
sg71
g4177
sg64
(lp4184
g57
(g58
g59
NtRp4185
(dp4186
g62
(dp4187
g70
I3
ssg71
g4181
sg64
(lp4188
S'/web2py_xlchart_dashboard/default/index'
p4189
asbasbasbag57
(g73
g59
NtRp4190
(dp4191
g62
(dp4192
sg71
g4147
sg64
(lp4193
g57
(g78
g59
NtRp4194
(dp4195
g62
(dp4196
sg71
g4190
sg64
(lp4197
g57
(g58
g59
NtRp4198
(dp4199
g62
(dp4200
g70
I3
ssg71
g4194
sg64
(lp4201
g57
(g66
g59
NtRp4202
(dp4203
g62
(dp4204
g70
I2
ssg71
Nsg64
(lp4205
sbasbasbasbasbasbasbasbag57
(g73
g59
NtRp4206
(dp4207
g62
(dp4208
sg71
g4131
sg64
(lp4209
g57
(g78
g59
NtRp4210
(dp4211
g62
(dp4212
sg71
g4206
sg64
(lp4213
g57
(g58
g59
NtRp4214
(dp4215
g62
(dp4216
g70
I4
ssg71
g4210
sg64
(lp4217
g57
(g66
g59
NtRp4218
(dp4219
g62
(dp4220
g70
I3
ssg71
Nsg64
(lp4221
g57
(g73
g59
NtRp4222
(dp4223
g62
(dp4224
sg71
g4218
sg64
(lp4225
g57
(g78
g59
NtRp4226
(dp4227
g62
(dp4228
sg71
g4222
sg64
(lp4229
g57
(g58
g59
NtRp4230
(dp4231
g62
(dp4232
g70
I3
ssg71
g4226
sg64
(lp4233
g57
(cgluon.html
SPAN
p4234
g59
NtRp4235
(dp4236
g62
(dp4237
S'_class'
p4238
S'highlighted'
p4239
ssg71
g57
(cgluon.html
A
p4240
g59
NtRp4241
(dp4242
g62
(dp4243
S'_href'
p4244
S'http://web2py.com'
p4245
ssg71
g57
(cgluon.html
LI
p4246
g59
NtRp4247
(dp4248
g62
(dp4249
g4238
S'dropdown'
p4250
ssg71
g57
(cgluon.html
UL
p4251
g59
NtRp4252
(dp4253
g62
(dp4254
S'li_class'
p4255
g4250
sS'mobile'
p4256
I00
sg4238
S'nav'
p4257
sS'ul_class'
p4258
S'dropdown-menu'
p4259
sS'li_active'
p4260
S'web2py-menu-active'
p4261
ssg71
Nsg64
(lp4262
g57
(g4246
g59
NtRp4263
(dp4264
g62
(dp4265
sg71
g4252
sg64
(lp4266
g57
(g4240
g59
NtRp4267
(dp4268
g62
(dp4269
g4244
g4189
ssg71
g4263
sg64
(lp4270
g4164
asbasbag4247
asbsg64
(lp4271
g4241
ag57
(g4251
g59
NtRp4272
(dp4273
g62
(dp4274
g4238
g4259
ssg71
g4247
sg64
(lp4275
g57
(g4246
g59
NtRp4276
(dp4277
g62
(dp4278
sg71
g4272
sg64
(lp4279
g57
(g4240
g59
NtRp4280
(dp4281
g62
(dp4282
g4244
S'/admin/default/site'
p4283
ssg71
g4276
sg64
(lp4284
g4163
(S's\x08\x00\x00\x00My Sites'
tRp4285
asbasbag57
(g4246
g59
NtRp4286
(dp4287
g62
(dp4288
g4238
g4250
ssg71
g4272
sg64
(lp4289
g57
(g4240
g59
NtRp4290
(dp4291
g62
(dp4292
g4244
S'/admin/default/design/web2py_xlchart_dashboard'
p4293
ssg71
g4286
sg64
(lp4294
g4163
(S's\x08\x00\x00\x00This App'
tRp4295
asbag57
(g4251
g59
NtRp4296
(dp4297
g62
(dp4298
g4238
g4259
ssg71
g4286
sg64
(lp4299
g57
(g4246
g59
NtRp4300
(dp4301
g62
(dp4302
sg71
g4296
sg64
(lp4303
g57
(g4240
g59
NtRp4304
(dp4305
g62
(dp4306
g4244
S'/admin/default/edit/web2py_xlchart_dashboard/controllers/default.py'
p4307
ssg71
g4300
sg64
(lp4308
g4163
(S's\n\x00\x00\x00Controller'
tRp4309
asbasbag57
(g4246
g59
NtRp4310
(dp4311
g62
(dp4312
sg71
g4296
sg64
(lp4313
g57
(g4240
g59
NtRp4314
(dp4315
g62
(dp4316
g4244
S'/admin/default/edit/web2py_xlchart_dashboard/views/default/list_workbook_charts.html'
p4317
ssg71
g4310
sg64
(lp4318
g4163
(S's\x04\x00\x00\x00View'
tRp4319
asbasbag57
(g4246
g59
NtRp4320
(dp4321
g62
(dp4322
sg71
g4296
sg64
(lp4323
g57
(g4240
g59
NtRp4324
(dp4325
g62
(dp4326
g4244
S'/admin/default/edit/web2py_xlchart_dashboard/views/layout.html'
p4327
ssg71
g4320
sg64
(lp4328
g4163
(S's\x06\x00\x00\x00Layout'
tRp4329
asbasbag57
(g4246
g59
NtRp4330
(dp4331
g62
(dp4332
sg71
g4296
sg64
(lp4333
g57
(g4240
g59
NtRp4334
(dp4335
g62
(dp4336
g4244
S'/admin/default/edit/web2py_xlchart_dashboard/static/css/web2py.css'
p4337
ssg71
g4330
sg64
(lp4338
g4163
(S's\n\x00\x00\x00Stylesheet'
tRp4339
asbasbag57
(g4246
g59
NtRp4340
(dp4341
g62
(dp4342
sg71
g4296
sg64
(lp4343
g57
(g4240
g59
NtRp4344
(dp4345
g62
(dp4346
g4244
S'/admin/default/edit/web2py_xlchart_dashboard/models/db.py'
p4347
ssg71
g4340
sg64
(lp4348
g4163
(S's\x08\x00\x00\x00DB Model'
tRp4349
asbasbag57
(g4246
g59
NtRp4350
(dp4351
g62
(dp4352
sg71
g4296
sg64
(lp4353
g57
(g4240
g59
NtRp4354
(dp4355
g62
(dp4356
g4244
S'/admin/default/edit/web2py_xlchart_dashboard/models/menu.py'
p4357
ssg71
g4350
sg64
(lp4358
g4163
(S's\n\x00\x00\x00Menu Model'
tRp4359
asbasbag57
(g4246
g59
NtRp4360
(dp4361
g62
(dp4362
sg71
g4296
sg64
(lp4363
g57
(g4240
g59
NtRp4364
(dp4365
g62
(dp4366
g4244
S'/web2py_xlchart_dashboard/appadmin/index'
p4367
ssg71
g4360
sg64
(lp4368
g4163
(S's\x08\x00\x00\x00Database'
tRp4369
asbasbag57
(g4246
g59
NtRp4370
(dp4371
g62
(dp4372
sg71
g4296
sg64
(lp4373
g57
(g4240
g59
NtRp4374
(dp4375
g62
(dp4376
g4244
S'/admin/default/errors/web2py_xlchart_dashboard'
p4377
ssg71
g4370
sg64
(lp4378
g4163
(S's\x06\x00\x00\x00Errors'
tRp4379
asbasbag57
(g4246
g59
NtRp4380
(dp4381
g62
(dp4382
sg71
g4296
sg64
(lp4383
g57
(g4240
g59
NtRp4384
(dp4385
g62
(dp4386
g4244
S'/admin/default/about/web2py_xlchart_dashboard'
p4387
ssg71
g4380
sg64
(lp4388
g4163
(S's\x05\x00\x00\x00About'
tRp4389
asbasbasbasbag57
(g4246
g59
NtRp4390
(dp4391
g62
(dp4392
g4238
g4250
ssg71
g4272
sg64
(lp4393
g57
(g4240
g59
NtRp4394
(dp4395
g62
(dp4396
g4244
S'http://www.web2py.com'
p4397
ssg71
g4390
sg64
(lp4398
S'web2py.com'
p4399
asbag57
(g4251
g59
NtRp4400
(dp4401
g62
(dp4402
g4238
g4259
ssg71
g4390
sg64
(lp4403
g57
(g4246
g59
NtRp4404
(dp4405
g62
(dp4406
sg71
g4400
sg64
(lp4407
g57
(g4240
g59
NtRp4408
(dp4409
g62
(dp4410
g4244
S'http://www.web2py.com/examples/default/download'
p4411
ssg71
g4404
sg64
(lp4412
g4163
(S's\x08\x00\x00\x00Download'
tRp4413
asbasbag57
(g4246
g59
NtRp4414
(dp4415
g62
(dp4416
sg71
g4400
sg64
(lp4417
g57
(g4240
g59
NtRp4418
(dp4419
g62
(dp4420
g4244
S'http://www.web2py.com/examples/default/support'
p4421
ssg71
g4414
sg64
(lp4422
g4163
(S's\x07\x00\x00\x00Support'
tRp4423
asbasbag57
(g4246
g59
NtRp4424
(dp4425
g62
(dp4426
sg71
g4400
sg64
(lp4427
g57
(g4240
g59
NtRp4428
(dp4429
g62
(dp4430
g4244
S'http://web2py.com/demo_admin'
p4431
ssg71
g4424
sg64
(lp4432
g4163
(S's\x04\x00\x00\x00Demo'
tRp4433
asbasbag57
(g4246
g59
NtRp4434
(dp4435
g62
(dp4436
sg71
g4400
sg64
(lp4437
g57
(g4240
g59
NtRp4438
(dp4439
g62
(dp4440
g4244
S'http://web2py.com/examples/default/examples'
p4441
ssg71
g4434
sg64
(lp4442
g4163
(S's\x0e\x00\x00\x00Quick Examples'
tRp4443
asbasbag57
(g4246
g59
NtRp4444
(dp4445
g62
(dp4446
sg71
g4400
sg64
(lp4447
g57
(g4240
g59
NtRp4448
(dp4449
g62
(dp4450
g4244
S'http://web2py.com/AlterEgo'
p4451
ssg71
g4444
sg64
(lp4452
g4163
(S's\x03\x00\x00\x00FAQ'
tRp4453
asbasbag57
(g4246
g59
NtRp4454
(dp4455
g62
(dp4456
sg71
g4400
sg64
(lp4457
g57
(g4240
g59
NtRp4458
(dp4459
g62
(dp4460
g4244
S'http://www.web2py.com/examples/default/videos/'
p4461
ssg71
g4454
sg64
(lp4462
g4163
(S's\x06\x00\x00\x00Videos'
tRp4463
asbasbag57
(g4246
g59
NtRp4464
(dp4465
g62
(dp4466
sg71
g4400
sg64
(lp4467
g57
(g4240
g59
NtRp4468
(dp4469
g62
(dp4470
g4244
S'http://web2py.com/appliances'
p4471
ssg71
g4464
sg64
(lp4472
g4163
(S's\x11\x00\x00\x00Free Applications'
tRp4473
asbasbag57
(g4246
g59
NtRp4474
(dp4475
g62
(dp4476
sg71
g4400
sg64
(lp4477
g57
(g4240
g59
NtRp4478
(dp4479
g62
(dp4480
g4244
S'http://web2py.com/plugins'
p4481
ssg71
g4474
sg64
(lp4482
g4163
(S's\x07\x00\x00\x00Plugins'
tRp4483
asbasbag57
(g4246
g59
NtRp4484
(dp4485
g62
(dp4486
sg71
g4400
sg64
(lp4487
g57
(g4240
g59
NtRp4488
(dp4489
g62
(dp4490
g4244
S'http://web2py.com/layouts'
p4491
ssg71
g4484
sg64
(lp4492
g4163
(S's\x07\x00\x00\x00Layouts'
tRp4493
asbasbag57
(g4246
g59
NtRp4494
(dp4495
g62
(dp4496
sg71
g4400
sg64
(lp4497
g57
(g4240
g59
NtRp4498
(dp4499
g62
(dp4500
g4244
S'http://web2pyslices.com/'
p4501
ssg71
g4494
sg64
(lp4502
g4163
(S's\x07\x00\x00\x00Recipes'
tRp4503
asbasbag57
(g4246
g59
NtRp4504
(dp4505
g62
(dp4506
sg71
g4400
sg64
(lp4507
g57
(g4240
g59
NtRp4508
(dp4509
g62
(dp4510
g4244
S'http://web2py.com/semantic'
p4511
ssg71
g4504
sg64
(lp4512
g4163
(S's\x08\x00\x00\x00Semantic'
tRp4513
asbasbasbasbag57
(g4246
g59
NtRp4514
(dp4515
g62
(dp4516
g4238
g4250
ssg71
g4272
sg64
(lp4517
g57
(g4240
g59
NtRp4518
(dp4519
g62
(dp4520
g4244
S'http://www.web2py.com/book'
p4521
ssg71
g4514
sg64
(lp4522
g4163
(S's\r\x00\x00\x00Documentation'
tRp4523
asbag57
(g4251
g59
NtRp4524
(dp4525
g62
(dp4526
g4238
g4259
ssg71
g4514
sg64
(lp4527
g57
(g4246
g59
NtRp4528
(dp4529
g62
(dp4530
sg71
g4524
sg64
(lp4531
g57
(g4240
g59
NtRp4532
(dp4533
g62
(dp4534
g4244
S'http://www.web2py.com/book/default/chapter/00'
p4535
ssg71
g4528
sg64
(lp4536
g4163
(S's\x07\x00\x00\x00Preface'
tRp4537
asbasbag57
(g4246
g59
NtRp4538
(dp4539
g62
(dp4540
sg71
g4524
sg64
(lp4541
g57
(g4240
g59
NtRp4542
(dp4543
g62
(dp4544
g4244
S'http://www.web2py.com/book/default/chapter/01'
p4545
ssg71
g4538
sg64
(lp4546
g4163
(S's\x0c\x00\x00\x00Introduction'
tRp4547
asbasbag57
(g4246
g59
NtRp4548
(dp4549
g62
(dp4550
sg71
g4524
sg64
(lp4551
g57
(g4240
g59
NtRp4552
(dp4553
g62
(dp4554
g4244
S'http://www.web2py.com/book/default/chapter/02'
p4555
ssg71
g4548
sg64
(lp4556
g4163
(S's\x06\x00\x00\x00Python'
tRp4557
asbasbag57
(g4246
g59
NtRp4558
(dp4559
g62
(dp4560
sg71
g4524
sg64
(lp4561
g57
(g4240
g59
NtRp4562
(dp4563
g62
(dp4564
g4244
S'http://www.web2py.com/book/default/chapter/03'
p4565
ssg71
g4558
sg64
(lp4566
g4163
(S's\x08\x00\x00\x00Overview'
tRp4567
asbasbag57
(g4246
g59
NtRp4568
(dp4569
g62
(dp4570
sg71
g4524
sg64
(lp4571
g57
(g4240
g59
NtRp4572
(dp4573
g62
(dp4574
g4244
S'http://www.web2py.com/book/default/chapter/04'
p4575
ssg71
g4568
sg64
(lp4576
g4163
(S's\x08\x00\x00\x00The Core'
tRp4577
asbasbag57
(g4246
g59
NtRp4578
(dp4579
g62
(dp4580
sg71
g4524
sg64
(lp4581
g57
(g4240
g59
NtRp4582
(dp4583
g62
(dp4584
g4244
S'http://www.web2py.com/book/default/chapter/05'
p4585
ssg71
g4578
sg64
(lp4586
g4163
(S's\t\x00\x00\x00The Views'
tRp4587
asbasbag57
(g4246
g59
NtRp4588
(dp4589
g62
(dp4590
sg71
g4524
sg64
(lp4591
g57
(g4240
g59
NtRp4592
(dp4593
g62
(dp4594
g4244
S'http://www.web2py.com/book/default/chapter/06'
p4595
ssg71
g4588
sg64
(lp4596
g4163
(S's\x08\x00\x00\x00Database'
tRp4597
asbasbag57
(g4246
g59
NtRp4598
(dp4599
g62
(dp4600
sg71
g4524
sg64
(lp4601
g57
(g4240
g59
NtRp4602
(dp4603
g62
(dp4604
g4244
S'http://www.web2py.com/book/default/chapter/07'
p4605
ssg71
g4598
sg64
(lp4606
g4163
(S's\x14\x00\x00\x00Forms and Validators'
tRp4607
asbasbag57
(g4246
g59
NtRp4608
(dp4609
g62
(dp4610
sg71
g4524
sg64
(lp4611
g57
(g4240
g59
NtRp4612
(dp4613
g62
(dp4614
g4244
S'http://www.web2py.com/book/default/chapter/08'
p4615
ssg71
g4608
sg64
(lp4616
g4163
(S's\r\x00\x00\x00Email and SMS'
tRp4617
asbasbag57
(g4246
g59
NtRp4618
(dp4619
g62
(dp4620
sg71
g4524
sg64
(lp4621
g57
(g4240
g59
NtRp4622
(dp4623
g62
(dp4624
g4244
S'http://www.web2py.com/book/default/chapter/09'
p4625
ssg71
g4618
sg64
(lp4626
g4163
(S's\x0e\x00\x00\x00Access Control'
tRp4627
asbasbag57
(g4246
g59
NtRp4628
(dp4629
g62
(dp4630
sg71
g4524
sg64
(lp4631
g57
(g4240
g59
NtRp4632
(dp4633
g62
(dp4634
g4244
S'http://www.web2py.com/book/default/chapter/10'
p4635
ssg71
g4628
sg64
(lp4636
g4163
(S's\x08\x00\x00\x00Services'
tRp4637
asbasbag57
(g4246
g59
NtRp4638
(dp4639
g62
(dp4640
sg71
g4524
sg64
(lp4641
g57
(g4240
g59
NtRp4642
(dp4643
g62
(dp4644
g4244
S'http://www.web2py.com/book/default/chapter/11'
p4645
ssg71
g4638
sg64
(lp4646
g4163
(S's\x0c\x00\x00\x00Ajax Recipes'
tRp4647
asbasbag57
(g4246
g59
NtRp4648
(dp4649
g62
(dp4650
sg71
g4524
sg64
(lp4651
g57
(g4240
g59
NtRp4652
(dp4653
g62
(dp4654
g4244
S'http://www.web2py.com/book/default/chapter/12'
p4655
ssg71
g4648
sg64
(lp4656
g4163
(S's\x16\x00\x00\x00Components and Plugins'
tRp4657
asbasbag57
(g4246
g59
NtRp4658
(dp4659
g62
(dp4660
sg71
g4524
sg64
(lp4661
g57
(g4240
g59
NtRp4662
(dp4663
g62
(dp4664
g4244
S'http://www.web2py.com/book/default/chapter/13'
p4665
ssg71
g4658
sg64
(lp4666
g4163
(S's\x12\x00\x00\x00Deployment Recipes'
tRp4667
asbasbag57
(g4246
g59
NtRp4668
(dp4669
g62
(dp4670
sg71
g4524
sg64
(lp4671
g57
(g4240
g59
NtRp4672
(dp4673
g62
(dp4674
g4244
S'http://www.web2py.com/book/default/chapter/14'
p4675
ssg71
g4668
sg64
(lp4676
g4163
(S's\r\x00\x00\x00Other Recipes'
tRp4677
asbasbag57
(g4246
g59
NtRp4678
(dp4679
g62
(dp4680
sg71
g4524
sg64
(lp4681
g57
(g4240
g59
NtRp4682
(dp4683
g62
(dp4684
g4244
S'http://stores.lulu.com/web2py'
p4685
ssg71
g4678
sg64
(lp4686
g4163
(S's\r\x00\x00\x00Buy this book'
tRp4687
asbasbasbasbag57
(g4246
g59
NtRp4688
(dp4689
g62
(dp4690
g4238
g4250
ssg71
g4272
sg64
(lp4691
g57
(g4240
g59
NtRp4692
(dp4693
g62
(dp4694
S'_onclick'
p4695
S'javascript:void(0);return false;'
p4696
sg4244
S'#'
ssg71
g4688
sg64
(lp4697
g4163
(S's\t\x00\x00\x00Community'
tRp4698
asbag57
(g4251
g59
NtRp4699
(dp4700
g62
(dp4701
g4238
g4259
ssg71
g4688
sg64
(lp4702
g57
(g4246
g59
NtRp4703
(dp4704
g62
(dp4705
sg71
g4699
sg64
(lp4706
g57
(g4240
g59
NtRp4707
(dp4708
g62
(dp4709
g4244
S'http://www.web2py.com/examples/default/usergroups'
p4710
ssg71
g4703
sg64
(lp4711
g4163
(S's\x06\x00\x00\x00Groups'
tRp4712
asbasbag57
(g4246
g59
NtRp4713
(dp4714
g62
(dp4715
sg71
g4699
sg64
(lp4716
g57
(g4240
g59
NtRp4717
(dp4718
g62
(dp4719
g4244
S'http://twitter.com/web2py'
p4720
ssg71
g4713
sg64
(lp4721
g4163
(S's\x07\x00\x00\x00Twitter'
tRp4722
asbasbag57
(g4246
g59
NtRp4723
(dp4724
g62
(dp4725
sg71
g4699
sg64
(lp4726
g57
(g4240
g59
NtRp4727
(dp4728
g62
(dp4729
g4244
S'http://webchat.freenode.net/?channels=web2py'
p4730
ssg71
g4723
sg64
(lp4731
g4163
(S's\t\x00\x00\x00Live Chat'
tRp4732
asbasbasbasbag57
(g4246
g59
NtRp4733
(dp4734
g62
(dp4735
g4238
g4250
ssg71
g4272
sg64
(lp4736
g57
(g4240
g59
NtRp4737
(dp4738
g62
(dp4739
g4695
g4696
sg4244
S'#'
ssg71
g4733
sg64
(lp4740
g4163
(S's\x07\x00\x00\x00Plugins'
tRp4741
asbag57
(g4251
g59
NtRp4742
(dp4743
g62
(dp4744
g4238
g4259
ssg71
g4733
sg64
(lp4745
g57
(g4246
g59
NtRp4746
(dp4747
g62
(dp4748
sg71
g4742
sg64
(lp4749
g57
(g4240
g59
NtRp4750
(dp4751
g62
(dp4752
g4244
S'http://web2py.com/examples/default/download'
p4753
ssg71
g4746
sg64
(lp4754
S'plugin_wiki'
p4755
asbasbag57
(g4246
g59
NtRp4756
(dp4757
g62
(dp4758
sg71
g4742
sg64
(lp4759
g57
(g4240
g59
NtRp4760
(dp4761
g62
(dp4762
g4244
g4481
ssg71
g4756
sg64
(lp4763
g4163
(S's\r\x00\x00\x00Other Plugins'
tRp4764
asbasbag57
(g4246
g59
NtRp4765
(dp4766
g62
(dp4767
sg71
g4742
sg64
(lp4768
g57
(g4240
g59
NtRp4769
(dp4770
g62
(dp4771
g4244
g4491
ssg71
g4765
sg64
(lp4772
g4163
(S's\x0e\x00\x00\x00Layout Plugins'
tRp4773
asbasbasbasbasbasbsg64
(lp4774
g4235
asbsg64
(lp4775
g4109
asbasbasbasbag57
(g73
g59
NtRp4776
(dp4777
g62
(dp4778
sg71
g4218
sg64
(lp4779
g57
(g78
g59
NtRp4780
(dp4781
g62
(dp4782
sg71
g4776
sg64
(lp4783
g57
(g58
g59
NtRp4784
(dp4785
g62
(dp4786
g70
I3
ssg71
g4780
sg64
(lp4787
g100
asbasbasbag57
(g73
g59
NtRp4788
(dp4789
g62
(dp4790
sg71
g4218
sg64
(lp4791
g57
(g78
g59
NtRp4792
(dp4793
g62
(dp4794
sg71
g4788
sg64
(lp4795
g57
(g58
g59
NtRp4796
(dp4797
g62
(dp4798
g70
I3
ssg71
g4792
sg64
(lp4799
g4245
asbasbasbag57
(g73
g59
NtRp4800
(dp4801
g62
(dp4802
sg71
g4218
sg64
(lp4803
g57
(g78
g59
NtRp4804
(dp4805
g62
(dp4806
sg71
g4800
sg64
(lp4807
g57
(g58
g59
NtRp4808
(dp4809
g62
(dp4810
g70
I3
ssg71
g4804
sg64
(lp4811
g57
(g66
g59
NtRp4812
(dp4813
g62
(dp4814
g70
I2
ssg71
Nsg64
(lp4815
g57
(g73
g59
NtRp4816
(dp4817
g62
(dp4818
sg71
g4812
sg64
(lp4819
g57
(g78
g59
NtRp4820
(dp4821
g62
(dp4822
sg71
g4816
sg64
(lp4823
g57
(g58
g59
NtRp4824
(dp4825
g62
(dp4826
g70
I2
ssg71
g4820
sg64
(lp4827
g57
(g66
g59
NtRp4828
(dp4829
g62
(dp4830
g70
I1
ssg71
Nsg64
(lp4831
g57
(g73
g59
NtRp4832
(dp4833
g62
(dp4834
sg71
g4828
sg64
(lp4835
g57
(g78
g59
NtRp4836
(dp4837
g62
(dp4838
sg71
g4832
sg64
(lp4839
g57
(g58
g59
NtRp4840
(dp4841
g62
(dp4842
g70
I1
ssg71
g4836
sg64
(lp4843
g4285
asbasbasbag57
(g73
g59
NtRp4844
(dp4845
g62
(dp4846
sg71
g4828
sg64
(lp4847
g57
(g78
g59
NtRp4848
(dp4849
g62
(dp4850
sg71
g4844
sg64
(lp4851
g57
(g58
g59
NtRp4852
(dp4853
g62
(dp4854
g70
I1
ssg71
g4848
sg64
(lp4855
I00
asbasbasbag57
(g73
g59
NtRp4856
(dp4857
g62
(dp4858
sg71
g4828
sg64
(lp4859
g57
(g78
g59
NtRp4860
(dp4861
g62
(dp4862
sg71
g4856
sg64
(lp4863
g57
(g58
g59
NtRp4864
(dp4865
g62
(dp4866
g70
I1
ssg71
g4860
sg64
(lp4867
g4283
asbasbasbasbasbasbasbag57
(g73
g59
NtRp4868
(dp4869
g62
(dp4870
sg71
g4812
sg64
(lp4871
g57
(g78
g59
NtRp4872
(dp4873
g62
(dp4874
sg71
g4868
sg64
(lp4875
g57
(g58
g59
NtRp4876
(dp4877
g62
(dp4878
g70
I2
ssg71
g4872
sg64
(lp4879
g57
(g66
g59
NtRp4880
(dp4881
g62
(dp4882
g70
I1
ssg71
Nsg64
(lp4883
g57
(g73
g59
NtRp4884
(dp4885
g62
(dp4886
sg71
g4880
sg64
(lp4887
g57
(g78
g59
NtRp4888
(dp4889
g62
(dp4890
sg71
g4884
sg64
(lp4891
g57
(g58
g59
NtRp4892
(dp4893
g62
(dp4894
g70
I1
ssg71
g4888
sg64
(lp4895
g4295
asbasbasbag57
(g73
g59
NtRp4896
(dp4897
g62
(dp4898
sg71
g4880
sg64
(lp4899
g57
(g78
g59
NtRp4900
(dp4901
g62
(dp4902
sg71
g4896
sg64
(lp4903
g57
(g58
g59
NtRp4904
(dp4905
g62
(dp4906
g70
I1
ssg71
g4900
sg64
(lp4907
I00
asbasbasbag57
(g73
g59
NtRp4908
(dp4909
g62
(dp4910
sg71
g4880
sg64
(lp4911
g57
(g78
g59
NtRp4912
(dp4913
g62
(dp4914
sg71
g4908
sg64
(lp4915
g57
(g58
g59
NtRp4916
(dp4917
g62
(dp4918
g70
I1
ssg71
g4912
sg64
(lp4919
g4293
asbasbasbag57
(g73
g59
NtRp4920
(dp4921
g62
(dp4922
sg71
g4880
sg64
(lp4923
g57
(g78
g59
NtRp4924
(dp4925
g62
(dp4926
sg71
g4920
sg64
(lp4927
g57
(g58
g59
NtRp4928
(dp4929
g62
(dp4930
g70
I1
ssg71
g4924
sg64
(lp4931
(lp4932
(g4309
I00
g4307
tp4933
a(g4319
I00
g4317
tp4934
a(g4329
I00
g4327
tp4935
a(g4339
I00
g4337
tp4936
a(g4349
I00
g4347
tp4937
a(g4359
I00
g4357
tp4938
a(g4369
I00
g4367
tp4939
a(g4379
I00
g4377
tp4940
a(g4389
I00
g4387
tp4941
aasbasbasbasbasbasbasbag57
(g73
g59
NtRp4942
(dp4943
g62
(dp4944
sg71
g4812
sg64
(lp4945
g57
(g78
g59
NtRp4946
(dp4947
g62
(dp4948
sg71
g4942
sg64
(lp4949
g57
(g58
g59
NtRp4950
(dp4951
g62
(dp4952
g70
I2
ssg71
g4946
sg64
(lp4953
g57
(g66
g59
NtRp4954
(dp4955
g62
(dp4956
g70
I1
ssg71
Nsg64
(lp4957
g57
(g73
g59
NtRp4958
(dp4959
g62
(dp4960
sg71
g4954
sg64
(lp4961
g57
(g78
g59
NtRp4962
(dp4963
g62
(dp4964
sg71
g4958
sg64
(lp4965
g57
(g58
g59
NtRp4966
(dp4967
g62
(dp4968
g70
I1
ssg71
g4962
sg64
(lp4969
g4399
asbasbasbag57
(g73
g59
NtRp4970
(dp4971
g62
(dp4972
sg71
g4954
sg64
(lp4973
g57
(g78
g59
NtRp4974
(dp4975
g62
(dp4976
sg71
g4970
sg64
(lp4977
g57
(g58
g59
NtRp4978
(dp4979
g62
(dp4980
g70
I1
ssg71
g4974
sg64
(lp4981
I00
asbasbasbag57
(g73
g59
NtRp4982
(dp4983
g62
(dp4984
sg71
g4954
sg64
(lp4985
g57
(g78
g59
NtRp4986
(dp4987
g62
(dp4988
sg71
g4982
sg64
(lp4989
g57
(g58
g59
NtRp4990
(dp4991
g62
(dp4992
g70
I1
ssg71
g4986
sg64
(lp4993
g4397
asbasbasbag57
(g73
g59
NtRp4994
(dp4995
g62
(dp4996
sg71
g4954
sg64
(lp4997
g57
(g78
g59
NtRp4998
(dp4999
g62
(dp5000
sg71
g4994
sg64
(lp5001
g57
(g58
g59
NtRp5002
(dp5003
g62
(dp5004
g70
I1
ssg71
g4998
sg64
(lp5005
(lp5006
(g4413
I00
g4411
tp5007
a(g4423
I00
g4421
tp5008
a(g4433
I00
g4431
tp5009
a(g4443
I00
g4441
tp5010
a(g4453
I00
g4451
tp5011
a(g4463
I00
g4461
tp5012
a(g4473
I00
g4471
tp5013
a(g4483
I00
g4481
tp5014
a(g4493
I00
g4491
tp5015
a(g4503
I00
g4501
tp5016
a(g4513
I00
g4511
tp5017
aasbasbasbasbasbasbasbag57
(g73
g59
NtRp5018
(dp5019
g62
(dp5020
sg71
g4812
sg64
(lp5021
g57
(g78
g59
NtRp5022
(dp5023
g62
(dp5024
sg71
g5018
sg64
(lp5025
g57
(g58
g59
NtRp5026
(dp5027
g62
(dp5028
g70
I2
ssg71
g5022
sg64
(lp5029
g57
(g66
g59
NtRp5030
(dp5031
g62
(dp5032
g70
I1
ssg71
Nsg64
(lp5033
g57
(g73
g59
NtRp5034
(dp5035
g62
(dp5036
sg71
g5030
sg64
(lp5037
g57
(g78
g59
NtRp5038
(dp5039
g62
(dp5040
sg71
g5034
sg64
(lp5041
g57
(g58
g59
NtRp5042
(dp5043
g62
(dp5044
g70
I1
ssg71
g5038
sg64
(lp5045
g4523
asbasbasbag57
(g73
g59
NtRp5046
(dp5047
g62
(dp5048
sg71
g5030
sg64
(lp5049
g57
(g78
g59
NtRp5050
(dp5051
g62
(dp5052
sg71
g5046
sg64
(lp5053
g57
(g58
g59
NtRp5054
(dp5055
g62
(dp5056
g70
I1
ssg71
g5050
sg64
(lp5057
I00
asbasbasbag57
(g73
g59
NtRp5058
(dp5059
g62
(dp5060
sg71
g5030
sg64
(lp5061
g57
(g78
g59
NtRp5062
(dp5063
g62
(dp5064
sg71
g5058
sg64
(lp5065
g57
(g58
g59
NtRp5066
(dp5067
g62
(dp5068
g70
I1
ssg71
g5062
sg64
(lp5069
g4521
asbasbasbag57
(g73
g59
NtRp5070
(dp5071
g62
(dp5072
sg71
g5030
sg64
(lp5073
g57
(g78
g59
NtRp5074
(dp5075
g62
(dp5076
sg71
g5070
sg64
(lp5077
g57
(g58
g59
NtRp5078
(dp5079
g62
(dp5080
g70
I1
ssg71
g5074
sg64
(lp5081
(lp5082
(g4537
I00
g4535
tp5083
a(g4547
I00
g4545
tp5084
a(g4557
I00
g4555
tp5085
a(g4567
I00
g4565
tp5086
a(g4577
I00
g4575
tp5087
a(g4587
I00
g4585
tp5088
a(g4597
I00
g4595
tp5089
a(g4607
I00
g4605
tp5090
a(g4617
I00
g4615
tp5091
a(g4627
I00
g4625
tp5092
a(g4637
I00
g4635
tp5093
a(g4647
I00
g4645
tp5094
a(g4657
I00
g4655
tp5095
a(g4667
I00
g4665
tp5096
a(g4677
I00
g4675
tp5097
a(g4687
I00
g4685
tp5098
aasbasbasbasbasbasbasbag57
(g73
g59
NtRp5099
(dp5100
g62
(dp5101
sg71
g4812
sg64
(lp5102
g57
(g78
g59
NtRp5103
(dp5104
g62
(dp5105
sg71
g5099
sg64
(lp5106
g57
(g58
g59
NtRp5107
(dp5108
g62
(dp5109
g70
I2
ssg71
g5103
sg64
(lp5110
g57
(g66
g59
NtRp5111
(dp5112
g62
(dp5113
g70
I1
ssg71
Nsg64
(lp5114
g57
(g73
g59
NtRp5115
(dp5116
g62
(dp5117
sg71
g5111
sg64
(lp5118
g57
(g78
g59
NtRp5119
(dp5120
g62
(dp5121
sg71
g5115
sg64
(lp5122
g57
(g58
g59
NtRp5123
(dp5124
g62
(dp5125
g70
I1
ssg71
g5119
sg64
(lp5126
g4698
asbasbasbag57
(g73
g59
NtRp5127
(dp5128
g62
(dp5129
sg71
g5111
sg64
(lp5130
g57
(g78
g59
NtRp5131
(dp5132
g62
(dp5133
sg71
g5127
sg64
(lp5134
g57
(g58
g59
NtRp5135
(dp5136
g62
(dp5137
g70
I1
ssg71
g5131
sg64
(lp5138
I00
asbasbasbag57
(g73
g59
NtRp5139
(dp5140
g62
(dp5141
sg71
g5111
sg64
(lp5142
g57
(g78
g59
NtRp5143
(dp5144
g62
(dp5145
sg71
g5139
sg64
(lp5146
g57
(g58
g59
NtRp5147
(dp5148
g62
(dp5149
g70
I1
ssg71
g5143
sg64
(lp5150
Nasbasbasbag57
(g73
g59
NtRp5151
(dp5152
g62
(dp5153
sg71
g5111
sg64
(lp5154
g57
(g78
g59
NtRp5155
(dp5156
g62
(dp5157
sg71
g5151
sg64
(lp5158
g57
(g58
g59
NtRp5159
(dp5160
g62
(dp5161
g70
I1
ssg71
g5155
sg64
(lp5162
(lp5163
(g4712
I00
g4710
tp5164
a(g4722
I00
g4720
tp5165
a(g4732
I00
g4730
tp5166
aasbasbasbasbasbasbasbag57
(g73
g59
NtRp5167
(dp5168
g62
(dp5169
sg71
g4812
sg64
(lp5170
g57
(g78
g59
NtRp5171
(dp5172
g62
(dp5173
sg71
g5167
sg64
(lp5174
g57
(g58
g59
NtRp5175
(dp5176
g62
(dp5177
g70
I2
ssg71
g5171
sg64
(lp5178
g57
(g66
g59
NtRp5179
(dp5180
g62
(dp5181
g70
I1
ssg71
Nsg64
(lp5182
g57
(g73
g59
NtRp5183
(dp5184
g62
(dp5185
sg71
g5179
sg64
(lp5186
g57
(g78
g59
NtRp5187
(dp5188
g62
(dp5189
sg71
g5183
sg64
(lp5190
g57
(g58
g59
NtRp5191
(dp5192
g62
(dp5193
g70
I1
ssg71
g5187
sg64
(lp5194
g4741
asbasbasbag57
(g73
g59
NtRp5195
(dp5196
g62
(dp5197
sg71
g5179
sg64
(lp5198
g57
(g78
g59
NtRp5199
(dp5200
g62
(dp5201
sg71
g5195
sg64
(lp5202
g57
(g58
g59
NtRp5203
(dp5204
g62
(dp5205
g70
I1
ssg71
g5199
sg64
(lp5206
I00
asbasbasbag57
(g73
g59
NtRp5207
(dp5208
g62
(dp5209
sg71
g5179
sg64
(lp5210
g57
(g78
g59
NtRp5211
(dp5212
g62
(dp5213
sg71
g5207
sg64
(lp5214
g57
(g58
g59
NtRp5215
(dp5216
g62
(dp5217
g70
I1
ssg71
g5211
sg64
(lp5218
Nasbasbasbag57
(g73
g59
NtRp5219
(dp5220
g62
(dp5221
sg71
g5179
sg64
(lp5222
g57
(g78
g59
NtRp5223
(dp5224
g62
(dp5225
sg71
g5219
sg64
(lp5226
g57
(g58
g59
NtRp5227
(dp5228
g62
(dp5229
g70
I1
ssg71
g5223
sg64
(lp5230
(lp5231
(g4755
I00
g4753
tp5232
a(g4764
I00
g4481
tp5233
a(g4773
I00
g4491
tp5234
aasbasbasbasbasbasbasbasbasbasbasbasbasbasbasbasbasbasbasbag57
(g73
g59
NtRp5235
(dp5236
g62
(dp5237
sg71
g3569
sg64
(lp5238
g57
(g78
g59
NtRp5239
(dp5240
g62
(dp5241
g82
g83
ssg71
g5235
sg64
(lp5242
S'meta'
p5243
asbag57
(g78
g59
NtRp5244
(dp5245
g62
(dp5246
g89
g90
ssg71
g5235
sg64
(lp5247
S':'
asbag57
(g78
g59
NtRp5248
(dp5249
g62
(dp5250
sg71
g5235
sg64
(lp5251
g57
(g58
g59
NtRp5252
(dp5253
g62
(dp5254
g70
I5
ssg71
g5248
sg64
(lp5255
g57
(g66
g59
NtRp5256
(dp5257
g62
(dp5258
g70
I4
ssg71
Nsg64
(lp5259
g57
(g73
g59
NtRp5260
(dp5261
g62
(dp5262
sg71
g5256
sg64
(lp5263
g57
(g78
g59
NtRp5264
(dp5265
g62
(dp5266
g82
g83
ssg71
g5260
sg64
(lp5267
S'author'
p5268
asbag57
(g78
g59
NtRp5269
(dp5270
g62
(dp5271
g89
g90
ssg71
g5260
sg64
(lp5272
S':'
asbag57
(g78
g59
NtRp5273
(dp5274
g62
(dp5275
sg71
g5260
sg64
(lp5276
g57
(g58
g59
NtRp5277
(dp5278
g62
(dp5279
g70
I4
ssg71
g5273
sg64
(lp5280
S'Your Name <you@example.com>'
p5281
asbasbasbag57
(g73
g59
NtRp5282
(dp5283
g62
(dp5284
sg71
g5256
sg64
(lp5285
g57
(g78
g59
NtRp5286
(dp5287
g62
(dp5288
g82
g83
ssg71
g5282
sg64
(lp5289
S'description'
p5290
asbag57
(g78
g59
NtRp5291
(dp5292
g62
(dp5293
g89
g90
ssg71
g5282
sg64
(lp5294
S':'
asbag57
(g78
g59
NtRp5295
(dp5296
g62
(dp5297
sg71
g5282
sg64
(lp5298
g57
(g58
g59
NtRp5299
(dp5300
g62
(dp5301
g70
I4
ssg71
g5295
sg64
(lp5302
S'a cool new app'
p5303
asbasbasbag57
(g73
g59
NtRp5304
(dp5305
g62
(dp5306
sg71
g5256
sg64
(lp5307
g57
(g78
g59
NtRp5308
(dp5309
g62
(dp5310
g82
g83
ssg71
g5304
sg64
(lp5311
S'generator'
p5312
asbag57
(g78
g59
NtRp5313
(dp5314
g62
(dp5315
g89
g90
ssg71
g5304
sg64
(lp5316
S':'
asbag57
(g78
g59
NtRp5317
(dp5318
g62
(dp5319
sg71
g5304
sg64
(lp5320
g57
(g58
g59
NtRp5321
(dp5322
g62
(dp5323
g70
I4
ssg71
g5317
sg64
(lp5324
S'Web2py Web Framework'
p5325
asbasbasbag57
(g73
g59
NtRp5326
(dp5327
g62
(dp5328
sg71
g5256
sg64
(lp5329
g57
(g78
g59
NtRp5330
(dp5331
g62
(dp5332
g82
g83
ssg71
g5326
sg64
(lp5333
S'keywords'
p5334
asbag57
(g78
g59
NtRp5335
(dp5336
g62
(dp5337
g89
g90
ssg71
g5326
sg64
(lp5338
S':'
asbag57
(g78
g59
NtRp5339
(dp5340
g62
(dp5341
sg71
g5326
sg64
(lp5342
g57
(g58
g59
NtRp5343
(dp5344
g62
(dp5345
g70
I4
ssg71
g5339
sg64
(lp5346
S'web2py, python, framework'
p5347
asbasbasbasbasbasbasbag57
(g73
g59
NtRp5348
(dp5349
g62
(dp5350
sg71
g3569
sg64
(lp5351
g57
(g78
g59
NtRp5352
(dp5353
g62
(dp5354
g82
g83
ssg71
g5348
sg64
(lp5355
S'models_to_run'
p5356
asbag57
(g78
g59
NtRp5357
(dp5358
g62
(dp5359
g89
g90
ssg71
g5348
sg64
(lp5360
S':'
asbag57
(g78
g59
NtRp5361
(dp5362
g62
(dp5363
sg71
g5348
sg64
(lp5364
g57
(g58
g59
NtRp5365
(dp5366
g62
(dp5367
g70
I5
ssg71
g5361
sg64
(lp5368
g57
(g66
g59
NtRp5369
(dp5370
g62
(dp5371
g70
I4
ssg71
Nsg64
(lp5372
g57
(g73
g59
NtRp5373
(dp5374
g62
(dp5375
sg71
g5369
sg64
(lp5376
g57
(g78
g59
NtRp5377
(dp5378
g62
(dp5379
sg71
g5373
sg64
(lp5380
g57
(g58
g59
NtRp5381
(dp5382
g62
(dp5383
g70
I4
ssg71
g5377
sg64
(lp5384
S'^\\w+\\.py$'
p5385
asbasbasbag57
(g73
g59
NtRp5386
(dp5387
g62
(dp5388
sg71
g5369
sg64
(lp5389
g57
(g78
g59
NtRp5390
(dp5391
g62
(dp5392
sg71
g5386
sg64
(lp5393
g57
(g58
g59
NtRp5394
(dp5395
g62
(dp5396
g70
I4
ssg71
g5390
sg64
(lp5397
S'^default/\\w+\\.py$'
p5398
asbasbasbag57
(g73
g59
NtRp5399
(dp5400
g62
(dp5401
sg71
g5369
sg64
(lp5402
g57
(g78
g59
NtRp5403
(dp5404
g62
(dp5405
sg71
g5399
sg64
(lp5406
g57
(g58
g59
NtRp5407
(dp5408
g62
(dp5409
g70
I4
ssg71
g5403
sg64
(lp5410
S'^default/list_workbook_charts/\\w+\\.py$'
p5411
asbasbasbasbasbasbasbag57
(g73
g59
NtRp5412
(dp5413
g62
(dp5414
sg71
g3569
sg64
(lp5415
g57
(g78
g59
NtRp5416
(dp5417
g62
(dp5418
g82
g83
ssg71
g5412
sg64
(lp5419
S'postprocessing'
p5420
asbag57
(g78
g59
NtRp5421
(dp5422
g62
(dp5423
g89
g90
ssg71
g5412
sg64
(lp5424
S':'
asbag57
(g78
g59
NtRp5425
(dp5426
g62
(dp5427
sg71
g5412
sg64
(lp5428
g57
(g58
g59
NtRp5429
(dp5430
g62
(dp5431
g70
I5
ssg71
g5425
sg64
(lp5432
g57
(g66
g59
NtRp5433
(dp5434
g62
(dp5435
g70
I4
ssg71
Nsg64
(lp5436
sbasbasbasbag57
(g73
g59
NtRp5437
(dp5438
g62
(dp5439
sg71
g3569
sg64
(lp5440
g57
(g78
g59
NtRp5441
(dp5442
g62
(dp5443
g82
g83
ssg71
g5437
sg64
(lp5444
S'session_cookie_expires'
p5445
asbag57
(g78
g59
NtRp5446
(dp5447
g62
(dp5448
g89
g90
ssg71
g5437
sg64
(lp5449
S':'
asbag57
(g78
g59
NtRp5450
(dp5451
g62
(dp5452
sg71
g5437
sg64
(lp5453
g57
(g58
g59
NtRp5454
(dp5455
g62
(dp5456
g70
I5
ssg71
g5450
sg64
(lp5457
S'None'
p5458
asbasbasbag57
(g73
g59
NtRp5459
(dp5460
g62
(dp5461
sg71
g3569
sg64
(lp5462
g57
(g78
g59
NtRp5463
(dp5464
g62
(dp5465
g82
g83
ssg71
g5459
sg64
(lp5466
S'session_data_name'
p5467
asbag57
(g78
g59
NtRp5468
(dp5469
g62
(dp5470
g89
g90
ssg71
g5459
sg64
(lp5471
S':'
asbag57
(g78
g59
NtRp5472
(dp5473
g62
(dp5474
sg71
g5459
sg64
(lp5475
g57
(g58
g59
NtRp5476
(dp5477
g62
(dp5478
g70
I5
ssg71
g5472
sg64
(lp5479
S'session_data_web2py_xlchart_dashboard'
p5480
asbasbasbag57
(g73
g59
NtRp5481
(dp5482
g62
(dp5483
sg71
g3569
sg64
(lp5484
g57
(g78
g59
NtRp5485
(dp5486
g62
(dp5487
g82
g83
ssg71
g5481
sg64
(lp5488
S'session_file'
p5489
asbag57
(g78
g59
NtRp5490
(dp5491
g62
(dp5492
g89
g90
ssg71
g5481
sg64
(lp5493
S':'
asbag57
(g78
g59
NtRp5494
(dp5495
g62
(dp5496
sg71
g5481
sg64
(lp5497
g57
(g58
g59
NtRp5498
(dp5499
g62
(dp5500
g70
I5
ssg71
g5494
sg64
(lp5501
S"<open file 'D:\\web2py\\source\\web2py\\applications\\web2py_xlchart_dashboard\\sessions\\127.0.0.1-44a3aeb7-c008-49d5-9b24-ee4003137a90', mode 'rb+' at 0x051AD390>"
p5502
asbasbasbag57
(g73
g59
NtRp5503
(dp5504
g62
(dp5505
sg71
g3569
sg64
(lp5506
g57
(g78
g59
NtRp5507
(dp5508
g62
(dp5509
g82
g83
ssg71
g5503
sg64
(lp5510
S'session_filename'
p5511
asbag57
(g78
g59
NtRp5512
(dp5513
g62
(dp5514
g89
g90
ssg71
g5503
sg64
(lp5515
S':'
asbag57
(g78
g59
NtRp5516
(dp5517
g62
(dp5518
sg71
g5503
sg64
(lp5519
g57
(g58
g59
NtRp5520
(dp5521
g62
(dp5522
g70
I5
ssg71
g5516
sg64
(lp5523
S'D:\\web2py\\source\\web2py\\applications\\web2py_xlchart_dashboard\\sessions\\127.0.0.1-44a3aeb7-c008-49d5-9b24-ee4003137a90'
p5524
asbasbasbag57
(g73
g59
NtRp5525
(dp5526
g62
(dp5527
sg71
g3569
sg64
(lp5528
g57
(g78
g59
NtRp5529
(dp5530
g62
(dp5531
g82
g83
ssg71
g5525
sg64
(lp5532
S'session_id'
p5533
asbag57
(g78
g59
NtRp5534
(dp5535
g62
(dp5536
g89
g90
ssg71
g5525
sg64
(lp5537
S':'
asbag57
(g78
g59
NtRp5538
(dp5539
g62
(dp5540
sg71
g5525
sg64
(lp5541
g57
(g58
g59
NtRp5542
(dp5543
g62
(dp5544
g70
I5
ssg71
g5538
sg64
(lp5545
g475
asbasbasbag57
(g73
g59
NtRp5546
(dp5547
g62
(dp5548
sg71
g3569
sg64
(lp5549
g57
(g78
g59
NtRp5550
(dp5551
g62
(dp5552
g82
g83
ssg71
g5546
sg64
(lp5553
S'session_id_name'
p5554
asbag57
(g78
g59
NtRp5555
(dp5556
g62
(dp5557
g89
g90
ssg71
g5546
sg64
(lp5558
S':'
asbag57
(g78
g59
NtRp5559
(dp5560
g62
(dp5561
sg71
g5546
sg64
(lp5562
g57
(g58
g59
NtRp5563
(dp5564
g62
(dp5565
g70
I5
ssg71
g5559
sg64
(lp5566
g3626
asbasbasbag57
(g73
g59
NtRp5567
(dp5568
g62
(dp5569
sg71
g3569
sg64
(lp5570
g57
(g78
g59
NtRp5571
(dp5572
g62
(dp5573
g82
g83
ssg71
g5567
sg64
(lp5574
S'session_locked'
p5575
asbag57
(g78
g59
NtRp5576
(dp5577
g62
(dp5578
g89
g90
ssg71
g5567
sg64
(lp5579
S':'
asbag57
(g78
g59
NtRp5580
(dp5581
g62
(dp5582
sg71
g5567
sg64
(lp5583
g57
(g58
g59
NtRp5584
(dp5585
g62
(dp5586
g70
I5
ssg71
g5580
sg64
(lp5587
g1606
asbasbasbag57
(g73
g59
NtRp5588
(dp5589
g62
(dp5590
sg71
g3569
sg64
(lp5591
g57
(g78
g59
NtRp5592
(dp5593
g62
(dp5594
g82
g83
ssg71
g5588
sg64
(lp5595
S'session_new'
p5596
asbag57
(g78
g59
NtRp5597
(dp5598
g62
(dp5599
g89
g90
ssg71
g5588
sg64
(lp5600
S':'
asbag57
(g78
g59
NtRp5601
(dp5602
g62
(dp5603
sg71
g5588
sg64
(lp5604
g57
(g58
g59
NtRp5605
(dp5606
g62
(dp5607
g70
I5
ssg71
g5601
sg64
(lp5608
g100
asbasbasbag57
(g73
g59
NtRp5609
(dp5610
g62
(dp5611
sg71
g3569
sg64
(lp5612
g57
(g78
g59
NtRp5613
(dp5614
g62
(dp5615
g82
g83
ssg71
g5609
sg64
(lp5616
S'session_storage_type'
p5617
asbag57
(g78
g59
NtRp5618
(dp5619
g62
(dp5620
g89
g90
ssg71
g5609
sg64
(lp5621
S':'
asbag57
(g78
g59
NtRp5622
(dp5623
g62
(dp5624
sg71
g5609
sg64
(lp5625
g57
(g58
g59
NtRp5626
(dp5627
g62
(dp5628
g70
I5
ssg71
g5622
sg64
(lp5629
g3099
asbasbasbag57
(g73
g59
NtRp5630
(dp5631
g62
(dp5632
sg71
g3569
sg64
(lp5633
g57
(g78
g59
NtRp5634
(dp5635
g62
(dp5636
g82
g83
ssg71
g5630
sg64
(lp5637
S'status'
p5638
asbag57
(g78
g59
NtRp5639
(dp5640
g62
(dp5641
g89
g90
ssg71
g5630
sg64
(lp5642
S':'
asbag57
(g78
g59
NtRp5643
(dp5644
g62
(dp5645
sg71
g5630
sg64
(lp5646
g57
(g58
g59
NtRp5647
(dp5648
g62
(dp5649
g70
I5
ssg71
g5643
sg64
(lp5650
S'200'
p5651
asbasbasbag57
(g73
g59
NtRp5652
(dp5653
g62
(dp5654
sg71
g3569
sg64
(lp5655
g57
(g78
g59
NtRp5656
(dp5657
g62
(dp5658
g82
g83
ssg71
g5652
sg64
(lp5659
S'subtitle'
p5660
asbag57
(g78
g59
NtRp5661
(dp5662
g62
(dp5663
g89
g90
ssg71
g5652
sg64
(lp5664
S':'
asbag57
(g78
g59
NtRp5665
(dp5666
g62
(dp5667
sg71
g5652
sg64
(lp5668
g57
(g58
g59
NtRp5669
(dp5670
g62
(dp5671
g70
I5
ssg71
g5665
sg64
(lp5672
g4163
(S's\r\x00\x00\x00customize me!'
tRp5673
asbasbasbag57
(g73
g59
NtRp5674
(dp5675
g62
(dp5676
sg71
g3569
sg64
(lp5677
g57
(g78
g59
NtRp5678
(dp5679
g62
(dp5680
g82
g83
ssg71
g5674
sg64
(lp5681
S'title'
p5682
asbag57
(g78
g59
NtRp5683
(dp5684
g62
(dp5685
g89
g90
ssg71
g5674
sg64
(lp5686
S':'
asbag57
(g78
g59
NtRp5687
(dp5688
g62
(dp5689
sg71
g5674
sg64
(lp5690
g57
(g58
g59
NtRp5691
(dp5692
g62
(dp5693
g70
I5
ssg71
g5687
sg64
(lp5694
S'Web2py Xlchart Dashboard'
p5695
asbasbasbag57
(g73
g59
NtRp5696
(dp5697
g62
(dp5698
sg71
g3569
sg64
(lp5699
g57
(g78
g59
NtRp5700
(dp5701
g62
(dp5702
g82
g83
ssg71
g5696
sg64
(lp5703
S'view'
p5704
asbag57
(g78
g59
NtRp5705
(dp5706
g62
(dp5707
g89
g90
ssg71
g5696
sg64
(lp5708
S':'
asbag57
(g78
g59
NtRp5709
(dp5710
g62
(dp5711
sg71
g5696
sg64
(lp5712
g57
(g58
g59
NtRp5713
(dp5714
g62
(dp5715
g70
I5
ssg71
g5709
sg64
(lp5716
S'default/list_workbook_charts.html'
p5717
asbasbasbasbasbsS'locals'
p5718
(dp5719
S'Service'
p5720
S"<class 'gluon.tools.Service'>"
p5721
sS'OBJECT'
p5722
S"<class 'gluon.html.OBJECT'>"
p5723
sS'SQLDB'
p5724
S"<class 'gluon.dal.DAL'>"
p5725
sg3152
S"<Storage {'last_query': 'db.chart.id>0', '_user_...login]': 'cef27ef1-6151-40e6-99d8-baa0d3265056'}>"
p5726
sS'LINK'
p5727
S"<class 'gluon.html.LINK'>"
p5728
sS'BR'
p5729
S"<class 'gluon.html.BR'>"
p5730
sS'local_import'
p5731
S'<function <lambda>>'
p5732
sS'OPTGROUP'
p5733
S"<class 'gluon.html.OPTGROUP'>"
p5734
sS'__package__'
p5735
S'None'
p5736
sS'PRE'
p5737
S"<class 'gluon.html.PRE'>"
p5738
sS'IS_INT_IN_RANGE'
p5739
S"<class 'gluon.validators.IS_INT_IN_RANGE'>"
p5740
sS'left_sidebar_enabled'
p5741
g100
sS'IS_LOWER'
p5742
S"<class 'gluon.validators.IS_LOWER'>"
p5743
sS'IS_STRONG'
p5744
S"<class 'gluon.validators.IS_STRONG'>"
p5745
sS'cache'
p5746
S'<gluon.cache.Cache object>'
p5747
sS'IS_IN_DB'
p5748
S"<class 'gluon.validators.IS_IN_DB'>"
p5749
sS'TAG'
p5750
S'<gluon.html.__TAG__ object>'
p5751
sS'SQLField'
p5752
S"<class 'gluon.dal.Field'>"
p5753
sS'mail'
p5754
S'<gluon.tools.Mail object>'
p5755
sS'BODY'
p5756
S"<class 'gluon.html.BODY'>"
p5757
sS'IS_DATE_IN_RANGE'
p5758
S"<class 'gluon.validators.IS_DATE_IN_RANGE'>"
p5759
sS'IFRAME'
p5760
S"<class 'gluon.html.IFRAME'>"
p5761
sS'URL'
p5762
S'<function URL>'
p5763
sS'__file__'
p5764
S"r'D:\\web2py\\source\\web2py\\applications\\web2py_xlch...dashboard\\views\\default/list_workbook_charts.html'"
p5765
sS'db'
p5766
S'<DAL uri="sqlite://storage.sqlite">'
p5767
sS'auth'
p5768
S'<gluon.tools.Auth object>'
p5769
sS'P'
S"<class 'gluon.html.P'>"
p5770
sS'TFOOT'
p5771
S"<class 'gluon.html.TFOOT'>"
p5772
sS'XHTML'
p5773
S"<class 'gluon.html.XHTML'>"
p5774
sS'ON'
p5775
g1606
sS'OL'
p5776
S"<class 'gluon.html.OL'>"
p5777
sS'TEXTAREA'
p5778
S"<class 'gluon.html.TEXTAREA'>"
p5779
sS'MENU'
p5780
S"<class 'gluon.html.MENU'>"
p5781
sS'chartfiles'
p5782
S"[{'chartimage': <gluon.html.A object>, 'divname': 'div1'}, {'chartimage': <gluon.html.A object>, 'divname': 'div2'}]"
p5783
sS'IS_IMAGE'
p5784
S"<class 'gluon.validators.IS_IMAGE'>"
p5785
sS'EM'
p5786
S"<class 'gluon.html.EM'>"
p5787
sS'CODE'
p5788
S"<class 'gluon.html.CODE'>"
p5789
sS'HTTP'
p5790
S"<class 'gluon.http.HTTP'>"
p5791
sS'HR'
p5792
S"<class 'gluon.html.HR'>"
p5793
sS'IS_DATETIME'
p5794
S"<class 'gluon.validators.IS_DATETIME'>"
p5795
sS'STYLE'
p5796
S"<class 'gluon.html.STYLE'>"
p5797
sS'LABEL'
p5798
S"<class 'gluon.html.LABEL'>"
p5799
sS'CLEANUP'
p5800
S"<class 'gluon.validators.CLEANUP'>"
p5801
sS'plugins'
p5802
S'<gluon.tools.PluginManager object>'
p5803
sS'SELECT'
p5804
S"<class 'gluon.html.SELECT'>"
p5805
sS'use_janrain'
p5806
S'<function use_janrain>'
p5807
sS'CENTER'
p5808
S"<class 'gluon.html.CENTER'>"
p5809
sS'prettydate'
p5810
S'<function prettydate>'
p5811
sS'Crud'
p5812
S"<class 'gluon.tools.Crud'>"
p5813
sS'Auth'
p5814
S"<class 'gluon.tools.Auth'>"
p5815
sS'__builtins__'
p5816
S"{'ArithmeticError': <type 'exceptions.ArithmeticError'>, 'AssertionError': <type 'exceptions.AssertionError'>, 'AttributeError': <type 'exceptions.AttributeError'>, 'BaseException': <type 'exceptions.BaseException'>, 'BufferError': <type 'exceptions.BufferError'>, 'BytesWarning': <type 'exceptions.BytesWarning'>, 'DeprecationWarning': <type 'exceptions.DeprecationWarning'>, 'EOFError': <type 'exceptions.EOFError'>, 'Ellipsis': Ellipsis, 'EnvironmentError': <type 'exceptions.EnvironmentError'>, ...}"
p5817
sS'HTML'
p5818
S"<class 'gluon.html.HTML'>"
p5819
sS'SQLFORM'
p5820
S"<class 'gluon.sqlhtml.SQLFORM'>"
p5821
sS'LOAD'
p5822
S'<function LOAD>'
p5823
sS'redirect'
p5824
S'<function redirect>'
p5825
sS'FIELDSET'
p5826
S"<class 'gluon.html.FIELDSET'>"
p5827
sS'IS_EQUAL_TO'
p5828
S"<class 'gluon.validators.IS_EQUAL_TO'>"
p5829
sS'embed64'
p5830
S'<function embed64>'
p5831
sS'IS_LIST_OF'
p5832
S"<class 'gluon.validators.IS_LIST_OF'>"
p5833
sS'INPUT'
p5834
S"<class 'gluon.html.INPUT'>"
p5835
sS'EMBED'
p5836
S"<class 'gluon.html.EMBED'>"
p5837
sS'_'
S'<function _>'
p5838
sS'H2'
p5839
S"<class 'gluon.html.H2'>"
p5840
sS'H3'
p5841
S"<class 'gluon.html.H3'>"
p5842
sS'BUTTON'
p5843
S"<class 'gluon.html.BUTTON'>"
p5844
sS'H1'
p5845
S"<class 'gluon.html.H1'>"
p5846
sS'H6'
p5847
S"<class 'gluon.html.H6'>"
p5848
sS'H4'
p5849
S"<class 'gluon.html.H4'>"
p5850
sS'H5'
p5851
S"<class 'gluon.html.H5'>"
p5852
sS'UL'
p5853
S"<class 'gluon.html.UL'>"
p5854
sS'IS_UPPER'
p5855
S"<class 'gluon.validators.IS_UPPER'>"
p5856
sS'xmlescape'
p5857
S'<function xmlescape>'
p5858
sS'IS_TIME'
p5859
S"<class 'gluon.validators.IS_TIME'>"
p5860
sS'OPTION'
p5861
S"<class 'gluon.html.OPTION'>"
p5862
sS'TITLE'
p5863
S"<class 'gluon.html.TITLE'>"
p5864
sS'CRYPT'
p5865
S"<class 'gluon.validators.CRYPT'>"
p5866
sS'IS_EMPTY_OR'
p5867
S"<class 'gluon.validators.IS_EMPTY_OR'>"
p5868
sS'MARKMIN'
p5869
S"<class 'gluon.html.MARKMIN'>"
p5870
sS'__name__'
p5871
S"'__restricted__'"
p5872
sS'STRONG'
p5873
S"<class 'gluon.html.STRONG'>"
p5874
sS'COL'
p5875
S"<class 'gluon.html.COL'>"
p5876
sS'service'
p5877
S'<gluon.tools.Service object>'
p5878
sS'SCRIPT'
p5879
S"<class 'gluon.html.SCRIPT'>"
p5880
sS'is_mobile'
p5881
g100
sS'TABLE'
p5882
S"<class 'gluon.html.TABLE'>"
p5883
sS'IS_IPV4'
p5884
S"<class 'gluon.validators.IS_IPV4'>"
p5885
sS'IS_LENGTH'
p5886
S"<class 'gluon.validators.IS_LENGTH'>"
p5887
sS'XML'
p5888
S"<class 'gluon.html.XML'>"
p5889
sS'B'
S"<class 'gluon.html.B'>"
p5890
sS'IMG'
p5891
S"<class 'gluon.html.IMG'>"
p5892
sS'SQLTABLE'
p5893
S"<class 'gluon.sqlhtml.SQLTABLE'>"
p5894
sS'IS_MATCH'
p5895
S"<class 'gluon.validators.IS_MATCH'>"
p5896
sS'IS_ALPHANUMERIC'
p5897
S"<class 'gluon.validators.IS_ALPHANUMERIC'>"
p5898
sS'SPAN'
p5899
S"<class 'gluon.html.SPAN'>"
p5900
sS'IS_SLUG'
p5901
S"<class 'gluon.validators.IS_SLUG'>"
p5902
sS'BEAUTIFY'
p5903
S"<class 'gluon.html.BEAUTIFY'>"
p5904
sS'META'
p5905
S"<class 'gluon.html.META'>"
p5906
sS'IS_DATE'
p5907
S"<class 'gluon.validators.IS_DATE'>"
p5908
sS'IS_EMAIL'
p5909
S"<class 'gluon.validators.IS_EMAIL'>"
p5910
sS'IS_NOT_EMPTY'
p5911
S"<class 'gluon.validators.IS_NOT_EMPTY'>"
p5912
sS'IS_FLOAT_IN_RANGE'
p5913
S"<class 'gluon.validators.IS_FLOAT_IN_RANGE'>"
p5914
sS'TBODY'
p5915
S"<class 'gluon.html.TBODY'>"
p5916
sS'CAT'
p5917
S"<class 'gluon.html.CAT'>"
p5918
sS'Field'
p5919
S"<class 'gluon.dal.Field'>"
p5920
sS'middle_columns'
p5921
S"'span12'"
p5922
sS'DIV'
p5923
S"<class 'gluon.html.DIV'>"
p5924
sS'LEGEND'
p5925
S"<class 'gluon.html.LEGEND'>"
p5926
sS'COLGROUP'
p5927
S"<class 'gluon.html.COLGROUP'>"
p5928
sS'DAL'
p5929
S"<class 'gluon.dal.DAL'>"
p5930
sS'TT'
p5931
S"<class 'gluon.html.TT'>"
p5932
sS'TR'
p5933
S"<class 'gluon.html.TR'>"
p5934
sS'LI'
p5935
S"<class 'gluon.html.LI'>"
p5936
sS'right_sidebar_enabled'
p5937
g100
sS'TH'
p5938
S"<class 'gluon.html.TH'>"
p5939
sS'TD'
p5940
S"<class 'gluon.html.TD'>"
p5941
sS'PluginManager'
p5942
S"<class 'gluon.tools.PluginManager'>"
p5943
sS'IS_URL'
p5944
S"<class 'gluon.validators.IS_URL'>"
p5945
sS'A'
S"<class 'gluon.html.A'>"
p5946
sS'HEAD'
p5947
S"<class 'gluon.html.HEAD'>"
p5948
sS'IS_DATETIME_IN_RANGE'
p5949
S"<class 'gluon.validators.IS_DATETIME_IN_RANGE'>"
p5950
sS'FORM'
p5951
S"<class 'gluon.html.FORM'>"
p5952
sS'I'
S"<class 'gluon.html.I'>"
p5953
sS'crud'
p5954
S'<gluon.tools.Crud object>'
p5955
sS'IS_NOT_IN_DB'
p5956
S"<class 'gluon.validators.IS_NOT_IN_DB'>"
p5957
sS'chartfile'
p5958
S"{'chartimage': <gluon.html.A object>, 'divname': 'div1'}"
p5959
sg3564
S"<Storage {'body': <cStringIO.StringO object at 0...0>, 'view': 'default/list_workbook_charts.html'}>"
p5960
sS'THEAD'
p5961
S"<class 'gluon.html.THEAD'>"
p5962
sS'IS_NULL_OR'
p5963
S"<class 'gluon.validators.IS_EMPTY_OR'>"
p5964
sg56
S"<Storage {'function': 'list_workbook_charts', 'b...xlchart_dashboard\\\\', 'post_vars': <Storage {}>}>"
p5965
sS'IS_EXPR'
p5966
S"<class 'gluon.validators.IS_EXPR'>"
p5967
sS'T'
S'<gluon.languages.translator object>'
p5968
sS'IS_IN_SET'
p5969
S"<class 'gluon.validators.IS_IN_SET'>"
p5970
sS'IS_UPLOAD_FILENAME'
p5971
S"<class 'gluon.validators.IS_UPLOAD_FILENAME'>"
p5972
sS'checkchartindb'
p5973
S'<function checkchartindb>'
p5974
sS'IS_DECIMAL_IN_RANGE'
p5975
S"<class 'gluon.validators.IS_DECIMAL_IN_RANGE'>"
p5976
sssS'traceback'
p5977
S'Traceback (most recent call last):\n  File "D:\\web2py\\source\\web2py\\gluon\\restricted.py", line 212, in restricted\n    exec ccode in environment\n  File "D:\\web2py\\source\\web2py\\applications\\web2py_xlchart_dashboard\\views\\default/list_workbook_charts.html", line 85, in <module>\nKeyError: \'chartname\'\n'
p5978
s.