(dp1
S'output'
p2
S'<class \'sqlite3.OperationalError\'> near " ": syntax error'
p3
sS'layer'
p4
S'D:\\web2py\\source\\web2py\\applications\\web2py_xlchart_dashboard\\controllers/dashboard.py'
p5
sS'code'
p6
S'# coding: utf8\n# try something like\ndef component(text):\n    return text\n    \ndef index(): \n    return auth.wiki()\n    \n@auth.requires_login()\ndef manage_dashboard():\n    dash_data = db(db.dashboard.id_user == auth.user_id).select(db.dashboard.ALL)\n    return dict(dash_data = dash_data)\n\n@auth.requires_login()   \ndef view_dashboard():\n    dashboard = db.dashboard(request.vars[\'dbid\'])\n    sections = db(db.dashboard_section.id_dashboard == request.vars[\'dbid\']).select(db.dashboard_section.ALL)\n    return dict(sections = sections,dashboard_title = dashboard.title)\n    \ndef get_chart(id):\n    return id\n\n@auth.requires_login()    \ndef add_dashboard():\n    form = SQLFORM(db.dashboard,Fields=(\'name\',\'title\',\'description\'))\n    if form.process().accepted:\n        response.flash = "Dashboard Created"\n        redirect(URL(\'manage_dashboard\'))\n    elif form.errors:\n        response.flash = "There were errors in the form"\n    else:\n        response.flash = "Please complete the form."\n    return dict(form = form)\n\n@auth.requires_login()\ndef add_section():\n    form = SQLFORM(db.dashboard_section,Fields=(\'title\'),hidden=dict(id_dashboard=request.vars[\'dbid\']))\n    form.vars.id_dashboard = request.vars[\'dbid\']\n    if form.process().accepted:\n        response.flash = "Section Created"\n        redirect(URL(\'manage_dashboard\'))\n    elif form.errors:\n        response.flash = "There were errors in the form"\n    else:\n        response.flash = "Please complete the form."\n    return form\n\n@auth.requires_login()\ndef delete_section():\n    form = FORM.confirm(\'Yes Delete\',{"No, DON\'T Delete":URL(\'manage_dashboard\')})\n    if form.accepted:\n        response.flash = "Form Accepted"\n        db(db.dashboard_section.id == request.vars[\'sid\']).delete()\n        redirect(URL(\'manage_dashboard\'),client_side=True)\n    return form\n\n@auth.requires_login()\ndef select_charts():\n    chartlist = ""\n    for charts in db(db.user_chart.id_user == auth.user_id).select(db.user_chart.ALL):\n       \n        chartlist += str(A(IMG(_src=URL(\'download\',args=charts.id_chart.file),_class=\'select_chart\'),_href=URL(\'add_chart_to_section\',vars={\'sid\':request.vars[\'sid\'],\'cid\':charts.id_chart.id})))\n    \n    return chartlist\n\n@auth.requires_login()    \ndef add_chart_to_section():\n    sid = request.vars[\'sid\']\n    cid = request.vars[\'cid\']\n    if db.section_charts.insert(id_section = sid, chart = cid):\n        response.flash = "Chart Added to section"\n    else:\n        response.flash = "Error: Unable to add chart to section"\n    redirect(URL(\'manage_dashboard\'))\n\n@auth.requires_login()   \ndef edit_chart():\n    record = db.section_charts(request.vars[\'scid\'])\n    form = SQLFORM(db.section_charts,record,Fields=(\'title\',\'description\',\'width\',\'position\'),deletable=True,hidden=dict(oldposition=record.position,id_section=request.vars[\'sid\']))\n    \n    if form.process(onvalidation=change_img_position).accepted:\n        response.flash = "Chart Updated"\n        redirect(URL(\'manage_dashboard\'),client_side=True)\n    elif form.errors:\n        response.flash = "The forms has errors"\n    else:\n        response.flash = "Please complete the form"\n    return form\n\ndef change_img_position(form):\n    print request.vars[\'oldposition\'], form.vars[\'position\']\n    if request.vars[\'oldposition\'] != form.vars[\'position\']:\n        print request.vars\n        sql = "select position from section_charts where id_section = " + str(request.vars.id_section)\n        chartpos = db.executesql(sql)\n        print sql\n        print chartpos\n        #sql = "update section_charts set position = position + 1 where id_section = form.vars[\'id_section\'] and position >= " + str(form.vars[\'position\'])\n        #db.executesql(sql)\n    \n    \n@auth.requires_login() \ndef delete_chart():\n    form = FORM.confirm(\'Yes Delete\',{"No, DON\'T Delete":URL(\'manage_dashboard\')})\n    if form.accepted:\n        response.flash = "Form Accepted"\n        db(db.section_charts.id == request.vars[\'sid\']).delete()\n        redirect(URL(\'manage_dashboard\'),client_side=True)\n    return form\n\n@auth.requires_login() \ndef edit_section():\n    sid = request.vars[\'sid\']\n    section = db.dashboard_section(sid)\n    form = SQLFORM(db.dashboard_section,section)\n    if form.process().accepted:\n        response.flash = "Section updated"\n        redirect(URL(\'manage_dashboard\'),client_side=True)\n    elif form.errors:\n        response.flash = "There were errors in the form"\n    else:\n        response.flash = "Use the form to edit this section"\n    return form\n               \n@auth.requires_login()        \ndef download():\n    return response.download(request, db)\n\nresponse._vars=response._caller(edit_chart)\n'
p7
sS'snapshot'
p8
(dp9
S'exception'
p10
(dp11
S'__module__'
p12
S"'sqlite3'"
p13
sS'__getslice__'
p14
S"<method-wrapper '__getslice__' of OperationalError object>"
p15
sS'__str__'
p16
S"<method-wrapper '__str__' of OperationalError object>"
p17
sS'__reduce__'
p18
S'<built-in method __reduce__ of OperationalError object>'
p19
sS'__dict__'
p20
S'{}'
p21
sS'__sizeof__'
p22
S'<built-in method __sizeof__ of OperationalError object>'
p23
sS'__weakref__'
p24
S'None'
p25
sS'__init__'
p26
S"<method-wrapper '__init__' of OperationalError object>"
p27
sS'__setattr__'
p28
S"<method-wrapper '__setattr__' of OperationalError object>"
p29
sS'__reduce_ex__'
p30
S'<built-in method __reduce_ex__ of OperationalError object>'
p31
sS'__new__'
p32
S'<built-in method __new__ of type object>'
p33
sS'__format__'
p34
S'<built-in method __format__ of OperationalError object>'
p35
sS'__class__'
p36
S"<class 'sqlite3.OperationalError'>"
p37
sS'__doc__'
p38
S'None'
p39
sS'__getitem__'
p40
S"<method-wrapper '__getitem__' of OperationalError object>"
p41
sS'__setstate__'
p42
S'<built-in method __setstate__ of OperationalError object>'
p43
sS'__getattribute__'
p44
S"<method-wrapper '__getattribute__' of OperationalError object>"
p45
sS'args'
p46
S'(\'near " ": syntax error\',)'
p47
sS'__subclasshook__'
p48
S'<built-in method __subclasshook__ of type object>'
p49
sS'__unicode__'
p50
S'<built-in method __unicode__ of OperationalError object>'
p51
sS'__delattr__'
p52
S"<method-wrapper '__delattr__' of OperationalError object>"
p53
sS'__repr__'
p54
S"<method-wrapper '__repr__' of OperationalError object>"
p55
sS'__hash__'
p56
S"<method-wrapper '__hash__' of OperationalError object>"
p57
ssS'evalue'
p58
S'near " ": syntax error'
p59
sS'request'
p60
ccopy_reg
_reconstructor
p61
(cgluon.html
BEAUTIFY
p62
c__builtin__
object
p63
NtRp64
(dp65
S'attributes'
p66
(dp67
sS'components'
p68
(lp69
g61
(cgluon.html
TABLE
p70
g63
NtRp71
(dp72
g66
(dp73
S'level'
p74
I5
ssS'parent'
p75
Nsg68
(lp76
g61
(cgluon.html
TR
p77
g63
NtRp78
(dp79
g66
(dp80
sg75
g71
sg68
(lp81
g61
(cgluon.html
TD
p82
g63
NtRp83
(dp84
g66
(dp85
S'_style'
p86
S'font-weight:bold;vertical-align:top'
p87
ssg75
g78
sg68
(lp88
S'ajax'
p89
asbag61
(g82
g63
NtRp90
(dp91
g66
(dp92
S'_valign'
p93
S'top'
p94
ssg75
g78
sg68
(lp95
S':'
asbag61
(g82
g63
NtRp96
(dp97
g66
(dp98
sg75
g78
sg68
(lp99
g61
(g62
g63
NtRp100
(dp101
g66
(dp102
g74
I5
ssg75
g96
sg68
(lp103
S'True'
p104
asbasbasbag61
(g77
g63
NtRp105
(dp106
g66
(dp107
sg75
g71
sg68
(lp108
g61
(g82
g63
NtRp109
(dp110
g66
(dp111
g86
g87
ssg75
g105
sg68
(lp112
S'application'
p113
asbag61
(g82
g63
NtRp114
(dp115
g66
(dp116
g93
g94
ssg75
g105
sg68
(lp117
S':'
asbag61
(g82
g63
NtRp118
(dp119
g66
(dp120
sg75
g105
sg68
(lp121
g61
(g62
g63
NtRp122
(dp123
g66
(dp124
g74
I5
ssg75
g118
sg68
(lp125
S'web2py_xlchart_dashboard'
p126
asbasbasbag61
(g77
g63
NtRp127
(dp128
g66
(dp129
sg75
g71
sg68
(lp130
g61
(g82
g63
NtRp131
(dp132
g66
(dp133
g86
g87
ssg75
g127
sg68
(lp134
g46
asbag61
(g82
g63
NtRp135
(dp136
g66
(dp137
g93
g94
ssg75
g127
sg68
(lp138
S':'
asbag61
(g82
g63
NtRp139
(dp140
g66
(dp141
sg75
g127
sg68
(lp142
g61
(g62
g63
NtRp143
(dp144
g66
(dp145
g74
I5
ssg75
g139
sg68
(lp146
g61
(g70
g63
NtRp147
(dp148
g66
(dp149
g74
I4
ssg75
Nsg68
(lp150
sbasbasbasbag61
(g77
g63
NtRp151
(dp152
g66
(dp153
sg75
g71
sg68
(lp154
g61
(g82
g63
NtRp155
(dp156
g66
(dp157
g86
g87
ssg75
g151
sg68
(lp158
S'body'
p159
asbag61
(g82
g63
NtRp160
(dp161
g66
(dp162
g93
g94
ssg75
g151
sg68
(lp163
S':'
asbag61
(g82
g63
NtRp164
(dp165
g66
(dp166
sg75
g151
sg68
(lp167
g61
(g62
g63
NtRp168
(dp169
g66
(dp170
g74
I5
ssg75
g164
sg68
(lp171
S"<open file '<fdopen>', mode 'w+b' at 0x054B9128>"
p172
asbasbasbag61
(g77
g63
NtRp173
(dp174
g66
(dp175
sg75
g71
sg68
(lp176
g61
(g82
g63
NtRp177
(dp178
g66
(dp179
g86
g87
ssg75
g173
sg68
(lp180
S'cid'
p181
asbag61
(g82
g63
NtRp182
(dp183
g66
(dp184
g93
g94
ssg75
g173
sg68
(lp185
S':'
asbag61
(g82
g63
NtRp186
(dp187
g66
(dp188
sg75
g173
sg68
(lp189
g61
(g62
g63
NtRp190
(dp191
g66
(dp192
g74
I5
ssg75
g186
sg68
(lp193
S'modal-dialog'
p194
asbasbasbag61
(g77
g63
NtRp195
(dp196
g66
(dp197
sg75
g71
sg68
(lp198
g61
(g82
g63
NtRp199
(dp200
g66
(dp201
g86
g87
ssg75
g195
sg68
(lp202
S'client'
p203
asbag61
(g82
g63
NtRp204
(dp205
g66
(dp206
g93
g94
ssg75
g195
sg68
(lp207
S':'
asbag61
(g82
g63
NtRp208
(dp209
g66
(dp210
sg75
g195
sg68
(lp211
g61
(g62
g63
NtRp212
(dp213
g66
(dp214
g74
I5
ssg75
g208
sg68
(lp215
S'127.0.0.1'
p216
asbasbasbag61
(g77
g63
NtRp217
(dp218
g66
(dp219
sg75
g71
sg68
(lp220
g61
(g82
g63
NtRp221
(dp222
g66
(dp223
g86
g87
ssg75
g217
sg68
(lp224
S'controller'
p225
asbag61
(g82
g63
NtRp226
(dp227
g66
(dp228
g93
g94
ssg75
g217
sg68
(lp229
S':'
asbag61
(g82
g63
NtRp230
(dp231
g66
(dp232
sg75
g217
sg68
(lp233
g61
(g62
g63
NtRp234
(dp235
g66
(dp236
g74
I5
ssg75
g230
sg68
(lp237
S'dashboard'
p238
asbasbasbag61
(g77
g63
NtRp239
(dp240
g66
(dp241
sg75
g71
sg68
(lp242
g61
(g82
g63
NtRp243
(dp244
g66
(dp245
g86
g87
ssg75
g239
sg68
(lp246
S'cookies'
p247
asbag61
(g82
g63
NtRp248
(dp249
g66
(dp250
g93
g94
ssg75
g239
sg68
(lp251
S':'
asbag61
(g82
g63
NtRp252
(dp253
g66
(dp254
sg75
g239
sg68
(lp255
g61
(g62
g63
NtRp256
(dp257
g66
(dp258
g74
I5
ssg75
g252
sg68
(lp259
g61
(g70
g63
NtRp260
(dp261
g66
(dp262
g74
I4
ssg75
Nsg68
(lp263
g61
(g77
g63
NtRp264
(dp265
g66
(dp266
sg75
g260
sg68
(lp267
g61
(g82
g63
NtRp268
(dp269
g66
(dp270
g86
g87
ssg75
g264
sg68
(lp271
S'session_id_admin'
p272
asbag61
(g82
g63
NtRp273
(dp274
g66
(dp275
g93
g94
ssg75
g264
sg68
(lp276
S':'
asbag61
(g82
g63
NtRp277
(dp278
g66
(dp279
sg75
g264
sg68
(lp280
g61
(g62
g63
NtRp281
(dp282
g66
(dp283
g74
I4
ssg75
g277
sg68
(lp284
S'127.0.0.1-1f3c03e3-a1b8-4366-b3f1-e1eecca8cdee'
p285
ag61
(g70
g63
NtRp286
(dp287
g66
(dp288
g74
I3
ssg75
Nsg68
(lp289
g61
(g77
g63
NtRp290
(dp291
g66
(dp292
sg75
g286
sg68
(lp293
g61
(g82
g63
NtRp294
(dp295
g66
(dp296
g86
g87
ssg75
g290
sg68
(lp297
S'comment'
p298
asbag61
(g82
g63
NtRp299
(dp300
g66
(dp301
g93
g94
ssg75
g290
sg68
(lp302
S':'
asbag61
(g82
g63
NtRp303
(dp304
g66
(dp305
sg75
g290
sg68
(lp306
g61
(g62
g63
NtRp307
(dp308
g66
(dp309
g74
I3
ssg75
g303
sg68
(lp310
S''
asbasbasbag61
(g77
g63
NtRp311
(dp312
g66
(dp313
sg75
g286
sg68
(lp314
g61
(g82
g63
NtRp315
(dp316
g66
(dp317
g86
g87
ssg75
g311
sg68
(lp318
S'domain'
p319
asbag61
(g82
g63
NtRp320
(dp321
g66
(dp322
g93
g94
ssg75
g311
sg68
(lp323
S':'
asbag61
(g82
g63
NtRp324
(dp325
g66
(dp326
sg75
g311
sg68
(lp327
g61
(g62
g63
NtRp328
(dp329
g66
(dp330
g74
I3
ssg75
g324
sg68
(lp331
S''
asbasbasbag61
(g77
g63
NtRp332
(dp333
g66
(dp334
sg75
g286
sg68
(lp335
g61
(g82
g63
NtRp336
(dp337
g66
(dp338
g86
g87
ssg75
g332
sg68
(lp339
S'expires'
p340
asbag61
(g82
g63
NtRp341
(dp342
g66
(dp343
g93
g94
ssg75
g332
sg68
(lp344
S':'
asbag61
(g82
g63
NtRp345
(dp346
g66
(dp347
sg75
g332
sg68
(lp348
g61
(g62
g63
NtRp349
(dp350
g66
(dp351
g74
I3
ssg75
g345
sg68
(lp352
S''
asbasbasbag61
(g77
g63
NtRp353
(dp354
g66
(dp355
sg75
g286
sg68
(lp356
g61
(g82
g63
NtRp357
(dp358
g66
(dp359
g86
g87
ssg75
g353
sg68
(lp360
S'httponly'
p361
asbag61
(g82
g63
NtRp362
(dp363
g66
(dp364
g93
g94
ssg75
g353
sg68
(lp365
S':'
asbag61
(g82
g63
NtRp366
(dp367
g66
(dp368
sg75
g353
sg68
(lp369
g61
(g62
g63
NtRp370
(dp371
g66
(dp372
g74
I3
ssg75
g366
sg68
(lp373
S''
asbasbasbag61
(g77
g63
NtRp374
(dp375
g66
(dp376
sg75
g286
sg68
(lp377
g61
(g82
g63
NtRp378
(dp379
g66
(dp380
g86
g87
ssg75
g374
sg68
(lp381
S'max-age'
p382
asbag61
(g82
g63
NtRp383
(dp384
g66
(dp385
g93
g94
ssg75
g374
sg68
(lp386
S':'
asbag61
(g82
g63
NtRp387
(dp388
g66
(dp389
sg75
g374
sg68
(lp390
g61
(g62
g63
NtRp391
(dp392
g66
(dp393
g74
I3
ssg75
g387
sg68
(lp394
S''
asbasbasbag61
(g77
g63
NtRp395
(dp396
g66
(dp397
sg75
g286
sg68
(lp398
g61
(g82
g63
NtRp399
(dp400
g66
(dp401
g86
g87
ssg75
g395
sg68
(lp402
S'path'
p403
asbag61
(g82
g63
NtRp404
(dp405
g66
(dp406
g93
g94
ssg75
g395
sg68
(lp407
S':'
asbag61
(g82
g63
NtRp408
(dp409
g66
(dp410
sg75
g395
sg68
(lp411
g61
(g62
g63
NtRp412
(dp413
g66
(dp414
g74
I3
ssg75
g408
sg68
(lp415
S''
asbasbasbag61
(g77
g63
NtRp416
(dp417
g66
(dp418
sg75
g286
sg68
(lp419
g61
(g82
g63
NtRp420
(dp421
g66
(dp422
g86
g87
ssg75
g416
sg68
(lp423
S'secure'
p424
asbag61
(g82
g63
NtRp425
(dp426
g66
(dp427
g93
g94
ssg75
g416
sg68
(lp428
S':'
asbag61
(g82
g63
NtRp429
(dp430
g66
(dp431
sg75
g416
sg68
(lp432
g61
(g62
g63
NtRp433
(dp434
g66
(dp435
g74
I3
ssg75
g429
sg68
(lp436
S''
asbasbasbag61
(g77
g63
NtRp437
(dp438
g66
(dp439
sg75
g286
sg68
(lp440
g61
(g82
g63
NtRp441
(dp442
g66
(dp443
g86
g87
ssg75
g437
sg68
(lp444
S'version'
p445
asbag61
(g82
g63
NtRp446
(dp447
g66
(dp448
g93
g94
ssg75
g437
sg68
(lp449
S':'
asbag61
(g82
g63
NtRp450
(dp451
g66
(dp452
sg75
g437
sg68
(lp453
g61
(g62
g63
NtRp454
(dp455
g66
(dp456
g74
I3
ssg75
g450
sg68
(lp457
S''
asbasbasbasbasbasbasbag61
(g77
g63
NtRp458
(dp459
g66
(dp460
sg75
g260
sg68
(lp461
g61
(g82
g63
NtRp462
(dp463
g66
(dp464
g86
g87
ssg75
g458
sg68
(lp465
S'session_id_web2py_xlchart_dashboard'
p466
asbag61
(g82
g63
NtRp467
(dp468
g66
(dp469
g93
g94
ssg75
g458
sg68
(lp470
S':'
asbag61
(g82
g63
NtRp471
(dp472
g66
(dp473
sg75
g458
sg68
(lp474
g61
(g62
g63
NtRp475
(dp476
g66
(dp477
g74
I4
ssg75
g471
sg68
(lp478
S'127.0.0.1-fdf175eb-d99c-42dc-806f-28e6c18b9b0d'
p479
ag61
(g70
g63
NtRp480
(dp481
g66
(dp482
g74
I3
ssg75
Nsg68
(lp483
g61
(g77
g63
NtRp484
(dp485
g66
(dp486
sg75
g480
sg68
(lp487
g61
(g82
g63
NtRp488
(dp489
g66
(dp490
g86
g87
ssg75
g484
sg68
(lp491
g298
asbag61
(g82
g63
NtRp492
(dp493
g66
(dp494
g93
g94
ssg75
g484
sg68
(lp495
S':'
asbag61
(g82
g63
NtRp496
(dp497
g66
(dp498
sg75
g484
sg68
(lp499
g61
(g62
g63
NtRp500
(dp501
g66
(dp502
g74
I3
ssg75
g496
sg68
(lp503
S''
asbasbasbag61
(g77
g63
NtRp504
(dp505
g66
(dp506
sg75
g480
sg68
(lp507
g61
(g82
g63
NtRp508
(dp509
g66
(dp510
g86
g87
ssg75
g504
sg68
(lp511
g319
asbag61
(g82
g63
NtRp512
(dp513
g66
(dp514
g93
g94
ssg75
g504
sg68
(lp515
S':'
asbag61
(g82
g63
NtRp516
(dp517
g66
(dp518
sg75
g504
sg68
(lp519
g61
(g62
g63
NtRp520
(dp521
g66
(dp522
g74
I3
ssg75
g516
sg68
(lp523
S''
asbasbasbag61
(g77
g63
NtRp524
(dp525
g66
(dp526
sg75
g480
sg68
(lp527
g61
(g82
g63
NtRp528
(dp529
g66
(dp530
g86
g87
ssg75
g524
sg68
(lp531
g340
asbag61
(g82
g63
NtRp532
(dp533
g66
(dp534
g93
g94
ssg75
g524
sg68
(lp535
S':'
asbag61
(g82
g63
NtRp536
(dp537
g66
(dp538
sg75
g524
sg68
(lp539
g61
(g62
g63
NtRp540
(dp541
g66
(dp542
g74
I3
ssg75
g536
sg68
(lp543
S''
asbasbasbag61
(g77
g63
NtRp544
(dp545
g66
(dp546
sg75
g480
sg68
(lp547
g61
(g82
g63
NtRp548
(dp549
g66
(dp550
g86
g87
ssg75
g544
sg68
(lp551
g361
asbag61
(g82
g63
NtRp552
(dp553
g66
(dp554
g93
g94
ssg75
g544
sg68
(lp555
S':'
asbag61
(g82
g63
NtRp556
(dp557
g66
(dp558
sg75
g544
sg68
(lp559
g61
(g62
g63
NtRp560
(dp561
g66
(dp562
g74
I3
ssg75
g556
sg68
(lp563
S''
asbasbasbag61
(g77
g63
NtRp564
(dp565
g66
(dp566
sg75
g480
sg68
(lp567
g61
(g82
g63
NtRp568
(dp569
g66
(dp570
g86
g87
ssg75
g564
sg68
(lp571
g382
asbag61
(g82
g63
NtRp572
(dp573
g66
(dp574
g93
g94
ssg75
g564
sg68
(lp575
S':'
asbag61
(g82
g63
NtRp576
(dp577
g66
(dp578
sg75
g564
sg68
(lp579
g61
(g62
g63
NtRp580
(dp581
g66
(dp582
g74
I3
ssg75
g576
sg68
(lp583
S''
asbasbasbag61
(g77
g63
NtRp584
(dp585
g66
(dp586
sg75
g480
sg68
(lp587
g61
(g82
g63
NtRp588
(dp589
g66
(dp590
g86
g87
ssg75
g584
sg68
(lp591
g403
asbag61
(g82
g63
NtRp592
(dp593
g66
(dp594
g93
g94
ssg75
g584
sg68
(lp595
S':'
asbag61
(g82
g63
NtRp596
(dp597
g66
(dp598
sg75
g584
sg68
(lp599
g61
(g62
g63
NtRp600
(dp601
g66
(dp602
g74
I3
ssg75
g596
sg68
(lp603
S''
asbasbasbag61
(g77
g63
NtRp604
(dp605
g66
(dp606
sg75
g480
sg68
(lp607
g61
(g82
g63
NtRp608
(dp609
g66
(dp610
g86
g87
ssg75
g604
sg68
(lp611
g424
asbag61
(g82
g63
NtRp612
(dp613
g66
(dp614
g93
g94
ssg75
g604
sg68
(lp615
S':'
asbag61
(g82
g63
NtRp616
(dp617
g66
(dp618
sg75
g604
sg68
(lp619
g61
(g62
g63
NtRp620
(dp621
g66
(dp622
g74
I3
ssg75
g616
sg68
(lp623
S''
asbasbasbag61
(g77
g63
NtRp624
(dp625
g66
(dp626
sg75
g480
sg68
(lp627
g61
(g82
g63
NtRp628
(dp629
g66
(dp630
g86
g87
ssg75
g624
sg68
(lp631
g445
asbag61
(g82
g63
NtRp632
(dp633
g66
(dp634
g93
g94
ssg75
g624
sg68
(lp635
S':'
asbag61
(g82
g63
NtRp636
(dp637
g66
(dp638
sg75
g624
sg68
(lp639
g61
(g62
g63
NtRp640
(dp641
g66
(dp642
g74
I3
ssg75
g636
sg68
(lp643
S''
asbasbasbasbasbasbasbasbasbasbasbag61
(g77
g63
NtRp644
(dp645
g66
(dp646
sg75
g71
sg68
(lp647
g61
(g82
g63
NtRp648
(dp649
g66
(dp650
g86
g87
ssg75
g644
sg68
(lp651
S'env'
p652
asbag61
(g82
g63
NtRp653
(dp654
g66
(dp655
g93
g94
ssg75
g644
sg68
(lp656
S':'
asbag61
(g82
g63
NtRp657
(dp658
g66
(dp659
sg75
g644
sg68
(lp660
g61
(g62
g63
NtRp661
(dp662
g66
(dp663
g74
I5
ssg75
g657
sg68
(lp664
g61
(g70
g63
NtRp665
(dp666
g66
(dp667
g74
I4
ssg75
Nsg68
(lp668
g61
(g77
g63
NtRp669
(dp670
g66
(dp671
sg75
g665
sg68
(lp672
g61
(g82
g63
NtRp673
(dp674
g66
(dp675
g86
g87
ssg75
g669
sg68
(lp676
S'app_folders'
p677
asbag61
(g82
g63
NtRp678
(dp679
g66
(dp680
g93
g94
ssg75
g669
sg68
(lp681
S':'
asbag61
(g82
g63
NtRp682
(dp683
g66
(dp684
sg75
g669
sg68
(lp685
g61
(g62
g63
NtRp686
(dp687
g66
(dp688
g74
I4
ssg75
g682
sg68
(lp689
S"set(['D:\\\\web2py\\\\source\\\\web2py\\\\applications\\\\admin\\\\', 'D:\\\\web2py\\\\source\\\\web2py\\\\applications\\\\web2py_xlchart_dashboard\\\\'])"
p690
asbasbasbag61
(g77
g63
NtRp691
(dp692
g66
(dp693
sg75
g665
sg68
(lp694
g61
(g82
g63
NtRp695
(dp696
g66
(dp697
g86
g87
ssg75
g691
sg68
(lp698
S'applications_parent'
p699
asbag61
(g82
g63
NtRp700
(dp701
g66
(dp702
g93
g94
ssg75
g691
sg68
(lp703
S':'
asbag61
(g82
g63
NtRp704
(dp705
g66
(dp706
sg75
g691
sg68
(lp707
g61
(g62
g63
NtRp708
(dp709
g66
(dp710
g74
I4
ssg75
g704
sg68
(lp711
S'D:\\web2py\\source\\web2py'
p712
asbasbasbag61
(g77
g63
NtRp713
(dp714
g66
(dp715
sg75
g665
sg68
(lp716
g61
(g82
g63
NtRp717
(dp718
g66
(dp719
g86
g87
ssg75
g713
sg68
(lp720
S'cmd_args'
p721
asbag61
(g82
g63
NtRp722
(dp723
g66
(dp724
g93
g94
ssg75
g713
sg68
(lp725
S':'
asbag61
(g82
g63
NtRp726
(dp727
g66
(dp728
sg75
g713
sg68
(lp729
g61
(g62
g63
NtRp730
(dp731
g66
(dp732
g74
I4
ssg75
g726
sg68
(lp733
g61
(g70
g63
NtRp734
(dp735
g66
(dp736
g74
I3
ssg75
Nsg68
(lp737
sbasbasbasbag61
(g77
g63
NtRp738
(dp739
g66
(dp740
sg75
g665
sg68
(lp741
g61
(g82
g63
NtRp742
(dp743
g66
(dp744
g86
g87
ssg75
g738
sg68
(lp745
S'cmd_options'
p746
asbag61
(g82
g63
NtRp747
(dp748
g66
(dp749
g93
g94
ssg75
g738
sg68
(lp750
S':'
asbag61
(g82
g63
NtRp751
(dp752
g66
(dp753
sg75
g738
sg68
(lp754
g61
(g62
g63
NtRp755
(dp756
g66
(dp757
g74
I4
ssg75
g751
sg68
(lp758
S"<Values at 0xc7b788: {'verbose': False, 'ip': '127.0.0.1', 'with_scheduler': False, 'ips': ['192.168.0.14', '169.254.204.32'], 'shutdown_timeout': 5, 'taskbar': False, 'port': 8000, 'maxthreads': None, 'softcron': False, 'server_name': 'GLKLAG235327', 'bpython': False, 'nogui': False, 'pid_filename': 'httpserver.pid', 'extcron': False, 'runcron': False, 'run_system_tests': False, 'test': None, 'folder': 'D:\\\\web2py\\\\source\\\\web2py', 'config': '', 'import_models': False, 'winservice': '', 'shell': None, 'run': '', 'log_filename': 'httpserver.log', 'debuglevel': 30, 'args': [''], 'socket_timeout': 5, 'ssl_ca_certificate': None, 'scheduler': None, 'profiler_filename': None, 'ssl_private_key': '', 'scheduler_groups': None, 'password': '<ask>', 'request_queue_size': 5, 'ssl_certificate': '', 'cronjob': False, 'numthreads': None, 'quiet': False, 'interfaces': None, 'minthreads': None, 'timeout': 10, 'plain': False, 'nobanner': False}>"
p759
asbasbasbag61
(g77
g63
NtRp760
(dp761
g66
(dp762
sg75
g665
sg68
(lp763
g61
(g82
g63
NtRp764
(dp765
g66
(dp766
g86
g87
ssg75
g760
sg68
(lp767
S'content_length'
p768
asbag61
(g82
g63
NtRp769
(dp770
g66
(dp771
g93
g94
ssg75
g760
sg68
(lp772
S':'
asbag61
(g82
g63
NtRp773
(dp774
g66
(dp775
sg75
g760
sg68
(lp776
g61
(g62
g63
NtRp777
(dp778
g66
(dp779
g74
I4
ssg75
g773
sg68
(lp780
S'157'
p781
asbasbasbag61
(g77
g63
NtRp782
(dp783
g66
(dp784
sg75
g665
sg68
(lp785
g61
(g82
g63
NtRp786
(dp787
g66
(dp788
g86
g87
ssg75
g782
sg68
(lp789
S'content_type'
p790
asbag61
(g82
g63
NtRp791
(dp792
g66
(dp793
g93
g94
ssg75
g782
sg68
(lp794
S':'
asbag61
(g82
g63
NtRp795
(dp796
g66
(dp797
sg75
g782
sg68
(lp798
g61
(g62
g63
NtRp799
(dp800
g66
(dp801
g74
I4
ssg75
g795
sg68
(lp802
S'application/x-www-form-urlencoded; charset=UTF-8'
p803
asbasbasbag61
(g77
g63
NtRp804
(dp805
g66
(dp806
sg75
g665
sg68
(lp807
g61
(g82
g63
NtRp808
(dp809
g66
(dp810
g86
g87
ssg75
g804
sg68
(lp811
S'db_sessions'
p812
asbag61
(g82
g63
NtRp813
(dp814
g66
(dp815
g93
g94
ssg75
g804
sg68
(lp816
S':'
asbag61
(g82
g63
NtRp817
(dp818
g66
(dp819
sg75
g804
sg68
(lp820
g61
(g62
g63
NtRp821
(dp822
g66
(dp823
g74
I4
ssg75
g817
sg68
(lp824
S'set([])'
p825
asbasbasbag61
(g77
g63
NtRp826
(dp827
g66
(dp828
sg75
g665
sg68
(lp829
g61
(g82
g63
NtRp830
(dp831
g66
(dp832
g86
g87
ssg75
g826
sg68
(lp833
S'debugging'
p834
asbag61
(g82
g63
NtRp835
(dp836
g66
(dp837
g93
g94
ssg75
g826
sg68
(lp838
S':'
asbag61
(g82
g63
NtRp839
(dp840
g66
(dp841
sg75
g826
sg68
(lp842
g61
(g62
g63
NtRp843
(dp844
g66
(dp845
g74
I4
ssg75
g839
sg68
(lp846
S'False'
p847
asbasbasbag61
(g77
g63
NtRp848
(dp849
g66
(dp850
sg75
g665
sg68
(lp851
g61
(g82
g63
NtRp852
(dp853
g66
(dp854
g86
g87
ssg75
g848
sg68
(lp855
S'gluon_parent'
p856
asbag61
(g82
g63
NtRp857
(dp858
g66
(dp859
g93
g94
ssg75
g848
sg68
(lp860
S':'
asbag61
(g82
g63
NtRp861
(dp862
g66
(dp863
sg75
g848
sg68
(lp864
g61
(g62
g63
NtRp865
(dp866
g66
(dp867
g74
I4
ssg75
g861
sg68
(lp868
S'D:\\web2py\\source\\web2py'
p869
asbasbasbag61
(g77
g63
NtRp870
(dp871
g66
(dp872
sg75
g665
sg68
(lp873
g61
(g82
g63
NtRp874
(dp875
g66
(dp876
g86
g87
ssg75
g870
sg68
(lp877
S'http_accept'
p878
asbag61
(g82
g63
NtRp879
(dp880
g66
(dp881
g93
g94
ssg75
g870
sg68
(lp882
S':'
asbag61
(g82
g63
NtRp883
(dp884
g66
(dp885
sg75
g870
sg68
(lp886
g61
(g62
g63
NtRp887
(dp888
g66
(dp889
g74
I4
ssg75
g883
sg68
(lp890
S'*/*'
p891
asbasbasbag61
(g77
g63
NtRp892
(dp893
g66
(dp894
sg75
g665
sg68
(lp895
g61
(g82
g63
NtRp896
(dp897
g66
(dp898
g86
g87
ssg75
g892
sg68
(lp899
S'http_accept_charset'
p900
asbag61
(g82
g63
NtRp901
(dp902
g66
(dp903
g93
g94
ssg75
g892
sg68
(lp904
S':'
asbag61
(g82
g63
NtRp905
(dp906
g66
(dp907
sg75
g892
sg68
(lp908
g61
(g62
g63
NtRp909
(dp910
g66
(dp911
g74
I4
ssg75
g905
sg68
(lp912
S'ISO-8859-1,utf-8;q=0.7,*;q=0.3'
p913
asbasbasbag61
(g77
g63
NtRp914
(dp915
g66
(dp916
sg75
g665
sg68
(lp917
g61
(g82
g63
NtRp918
(dp919
g66
(dp920
g86
g87
ssg75
g914
sg68
(lp921
S'http_accept_encoding'
p922
asbag61
(g82
g63
NtRp923
(dp924
g66
(dp925
g93
g94
ssg75
g914
sg68
(lp926
S':'
asbag61
(g82
g63
NtRp927
(dp928
g66
(dp929
sg75
g914
sg68
(lp930
g61
(g62
g63
NtRp931
(dp932
g66
(dp933
g74
I4
ssg75
g927
sg68
(lp934
S'gzip,deflate,sdch'
p935
asbasbasbag61
(g77
g63
NtRp936
(dp937
g66
(dp938
sg75
g665
sg68
(lp939
g61
(g82
g63
NtRp940
(dp941
g66
(dp942
g86
g87
ssg75
g936
sg68
(lp943
S'http_accept_language'
p944
asbag61
(g82
g63
NtRp945
(dp946
g66
(dp947
g93
g94
ssg75
g936
sg68
(lp948
S':'
asbag61
(g82
g63
NtRp949
(dp950
g66
(dp951
sg75
g936
sg68
(lp952
g61
(g62
g63
NtRp953
(dp954
g66
(dp955
g74
I4
ssg75
g949
sg68
(lp956
S'en-US,en;q=0.8'
p957
asbasbasbag61
(g77
g63
NtRp958
(dp959
g66
(dp960
sg75
g665
sg68
(lp961
g61
(g82
g63
NtRp962
(dp963
g66
(dp964
g86
g87
ssg75
g958
sg68
(lp965
S'http_connection'
p966
asbag61
(g82
g63
NtRp967
(dp968
g66
(dp969
g93
g94
ssg75
g958
sg68
(lp970
S':'
asbag61
(g82
g63
NtRp971
(dp972
g66
(dp973
sg75
g958
sg68
(lp974
g61
(g62
g63
NtRp975
(dp976
g66
(dp977
g74
I4
ssg75
g971
sg68
(lp978
S'keep-alive'
p979
asbasbasbag61
(g77
g63
NtRp980
(dp981
g66
(dp982
sg75
g665
sg68
(lp983
g61
(g82
g63
NtRp984
(dp985
g66
(dp986
g86
g87
ssg75
g980
sg68
(lp987
S'http_content_length'
p988
asbag61
(g82
g63
NtRp989
(dp990
g66
(dp991
g93
g94
ssg75
g980
sg68
(lp992
S':'
asbag61
(g82
g63
NtRp993
(dp994
g66
(dp995
sg75
g980
sg68
(lp996
g61
(g62
g63
NtRp997
(dp998
g66
(dp999
g74
I4
ssg75
g993
sg68
(lp1000
g781
asbasbasbag61
(g77
g63
NtRp1001
(dp1002
g66
(dp1003
sg75
g665
sg68
(lp1004
g61
(g82
g63
NtRp1005
(dp1006
g66
(dp1007
g86
g87
ssg75
g1001
sg68
(lp1008
S'http_content_type'
p1009
asbag61
(g82
g63
NtRp1010
(dp1011
g66
(dp1012
g93
g94
ssg75
g1001
sg68
(lp1013
S':'
asbag61
(g82
g63
NtRp1014
(dp1015
g66
(dp1016
sg75
g1001
sg68
(lp1017
g61
(g62
g63
NtRp1018
(dp1019
g66
(dp1020
g74
I4
ssg75
g1014
sg68
(lp1021
g803
asbasbasbag61
(g77
g63
NtRp1022
(dp1023
g66
(dp1024
sg75
g665
sg68
(lp1025
g61
(g82
g63
NtRp1026
(dp1027
g66
(dp1028
g86
g87
ssg75
g1022
sg68
(lp1029
S'http_cookie'
p1030
asbag61
(g82
g63
NtRp1031
(dp1032
g66
(dp1033
g93
g94
ssg75
g1022
sg68
(lp1034
S':'
asbag61
(g82
g63
NtRp1035
(dp1036
g66
(dp1037
sg75
g1022
sg68
(lp1038
g61
(g62
g63
NtRp1039
(dp1040
g66
(dp1041
g74
I4
ssg75
g1035
sg68
(lp1042
S'session_id_admin=127.0.0.1-1f3c03e3-a1b8-4366-b3f1-e1eecca8cdee; session_id_web2py_xlchart_dashboard=127.0.0.1-fdf175eb-d99c-42dc-806f-28e6c18b9b0d'
p1043
asbasbasbag61
(g77
g63
NtRp1044
(dp1045
g66
(dp1046
sg75
g665
sg68
(lp1047
g61
(g82
g63
NtRp1048
(dp1049
g66
(dp1050
g86
g87
ssg75
g1044
sg68
(lp1051
S'http_host'
p1052
asbag61
(g82
g63
NtRp1053
(dp1054
g66
(dp1055
g93
g94
ssg75
g1044
sg68
(lp1056
S':'
asbag61
(g82
g63
NtRp1057
(dp1058
g66
(dp1059
sg75
g1044
sg68
(lp1060
g61
(g62
g63
NtRp1061
(dp1062
g66
(dp1063
g74
I4
ssg75
g1057
sg68
(lp1064
S'127.0.0.1:8000'
p1065
asbasbasbag61
(g77
g63
NtRp1066
(dp1067
g66
(dp1068
sg75
g665
sg68
(lp1069
g61
(g82
g63
NtRp1070
(dp1071
g66
(dp1072
g86
g87
ssg75
g1066
sg68
(lp1073
S'http_origin'
p1074
asbag61
(g82
g63
NtRp1075
(dp1076
g66
(dp1077
g93
g94
ssg75
g1066
sg68
(lp1078
S':'
asbag61
(g82
g63
NtRp1079
(dp1080
g66
(dp1081
sg75
g1066
sg68
(lp1082
g61
(g62
g63
NtRp1083
(dp1084
g66
(dp1085
g74
I4
ssg75
g1079
sg68
(lp1086
S'http://127.0.0.1:8000'
p1087
asbasbasbag61
(g77
g63
NtRp1088
(dp1089
g66
(dp1090
sg75
g665
sg68
(lp1091
g61
(g82
g63
NtRp1092
(dp1093
g66
(dp1094
g86
g87
ssg75
g1088
sg68
(lp1095
S'http_referer'
p1096
asbag61
(g82
g63
NtRp1097
(dp1098
g66
(dp1099
g93
g94
ssg75
g1088
sg68
(lp1100
S':'
asbag61
(g82
g63
NtRp1101
(dp1102
g66
(dp1103
sg75
g1088
sg68
(lp1104
g61
(g62
g63
NtRp1105
(dp1106
g66
(dp1107
g74
I4
ssg75
g1101
sg68
(lp1108
S'http://127.0.0.1:8000/web2py_xlchart_dashboard/dashboard/manage_dashboard'
p1109
asbasbasbag61
(g77
g63
NtRp1110
(dp1111
g66
(dp1112
sg75
g665
sg68
(lp1113
g61
(g82
g63
NtRp1114
(dp1115
g66
(dp1116
g86
g87
ssg75
g1110
sg68
(lp1117
S'http_user_agent'
p1118
asbag61
(g82
g63
NtRp1119
(dp1120
g66
(dp1121
g93
g94
ssg75
g1110
sg68
(lp1122
S':'
asbag61
(g82
g63
NtRp1123
(dp1124
g66
(dp1125
sg75
g1110
sg68
(lp1126
g61
(g62
g63
NtRp1127
(dp1128
g66
(dp1129
g74
I4
ssg75
g1123
sg68
(lp1130
S'Mozilla/5.0 (Windows NT 5.1) AppleWebKit/537.11 (KHTML, like Gecko) Chrome/23.0.1271.64 Safari/537.11'
p1131
asbasbasbag61
(g77
g63
NtRp1132
(dp1133
g66
(dp1134
sg75
g665
sg68
(lp1135
g61
(g82
g63
NtRp1136
(dp1137
g66
(dp1138
g86
g87
ssg75
g1132
sg68
(lp1139
S'http_web2py_component_element'
p1140
asbag61
(g82
g63
NtRp1141
(dp1142
g66
(dp1143
g93
g94
ssg75
g1132
sg68
(lp1144
S':'
asbag61
(g82
g63
NtRp1145
(dp1146
g66
(dp1147
sg75
g1132
sg68
(lp1148
g61
(g62
g63
NtRp1149
(dp1150
g66
(dp1151
g74
I4
ssg75
g1145
sg68
(lp1152
g194
asbasbasbag61
(g77
g63
NtRp1153
(dp1154
g66
(dp1155
sg75
g665
sg68
(lp1156
g61
(g82
g63
NtRp1157
(dp1158
g66
(dp1159
g86
g87
ssg75
g1153
sg68
(lp1160
S'http_web2py_component_location'
p1161
asbag61
(g82
g63
NtRp1162
(dp1163
g66
(dp1164
g93
g94
ssg75
g1153
sg68
(lp1165
S':'
asbag61
(g82
g63
NtRp1166
(dp1167
g66
(dp1168
sg75
g1153
sg68
(lp1169
g61
(g62
g63
NtRp1170
(dp1171
g66
(dp1172
g74
I4
ssg75
g1166
sg68
(lp1173
S'http://127.0.0.1:8000/web2py_xlchart_dashboard/dashboard/manage_dashboard'
p1174
asbasbasbag61
(g77
g63
NtRp1175
(dp1176
g66
(dp1177
sg75
g665
sg68
(lp1178
g61
(g82
g63
NtRp1179
(dp1180
g66
(dp1181
g86
g87
ssg75
g1175
sg68
(lp1182
S'http_x_requested_with'
p1183
asbag61
(g82
g63
NtRp1184
(dp1185
g66
(dp1186
g93
g94
ssg75
g1175
sg68
(lp1187
S':'
asbag61
(g82
g63
NtRp1188
(dp1189
g66
(dp1190
sg75
g1175
sg68
(lp1191
g61
(g62
g63
NtRp1192
(dp1193
g66
(dp1194
g74
I4
ssg75
g1188
sg68
(lp1195
S'XMLHttpRequest'
p1196
asbasbasbag61
(g77
g63
NtRp1197
(dp1198
g66
(dp1199
sg75
g665
sg68
(lp1200
g61
(g82
g63
NtRp1201
(dp1202
g66
(dp1203
g86
g87
ssg75
g1197
sg68
(lp1204
S'is_jython'
p1205
asbag61
(g82
g63
NtRp1206
(dp1207
g66
(dp1208
g93
g94
ssg75
g1197
sg68
(lp1209
S':'
asbag61
(g82
g63
NtRp1210
(dp1211
g66
(dp1212
sg75
g1197
sg68
(lp1213
g61
(g62
g63
NtRp1214
(dp1215
g66
(dp1216
g74
I4
ssg75
g1210
sg68
(lp1217
g847
asbasbasbag61
(g77
g63
NtRp1218
(dp1219
g66
(dp1220
sg75
g665
sg68
(lp1221
g61
(g82
g63
NtRp1222
(dp1223
g66
(dp1224
g86
g87
ssg75
g1218
sg68
(lp1225
S'is_pypy'
p1226
asbag61
(g82
g63
NtRp1227
(dp1228
g66
(dp1229
g93
g94
ssg75
g1218
sg68
(lp1230
S':'
asbag61
(g82
g63
NtRp1231
(dp1232
g66
(dp1233
sg75
g1218
sg68
(lp1234
g61
(g62
g63
NtRp1235
(dp1236
g66
(dp1237
g74
I4
ssg75
g1231
sg68
(lp1238
g847
asbasbasbag61
(g77
g63
NtRp1239
(dp1240
g66
(dp1241
sg75
g665
sg68
(lp1242
g61
(g82
g63
NtRp1243
(dp1244
g66
(dp1245
g86
g87
ssg75
g1239
sg68
(lp1246
S'local_hosts'
p1247
asbag61
(g82
g63
NtRp1248
(dp1249
g66
(dp1250
g93
g94
ssg75
g1239
sg68
(lp1251
S':'
asbag61
(g82
g63
NtRp1252
(dp1253
g66
(dp1254
sg75
g1239
sg68
(lp1255
g61
(g62
g63
NtRp1256
(dp1257
g66
(dp1258
g74
I4
ssg75
g1252
sg68
(lp1259
g61
(g70
g63
NtRp1260
(dp1261
g66
(dp1262
g74
I3
ssg75
Nsg68
(lp1263
g61
(g77
g63
NtRp1264
(dp1265
g66
(dp1266
sg75
g1260
sg68
(lp1267
g61
(g82
g63
NtRp1268
(dp1269
g66
(dp1270
sg75
g1264
sg68
(lp1271
g61
(g62
g63
NtRp1272
(dp1273
g66
(dp1274
g74
I3
ssg75
g1268
sg68
(lp1275
S'127.0.0.1'
p1276
asbasbasbag61
(g77
g63
NtRp1277
(dp1278
g66
(dp1279
sg75
g1260
sg68
(lp1280
g61
(g82
g63
NtRp1281
(dp1282
g66
(dp1283
sg75
g1277
sg68
(lp1284
g61
(g62
g63
NtRp1285
(dp1286
g66
(dp1287
g74
I3
ssg75
g1281
sg68
(lp1288
S'::ffff:127.0.0.1'
p1289
asbasbasbag61
(g77
g63
NtRp1290
(dp1291
g66
(dp1292
sg75
g1260
sg68
(lp1293
g61
(g82
g63
NtRp1294
(dp1295
g66
(dp1296
sg75
g1290
sg68
(lp1297
g61
(g62
g63
NtRp1298
(dp1299
g66
(dp1300
g74
I3
ssg75
g1294
sg68
(lp1301
S'GLKLAG235327'
p1302
asbasbasbag61
(g77
g63
NtRp1303
(dp1304
g66
(dp1305
sg75
g1260
sg68
(lp1306
g61
(g82
g63
NtRp1307
(dp1308
g66
(dp1309
sg75
g1303
sg68
(lp1310
g61
(g62
g63
NtRp1311
(dp1312
g66
(dp1313
g74
I3
ssg75
g1307
sg68
(lp1314
S'GLKLAG235327'
p1315
asbasbasbag61
(g77
g63
NtRp1316
(dp1317
g66
(dp1318
sg75
g1260
sg68
(lp1319
g61
(g82
g63
NtRp1320
(dp1321
g66
(dp1322
sg75
g1316
sg68
(lp1323
g61
(g62
g63
NtRp1324
(dp1325
g66
(dp1326
g74
I3
ssg75
g1320
sg68
(lp1327
S'192.168.0.14'
p1328
asbasbasbasbasbasbasbag61
(g77
g63
NtRp1329
(dp1330
g66
(dp1331
sg75
g665
sg68
(lp1332
g61
(g82
g63
NtRp1333
(dp1334
g66
(dp1335
g86
g87
ssg75
g1329
sg68
(lp1336
S'path_info'
p1337
asbag61
(g82
g63
NtRp1338
(dp1339
g66
(dp1340
g93
g94
ssg75
g1329
sg68
(lp1341
S':'
asbag61
(g82
g63
NtRp1342
(dp1343
g66
(dp1344
sg75
g1329
sg68
(lp1345
g61
(g62
g63
NtRp1346
(dp1347
g66
(dp1348
g74
I4
ssg75
g1342
sg68
(lp1349
S'/web2py_xlchart_dashboard/dashboard/edit_chart'
p1350
asbasbasbag61
(g77
g63
NtRp1351
(dp1352
g66
(dp1353
sg75
g665
sg68
(lp1354
g61
(g82
g63
NtRp1355
(dp1356
g66
(dp1357
g86
g87
ssg75
g1351
sg68
(lp1358
S'query_string'
p1359
asbag61
(g82
g63
NtRp1360
(dp1361
g66
(dp1362
g93
g94
ssg75
g1351
sg68
(lp1363
S':'
asbag61
(g82
g63
NtRp1364
(dp1365
g66
(dp1366
sg75
g1351
sg68
(lp1367
g61
(g62
g63
NtRp1368
(dp1369
g66
(dp1370
g74
I4
ssg75
g1364
sg68
(lp1371
S'scid=2'
p1372
asbasbasbag61
(g77
g63
NtRp1373
(dp1374
g66
(dp1375
sg75
g665
sg68
(lp1376
g61
(g82
g63
NtRp1377
(dp1378
g66
(dp1379
g86
g87
ssg75
g1373
sg68
(lp1380
S'remote_addr'
p1381
asbag61
(g82
g63
NtRp1382
(dp1383
g66
(dp1384
g93
g94
ssg75
g1373
sg68
(lp1385
S':'
asbag61
(g82
g63
NtRp1386
(dp1387
g66
(dp1388
sg75
g1373
sg68
(lp1389
g61
(g62
g63
NtRp1390
(dp1391
g66
(dp1392
g74
I4
ssg75
g1386
sg68
(lp1393
g216
asbasbasbag61
(g77
g63
NtRp1394
(dp1395
g66
(dp1396
sg75
g665
sg68
(lp1397
g61
(g82
g63
NtRp1398
(dp1399
g66
(dp1400
g86
g87
ssg75
g1394
sg68
(lp1401
S'remote_port'
p1402
asbag61
(g82
g63
NtRp1403
(dp1404
g66
(dp1405
g93
g94
ssg75
g1394
sg68
(lp1406
S':'
asbag61
(g82
g63
NtRp1407
(dp1408
g66
(dp1409
sg75
g1394
sg68
(lp1410
g61
(g62
g63
NtRp1411
(dp1412
g66
(dp1413
g74
I4
ssg75
g1407
sg68
(lp1414
S'4880'
p1415
asbasbasbag61
(g77
g63
NtRp1416
(dp1417
g66
(dp1418
sg75
g665
sg68
(lp1419
g61
(g82
g63
NtRp1420
(dp1421
g66
(dp1422
g86
g87
ssg75
g1416
sg68
(lp1423
S'request_method'
p1424
asbag61
(g82
g63
NtRp1425
(dp1426
g66
(dp1427
g93
g94
ssg75
g1416
sg68
(lp1428
S':'
asbag61
(g82
g63
NtRp1429
(dp1430
g66
(dp1431
sg75
g1416
sg68
(lp1432
g61
(g62
g63
NtRp1433
(dp1434
g66
(dp1435
g74
I4
ssg75
g1429
sg68
(lp1436
S'POST'
p1437
asbasbasbag61
(g77
g63
NtRp1438
(dp1439
g66
(dp1440
sg75
g665
sg68
(lp1441
g61
(g82
g63
NtRp1442
(dp1443
g66
(dp1444
g86
g87
ssg75
g1438
sg68
(lp1445
S'request_uri'
p1446
asbag61
(g82
g63
NtRp1447
(dp1448
g66
(dp1449
g93
g94
ssg75
g1438
sg68
(lp1450
S':'
asbag61
(g82
g63
NtRp1451
(dp1452
g66
(dp1453
sg75
g1438
sg68
(lp1454
g61
(g62
g63
NtRp1455
(dp1456
g66
(dp1457
g74
I4
ssg75
g1451
sg68
(lp1458
S'/web2py_xlchart_dashboard/dashboard/edit_chart?scid=2'
p1459
asbasbasbag61
(g77
g63
NtRp1460
(dp1461
g66
(dp1462
sg75
g665
sg68
(lp1463
g61
(g82
g63
NtRp1464
(dp1465
g66
(dp1466
g86
g87
ssg75
g1460
sg68
(lp1467
S'script_name'
p1468
asbag61
(g82
g63
NtRp1469
(dp1470
g66
(dp1471
g93
g94
ssg75
g1460
sg68
(lp1472
S':'
asbag61
(g82
g63
NtRp1473
(dp1474
g66
(dp1475
sg75
g1460
sg68
(lp1476
g61
(g62
g63
NtRp1477
(dp1478
g66
(dp1479
g74
I4
ssg75
g1473
sg68
(lp1480
S''
asbasbasbag61
(g77
g63
NtRp1481
(dp1482
g66
(dp1483
sg75
g665
sg68
(lp1484
g61
(g82
g63
NtRp1485
(dp1486
g66
(dp1487
g86
g87
ssg75
g1481
sg68
(lp1488
S'server_name'
p1489
asbag61
(g82
g63
NtRp1490
(dp1491
g66
(dp1492
g93
g94
ssg75
g1481
sg68
(lp1493
S':'
asbag61
(g82
g63
NtRp1494
(dp1495
g66
(dp1496
sg75
g1481
sg68
(lp1497
g61
(g62
g63
NtRp1498
(dp1499
g66
(dp1500
g74
I4
ssg75
g1494
sg68
(lp1501
g1315
asbasbasbag61
(g77
g63
NtRp1502
(dp1503
g66
(dp1504
sg75
g665
sg68
(lp1505
g61
(g82
g63
NtRp1506
(dp1507
g66
(dp1508
g86
g87
ssg75
g1502
sg68
(lp1509
S'server_port'
p1510
asbag61
(g82
g63
NtRp1511
(dp1512
g66
(dp1513
g93
g94
ssg75
g1502
sg68
(lp1514
S':'
asbag61
(g82
g63
NtRp1515
(dp1516
g66
(dp1517
sg75
g1502
sg68
(lp1518
g61
(g62
g63
NtRp1519
(dp1520
g66
(dp1521
g74
I4
ssg75
g1515
sg68
(lp1522
S'8000'
p1523
asbasbasbag61
(g77
g63
NtRp1524
(dp1525
g66
(dp1526
sg75
g665
sg68
(lp1527
g61
(g82
g63
NtRp1528
(dp1529
g66
(dp1530
g86
g87
ssg75
g1524
sg68
(lp1531
S'server_protocol'
p1532
asbag61
(g82
g63
NtRp1533
(dp1534
g66
(dp1535
g93
g94
ssg75
g1524
sg68
(lp1536
S':'
asbag61
(g82
g63
NtRp1537
(dp1538
g66
(dp1539
sg75
g1524
sg68
(lp1540
g61
(g62
g63
NtRp1541
(dp1542
g66
(dp1543
g74
I4
ssg75
g1537
sg68
(lp1544
S'HTTP/1.1'
p1545
asbasbasbag61
(g77
g63
NtRp1546
(dp1547
g66
(dp1548
sg75
g665
sg68
(lp1549
g61
(g82
g63
NtRp1550
(dp1551
g66
(dp1552
g86
g87
ssg75
g1546
sg68
(lp1553
S'server_software'
p1554
asbag61
(g82
g63
NtRp1555
(dp1556
g66
(dp1557
g93
g94
ssg75
g1546
sg68
(lp1558
S':'
asbag61
(g82
g63
NtRp1559
(dp1560
g66
(dp1561
sg75
g1546
sg68
(lp1562
g61
(g62
g63
NtRp1563
(dp1564
g66
(dp1565
g74
I4
ssg75
g1559
sg68
(lp1566
S'Rocket 1.2.5'
p1567
asbasbasbag61
(g77
g63
NtRp1568
(dp1569
g66
(dp1570
sg75
g665
sg68
(lp1571
g61
(g82
g63
NtRp1572
(dp1573
g66
(dp1574
g86
g87
ssg75
g1568
sg68
(lp1575
S'web2py_original_uri'
p1576
asbag61
(g82
g63
NtRp1577
(dp1578
g66
(dp1579
g93
g94
ssg75
g1568
sg68
(lp1580
S':'
asbag61
(g82
g63
NtRp1581
(dp1582
g66
(dp1583
sg75
g1568
sg68
(lp1584
g61
(g62
g63
NtRp1585
(dp1586
g66
(dp1587
g74
I4
ssg75
g1581
sg68
(lp1588
S'/web2py_xlchart_dashboard/dashboard/edit_chart?scid=2'
p1589
asbasbasbag61
(g77
g63
NtRp1590
(dp1591
g66
(dp1592
sg75
g665
sg68
(lp1593
g61
(g82
g63
NtRp1594
(dp1595
g66
(dp1596
g86
g87
ssg75
g1590
sg68
(lp1597
S'web2py_path'
p1598
asbag61
(g82
g63
NtRp1599
(dp1600
g66
(dp1601
g93
g94
ssg75
g1590
sg68
(lp1602
S':'
asbag61
(g82
g63
NtRp1603
(dp1604
g66
(dp1605
sg75
g1590
sg68
(lp1606
g61
(g62
g63
NtRp1607
(dp1608
g66
(dp1609
g74
I4
ssg75
g1603
sg68
(lp1610
g712
asbasbasbag61
(g77
g63
NtRp1611
(dp1612
g66
(dp1613
sg75
g665
sg68
(lp1614
g61
(g82
g63
NtRp1615
(dp1616
g66
(dp1617
g86
g87
ssg75
g1611
sg68
(lp1618
S'web2py_version'
p1619
asbag61
(g82
g63
NtRp1620
(dp1621
g66
(dp1622
g93
g94
ssg75
g1611
sg68
(lp1623
S':'
asbag61
(g82
g63
NtRp1624
(dp1625
g66
(dp1626
sg75
g1611
sg68
(lp1627
g61
(g62
g63
NtRp1628
(dp1629
g66
(dp1630
g74
I4
ssg75
g1624
sg68
(lp1631
g61
(g70
g63
NtRp1632
(dp1633
g66
(dp1634
g74
I3
ssg75
Nsg68
(lp1635
g61
(g77
g63
NtRp1636
(dp1637
g66
(dp1638
sg75
g1632
sg68
(lp1639
g61
(g82
g63
NtRp1640
(dp1641
g66
(dp1642
sg75
g1636
sg68
(lp1643
g61
(g62
g63
NtRp1644
(dp1645
g66
(dp1646
g74
I3
ssg75
g1640
sg68
(lp1647
S'2'
asbasbasbag61
(g77
g63
NtRp1648
(dp1649
g66
(dp1650
sg75
g1632
sg68
(lp1651
g61
(g82
g63
NtRp1652
(dp1653
g66
(dp1654
sg75
g1648
sg68
(lp1655
g61
(g62
g63
NtRp1656
(dp1657
g66
(dp1658
g74
I3
ssg75
g1652
sg68
(lp1659
S'2'
asbasbasbag61
(g77
g63
NtRp1660
(dp1661
g66
(dp1662
sg75
g1632
sg68
(lp1663
g61
(g82
g63
NtRp1664
(dp1665
g66
(dp1666
sg75
g1660
sg68
(lp1667
g61
(g62
g63
NtRp1668
(dp1669
g66
(dp1670
g74
I3
ssg75
g1664
sg68
(lp1671
S'1'
asbasbasbag61
(g77
g63
NtRp1672
(dp1673
g66
(dp1674
sg75
g1632
sg68
(lp1675
g61
(g82
g63
NtRp1676
(dp1677
g66
(dp1678
sg75
g1672
sg68
(lp1679
g61
(g62
g63
NtRp1680
(dp1681
g66
(dp1682
g74
I3
ssg75
g1676
sg68
(lp1683
S'datetime.datetime(2012, 10, 21, 16, 57, 4)'
p1684
asbasbasbag61
(g77
g63
NtRp1685
(dp1686
g66
(dp1687
sg75
g1632
sg68
(lp1688
g61
(g82
g63
NtRp1689
(dp1690
g66
(dp1691
sg75
g1685
sg68
(lp1692
g61
(g62
g63
NtRp1693
(dp1694
g66
(dp1695
g74
I3
ssg75
g1689
sg68
(lp1696
S'stable'
p1697
asbasbasbasbasbasbasbag61
(g77
g63
NtRp1698
(dp1699
g66
(dp1700
sg75
g665
sg68
(lp1701
g61
(g82
g63
NtRp1702
(dp1703
g66
(dp1704
g86
g87
ssg75
g1698
sg68
(lp1705
S'wsgi_errors'
p1706
asbag61
(g82
g63
NtRp1707
(dp1708
g66
(dp1709
g93
g94
ssg75
g1698
sg68
(lp1710
S':'
asbag61
(g82
g63
NtRp1711
(dp1712
g66
(dp1713
sg75
g1698
sg68
(lp1714
g61
(g62
g63
NtRp1715
(dp1716
g66
(dp1717
g74
I4
ssg75
g1711
sg68
(lp1718
S"<open file '<stderr>', mode 'w' at 0x00A850D0>"
p1719
asbasbasbag61
(g77
g63
NtRp1720
(dp1721
g66
(dp1722
sg75
g665
sg68
(lp1723
g61
(g82
g63
NtRp1724
(dp1725
g66
(dp1726
g86
g87
ssg75
g1720
sg68
(lp1727
S'wsgi_file_wrapper'
p1728
asbag61
(g82
g63
NtRp1729
(dp1730
g66
(dp1731
g93
g94
ssg75
g1720
sg68
(lp1732
S':'
asbag61
(g82
g63
NtRp1733
(dp1734
g66
(dp1735
sg75
g1720
sg68
(lp1736
g61
(g62
g63
NtRp1737
(dp1738
g66
(dp1739
g74
I4
ssg75
g1733
sg68
(lp1740
S'<class wsgiref.util.FileWrapper at 0x0172EE68>'
p1741
asbasbasbag61
(g77
g63
NtRp1742
(dp1743
g66
(dp1744
sg75
g665
sg68
(lp1745
g61
(g82
g63
NtRp1746
(dp1747
g66
(dp1748
g86
g87
ssg75
g1742
sg68
(lp1749
S'wsgi_input'
p1750
asbag61
(g82
g63
NtRp1751
(dp1752
g66
(dp1753
g93
g94
ssg75
g1742
sg68
(lp1754
S':'
asbag61
(g82
g63
NtRp1755
(dp1756
g66
(dp1757
sg75
g1742
sg68
(lp1758
g61
(g62
g63
NtRp1759
(dp1760
g66
(dp1761
g74
I4
ssg75
g1755
sg68
(lp1762
S'<socket._fileobject object at 0x04F7C6F0>'
p1763
asbasbasbag61
(g77
g63
NtRp1764
(dp1765
g66
(dp1766
sg75
g665
sg68
(lp1767
g61
(g82
g63
NtRp1768
(dp1769
g66
(dp1770
g86
g87
ssg75
g1764
sg68
(lp1771
S'wsgi_multiprocess'
p1772
asbag61
(g82
g63
NtRp1773
(dp1774
g66
(dp1775
g93
g94
ssg75
g1764
sg68
(lp1776
S':'
asbag61
(g82
g63
NtRp1777
(dp1778
g66
(dp1779
sg75
g1764
sg68
(lp1780
g61
(g62
g63
NtRp1781
(dp1782
g66
(dp1783
g74
I4
ssg75
g1777
sg68
(lp1784
g847
asbasbasbag61
(g77
g63
NtRp1785
(dp1786
g66
(dp1787
sg75
g665
sg68
(lp1788
g61
(g82
g63
NtRp1789
(dp1790
g66
(dp1791
g86
g87
ssg75
g1785
sg68
(lp1792
S'wsgi_multithread'
p1793
asbag61
(g82
g63
NtRp1794
(dp1795
g66
(dp1796
g93
g94
ssg75
g1785
sg68
(lp1797
S':'
asbag61
(g82
g63
NtRp1798
(dp1799
g66
(dp1800
sg75
g1785
sg68
(lp1801
g61
(g62
g63
NtRp1802
(dp1803
g66
(dp1804
g74
I4
ssg75
g1798
sg68
(lp1805
g104
asbasbasbag61
(g77
g63
NtRp1806
(dp1807
g66
(dp1808
sg75
g665
sg68
(lp1809
g61
(g82
g63
NtRp1810
(dp1811
g66
(dp1812
g86
g87
ssg75
g1806
sg68
(lp1813
S'wsgi_run_once'
p1814
asbag61
(g82
g63
NtRp1815
(dp1816
g66
(dp1817
g93
g94
ssg75
g1806
sg68
(lp1818
S':'
asbag61
(g82
g63
NtRp1819
(dp1820
g66
(dp1821
sg75
g1806
sg68
(lp1822
g61
(g62
g63
NtRp1823
(dp1824
g66
(dp1825
g74
I4
ssg75
g1819
sg68
(lp1826
g847
asbasbasbag61
(g77
g63
NtRp1827
(dp1828
g66
(dp1829
sg75
g665
sg68
(lp1830
g61
(g82
g63
NtRp1831
(dp1832
g66
(dp1833
g86
g87
ssg75
g1827
sg68
(lp1834
S'wsgi_url_scheme'
p1835
asbag61
(g82
g63
NtRp1836
(dp1837
g66
(dp1838
g93
g94
ssg75
g1827
sg68
(lp1839
S':'
asbag61
(g82
g63
NtRp1840
(dp1841
g66
(dp1842
sg75
g1827
sg68
(lp1843
g61
(g62
g63
NtRp1844
(dp1845
g66
(dp1846
g74
I4
ssg75
g1840
sg68
(lp1847
S'http'
p1848
asbasbasbag61
(g77
g63
NtRp1849
(dp1850
g66
(dp1851
sg75
g665
sg68
(lp1852
g61
(g82
g63
NtRp1853
(dp1854
g66
(dp1855
g86
g87
ssg75
g1849
sg68
(lp1856
S'wsgi_version'
p1857
asbag61
(g82
g63
NtRp1858
(dp1859
g66
(dp1860
g93
g94
ssg75
g1849
sg68
(lp1861
S':'
asbag61
(g82
g63
NtRp1862
(dp1863
g66
(dp1864
sg75
g1849
sg68
(lp1865
g61
(g62
g63
NtRp1866
(dp1867
g66
(dp1868
g74
I4
ssg75
g1862
sg68
(lp1869
g61
(g70
g63
NtRp1870
(dp1871
g66
(dp1872
g74
I3
ssg75
Nsg68
(lp1873
g61
(g77
g63
NtRp1874
(dp1875
g66
(dp1876
sg75
g1870
sg68
(lp1877
g61
(g82
g63
NtRp1878
(dp1879
g66
(dp1880
sg75
g1874
sg68
(lp1881
g61
(g62
g63
NtRp1882
(dp1883
g66
(dp1884
g74
I3
ssg75
g1878
sg68
(lp1885
S'1'
asbasbasbag61
(g77
g63
NtRp1886
(dp1887
g66
(dp1888
sg75
g1870
sg68
(lp1889
g61
(g82
g63
NtRp1890
(dp1891
g66
(dp1892
sg75
g1886
sg68
(lp1893
g61
(g62
g63
NtRp1894
(dp1895
g66
(dp1896
g74
I3
ssg75
g1890
sg68
(lp1897
S'0'
asbasbasbasbasbasbasbasbasbasbasbag61
(g77
g63
NtRp1898
(dp1899
g66
(dp1900
sg75
g71
sg68
(lp1901
g61
(g82
g63
NtRp1902
(dp1903
g66
(dp1904
g86
g87
ssg75
g1898
sg68
(lp1905
S'extension'
p1906
asbag61
(g82
g63
NtRp1907
(dp1908
g66
(dp1909
g93
g94
ssg75
g1898
sg68
(lp1910
S':'
asbag61
(g82
g63
NtRp1911
(dp1912
g66
(dp1913
sg75
g1898
sg68
(lp1914
g61
(g62
g63
NtRp1915
(dp1916
g66
(dp1917
g74
I5
ssg75
g1911
sg68
(lp1918
S'html'
p1919
asbasbasbag61
(g77
g63
NtRp1920
(dp1921
g66
(dp1922
sg75
g71
sg68
(lp1923
g61
(g82
g63
NtRp1924
(dp1925
g66
(dp1926
g86
g87
ssg75
g1920
sg68
(lp1927
S'folder'
p1928
asbag61
(g82
g63
NtRp1929
(dp1930
g66
(dp1931
g93
g94
ssg75
g1920
sg68
(lp1932
S':'
asbag61
(g82
g63
NtRp1933
(dp1934
g66
(dp1935
sg75
g1920
sg68
(lp1936
g61
(g62
g63
NtRp1937
(dp1938
g66
(dp1939
g74
I5
ssg75
g1933
sg68
(lp1940
S'D:\\web2py\\source\\web2py\\applications\\web2py_xlchart_dashboard\\'
p1941
asbasbasbag61
(g77
g63
NtRp1942
(dp1943
g66
(dp1944
sg75
g71
sg68
(lp1945
g61
(g82
g63
NtRp1946
(dp1947
g66
(dp1948
g86
g87
ssg75
g1942
sg68
(lp1949
S'function'
p1950
asbag61
(g82
g63
NtRp1951
(dp1952
g66
(dp1953
g93
g94
ssg75
g1942
sg68
(lp1954
S':'
asbag61
(g82
g63
NtRp1955
(dp1956
g66
(dp1957
sg75
g1942
sg68
(lp1958
g61
(g62
g63
NtRp1959
(dp1960
g66
(dp1961
g74
I5
ssg75
g1955
sg68
(lp1962
S'edit_chart'
p1963
asbasbasbag61
(g77
g63
NtRp1964
(dp1965
g66
(dp1966
sg75
g71
sg68
(lp1967
g61
(g82
g63
NtRp1968
(dp1969
g66
(dp1970
g86
g87
ssg75
g1964
sg68
(lp1971
S'get_vars'
p1972
asbag61
(g82
g63
NtRp1973
(dp1974
g66
(dp1975
g93
g94
ssg75
g1964
sg68
(lp1976
S':'
asbag61
(g82
g63
NtRp1977
(dp1978
g66
(dp1979
sg75
g1964
sg68
(lp1980
g61
(g62
g63
NtRp1981
(dp1982
g66
(dp1983
g74
I5
ssg75
g1977
sg68
(lp1984
g61
(g70
g63
NtRp1985
(dp1986
g66
(dp1987
g74
I4
ssg75
Nsg68
(lp1988
g61
(g77
g63
NtRp1989
(dp1990
g66
(dp1991
sg75
g1985
sg68
(lp1992
g61
(g82
g63
NtRp1993
(dp1994
g66
(dp1995
g86
g87
ssg75
g1989
sg68
(lp1996
S'scid'
p1997
asbag61
(g82
g63
NtRp1998
(dp1999
g66
(dp2000
g93
g94
ssg75
g1989
sg68
(lp2001
S':'
asbag61
(g82
g63
NtRp2002
(dp2003
g66
(dp2004
sg75
g1989
sg68
(lp2005
g61
(g62
g63
NtRp2006
(dp2007
g66
(dp2008
g74
I4
ssg75
g2002
sg68
(lp2009
S'2'
asbasbasbasbasbasbasbag61
(g77
g63
NtRp2010
(dp2011
g66
(dp2012
sg75
g71
sg68
(lp2013
g61
(g82
g63
NtRp2014
(dp2015
g66
(dp2016
g86
g87
ssg75
g2010
sg68
(lp2017
S'global_settings'
p2018
asbag61
(g82
g63
NtRp2019
(dp2020
g66
(dp2021
g93
g94
ssg75
g2010
sg68
(lp2022
S':'
asbag61
(g82
g63
NtRp2023
(dp2024
g66
(dp2025
sg75
g2010
sg68
(lp2026
g61
(g62
g63
NtRp2027
(dp2028
g66
(dp2029
g74
I5
ssg75
g2023
sg68
(lp2030
g61
(g70
g63
NtRp2031
(dp2032
g66
(dp2033
g74
I4
ssg75
Nsg68
(lp2034
g61
(g77
g63
NtRp2035
(dp2036
g66
(dp2037
sg75
g2031
sg68
(lp2038
g61
(g82
g63
NtRp2039
(dp2040
g66
(dp2041
g86
g87
ssg75
g2035
sg68
(lp2042
g677
asbag61
(g82
g63
NtRp2043
(dp2044
g66
(dp2045
g93
g94
ssg75
g2035
sg68
(lp2046
S':'
asbag61
(g82
g63
NtRp2047
(dp2048
g66
(dp2049
sg75
g2035
sg68
(lp2050
g61
(g62
g63
NtRp2051
(dp2052
g66
(dp2053
g74
I4
ssg75
g2047
sg68
(lp2054
S"set(['D:\\\\web2py\\\\source\\\\web2py\\\\applications\\\\admin\\\\', 'D:\\\\web2py\\\\source\\\\web2py\\\\applications\\\\web2py_xlchart_dashboard\\\\'])"
p2055
asbasbasbag61
(g77
g63
NtRp2056
(dp2057
g66
(dp2058
sg75
g2031
sg68
(lp2059
g61
(g82
g63
NtRp2060
(dp2061
g66
(dp2062
g86
g87
ssg75
g2056
sg68
(lp2063
g699
asbag61
(g82
g63
NtRp2064
(dp2065
g66
(dp2066
g93
g94
ssg75
g2056
sg68
(lp2067
S':'
asbag61
(g82
g63
NtRp2068
(dp2069
g66
(dp2070
sg75
g2056
sg68
(lp2071
g61
(g62
g63
NtRp2072
(dp2073
g66
(dp2074
g74
I4
ssg75
g2068
sg68
(lp2075
g712
asbasbasbag61
(g77
g63
NtRp2076
(dp2077
g66
(dp2078
sg75
g2031
sg68
(lp2079
g61
(g82
g63
NtRp2080
(dp2081
g66
(dp2082
g86
g87
ssg75
g2076
sg68
(lp2083
g721
asbag61
(g82
g63
NtRp2084
(dp2085
g66
(dp2086
g93
g94
ssg75
g2076
sg68
(lp2087
S':'
asbag61
(g82
g63
NtRp2088
(dp2089
g66
(dp2090
sg75
g2076
sg68
(lp2091
g61
(g62
g63
NtRp2092
(dp2093
g66
(dp2094
g74
I4
ssg75
g2088
sg68
(lp2095
g61
(g70
g63
NtRp2096
(dp2097
g66
(dp2098
g74
I3
ssg75
Nsg68
(lp2099
sbasbasbasbag61
(g77
g63
NtRp2100
(dp2101
g66
(dp2102
sg75
g2031
sg68
(lp2103
g61
(g82
g63
NtRp2104
(dp2105
g66
(dp2106
g86
g87
ssg75
g2100
sg68
(lp2107
g746
asbag61
(g82
g63
NtRp2108
(dp2109
g66
(dp2110
g93
g94
ssg75
g2100
sg68
(lp2111
S':'
asbag61
(g82
g63
NtRp2112
(dp2113
g66
(dp2114
sg75
g2100
sg68
(lp2115
g61
(g62
g63
NtRp2116
(dp2117
g66
(dp2118
g74
I4
ssg75
g2112
sg68
(lp2119
S"<Values at 0xc7b788: {'verbose': False, 'ip': '127.0.0.1', 'with_scheduler': False, 'ips': ['192.168.0.14', '169.254.204.32'], 'shutdown_timeout': 5, 'taskbar': False, 'port': 8000, 'maxthreads': None, 'softcron': False, 'server_name': 'GLKLAG235327', 'bpython': False, 'nogui': False, 'pid_filename': 'httpserver.pid', 'extcron': False, 'runcron': False, 'run_system_tests': False, 'test': None, 'folder': 'D:\\\\web2py\\\\source\\\\web2py', 'config': '', 'import_models': False, 'winservice': '', 'shell': None, 'run': '', 'log_filename': 'httpserver.log', 'debuglevel': 30, 'args': [''], 'socket_timeout': 5, 'ssl_ca_certificate': None, 'scheduler': None, 'profiler_filename': None, 'ssl_private_key': '', 'scheduler_groups': None, 'password': '<ask>', 'request_queue_size': 5, 'ssl_certificate': '', 'cronjob': False, 'numthreads': None, 'quiet': False, 'interfaces': None, 'minthreads': None, 'timeout': 10, 'plain': False, 'nobanner': False}>"
p2120
asbasbasbag61
(g77
g63
NtRp2121
(dp2122
g66
(dp2123
sg75
g2031
sg68
(lp2124
g61
(g82
g63
NtRp2125
(dp2126
g66
(dp2127
g86
g87
ssg75
g2121
sg68
(lp2128
g812
asbag61
(g82
g63
NtRp2129
(dp2130
g66
(dp2131
g93
g94
ssg75
g2121
sg68
(lp2132
S':'
asbag61
(g82
g63
NtRp2133
(dp2134
g66
(dp2135
sg75
g2121
sg68
(lp2136
g61
(g62
g63
NtRp2137
(dp2138
g66
(dp2139
g74
I4
ssg75
g2133
sg68
(lp2140
S'set([])'
p2141
asbasbasbag61
(g77
g63
NtRp2142
(dp2143
g66
(dp2144
sg75
g2031
sg68
(lp2145
g61
(g82
g63
NtRp2146
(dp2147
g66
(dp2148
g86
g87
ssg75
g2142
sg68
(lp2149
g834
asbag61
(g82
g63
NtRp2150
(dp2151
g66
(dp2152
g93
g94
ssg75
g2142
sg68
(lp2153
S':'
asbag61
(g82
g63
NtRp2154
(dp2155
g66
(dp2156
sg75
g2142
sg68
(lp2157
g61
(g62
g63
NtRp2158
(dp2159
g66
(dp2160
g74
I4
ssg75
g2154
sg68
(lp2161
g847
asbasbasbag61
(g77
g63
NtRp2162
(dp2163
g66
(dp2164
sg75
g2031
sg68
(lp2165
g61
(g82
g63
NtRp2166
(dp2167
g66
(dp2168
g86
g87
ssg75
g2162
sg68
(lp2169
g856
asbag61
(g82
g63
NtRp2170
(dp2171
g66
(dp2172
g93
g94
ssg75
g2162
sg68
(lp2173
S':'
asbag61
(g82
g63
NtRp2174
(dp2175
g66
(dp2176
sg75
g2162
sg68
(lp2177
g61
(g62
g63
NtRp2178
(dp2179
g66
(dp2180
g74
I4
ssg75
g2174
sg68
(lp2181
g869
asbasbasbag61
(g77
g63
NtRp2182
(dp2183
g66
(dp2184
sg75
g2031
sg68
(lp2185
g61
(g82
g63
NtRp2186
(dp2187
g66
(dp2188
g86
g87
ssg75
g2182
sg68
(lp2189
g1205
asbag61
(g82
g63
NtRp2190
(dp2191
g66
(dp2192
g93
g94
ssg75
g2182
sg68
(lp2193
S':'
asbag61
(g82
g63
NtRp2194
(dp2195
g66
(dp2196
sg75
g2182
sg68
(lp2197
g61
(g62
g63
NtRp2198
(dp2199
g66
(dp2200
g74
I4
ssg75
g2194
sg68
(lp2201
g847
asbasbasbag61
(g77
g63
NtRp2202
(dp2203
g66
(dp2204
sg75
g2031
sg68
(lp2205
g61
(g82
g63
NtRp2206
(dp2207
g66
(dp2208
g86
g87
ssg75
g2202
sg68
(lp2209
g1226
asbag61
(g82
g63
NtRp2210
(dp2211
g66
(dp2212
g93
g94
ssg75
g2202
sg68
(lp2213
S':'
asbag61
(g82
g63
NtRp2214
(dp2215
g66
(dp2216
sg75
g2202
sg68
(lp2217
g61
(g62
g63
NtRp2218
(dp2219
g66
(dp2220
g74
I4
ssg75
g2214
sg68
(lp2221
g847
asbasbasbag61
(g77
g63
NtRp2222
(dp2223
g66
(dp2224
sg75
g2031
sg68
(lp2225
g61
(g82
g63
NtRp2226
(dp2227
g66
(dp2228
g86
g87
ssg75
g2222
sg68
(lp2229
g1247
asbag61
(g82
g63
NtRp2230
(dp2231
g66
(dp2232
g93
g94
ssg75
g2222
sg68
(lp2233
S':'
asbag61
(g82
g63
NtRp2234
(dp2235
g66
(dp2236
sg75
g2222
sg68
(lp2237
g61
(g62
g63
NtRp2238
(dp2239
g66
(dp2240
g74
I4
ssg75
g2234
sg68
(lp2241
g61
(g70
g63
NtRp2242
(dp2243
g66
(dp2244
g74
I3
ssg75
Nsg68
(lp2245
g61
(g77
g63
NtRp2246
(dp2247
g66
(dp2248
sg75
g2242
sg68
(lp2249
g61
(g82
g63
NtRp2250
(dp2251
g66
(dp2252
sg75
g2246
sg68
(lp2253
g61
(g62
g63
NtRp2254
(dp2255
g66
(dp2256
g74
I3
ssg75
g2250
sg68
(lp2257
g1276
asbasbasbag61
(g77
g63
NtRp2258
(dp2259
g66
(dp2260
sg75
g2242
sg68
(lp2261
g61
(g82
g63
NtRp2262
(dp2263
g66
(dp2264
sg75
g2258
sg68
(lp2265
g61
(g62
g63
NtRp2266
(dp2267
g66
(dp2268
g74
I3
ssg75
g2262
sg68
(lp2269
g1289
asbasbasbag61
(g77
g63
NtRp2270
(dp2271
g66
(dp2272
sg75
g2242
sg68
(lp2273
g61
(g82
g63
NtRp2274
(dp2275
g66
(dp2276
sg75
g2270
sg68
(lp2277
g61
(g62
g63
NtRp2278
(dp2279
g66
(dp2280
g74
I3
ssg75
g2274
sg68
(lp2281
g1302
asbasbasbag61
(g77
g63
NtRp2282
(dp2283
g66
(dp2284
sg75
g2242
sg68
(lp2285
g61
(g82
g63
NtRp2286
(dp2287
g66
(dp2288
sg75
g2282
sg68
(lp2289
g61
(g62
g63
NtRp2290
(dp2291
g66
(dp2292
g74
I3
ssg75
g2286
sg68
(lp2293
g1315
asbasbasbag61
(g77
g63
NtRp2294
(dp2295
g66
(dp2296
sg75
g2242
sg68
(lp2297
g61
(g82
g63
NtRp2298
(dp2299
g66
(dp2300
sg75
g2294
sg68
(lp2301
g61
(g62
g63
NtRp2302
(dp2303
g66
(dp2304
g74
I3
ssg75
g2298
sg68
(lp2305
g1328
asbasbasbasbasbasbasbag61
(g77
g63
NtRp2306
(dp2307
g66
(dp2308
sg75
g2031
sg68
(lp2309
g61
(g82
g63
NtRp2310
(dp2311
g66
(dp2312
g86
g87
ssg75
g2306
sg68
(lp2313
g1619
asbag61
(g82
g63
NtRp2314
(dp2315
g66
(dp2316
g93
g94
ssg75
g2306
sg68
(lp2317
S':'
asbag61
(g82
g63
NtRp2318
(dp2319
g66
(dp2320
sg75
g2306
sg68
(lp2321
g61
(g62
g63
NtRp2322
(dp2323
g66
(dp2324
g74
I4
ssg75
g2318
sg68
(lp2325
g61
(g70
g63
NtRp2326
(dp2327
g66
(dp2328
g74
I3
ssg75
Nsg68
(lp2329
g61
(g77
g63
NtRp2330
(dp2331
g66
(dp2332
sg75
g2326
sg68
(lp2333
g61
(g82
g63
NtRp2334
(dp2335
g66
(dp2336
sg75
g2330
sg68
(lp2337
g61
(g62
g63
NtRp2338
(dp2339
g66
(dp2340
g74
I3
ssg75
g2334
sg68
(lp2341
S'2'
asbasbasbag61
(g77
g63
NtRp2342
(dp2343
g66
(dp2344
sg75
g2326
sg68
(lp2345
g61
(g82
g63
NtRp2346
(dp2347
g66
(dp2348
sg75
g2342
sg68
(lp2349
g61
(g62
g63
NtRp2350
(dp2351
g66
(dp2352
g74
I3
ssg75
g2346
sg68
(lp2353
S'2'
asbasbasbag61
(g77
g63
NtRp2354
(dp2355
g66
(dp2356
sg75
g2326
sg68
(lp2357
g61
(g82
g63
NtRp2358
(dp2359
g66
(dp2360
sg75
g2354
sg68
(lp2361
g61
(g62
g63
NtRp2362
(dp2363
g66
(dp2364
g74
I3
ssg75
g2358
sg68
(lp2365
S'1'
asbasbasbag61
(g77
g63
NtRp2366
(dp2367
g66
(dp2368
sg75
g2326
sg68
(lp2369
g61
(g82
g63
NtRp2370
(dp2371
g66
(dp2372
sg75
g2366
sg68
(lp2373
g61
(g62
g63
NtRp2374
(dp2375
g66
(dp2376
g74
I3
ssg75
g2370
sg68
(lp2377
S'datetime.datetime(2012, 10, 21, 16, 57, 4)'
p2378
asbasbasbag61
(g77
g63
NtRp2379
(dp2380
g66
(dp2381
sg75
g2326
sg68
(lp2382
g61
(g82
g63
NtRp2383
(dp2384
g66
(dp2385
sg75
g2379
sg68
(lp2386
g61
(g62
g63
NtRp2387
(dp2388
g66
(dp2389
g74
I3
ssg75
g2383
sg68
(lp2390
g1697
asbasbasbasbasbasbasbasbasbasbasbag61
(g77
g63
NtRp2391
(dp2392
g66
(dp2393
sg75
g71
sg68
(lp2394
g61
(g82
g63
NtRp2395
(dp2396
g66
(dp2397
g86
g87
ssg75
g2391
sg68
(lp2398
S'is_https'
p2399
asbag61
(g82
g63
NtRp2400
(dp2401
g66
(dp2402
g93
g94
ssg75
g2391
sg68
(lp2403
S':'
asbag61
(g82
g63
NtRp2404
(dp2405
g66
(dp2406
sg75
g2391
sg68
(lp2407
g61
(g62
g63
NtRp2408
(dp2409
g66
(dp2410
g74
I5
ssg75
g2404
sg68
(lp2411
g847
asbasbasbag61
(g77
g63
NtRp2412
(dp2413
g66
(dp2414
sg75
g71
sg68
(lp2415
g61
(g82
g63
NtRp2416
(dp2417
g66
(dp2418
g86
g87
ssg75
g2412
sg68
(lp2419
S'is_local'
p2420
asbag61
(g82
g63
NtRp2421
(dp2422
g66
(dp2423
g93
g94
ssg75
g2412
sg68
(lp2424
S':'
asbag61
(g82
g63
NtRp2425
(dp2426
g66
(dp2427
sg75
g2412
sg68
(lp2428
g61
(g62
g63
NtRp2429
(dp2430
g66
(dp2431
g74
I5
ssg75
g2425
sg68
(lp2432
g104
asbasbasbag61
(g77
g63
NtRp2433
(dp2434
g66
(dp2435
sg75
g71
sg68
(lp2436
g61
(g82
g63
NtRp2437
(dp2438
g66
(dp2439
g86
g87
ssg75
g2433
sg68
(lp2440
S'is_restful'
p2441
asbag61
(g82
g63
NtRp2442
(dp2443
g66
(dp2444
g93
g94
ssg75
g2433
sg68
(lp2445
S':'
asbag61
(g82
g63
NtRp2446
(dp2447
g66
(dp2448
sg75
g2433
sg68
(lp2449
g61
(g62
g63
NtRp2450
(dp2451
g66
(dp2452
g74
I5
ssg75
g2446
sg68
(lp2453
g847
asbasbasbag61
(g77
g63
NtRp2454
(dp2455
g66
(dp2456
sg75
g71
sg68
(lp2457
g61
(g82
g63
NtRp2458
(dp2459
g66
(dp2460
g86
g87
ssg75
g2454
sg68
(lp2461
S'now'
p2462
asbag61
(g82
g63
NtRp2463
(dp2464
g66
(dp2465
g93
g94
ssg75
g2454
sg68
(lp2466
S':'
asbag61
(g82
g63
NtRp2467
(dp2468
g66
(dp2469
sg75
g2454
sg68
(lp2470
g61
(g62
g63
NtRp2471
(dp2472
g66
(dp2473
g74
I5
ssg75
g2467
sg68
(lp2474
S'datetime.datetime(2012, 11, 10, 21, 12, 44, 718000)'
p2475
asbasbasbag61
(g77
g63
NtRp2476
(dp2477
g66
(dp2478
sg75
g71
sg68
(lp2479
g61
(g82
g63
NtRp2480
(dp2481
g66
(dp2482
g86
g87
ssg75
g2476
sg68
(lp2483
S'post_vars'
p2484
asbag61
(g82
g63
NtRp2485
(dp2486
g66
(dp2487
g93
g94
ssg75
g2476
sg68
(lp2488
S':'
asbag61
(g82
g63
NtRp2489
(dp2490
g66
(dp2491
sg75
g2476
sg68
(lp2492
g61
(g62
g63
NtRp2493
(dp2494
g66
(dp2495
g74
I5
ssg75
g2489
sg68
(lp2496
g61
(g70
g63
NtRp2497
(dp2498
g66
(dp2499
g74
I4
ssg75
Nsg68
(lp2500
g61
(g77
g63
NtRp2501
(dp2502
g66
(dp2503
sg75
g2497
sg68
(lp2504
g61
(g82
g63
NtRp2505
(dp2506
g66
(dp2507
g86
g87
ssg75
g2501
sg68
(lp2508
S'bgcolor'
p2509
asbag61
(g82
g63
NtRp2510
(dp2511
g66
(dp2512
g93
g94
ssg75
g2501
sg68
(lp2513
S':'
asbag61
(g82
g63
NtRp2514
(dp2515
g66
(dp2516
sg75
g2501
sg68
(lp2517
g61
(g62
g63
NtRp2518
(dp2519
g66
(dp2520
g74
I4
ssg75
g2514
sg68
(lp2521
S''
asbasbasbag61
(g77
g63
NtRp2522
(dp2523
g66
(dp2524
sg75
g2497
sg68
(lp2525
g61
(g82
g63
NtRp2526
(dp2527
g66
(dp2528
g86
g87
ssg75
g2522
sg68
(lp2529
S'description'
p2530
asbag61
(g82
g63
NtRp2531
(dp2532
g66
(dp2533
g93
g94
ssg75
g2522
sg68
(lp2534
S':'
asbag61
(g82
g63
NtRp2535
(dp2536
g66
(dp2537
sg75
g2522
sg68
(lp2538
g61
(g62
g63
NtRp2539
(dp2540
g66
(dp2541
g74
I4
ssg75
g2535
sg68
(lp2542
S''
asbasbasbag61
(g77
g63
NtRp2543
(dp2544
g66
(dp2545
sg75
g2497
sg68
(lp2546
g61
(g82
g63
NtRp2547
(dp2548
g66
(dp2549
g86
g87
ssg75
g2543
sg68
(lp2550
S'id'
p2551
asbag61
(g82
g63
NtRp2552
(dp2553
g66
(dp2554
g93
g94
ssg75
g2543
sg68
(lp2555
S':'
asbag61
(g82
g63
NtRp2556
(dp2557
g66
(dp2558
sg75
g2543
sg68
(lp2559
g61
(g62
g63
NtRp2560
(dp2561
g66
(dp2562
g74
I4
ssg75
g2556
sg68
(lp2563
S'2'
asbasbasbag61
(g77
g63
NtRp2564
(dp2565
g66
(dp2566
sg75
g2497
sg68
(lp2567
g61
(g82
g63
NtRp2568
(dp2569
g66
(dp2570
g86
g87
ssg75
g2564
sg68
(lp2571
S'id_section'
p2572
asbag61
(g82
g63
NtRp2573
(dp2574
g66
(dp2575
g93
g94
ssg75
g2564
sg68
(lp2576
S':'
asbag61
(g82
g63
NtRp2577
(dp2578
g66
(dp2579
sg75
g2564
sg68
(lp2580
g61
(g62
g63
NtRp2581
(dp2582
g66
(dp2583
g74
I4
ssg75
g2577
sg68
(lp2584
S''
asbasbasbag61
(g77
g63
NtRp2585
(dp2586
g66
(dp2587
sg75
g2497
sg68
(lp2588
g61
(g82
g63
NtRp2589
(dp2590
g66
(dp2591
g86
g87
ssg75
g2585
sg68
(lp2592
S'oldposition'
p2593
asbag61
(g82
g63
NtRp2594
(dp2595
g66
(dp2596
g93
g94
ssg75
g2585
sg68
(lp2597
S':'
asbag61
(g82
g63
NtRp2598
(dp2599
g66
(dp2600
sg75
g2585
sg68
(lp2601
g61
(g62
g63
NtRp2602
(dp2603
g66
(dp2604
g74
I4
ssg75
g2598
sg68
(lp2605
S'4'
asbasbasbag61
(g77
g63
NtRp2606
(dp2607
g66
(dp2608
sg75
g2497
sg68
(lp2609
g61
(g82
g63
NtRp2610
(dp2611
g66
(dp2612
g86
g87
ssg75
g2606
sg68
(lp2613
S'position'
p2614
asbag61
(g82
g63
NtRp2615
(dp2616
g66
(dp2617
g93
g94
ssg75
g2606
sg68
(lp2618
S':'
asbag61
(g82
g63
NtRp2619
(dp2620
g66
(dp2621
sg75
g2606
sg68
(lp2622
g61
(g62
g63
NtRp2623
(dp2624
g66
(dp2625
g74
I4
ssg75
g2619
sg68
(lp2626
S'2'
asbasbasbag61
(g77
g63
NtRp2627
(dp2628
g66
(dp2629
sg75
g2497
sg68
(lp2630
g61
(g82
g63
NtRp2631
(dp2632
g66
(dp2633
g86
g87
ssg75
g2627
sg68
(lp2634
S'title'
p2635
asbag61
(g82
g63
NtRp2636
(dp2637
g66
(dp2638
g93
g94
ssg75
g2627
sg68
(lp2639
S':'
asbag61
(g82
g63
NtRp2640
(dp2641
g66
(dp2642
sg75
g2627
sg68
(lp2643
g61
(g62
g63
NtRp2644
(dp2645
g66
(dp2646
g74
I4
ssg75
g2640
sg68
(lp2647
S''
asbasbasbag61
(g77
g63
NtRp2648
(dp2649
g66
(dp2650
sg75
g2497
sg68
(lp2651
g61
(g82
g63
NtRp2652
(dp2653
g66
(dp2654
g86
g87
ssg75
g2648
sg68
(lp2655
S'width'
p2656
asbag61
(g82
g63
NtRp2657
(dp2658
g66
(dp2659
g93
g94
ssg75
g2648
sg68
(lp2660
S':'
asbag61
(g82
g63
NtRp2661
(dp2662
g66
(dp2663
sg75
g2648
sg68
(lp2664
g61
(g62
g63
NtRp2665
(dp2666
g66
(dp2667
g74
I4
ssg75
g2661
sg68
(lp2668
S'50.00'
p2669
asbasbasbasbasbasbasbag61
(g77
g63
NtRp2670
(dp2671
g66
(dp2672
sg75
g71
sg68
(lp2673
g61
(g82
g63
NtRp2674
(dp2675
g66
(dp2676
g86
g87
ssg75
g2670
sg68
(lp2677
S'raw_args'
p2678
asbag61
(g82
g63
NtRp2679
(dp2680
g66
(dp2681
g93
g94
ssg75
g2670
sg68
(lp2682
S':'
asbag61
(g82
g63
NtRp2683
(dp2684
g66
(dp2685
sg75
g2670
sg68
(lp2686
g61
(g62
g63
NtRp2687
(dp2688
g66
(dp2689
g74
I5
ssg75
g2683
sg68
(lp2690
S''
asbasbasbag61
(g77
g63
NtRp2691
(dp2692
g66
(dp2693
sg75
g71
sg68
(lp2694
g61
(g82
g63
NtRp2695
(dp2696
g66
(dp2697
g86
g87
ssg75
g2691
sg68
(lp2698
S'raw_extension'
p2699
asbag61
(g82
g63
NtRp2700
(dp2701
g66
(dp2702
g93
g94
ssg75
g2691
sg68
(lp2703
S':'
asbag61
(g82
g63
NtRp2704
(dp2705
g66
(dp2706
sg75
g2691
sg68
(lp2707
g61
(g62
g63
NtRp2708
(dp2709
g66
(dp2710
g74
I5
ssg75
g2704
sg68
(lp2711
S'None'
p2712
asbasbasbag61
(g77
g63
NtRp2713
(dp2714
g66
(dp2715
sg75
g71
sg68
(lp2716
g61
(g82
g63
NtRp2717
(dp2718
g66
(dp2719
g86
g87
ssg75
g2713
sg68
(lp2720
S'url'
p2721
asbag61
(g82
g63
NtRp2722
(dp2723
g66
(dp2724
g93
g94
ssg75
g2713
sg68
(lp2725
S':'
asbag61
(g82
g63
NtRp2726
(dp2727
g66
(dp2728
sg75
g2713
sg68
(lp2729
g61
(g62
g63
NtRp2730
(dp2731
g66
(dp2732
g74
I5
ssg75
g2726
sg68
(lp2733
g1350
asbasbasbag61
(g77
g63
NtRp2734
(dp2735
g66
(dp2736
sg75
g71
sg68
(lp2737
g61
(g82
g63
NtRp2738
(dp2739
g66
(dp2740
g86
g87
ssg75
g2734
sg68
(lp2741
S'utcnow'
p2742
asbag61
(g82
g63
NtRp2743
(dp2744
g66
(dp2745
g93
g94
ssg75
g2734
sg68
(lp2746
S':'
asbag61
(g82
g63
NtRp2747
(dp2748
g66
(dp2749
sg75
g2734
sg68
(lp2750
g61
(g62
g63
NtRp2751
(dp2752
g66
(dp2753
g74
I5
ssg75
g2747
sg68
(lp2754
S'datetime.datetime(2012, 11, 10, 21, 12, 44, 718000)'
p2755
asbasbasbag61
(g77
g63
NtRp2756
(dp2757
g66
(dp2758
sg75
g71
sg68
(lp2759
g61
(g82
g63
NtRp2760
(dp2761
g66
(dp2762
g86
g87
ssg75
g2756
sg68
(lp2763
S'uuid'
p2764
asbag61
(g82
g63
NtRp2765
(dp2766
g66
(dp2767
g93
g94
ssg75
g2756
sg68
(lp2768
S':'
asbag61
(g82
g63
NtRp2769
(dp2770
g66
(dp2771
sg75
g2756
sg68
(lp2772
g61
(g62
g63
NtRp2773
(dp2774
g66
(dp2775
g74
I5
ssg75
g2769
sg68
(lp2776
S'web2py_xlchart_dashboard/127.0.0.1.2012-11-10.21-12-44.5c5965cf-cc09-49ba-b240-160fc216938b'
p2777
asbasbasbag61
(g77
g63
NtRp2778
(dp2779
g66
(dp2780
sg75
g71
sg68
(lp2781
g61
(g82
g63
NtRp2782
(dp2783
g66
(dp2784
g86
g87
ssg75
g2778
sg68
(lp2785
S'vars'
p2786
asbag61
(g82
g63
NtRp2787
(dp2788
g66
(dp2789
g93
g94
ssg75
g2778
sg68
(lp2790
S':'
asbag61
(g82
g63
NtRp2791
(dp2792
g66
(dp2793
sg75
g2778
sg68
(lp2794
g61
(g62
g63
NtRp2795
(dp2796
g66
(dp2797
g74
I5
ssg75
g2791
sg68
(lp2798
g61
(g70
g63
NtRp2799
(dp2800
g66
(dp2801
g74
I4
ssg75
Nsg68
(lp2802
g61
(g77
g63
NtRp2803
(dp2804
g66
(dp2805
sg75
g2799
sg68
(lp2806
g61
(g82
g63
NtRp2807
(dp2808
g66
(dp2809
g86
g87
ssg75
g2803
sg68
(lp2810
g2509
asbag61
(g82
g63
NtRp2811
(dp2812
g66
(dp2813
g93
g94
ssg75
g2803
sg68
(lp2814
S':'
asbag61
(g82
g63
NtRp2815
(dp2816
g66
(dp2817
sg75
g2803
sg68
(lp2818
g61
(g62
g63
NtRp2819
(dp2820
g66
(dp2821
g74
I4
ssg75
g2815
sg68
(lp2822
S''
asbasbasbag61
(g77
g63
NtRp2823
(dp2824
g66
(dp2825
sg75
g2799
sg68
(lp2826
g61
(g82
g63
NtRp2827
(dp2828
g66
(dp2829
g86
g87
ssg75
g2823
sg68
(lp2830
g2530
asbag61
(g82
g63
NtRp2831
(dp2832
g66
(dp2833
g93
g94
ssg75
g2823
sg68
(lp2834
S':'
asbag61
(g82
g63
NtRp2835
(dp2836
g66
(dp2837
sg75
g2823
sg68
(lp2838
g61
(g62
g63
NtRp2839
(dp2840
g66
(dp2841
g74
I4
ssg75
g2835
sg68
(lp2842
S''
asbasbasbag61
(g77
g63
NtRp2843
(dp2844
g66
(dp2845
sg75
g2799
sg68
(lp2846
g61
(g82
g63
NtRp2847
(dp2848
g66
(dp2849
g86
g87
ssg75
g2843
sg68
(lp2850
g2551
asbag61
(g82
g63
NtRp2851
(dp2852
g66
(dp2853
g93
g94
ssg75
g2843
sg68
(lp2854
S':'
asbag61
(g82
g63
NtRp2855
(dp2856
g66
(dp2857
sg75
g2843
sg68
(lp2858
g61
(g62
g63
NtRp2859
(dp2860
g66
(dp2861
g74
I4
ssg75
g2855
sg68
(lp2862
S'2'
asbasbasbag61
(g77
g63
NtRp2863
(dp2864
g66
(dp2865
sg75
g2799
sg68
(lp2866
g61
(g82
g63
NtRp2867
(dp2868
g66
(dp2869
g86
g87
ssg75
g2863
sg68
(lp2870
g2572
asbag61
(g82
g63
NtRp2871
(dp2872
g66
(dp2873
g93
g94
ssg75
g2863
sg68
(lp2874
S':'
asbag61
(g82
g63
NtRp2875
(dp2876
g66
(dp2877
sg75
g2863
sg68
(lp2878
g61
(g62
g63
NtRp2879
(dp2880
g66
(dp2881
g74
I4
ssg75
g2875
sg68
(lp2882
S''
asbasbasbag61
(g77
g63
NtRp2883
(dp2884
g66
(dp2885
sg75
g2799
sg68
(lp2886
g61
(g82
g63
NtRp2887
(dp2888
g66
(dp2889
g86
g87
ssg75
g2883
sg68
(lp2890
g2593
asbag61
(g82
g63
NtRp2891
(dp2892
g66
(dp2893
g93
g94
ssg75
g2883
sg68
(lp2894
S':'
asbag61
(g82
g63
NtRp2895
(dp2896
g66
(dp2897
sg75
g2883
sg68
(lp2898
g61
(g62
g63
NtRp2899
(dp2900
g66
(dp2901
g74
I4
ssg75
g2895
sg68
(lp2902
S'4'
asbasbasbag61
(g77
g63
NtRp2903
(dp2904
g66
(dp2905
sg75
g2799
sg68
(lp2906
g61
(g82
g63
NtRp2907
(dp2908
g66
(dp2909
g86
g87
ssg75
g2903
sg68
(lp2910
g2614
asbag61
(g82
g63
NtRp2911
(dp2912
g66
(dp2913
g93
g94
ssg75
g2903
sg68
(lp2914
S':'
asbag61
(g82
g63
NtRp2915
(dp2916
g66
(dp2917
sg75
g2903
sg68
(lp2918
g61
(g62
g63
NtRp2919
(dp2920
g66
(dp2921
g74
I4
ssg75
g2915
sg68
(lp2922
S'2'
asbasbasbag61
(g77
g63
NtRp2923
(dp2924
g66
(dp2925
sg75
g2799
sg68
(lp2926
g61
(g82
g63
NtRp2927
(dp2928
g66
(dp2929
g86
g87
ssg75
g2923
sg68
(lp2930
g1997
asbag61
(g82
g63
NtRp2931
(dp2932
g66
(dp2933
g93
g94
ssg75
g2923
sg68
(lp2934
S':'
asbag61
(g82
g63
NtRp2935
(dp2936
g66
(dp2937
sg75
g2923
sg68
(lp2938
g61
(g62
g63
NtRp2939
(dp2940
g66
(dp2941
g74
I4
ssg75
g2935
sg68
(lp2942
S'2'
asbasbasbag61
(g77
g63
NtRp2943
(dp2944
g66
(dp2945
sg75
g2799
sg68
(lp2946
g61
(g82
g63
NtRp2947
(dp2948
g66
(dp2949
g86
g87
ssg75
g2943
sg68
(lp2950
g2635
asbag61
(g82
g63
NtRp2951
(dp2952
g66
(dp2953
g93
g94
ssg75
g2943
sg68
(lp2954
S':'
asbag61
(g82
g63
NtRp2955
(dp2956
g66
(dp2957
sg75
g2943
sg68
(lp2958
g61
(g62
g63
NtRp2959
(dp2960
g66
(dp2961
g74
I4
ssg75
g2955
sg68
(lp2962
S''
asbasbasbag61
(g77
g63
NtRp2963
(dp2964
g66
(dp2965
sg75
g2799
sg68
(lp2966
g61
(g82
g63
NtRp2967
(dp2968
g66
(dp2969
g86
g87
ssg75
g2963
sg68
(lp2970
g2656
asbag61
(g82
g63
NtRp2971
(dp2972
g66
(dp2973
g93
g94
ssg75
g2963
sg68
(lp2974
S':'
asbag61
(g82
g63
NtRp2975
(dp2976
g66
(dp2977
sg75
g2963
sg68
(lp2978
g61
(g62
g63
NtRp2979
(dp2980
g66
(dp2981
g74
I4
ssg75
g2975
sg68
(lp2982
g2669
asbasbasbasbasbasbasbag61
(g77
g63
NtRp2983
(dp2984
g66
(dp2985
sg75
g71
sg68
(lp2986
g61
(g82
g63
NtRp2987
(dp2988
g66
(dp2989
g86
g87
ssg75
g2983
sg68
(lp2990
S'wsgi'
p2991
asbag61
(g82
g63
NtRp2992
(dp2993
g66
(dp2994
g93
g94
ssg75
g2983
sg68
(lp2995
S':'
asbag61
(g82
g63
NtRp2996
(dp2997
g66
(dp2998
sg75
g2983
sg68
(lp2999
g61
(g62
g63
NtRp3000
(dp3001
g66
(dp3002
g74
I5
ssg75
g2996
sg68
(lp3003
g61
(g70
g63
NtRp3004
(dp3005
g66
(dp3006
g74
I4
ssg75
Nsg68
(lp3007
g61
(g77
g63
NtRp3008
(dp3009
g66
(dp3010
sg75
g3004
sg68
(lp3011
g61
(g82
g63
NtRp3012
(dp3013
g66
(dp3014
g86
g87
ssg75
g3008
sg68
(lp3015
S'environ'
p3016
asbag61
(g82
g63
NtRp3017
(dp3018
g66
(dp3019
g93
g94
ssg75
g3008
sg68
(lp3020
S':'
asbag61
(g82
g63
NtRp3021
(dp3022
g66
(dp3023
sg75
g3008
sg68
(lp3024
g61
(g62
g63
NtRp3025
(dp3026
g66
(dp3027
g74
I4
ssg75
g3021
sg68
(lp3028
g61
(g70
g63
NtRp3029
(dp3030
g66
(dp3031
g74
I3
ssg75
Nsg68
(lp3032
g61
(g77
g63
NtRp3033
(dp3034
g66
(dp3035
sg75
g3029
sg68
(lp3036
g61
(g82
g63
NtRp3037
(dp3038
g66
(dp3039
g86
g87
ssg75
g3033
sg68
(lp3040
S'CONTENT_LENGTH'
p3041
asbag61
(g82
g63
NtRp3042
(dp3043
g66
(dp3044
g93
g94
ssg75
g3033
sg68
(lp3045
S':'
asbag61
(g82
g63
NtRp3046
(dp3047
g66
(dp3048
sg75
g3033
sg68
(lp3049
g61
(g62
g63
NtRp3050
(dp3051
g66
(dp3052
g74
I3
ssg75
g3046
sg68
(lp3053
g781
asbasbasbag61
(g77
g63
NtRp3054
(dp3055
g66
(dp3056
sg75
g3029
sg68
(lp3057
g61
(g82
g63
NtRp3058
(dp3059
g66
(dp3060
g86
g87
ssg75
g3054
sg68
(lp3061
S'CONTENT_TYPE'
p3062
asbag61
(g82
g63
NtRp3063
(dp3064
g66
(dp3065
g93
g94
ssg75
g3054
sg68
(lp3066
S':'
asbag61
(g82
g63
NtRp3067
(dp3068
g66
(dp3069
sg75
g3054
sg68
(lp3070
g61
(g62
g63
NtRp3071
(dp3072
g66
(dp3073
g74
I3
ssg75
g3067
sg68
(lp3074
g803
asbasbasbag61
(g77
g63
NtRp3075
(dp3076
g66
(dp3077
sg75
g3029
sg68
(lp3078
g61
(g82
g63
NtRp3079
(dp3080
g66
(dp3081
g86
g87
ssg75
g3075
sg68
(lp3082
S'HTTP_ACCEPT'
p3083
asbag61
(g82
g63
NtRp3084
(dp3085
g66
(dp3086
g93
g94
ssg75
g3075
sg68
(lp3087
S':'
asbag61
(g82
g63
NtRp3088
(dp3089
g66
(dp3090
sg75
g3075
sg68
(lp3091
g61
(g62
g63
NtRp3092
(dp3093
g66
(dp3094
g74
I3
ssg75
g3088
sg68
(lp3095
g891
asbasbasbag61
(g77
g63
NtRp3096
(dp3097
g66
(dp3098
sg75
g3029
sg68
(lp3099
g61
(g82
g63
NtRp3100
(dp3101
g66
(dp3102
g86
g87
ssg75
g3096
sg68
(lp3103
S'HTTP_ACCEPT_CHARSET'
p3104
asbag61
(g82
g63
NtRp3105
(dp3106
g66
(dp3107
g93
g94
ssg75
g3096
sg68
(lp3108
S':'
asbag61
(g82
g63
NtRp3109
(dp3110
g66
(dp3111
sg75
g3096
sg68
(lp3112
g61
(g62
g63
NtRp3113
(dp3114
g66
(dp3115
g74
I3
ssg75
g3109
sg68
(lp3116
g913
asbasbasbag61
(g77
g63
NtRp3117
(dp3118
g66
(dp3119
sg75
g3029
sg68
(lp3120
g61
(g82
g63
NtRp3121
(dp3122
g66
(dp3123
g86
g87
ssg75
g3117
sg68
(lp3124
S'HTTP_ACCEPT_ENCODING'
p3125
asbag61
(g82
g63
NtRp3126
(dp3127
g66
(dp3128
g93
g94
ssg75
g3117
sg68
(lp3129
S':'
asbag61
(g82
g63
NtRp3130
(dp3131
g66
(dp3132
sg75
g3117
sg68
(lp3133
g61
(g62
g63
NtRp3134
(dp3135
g66
(dp3136
g74
I3
ssg75
g3130
sg68
(lp3137
g935
asbasbasbag61
(g77
g63
NtRp3138
(dp3139
g66
(dp3140
sg75
g3029
sg68
(lp3141
g61
(g82
g63
NtRp3142
(dp3143
g66
(dp3144
g86
g87
ssg75
g3138
sg68
(lp3145
S'HTTP_ACCEPT_LANGUAGE'
p3146
asbag61
(g82
g63
NtRp3147
(dp3148
g66
(dp3149
g93
g94
ssg75
g3138
sg68
(lp3150
S':'
asbag61
(g82
g63
NtRp3151
(dp3152
g66
(dp3153
sg75
g3138
sg68
(lp3154
g61
(g62
g63
NtRp3155
(dp3156
g66
(dp3157
g74
I3
ssg75
g3151
sg68
(lp3158
g957
asbasbasbag61
(g77
g63
NtRp3159
(dp3160
g66
(dp3161
sg75
g3029
sg68
(lp3162
g61
(g82
g63
NtRp3163
(dp3164
g66
(dp3165
g86
g87
ssg75
g3159
sg68
(lp3166
S'HTTP_CONNECTION'
p3167
asbag61
(g82
g63
NtRp3168
(dp3169
g66
(dp3170
g93
g94
ssg75
g3159
sg68
(lp3171
S':'
asbag61
(g82
g63
NtRp3172
(dp3173
g66
(dp3174
sg75
g3159
sg68
(lp3175
g61
(g62
g63
NtRp3176
(dp3177
g66
(dp3178
g74
I3
ssg75
g3172
sg68
(lp3179
g979
asbasbasbag61
(g77
g63
NtRp3180
(dp3181
g66
(dp3182
sg75
g3029
sg68
(lp3183
g61
(g82
g63
NtRp3184
(dp3185
g66
(dp3186
g86
g87
ssg75
g3180
sg68
(lp3187
S'HTTP_CONTENT_LENGTH'
p3188
asbag61
(g82
g63
NtRp3189
(dp3190
g66
(dp3191
g93
g94
ssg75
g3180
sg68
(lp3192
S':'
asbag61
(g82
g63
NtRp3193
(dp3194
g66
(dp3195
sg75
g3180
sg68
(lp3196
g61
(g62
g63
NtRp3197
(dp3198
g66
(dp3199
g74
I3
ssg75
g3193
sg68
(lp3200
g781
asbasbasbag61
(g77
g63
NtRp3201
(dp3202
g66
(dp3203
sg75
g3029
sg68
(lp3204
g61
(g82
g63
NtRp3205
(dp3206
g66
(dp3207
g86
g87
ssg75
g3201
sg68
(lp3208
S'HTTP_CONTENT_TYPE'
p3209
asbag61
(g82
g63
NtRp3210
(dp3211
g66
(dp3212
g93
g94
ssg75
g3201
sg68
(lp3213
S':'
asbag61
(g82
g63
NtRp3214
(dp3215
g66
(dp3216
sg75
g3201
sg68
(lp3217
g61
(g62
g63
NtRp3218
(dp3219
g66
(dp3220
g74
I3
ssg75
g3214
sg68
(lp3221
g803
asbasbasbag61
(g77
g63
NtRp3222
(dp3223
g66
(dp3224
sg75
g3029
sg68
(lp3225
g61
(g82
g63
NtRp3226
(dp3227
g66
(dp3228
g86
g87
ssg75
g3222
sg68
(lp3229
S'HTTP_COOKIE'
p3230
asbag61
(g82
g63
NtRp3231
(dp3232
g66
(dp3233
g93
g94
ssg75
g3222
sg68
(lp3234
S':'
asbag61
(g82
g63
NtRp3235
(dp3236
g66
(dp3237
sg75
g3222
sg68
(lp3238
g61
(g62
g63
NtRp3239
(dp3240
g66
(dp3241
g74
I3
ssg75
g3235
sg68
(lp3242
g1043
asbasbasbag61
(g77
g63
NtRp3243
(dp3244
g66
(dp3245
sg75
g3029
sg68
(lp3246
g61
(g82
g63
NtRp3247
(dp3248
g66
(dp3249
g86
g87
ssg75
g3243
sg68
(lp3250
S'HTTP_HOST'
p3251
asbag61
(g82
g63
NtRp3252
(dp3253
g66
(dp3254
g93
g94
ssg75
g3243
sg68
(lp3255
S':'
asbag61
(g82
g63
NtRp3256
(dp3257
g66
(dp3258
sg75
g3243
sg68
(lp3259
g61
(g62
g63
NtRp3260
(dp3261
g66
(dp3262
g74
I3
ssg75
g3256
sg68
(lp3263
g1065
asbasbasbag61
(g77
g63
NtRp3264
(dp3265
g66
(dp3266
sg75
g3029
sg68
(lp3267
g61
(g82
g63
NtRp3268
(dp3269
g66
(dp3270
g86
g87
ssg75
g3264
sg68
(lp3271
S'HTTP_ORIGIN'
p3272
asbag61
(g82
g63
NtRp3273
(dp3274
g66
(dp3275
g93
g94
ssg75
g3264
sg68
(lp3276
S':'
asbag61
(g82
g63
NtRp3277
(dp3278
g66
(dp3279
sg75
g3264
sg68
(lp3280
g61
(g62
g63
NtRp3281
(dp3282
g66
(dp3283
g74
I3
ssg75
g3277
sg68
(lp3284
g1087
asbasbasbag61
(g77
g63
NtRp3285
(dp3286
g66
(dp3287
sg75
g3029
sg68
(lp3288
g61
(g82
g63
NtRp3289
(dp3290
g66
(dp3291
g86
g87
ssg75
g3285
sg68
(lp3292
S'HTTP_REFERER'
p3293
asbag61
(g82
g63
NtRp3294
(dp3295
g66
(dp3296
g93
g94
ssg75
g3285
sg68
(lp3297
S':'
asbag61
(g82
g63
NtRp3298
(dp3299
g66
(dp3300
sg75
g3285
sg68
(lp3301
g61
(g62
g63
NtRp3302
(dp3303
g66
(dp3304
g74
I3
ssg75
g3298
sg68
(lp3305
g1109
asbasbasbag61
(g77
g63
NtRp3306
(dp3307
g66
(dp3308
sg75
g3029
sg68
(lp3309
g61
(g82
g63
NtRp3310
(dp3311
g66
(dp3312
g86
g87
ssg75
g3306
sg68
(lp3313
S'HTTP_USER_AGENT'
p3314
asbag61
(g82
g63
NtRp3315
(dp3316
g66
(dp3317
g93
g94
ssg75
g3306
sg68
(lp3318
S':'
asbag61
(g82
g63
NtRp3319
(dp3320
g66
(dp3321
sg75
g3306
sg68
(lp3322
g61
(g62
g63
NtRp3323
(dp3324
g66
(dp3325
g74
I3
ssg75
g3319
sg68
(lp3326
g1131
asbasbasbag61
(g77
g63
NtRp3327
(dp3328
g66
(dp3329
sg75
g3029
sg68
(lp3330
g61
(g82
g63
NtRp3331
(dp3332
g66
(dp3333
g86
g87
ssg75
g3327
sg68
(lp3334
S'HTTP_WEB2PY_COMPONENT_ELEMENT'
p3335
asbag61
(g82
g63
NtRp3336
(dp3337
g66
(dp3338
g93
g94
ssg75
g3327
sg68
(lp3339
S':'
asbag61
(g82
g63
NtRp3340
(dp3341
g66
(dp3342
sg75
g3327
sg68
(lp3343
g61
(g62
g63
NtRp3344
(dp3345
g66
(dp3346
g74
I3
ssg75
g3340
sg68
(lp3347
g194
asbasbasbag61
(g77
g63
NtRp3348
(dp3349
g66
(dp3350
sg75
g3029
sg68
(lp3351
g61
(g82
g63
NtRp3352
(dp3353
g66
(dp3354
g86
g87
ssg75
g3348
sg68
(lp3355
S'HTTP_WEB2PY_COMPONENT_LOCATION'
p3356
asbag61
(g82
g63
NtRp3357
(dp3358
g66
(dp3359
g93
g94
ssg75
g3348
sg68
(lp3360
S':'
asbag61
(g82
g63
NtRp3361
(dp3362
g66
(dp3363
sg75
g3348
sg68
(lp3364
g61
(g62
g63
NtRp3365
(dp3366
g66
(dp3367
g74
I3
ssg75
g3361
sg68
(lp3368
g1174
asbasbasbag61
(g77
g63
NtRp3369
(dp3370
g66
(dp3371
sg75
g3029
sg68
(lp3372
g61
(g82
g63
NtRp3373
(dp3374
g66
(dp3375
g86
g87
ssg75
g3369
sg68
(lp3376
S'HTTP_X_REQUESTED_WITH'
p3377
asbag61
(g82
g63
NtRp3378
(dp3379
g66
(dp3380
g93
g94
ssg75
g3369
sg68
(lp3381
S':'
asbag61
(g82
g63
NtRp3382
(dp3383
g66
(dp3384
sg75
g3369
sg68
(lp3385
g61
(g62
g63
NtRp3386
(dp3387
g66
(dp3388
g74
I3
ssg75
g3382
sg68
(lp3389
g1196
asbasbasbag61
(g77
g63
NtRp3390
(dp3391
g66
(dp3392
sg75
g3029
sg68
(lp3393
g61
(g82
g63
NtRp3394
(dp3395
g66
(dp3396
g86
g87
ssg75
g3390
sg68
(lp3397
S'PATH_INFO'
p3398
asbag61
(g82
g63
NtRp3399
(dp3400
g66
(dp3401
g93
g94
ssg75
g3390
sg68
(lp3402
S':'
asbag61
(g82
g63
NtRp3403
(dp3404
g66
(dp3405
sg75
g3390
sg68
(lp3406
g61
(g62
g63
NtRp3407
(dp3408
g66
(dp3409
g74
I3
ssg75
g3403
sg68
(lp3410
g1350
asbasbasbag61
(g77
g63
NtRp3411
(dp3412
g66
(dp3413
sg75
g3029
sg68
(lp3414
g61
(g82
g63
NtRp3415
(dp3416
g66
(dp3417
g86
g87
ssg75
g3411
sg68
(lp3418
S'QUERY_STRING'
p3419
asbag61
(g82
g63
NtRp3420
(dp3421
g66
(dp3422
g93
g94
ssg75
g3411
sg68
(lp3423
S':'
asbag61
(g82
g63
NtRp3424
(dp3425
g66
(dp3426
sg75
g3411
sg68
(lp3427
g61
(g62
g63
NtRp3428
(dp3429
g66
(dp3430
g74
I3
ssg75
g3424
sg68
(lp3431
g1372
asbasbasbag61
(g77
g63
NtRp3432
(dp3433
g66
(dp3434
sg75
g3029
sg68
(lp3435
g61
(g82
g63
NtRp3436
(dp3437
g66
(dp3438
g86
g87
ssg75
g3432
sg68
(lp3439
S'REMOTE_ADDR'
p3440
asbag61
(g82
g63
NtRp3441
(dp3442
g66
(dp3443
g93
g94
ssg75
g3432
sg68
(lp3444
S':'
asbag61
(g82
g63
NtRp3445
(dp3446
g66
(dp3447
sg75
g3432
sg68
(lp3448
g61
(g62
g63
NtRp3449
(dp3450
g66
(dp3451
g74
I3
ssg75
g3445
sg68
(lp3452
g216
asbasbasbag61
(g77
g63
NtRp3453
(dp3454
g66
(dp3455
sg75
g3029
sg68
(lp3456
g61
(g82
g63
NtRp3457
(dp3458
g66
(dp3459
g86
g87
ssg75
g3453
sg68
(lp3460
S'REMOTE_PORT'
p3461
asbag61
(g82
g63
NtRp3462
(dp3463
g66
(dp3464
g93
g94
ssg75
g3453
sg68
(lp3465
S':'
asbag61
(g82
g63
NtRp3466
(dp3467
g66
(dp3468
sg75
g3453
sg68
(lp3469
g61
(g62
g63
NtRp3470
(dp3471
g66
(dp3472
g74
I3
ssg75
g3466
sg68
(lp3473
g1415
asbasbasbag61
(g77
g63
NtRp3474
(dp3475
g66
(dp3476
sg75
g3029
sg68
(lp3477
g61
(g82
g63
NtRp3478
(dp3479
g66
(dp3480
g86
g87
ssg75
g3474
sg68
(lp3481
S'REQUEST_METHOD'
p3482
asbag61
(g82
g63
NtRp3483
(dp3484
g66
(dp3485
g93
g94
ssg75
g3474
sg68
(lp3486
S':'
asbag61
(g82
g63
NtRp3487
(dp3488
g66
(dp3489
sg75
g3474
sg68
(lp3490
g61
(g62
g63
NtRp3491
(dp3492
g66
(dp3493
g74
I3
ssg75
g3487
sg68
(lp3494
g1437
asbasbasbag61
(g77
g63
NtRp3495
(dp3496
g66
(dp3497
sg75
g3029
sg68
(lp3498
g61
(g82
g63
NtRp3499
(dp3500
g66
(dp3501
g86
g87
ssg75
g3495
sg68
(lp3502
S'REQUEST_URI'
p3503
asbag61
(g82
g63
NtRp3504
(dp3505
g66
(dp3506
g93
g94
ssg75
g3495
sg68
(lp3507
S':'
asbag61
(g82
g63
NtRp3508
(dp3509
g66
(dp3510
sg75
g3495
sg68
(lp3511
g61
(g62
g63
NtRp3512
(dp3513
g66
(dp3514
g74
I3
ssg75
g3508
sg68
(lp3515
g1459
asbasbasbag61
(g77
g63
NtRp3516
(dp3517
g66
(dp3518
sg75
g3029
sg68
(lp3519
g61
(g82
g63
NtRp3520
(dp3521
g66
(dp3522
g86
g87
ssg75
g3516
sg68
(lp3523
S'SCRIPT_NAME'
p3524
asbag61
(g82
g63
NtRp3525
(dp3526
g66
(dp3527
g93
g94
ssg75
g3516
sg68
(lp3528
S':'
asbag61
(g82
g63
NtRp3529
(dp3530
g66
(dp3531
sg75
g3516
sg68
(lp3532
g61
(g62
g63
NtRp3533
(dp3534
g66
(dp3535
g74
I3
ssg75
g3529
sg68
(lp3536
S''
asbasbasbag61
(g77
g63
NtRp3537
(dp3538
g66
(dp3539
sg75
g3029
sg68
(lp3540
g61
(g82
g63
NtRp3541
(dp3542
g66
(dp3543
g86
g87
ssg75
g3537
sg68
(lp3544
S'SERVER_NAME'
p3545
asbag61
(g82
g63
NtRp3546
(dp3547
g66
(dp3548
g93
g94
ssg75
g3537
sg68
(lp3549
S':'
asbag61
(g82
g63
NtRp3550
(dp3551
g66
(dp3552
sg75
g3537
sg68
(lp3553
g61
(g62
g63
NtRp3554
(dp3555
g66
(dp3556
g74
I3
ssg75
g3550
sg68
(lp3557
g1315
asbasbasbag61
(g77
g63
NtRp3558
(dp3559
g66
(dp3560
sg75
g3029
sg68
(lp3561
g61
(g82
g63
NtRp3562
(dp3563
g66
(dp3564
g86
g87
ssg75
g3558
sg68
(lp3565
S'SERVER_PORT'
p3566
asbag61
(g82
g63
NtRp3567
(dp3568
g66
(dp3569
g93
g94
ssg75
g3558
sg68
(lp3570
S':'
asbag61
(g82
g63
NtRp3571
(dp3572
g66
(dp3573
sg75
g3558
sg68
(lp3574
g61
(g62
g63
NtRp3575
(dp3576
g66
(dp3577
g74
I3
ssg75
g3571
sg68
(lp3578
g1523
asbasbasbag61
(g77
g63
NtRp3579
(dp3580
g66
(dp3581
sg75
g3029
sg68
(lp3582
g61
(g82
g63
NtRp3583
(dp3584
g66
(dp3585
g86
g87
ssg75
g3579
sg68
(lp3586
S'SERVER_PROTOCOL'
p3587
asbag61
(g82
g63
NtRp3588
(dp3589
g66
(dp3590
g93
g94
ssg75
g3579
sg68
(lp3591
S':'
asbag61
(g82
g63
NtRp3592
(dp3593
g66
(dp3594
sg75
g3579
sg68
(lp3595
g61
(g62
g63
NtRp3596
(dp3597
g66
(dp3598
g74
I3
ssg75
g3592
sg68
(lp3599
g1545
asbasbasbag61
(g77
g63
NtRp3600
(dp3601
g66
(dp3602
sg75
g3029
sg68
(lp3603
g61
(g82
g63
NtRp3604
(dp3605
g66
(dp3606
g86
g87
ssg75
g3600
sg68
(lp3607
S'SERVER_SOFTWARE'
p3608
asbag61
(g82
g63
NtRp3609
(dp3610
g66
(dp3611
g93
g94
ssg75
g3600
sg68
(lp3612
S':'
asbag61
(g82
g63
NtRp3613
(dp3614
g66
(dp3615
sg75
g3600
sg68
(lp3616
g61
(g62
g63
NtRp3617
(dp3618
g66
(dp3619
g74
I3
ssg75
g3613
sg68
(lp3620
g1567
asbasbasbag61
(g77
g63
NtRp3621
(dp3622
g66
(dp3623
sg75
g3029
sg68
(lp3624
g61
(g82
g63
NtRp3625
(dp3626
g66
(dp3627
g86
g87
ssg75
g3621
sg68
(lp3628
S'WEB2PY_ORIGINAL_URI'
p3629
asbag61
(g82
g63
NtRp3630
(dp3631
g66
(dp3632
g93
g94
ssg75
g3621
sg68
(lp3633
S':'
asbag61
(g82
g63
NtRp3634
(dp3635
g66
(dp3636
sg75
g3621
sg68
(lp3637
g61
(g62
g63
NtRp3638
(dp3639
g66
(dp3640
g74
I3
ssg75
g3634
sg68
(lp3641
g1589
asbasbasbag61
(g77
g63
NtRp3642
(dp3643
g66
(dp3644
sg75
g3029
sg68
(lp3645
g61
(g82
g63
NtRp3646
(dp3647
g66
(dp3648
g86
g87
ssg75
g3642
sg68
(lp3649
S'wsgi.errors'
p3650
asbag61
(g82
g63
NtRp3651
(dp3652
g66
(dp3653
g93
g94
ssg75
g3642
sg68
(lp3654
S':'
asbag61
(g82
g63
NtRp3655
(dp3656
g66
(dp3657
sg75
g3642
sg68
(lp3658
g61
(g62
g63
NtRp3659
(dp3660
g66
(dp3661
g74
I3
ssg75
g3655
sg68
(lp3662
S"<open file '<stderr>', mode 'w' at 0x00A850D0>"
p3663
asbasbasbag61
(g77
g63
NtRp3664
(dp3665
g66
(dp3666
sg75
g3029
sg68
(lp3667
g61
(g82
g63
NtRp3668
(dp3669
g66
(dp3670
g86
g87
ssg75
g3664
sg68
(lp3671
S'wsgi.file_wrapper'
p3672
asbag61
(g82
g63
NtRp3673
(dp3674
g66
(dp3675
g93
g94
ssg75
g3664
sg68
(lp3676
S':'
asbag61
(g82
g63
NtRp3677
(dp3678
g66
(dp3679
sg75
g3664
sg68
(lp3680
g61
(g62
g63
NtRp3681
(dp3682
g66
(dp3683
g74
I3
ssg75
g3677
sg68
(lp3684
S'<class wsgiref.util.FileWrapper at 0x0172EE68>'
p3685
asbasbasbag61
(g77
g63
NtRp3686
(dp3687
g66
(dp3688
sg75
g3029
sg68
(lp3689
g61
(g82
g63
NtRp3690
(dp3691
g66
(dp3692
g86
g87
ssg75
g3686
sg68
(lp3693
S'wsgi.input'
p3694
asbag61
(g82
g63
NtRp3695
(dp3696
g66
(dp3697
g93
g94
ssg75
g3686
sg68
(lp3698
S':'
asbag61
(g82
g63
NtRp3699
(dp3700
g66
(dp3701
sg75
g3686
sg68
(lp3702
g61
(g62
g63
NtRp3703
(dp3704
g66
(dp3705
g74
I3
ssg75
g3699
sg68
(lp3706
S"<open file '<fdopen>', mode 'w+b' at 0x054B9128>"
p3707
asbasbasbag61
(g77
g63
NtRp3708
(dp3709
g66
(dp3710
sg75
g3029
sg68
(lp3711
g61
(g82
g63
NtRp3712
(dp3713
g66
(dp3714
g86
g87
ssg75
g3708
sg68
(lp3715
S'wsgi.multiprocess'
p3716
asbag61
(g82
g63
NtRp3717
(dp3718
g66
(dp3719
g93
g94
ssg75
g3708
sg68
(lp3720
S':'
asbag61
(g82
g63
NtRp3721
(dp3722
g66
(dp3723
sg75
g3708
sg68
(lp3724
g61
(g62
g63
NtRp3725
(dp3726
g66
(dp3727
g74
I3
ssg75
g3721
sg68
(lp3728
g847
asbasbasbag61
(g77
g63
NtRp3729
(dp3730
g66
(dp3731
sg75
g3029
sg68
(lp3732
g61
(g82
g63
NtRp3733
(dp3734
g66
(dp3735
g86
g87
ssg75
g3729
sg68
(lp3736
S'wsgi.multithread'
p3737
asbag61
(g82
g63
NtRp3738
(dp3739
g66
(dp3740
g93
g94
ssg75
g3729
sg68
(lp3741
S':'
asbag61
(g82
g63
NtRp3742
(dp3743
g66
(dp3744
sg75
g3729
sg68
(lp3745
g61
(g62
g63
NtRp3746
(dp3747
g66
(dp3748
g74
I3
ssg75
g3742
sg68
(lp3749
g104
asbasbasbag61
(g77
g63
NtRp3750
(dp3751
g66
(dp3752
sg75
g3029
sg68
(lp3753
g61
(g82
g63
NtRp3754
(dp3755
g66
(dp3756
g86
g87
ssg75
g3750
sg68
(lp3757
S'wsgi.run_once'
p3758
asbag61
(g82
g63
NtRp3759
(dp3760
g66
(dp3761
g93
g94
ssg75
g3750
sg68
(lp3762
S':'
asbag61
(g82
g63
NtRp3763
(dp3764
g66
(dp3765
sg75
g3750
sg68
(lp3766
g61
(g62
g63
NtRp3767
(dp3768
g66
(dp3769
g74
I3
ssg75
g3763
sg68
(lp3770
g847
asbasbasbag61
(g77
g63
NtRp3771
(dp3772
g66
(dp3773
sg75
g3029
sg68
(lp3774
g61
(g82
g63
NtRp3775
(dp3776
g66
(dp3777
g86
g87
ssg75
g3771
sg68
(lp3778
S'wsgi.url_scheme'
p3779
asbag61
(g82
g63
NtRp3780
(dp3781
g66
(dp3782
g93
g94
ssg75
g3771
sg68
(lp3783
S':'
asbag61
(g82
g63
NtRp3784
(dp3785
g66
(dp3786
sg75
g3771
sg68
(lp3787
g61
(g62
g63
NtRp3788
(dp3789
g66
(dp3790
g74
I3
ssg75
g3784
sg68
(lp3791
g1848
asbasbasbag61
(g77
g63
NtRp3792
(dp3793
g66
(dp3794
sg75
g3029
sg68
(lp3795
g61
(g82
g63
NtRp3796
(dp3797
g66
(dp3798
g86
g87
ssg75
g3792
sg68
(lp3799
S'wsgi.version'
p3800
asbag61
(g82
g63
NtRp3801
(dp3802
g66
(dp3803
g93
g94
ssg75
g3792
sg68
(lp3804
S':'
asbag61
(g82
g63
NtRp3805
(dp3806
g66
(dp3807
sg75
g3792
sg68
(lp3808
g61
(g62
g63
NtRp3809
(dp3810
g66
(dp3811
g74
I3
ssg75
g3805
sg68
(lp3812
S'1'
asbasbasbasbasbasbasbasbasbasbasbasbasbsS'frames'
p3813
(lp3814
(dp3815
S'file'
p3816
S'D:\\web2py\\source\\web2py\\gluon\\restricted.py'
p3817
sS'dump'
p3818
(dp3819
S'environment'
p3820
S"{'A': <class 'gluon.html.A'>, 'Auth': <class 'gluon.tools.Auth'>, 'B': <class 'gluon.html.B'>, 'BEAUTIFY': <class 'gluon.html.BEAUTIFY'>, 'BODY': <class 'gluon.html.BODY'>, 'BR': <class 'gluon.html.BR'>, 'BUTTON': <class 'gluon.html.BUTTON'>, 'CAT': <class 'gluon.html.CAT'>, 'CENTER': <class 'gluon.html.CENTER'>, 'CLEANUP': <class 'gluon.validators.CLEANUP'>, ...}"
p3821
sS'ccode'
p3822
S'<code object <module> at 04F77650, file "D:\\web2...hart_dashboard\\controllers/dashboard.py", line 3>'
p3823
ssS'lnum'
p3824
I212
sS'lines'
p3825
(dp3826
I207
S'    try:'
p3827
sI208
S'        if isinstance(code, types.CodeType):'
p3828
sI209
S'            ccode = code'
p3829
sI210
S'        else:'
p3830
sI211
S'            ccode = compile2(code, layer)'
p3831
sI212
S'        exec ccode in environment'
p3832
sI213
S'    except HTTP:'
p3833
sI214
S'        raise'
p3834
sI215
S'    except RestrictedError:'
p3835
sI216
S'        # do not encapsulate (obfuscate) the original RestrictedError'
p3836
ssS'call'
p3837
S"(code='# coding: utf8\\n# try something like\\ndef componen...db)\\n\\nresponse._vars=response._caller(edit_chart)\\n', environment={'A': <class 'gluon.html.A'>, 'Auth': <class 'gluon.tools.Auth'>, 'B': <class 'gluon.html.B'>, 'BEAUTIFY': <class 'gluon.html.BEAUTIFY'>, 'BODY': <class 'gluon.html.BODY'>, 'BR': <class 'gluon.html.BR'>, 'BUTTON': <class 'gluon.html.BUTTON'>, 'CAT': <class 'gluon.html.CAT'>, 'CENTER': <class 'gluon.html.CENTER'>, 'CLEANUP': <class 'gluon.validators.CLEANUP'>, ...}, layer=r'D:\\web2py\\source\\web2py\\applications\\web2py_xlchart_dashboard\\controllers/dashboard.py')"
p3838
sS'func'
p3839
S'restricted'
p3840
sa(dp3841
g3816
S'D:\\web2py\\source\\web2py\\applications\\web2py_xlchart_dashboard\\controllers\\dashboard.py'
p3842
sg3818
(dp3843
sg3824
I129
sg3825
(dp3844
I118
S"        redirect(URL('manage_dashboard'),client_side=True)"
p3845
sI119
S'    elif form.errors:'
p3846
sI120
S'        response.flash = "There were errors in the form"'
p3847
sI121
S'    else:'
p3848
sI122
S'        response.flash = "Use the form to edit this section"'
p3849
sI123
S'    return form'
p3850
sI124
S''
sI125
S'@auth.requires_login()'
p3851
sI126
S'def download():'
p3852
sI127
S'    return response.download(request, db)'
p3853
ssg3837
S'()'
p3854
sg3839
S'<module>'
p3855
sa(dp3856
g3816
S'D:\\web2py\\source\\web2py\\gluon\\globals.py'
p3857
sg3818
(dp3858
S'self'
p3859
S'undefined'
p3860
sS'f'
S'<function edit_chart>'
p3861
ssg3824
I188
sg3825
(dp3862
I192
S''
sI183
S'        self.menu = []             # used by the default view layout'
p3863
sI184
S'        self.files = []            # used by web2py_ajax.html'
p3864
sI185
S'        self.generic_patterns = []  # patterns to allow generic views'
p3865
sI186
S"        self.delimiters = ('{{', '}}')"
p3866
sI187
S'        self._vars = None'
p3867
sI188
S'        self._caller = lambda f: f()'
p3868
sI189
S'        self._view_environment = None'
p3869
sI190
S'        self._custom_commit = None'
p3870
sI191
S'        self._custom_rollback = None'
p3871
ssg3837
S'(f=<function edit_chart>)'
p3872
sg3839
S'<lambda>'
p3873
sa(dp3874
g3816
S'D:\\web2py\\source\\web2py\\gluon\\tools.py'
p3875
sg3818
(dp3876
S'action'
p3877
S'<function edit_chart>'
p3878
sS'a'
S'()'
p3879
sS'b'
g21
ssg3824
I2911
sg3825
(dp3880
I2912
S'            f.__doc__ = action.__doc__'
p3881
sI2913
S'            f.__name__ = action.__name__'
p3882
sI2914
S'            f.__dict__.update(action.__dict__)'
p3883
sI2915
S'            return f'
p3884
sI2906
S'                    flag = condition'
p3885
sI2907
S'                if not flag:'
p3886
sI2908
S'                    current.session.flash = self.messages.access_denied'
p3887
sI2909
S'                    return call_or_redirect('
p3888
sI2910
S'                        self.settings.on_failed_authorization)'
p3889
sI2911
S'                return action(*a, **b)'
p3890
ssg3837
S'(*a=(), **b={})'
p3891
sg3839
S'f'
sa(dp3892
g3816
S'D:\\web2py\\source\\web2py\\applications\\web2py_xlchart_dashboard\\controllers\\dashboard.py'
p3893
sg3818
(dp3894
S'form'
p3895
S'<gluon.sqlhtml.SQLFORM object>'
p3896
sS'form.validate'
p3897
S'<bound method SQLFORM.validate of <gluon.sqlhtml.SQLFORM object>>'
p3898
ssg3824
I81
sg3825
(dp3899
I76
S'@auth.requires_login()'
p3900
sI77
S'def edit_chart():'
p3901
sI78
S"    record = db.section_charts(request.vars['scid'])"
p3902
sI79
S"    form = SQLFORM(db.section_charts,record,Fields=('title','description','width','position'),deletable=True,hidden=dict(oldposition=record.position,id_section=request.vars['sid']))"
p3903
sI80
S''
sI81
S'    if form.process(onvalidation=change_img_position).accepted:'
p3904
sI82
S'        response.flash = "Chart Updated"'
p3905
sI83
S"        redirect(URL('manage_dashboard'),client_side=True)"
p3906
sI84
S'    elif form.errors:'
p3907
sI85
S'        response.flash = "The forms has errors"'
p3908
ssg3837
S'()'
p3909
sg3839
S'edit_chart'
p3910
sa(dp3911
g3816
S'D:\\web2py\\source\\web2py\\gluon\\html.py'
p3912
sg3818
(dp3913
S'self'
p3914
S'<gluon.sqlhtml.SQLFORM object>'
p3915
sS'self.validate'
p3916
S'<bound method SQLFORM.validate of <gluon.sqlhtml.SQLFORM object>>'
p3917
sS'kwargs'
p3918
S"{'dbio': True, 'onvalidation': <function change_img_position>}"
p3919
ssg3824
I2170
sg3825
(dp3920
I2165
S'        def action():'
p3921
sI2166
S'            return dict(form=SQLFORM(db.table).process(onsuccess=my_callback)'
p3922
sI2167
S'        """'
p3923
sI2168
S"        kwargs['dbio'] = kwargs.get('dbio', True)"
p3924
sI2169
S'                                    # necessary for SQLHTML forms'
p3925
sI2170
S'        self.validate(**kwargs)'
p3926
sI2171
S'        return self'
p3927
sI2172
S''
sI2173
S'    REDIRECT_JS = "window.location=\'%s\';return false"'
p3928
sI2174
S''
ssg3837
S"(self=<gluon.sqlhtml.SQLFORM object>, **kwargs={'dbio': True, 'onvalidation': <function change_img_position>})"
p3929
sg3839
S'process'
p3930
sa(dp3931
g3816
S'D:\\web2py\\source\\web2py\\gluon\\html.py'
p3932
sg3818
(dp3933
S'self'
p3934
S'<gluon.sqlhtml.SQLFORM object>'
p3935
sS'self.accepts'
p3936
S'<bound method SQLFORM.accepts of <gluon.sqlhtml.SQLFORM object>>'
p3937
sS'kwargs'
p3938
S"{'dbio': True, 'onvalidation': <function change_img_position>, 'request_vars': <Storage {'description': '', 'title': '', '_form...d4-de8b7efbf92b', 'id': '2', 'oldposition': '4'}>, 'session': <Storage {'_formkey[section_charts/7]': '83a6a5f...rts/3]': '28210271-a319-4d61-aeab-49e62237e8c6'}>}"
p3939
ssg3824
I2109
sg3825
(dp3940
I2112
S'                    current.session.flash = message_onsuccess'
p3941
sI2113
S'                else:'
p3942
sI2104
S"        for key in ('message_onsuccess', 'message_onfailure', 'onsuccess',"
p3943
sI2105
S"                    'onfailure', 'next', 'message_onchange', 'onchange'):"
p3944
sI2106
S'            if key in kwargs:'
p3945
sI2107
S'                del kwargs[key]'
p3946
sI2108
S''
sI2109
S'        if self.accepts(**kwargs):'
p3947
sI2110
S"            if onsuccess == 'flash':"
p3948
sI2111
S'                if next:'
p3949
ssg3837
S"(self=<gluon.sqlhtml.SQLFORM object>, **kwargs={'dbio': True, 'onvalidation': <function change_img_position>, 'request_vars': <Storage {'description': '', 'title': '', '_form...d4-de8b7efbf92b', 'id': '2', 'oldposition': '4'}>, 'session': <Storage {'_formkey[section_charts/7]': '83a6a5f...rts/3]': '28210271-a319-4d61-aeab-49e62237e8c6'}>})"
p3950
sg3839
S'validate'
p3951
sa(dp3952
g3816
S'D:\\web2py\\source\\web2py\\gluon\\sqlhtml.py'
p3953
sg3818
(dp3954
S'kwargs'
p3955
g21
ssg3824
I1281
sg3825
(dp3956
I1280
S'            hideerror=hideerror,'
p3957
sI1281
S'            **kwargs'
p3958
sI1282
S'        )'
p3959
sI1283
S''
sI1284
S'        self.deleted = \\'
p3960
sI1285
S'            request_vars.get(self.FIELDNAME_REQUEST_DELETE, False)'
p3961
sI1276
S'            session,'
p3962
sI1277
S'            formname,'
p3963
sI1278
S'            keepvalues,'
p3964
sI1279
S'            onvalidation,'
p3965
ssg3837
S"(self=<gluon.sqlhtml.SQLFORM object>, request_vars=<Storage {'description': '', 'title': '', '_form...d4-de8b7efbf92b', 'id': '2', 'oldposition': '4'}>, session=<Storage {'_formkey[section_charts/7]': '83a6a5f...rts/3]': '28210271-a319-4d61-aeab-49e62237e8c6'}>, formname='section_charts/2', keepvalues=True, onvalidation=<function change_img_position>, dbio=True, hideerror=False, detect_record_change=False, **kwargs={})"
p3966
sg3839
S'accepts'
p3967
sa(dp3968
g3816
S'D:\\web2py\\source\\web2py\\gluon\\html.py'
p3969
sg3818
(dp3970
S'self'
p3971
S'<gluon.sqlhtml.SQLFORM object>'
p3972
sS'onvalidation'
p3973
S'<function change_img_position>'
p3974
ssg3824
I2012
sg3825
(dp3975
I2016
S"            if hasattr(self, 'record_hash'):"
p3976
sI2007
S'                        onchange(self)'
p3977
sI2008
S'            elif status:'
p3978
sI2009
S'                if isinstance(onvalidation, (list, tuple)):'
p3979
sI2010
S'                    [f(self) for f in onvalidation]'
p3980
sI2011
S'                else:'
p3981
sI2012
S'                    onvalidation(self)'
p3982
sI2013
S'        if self.errors:'
p3983
sI2014
S'            status = False'
p3984
sI2015
S'        if not session is None:'
p3985
ssg3837
S"(self=<gluon.sqlhtml.SQLFORM object>, request_vars=<Storage {'description': '', 'title': '', 'id': ...rmname': 'section_charts/2', 'oldposition': '4'}>, session=<Storage {'_formkey[section_charts/7]': '83a6a5f...rts/3]': '28210271-a319-4d61-aeab-49e62237e8c6'}>, formname='section_charts/2', keepvalues=True, onvalidation=<function change_img_position>, hideerror=False, **kwargs={})"
p3986
sg3839
g3967
sa(dp3987
g3816
S'D:\\web2py\\source\\web2py\\applications\\web2py_xlchart_dashboard\\controllers\\dashboard.py'
p3988
sg3818
(dp3989
S'auth.requires_login'
p3990
S'<bound method Auth.requires_login of <gluon.tools.Auth object>>'
p3991
sS'global auth'
p3992
S'<gluon.tools.Auth object>'
p3993
ssg3824
I95
sg3825
(dp3994
I96
S'        print sql'
p3995
sI97
S'        print chartpos'
p3996
sI98
S'        #sql = "update section_charts set position = position + 1 where id_section = form.vars[\'id_section\'] and position >= " + str(form.vars[\'position\'])'
p3997
sI99
S'        #db.executesql(sql)'
p3998
sI90
S'def change_img_position(form):'
p3999
sI91
S"    print request.vars['oldposition'], form.vars['position']"
p4000
sI92
S"    if request.vars['oldposition'] != form.vars['position']:"
p4001
sI93
S'        print request.vars'
p4002
sI94
S'        sql = "select position from section_charts where id_section = " + str(request.vars.id_section)'
p4003
sI95
S'        chartpos = db.executesql(sql)'
p4004
ssg3837
S'(form=<gluon.sqlhtml.SQLFORM object>)'
p4005
sg3839
S'change_img_position'
p4006
sa(dp4007
g3816
S'D:\\web2py\\source\\web2py\\gluon\\dal.py'
p4008
sg3818
(dp4009
S'query'
p4010
S"'select position from section_charts where id_section = '"
p4011
sS'adapter'
p4012
S'<gluon.dal.SQLiteAdapter object>'
p4013
sS'adapter.execute'
p4014
S'<bound method SQLiteAdapter.execute of <gluon.dal.SQLiteAdapter object>>'
p4015
ssg3824
I7247
sg3825
(dp4016
I7242
S'        """'
p4017
sI7243
S'        adapter = self._adapter'
p4018
sI7244
S'        if placeholders:'
p4019
sI7245
S'            adapter.execute(query, placeholders)'
p4020
sI7246
S'        else:'
p4021
sI7247
S'            adapter.execute(query)'
p4022
sI7248
S'        if as_dict:'
p4023
sI7249
S"            if not hasattr(adapter.cursor,'description'):"
p4024
sI7250
S'                raise RuntimeError, "database does not support executesql(...,as_dict=True)"'
p4025
sI7251
S'            # Non-DAL legacy db query, converts cursor results to dict.'
p4026
ssg3837
S'(self=<DAL uri="sqlite://storage.sqlite">, query=\'select position from section_charts where id_section = \', placeholders=None, as_dict=False, fields=None, colnames=None)'
p4027
sg3839
S'executesql'
p4028
sa(dp4029
g3816
S'D:\\web2py\\source\\web2py\\gluon\\dal.py'
p4030
sg3818
(dp4031
S'a'
S"('select position from section_charts where id_section = ',)"
p4032
sS'self'
p4033
S'<gluon.dal.SQLiteAdapter object>'
p4034
sS'b'
g21
sS'self.log_execute'
p4035
S'<bound method SQLiteAdapter.log_execute of <gluon.dal.SQLiteAdapter object>>'
p4036
ssg3824
I1694
sg3825
(dp4037
I1696
S'    def represent(self, obj, fieldtype):'
p4038
sI1697
S'        field_is_type = fieldtype.startswith'
p4039
sI1698
S'        if isinstance(obj, CALLABLETYPES):'
p4040
sI1689
S'        self.db._timings.append((command,time.time()-t0))'
p4041
sI1690
S'        del self.db._timings[:-TIMINGSSIZE]'
p4042
sI1691
S'        return ret'
p4043
sI1692
S''
sI1693
S'    def execute(self, *a, **b):'
p4044
sI1694
S'        return self.log_execute(*a, **b)'
p4045
sI1695
S''
ssg3837
S"(self=<gluon.dal.SQLiteAdapter object>, *a=('select position from section_charts where id_section = ',), **b={})"
p4046
sg3839
S'execute'
p4047
sa(dp4048
g3816
S'D:\\web2py\\source\\web2py\\gluon\\dal.py'
p4049
sg3818
(dp4050
S'a'
S"('select position from section_charts where id_section = ',)"
p4051
sS'b'
g21
sS'self'
p4052
S'<gluon.dal.SQLiteAdapter object>'
p4053
sS'ret'
p4054
g3860
sS'self.cursor'
p4055
S'<sqlite3.Cursor object>'
p4056
sS'self.cursor.execute'
p4057
S'<built-in method execute of sqlite3.Cursor object>'
p4058
ssg3824
I1688
sg3825
(dp4059
I1683
S'        command = a[0]'
p4060
sI1684
S'        if self.db._debug:'
p4061
sI1685
S"            LOGGER.debug('SQL: %s' % command)"
p4062
sI1686
S'        self.db._lastsql = command'
p4063
sI1687
S'        t0 = time.time()'
p4064
sI1688
S'        ret = self.cursor.execute(*a, **b)'
p4065
sI1689
S'        self.db._timings.append((command,time.time()-t0))'
p4066
sI1690
S'        del self.db._timings[:-TIMINGSSIZE]'
p4067
sI1691
S'        return ret'
p4068
sI1692
S''
ssg3837
S"(self=<gluon.dal.SQLiteAdapter object>, *a=('select position from section_charts where id_section = ',), **b={})"
p4069
sg3839
S'log_execute'
p4070
sasS'pyver'
p4071
S'Python 2.7: d:\\python27\\python.exe'
p4072
sS'session'
p4073
g61
(g62
g63
NtRp4074
(dp4075
g66
(dp4076
sg68
(lp4077
g61
(g70
g63
NtRp4078
(dp4079
g66
(dp4080
g74
I5
ssg75
Nsg68
(lp4081
g61
(g77
g63
NtRp4082
(dp4083
g66
(dp4084
sg75
g4078
sg68
(lp4085
g61
(g82
g63
NtRp4086
(dp4087
g66
(dp4088
g86
g87
ssg75
g4082
sg68
(lp4089
S'auth'
p4090
asbag61
(g82
g63
NtRp4091
(dp4092
g66
(dp4093
g93
g94
ssg75
g4082
sg68
(lp4094
S':'
asbag61
(g82
g63
NtRp4095
(dp4096
g66
(dp4097
sg75
g4082
sg68
(lp4098
g61
(g62
g63
NtRp4099
(dp4100
g66
(dp4101
g74
I5
ssg75
g4095
sg68
(lp4102
g61
(g70
g63
NtRp4103
(dp4104
g66
(dp4105
g74
I4
ssg75
Nsg68
(lp4106
g61
(g77
g63
NtRp4107
(dp4108
g66
(dp4109
sg75
g4103
sg68
(lp4110
g61
(g82
g63
NtRp4111
(dp4112
g66
(dp4113
g86
g87
ssg75
g4107
sg68
(lp4114
S'expiration'
p4115
asbag61
(g82
g63
NtRp4116
(dp4117
g66
(dp4118
g93
g94
ssg75
g4107
sg68
(lp4119
S':'
asbag61
(g82
g63
NtRp4120
(dp4121
g66
(dp4122
sg75
g4107
sg68
(lp4123
g61
(g62
g63
NtRp4124
(dp4125
g66
(dp4126
g74
I4
ssg75
g4120
sg68
(lp4127
S'2592000'
p4128
asbasbasbag61
(g77
g63
NtRp4129
(dp4130
g66
(dp4131
sg75
g4103
sg68
(lp4132
g61
(g82
g63
NtRp4133
(dp4134
g66
(dp4135
g86
g87
ssg75
g4129
sg68
(lp4136
S'hmac_key'
p4137
asbag61
(g82
g63
NtRp4138
(dp4139
g66
(dp4140
g93
g94
ssg75
g4129
sg68
(lp4141
S':'
asbag61
(g82
g63
NtRp4142
(dp4143
g66
(dp4144
sg75
g4129
sg68
(lp4145
g61
(g62
g63
NtRp4146
(dp4147
g66
(dp4148
g74
I4
ssg75
g4142
sg68
(lp4149
S'6a8e311b-fde7-4135-9087-7cbe14120627'
p4150
asbasbasbag61
(g77
g63
NtRp4151
(dp4152
g66
(dp4153
sg75
g4103
sg68
(lp4154
g61
(g82
g63
NtRp4155
(dp4156
g66
(dp4157
g86
g87
ssg75
g4151
sg68
(lp4158
S'last_visit'
p4159
asbag61
(g82
g63
NtRp4160
(dp4161
g66
(dp4162
g93
g94
ssg75
g4151
sg68
(lp4163
S':'
asbag61
(g82
g63
NtRp4164
(dp4165
g66
(dp4166
sg75
g4151
sg68
(lp4167
g61
(g62
g63
NtRp4168
(dp4169
g66
(dp4170
g74
I4
ssg75
g4164
sg68
(lp4171
S'datetime.datetime(2012, 11, 10, 16, 40, 33, 218000)'
p4172
asbasbasbag61
(g77
g63
NtRp4173
(dp4174
g66
(dp4175
sg75
g4103
sg68
(lp4176
g61
(g82
g63
NtRp4177
(dp4178
g66
(dp4179
g86
g87
ssg75
g4173
sg68
(lp4180
S'remember'
p4181
asbag61
(g82
g63
NtRp4182
(dp4183
g66
(dp4184
g93
g94
ssg75
g4173
sg68
(lp4185
S':'
asbag61
(g82
g63
NtRp4186
(dp4187
g66
(dp4188
sg75
g4173
sg68
(lp4189
g61
(g62
g63
NtRp4190
(dp4191
g66
(dp4192
g74
I4
ssg75
g4186
sg68
(lp4193
g104
asbasbasbag61
(g77
g63
NtRp4194
(dp4195
g66
(dp4196
sg75
g4103
sg68
(lp4197
g61
(g82
g63
NtRp4198
(dp4199
g66
(dp4200
g86
g87
ssg75
g4194
sg68
(lp4201
S'user'
p4202
asbag61
(g82
g63
NtRp4203
(dp4204
g66
(dp4205
g93
g94
ssg75
g4194
sg68
(lp4206
S':'
asbag61
(g82
g63
NtRp4207
(dp4208
g66
(dp4209
sg75
g4194
sg68
(lp4210
g61
(g62
g63
NtRp4211
(dp4212
g66
(dp4213
g74
I4
ssg75
g4207
sg68
(lp4214
g61
(g70
g63
NtRp4215
(dp4216
g66
(dp4217
g74
I3
ssg75
Nsg68
(lp4218
g61
(g77
g63
NtRp4219
(dp4220
g66
(dp4221
sg75
g4215
sg68
(lp4222
g61
(g82
g63
NtRp4223
(dp4224
g66
(dp4225
g86
g87
ssg75
g4219
sg68
(lp4226
S'email'
p4227
asbag61
(g82
g63
NtRp4228
(dp4229
g66
(dp4230
g93
g94
ssg75
g4219
sg68
(lp4231
S':'
asbag61
(g82
g63
NtRp4232
(dp4233
g66
(dp4234
sg75
g4219
sg68
(lp4235
g61
(g62
g63
NtRp4236
(dp4237
g66
(dp4238
g74
I3
ssg75
g4232
sg68
(lp4239
S'simon.carr2@baesystems.com'
p4240
asbasbasbag61
(g77
g63
NtRp4241
(dp4242
g66
(dp4243
sg75
g4215
sg68
(lp4244
g61
(g82
g63
NtRp4245
(dp4246
g66
(dp4247
g86
g87
ssg75
g4241
sg68
(lp4248
S'first_name'
p4249
asbag61
(g82
g63
NtRp4250
(dp4251
g66
(dp4252
g93
g94
ssg75
g4241
sg68
(lp4253
S':'
asbag61
(g82
g63
NtRp4254
(dp4255
g66
(dp4256
sg75
g4241
sg68
(lp4257
g61
(g62
g63
NtRp4258
(dp4259
g66
(dp4260
g74
I3
ssg75
g4254
sg68
(lp4261
S'Simon'
p4262
asbasbasbag61
(g77
g63
NtRp4263
(dp4264
g66
(dp4265
sg75
g4215
sg68
(lp4266
g61
(g82
g63
NtRp4267
(dp4268
g66
(dp4269
g86
g87
ssg75
g4263
sg68
(lp4270
S'id'
p4271
asbag61
(g82
g63
NtRp4272
(dp4273
g66
(dp4274
g93
g94
ssg75
g4263
sg68
(lp4275
S':'
asbag61
(g82
g63
NtRp4276
(dp4277
g66
(dp4278
sg75
g4263
sg68
(lp4279
g61
(g62
g63
NtRp4280
(dp4281
g66
(dp4282
g74
I3
ssg75
g4276
sg68
(lp4283
S'1'
asbasbasbag61
(g77
g63
NtRp4284
(dp4285
g66
(dp4286
sg75
g4215
sg68
(lp4287
g61
(g82
g63
NtRp4288
(dp4289
g66
(dp4290
g86
g87
ssg75
g4284
sg68
(lp4291
S'last_name'
p4292
asbag61
(g82
g63
NtRp4293
(dp4294
g66
(dp4295
g93
g94
ssg75
g4284
sg68
(lp4296
S':'
asbag61
(g82
g63
NtRp4297
(dp4298
g66
(dp4299
sg75
g4284
sg68
(lp4300
g61
(g62
g63
NtRp4301
(dp4302
g66
(dp4303
g74
I3
ssg75
g4297
sg68
(lp4304
S'Carr'
p4305
asbasbasbag61
(g77
g63
NtRp4306
(dp4307
g66
(dp4308
sg75
g4215
sg68
(lp4309
g61
(g82
g63
NtRp4310
(dp4311
g66
(dp4312
g86
g87
ssg75
g4306
sg68
(lp4313
S'registration_id'
p4314
asbag61
(g82
g63
NtRp4315
(dp4316
g66
(dp4317
g93
g94
ssg75
g4306
sg68
(lp4318
S':'
asbag61
(g82
g63
NtRp4319
(dp4320
g66
(dp4321
sg75
g4306
sg68
(lp4322
g61
(g62
g63
NtRp4323
(dp4324
g66
(dp4325
g74
I3
ssg75
g4319
sg68
(lp4326
S''
asbasbasbag61
(g77
g63
NtRp4327
(dp4328
g66
(dp4329
sg75
g4215
sg68
(lp4330
g61
(g82
g63
NtRp4331
(dp4332
g66
(dp4333
g86
g87
ssg75
g4327
sg68
(lp4334
S'registration_key'
p4335
asbag61
(g82
g63
NtRp4336
(dp4337
g66
(dp4338
g93
g94
ssg75
g4327
sg68
(lp4339
S':'
asbag61
(g82
g63
NtRp4340
(dp4341
g66
(dp4342
sg75
g4327
sg68
(lp4343
g61
(g62
g63
NtRp4344
(dp4345
g66
(dp4346
g74
I3
ssg75
g4340
sg68
(lp4347
S''
asbasbasbag61
(g77
g63
NtRp4348
(dp4349
g66
(dp4350
sg75
g4215
sg68
(lp4351
g61
(g82
g63
NtRp4352
(dp4353
g66
(dp4354
g86
g87
ssg75
g4348
sg68
(lp4355
S'reset_password_key'
p4356
asbag61
(g82
g63
NtRp4357
(dp4358
g66
(dp4359
g93
g94
ssg75
g4348
sg68
(lp4360
S':'
asbag61
(g82
g63
NtRp4361
(dp4362
g66
(dp4363
sg75
g4348
sg68
(lp4364
g61
(g62
g63
NtRp4365
(dp4366
g66
(dp4367
g74
I3
ssg75
g4361
sg68
(lp4368
S''
asbasbasbasbasbasbasbag61
(g77
g63
NtRp4369
(dp4370
g66
(dp4371
sg75
g4103
sg68
(lp4372
g61
(g82
g63
NtRp4373
(dp4374
g66
(dp4375
g86
g87
ssg75
g4369
sg68
(lp4376
S'user_groups'
p4377
asbag61
(g82
g63
NtRp4378
(dp4379
g66
(dp4380
g93
g94
ssg75
g4369
sg68
(lp4381
S':'
asbag61
(g82
g63
NtRp4382
(dp4383
g66
(dp4384
sg75
g4369
sg68
(lp4385
g61
(g62
g63
NtRp4386
(dp4387
g66
(dp4388
g74
I4
ssg75
g4382
sg68
(lp4389
g61
(g70
g63
NtRp4390
(dp4391
g66
(dp4392
g74
I3
ssg75
Nsg68
(lp4393
g61
(g77
g63
NtRp4394
(dp4395
g66
(dp4396
sg75
g4390
sg68
(lp4397
g61
(g82
g63
NtRp4398
(dp4399
g66
(dp4400
g86
g87
ssg75
g4394
sg68
(lp4401
S'1'
asbag61
(g82
g63
NtRp4402
(dp4403
g66
(dp4404
g93
g94
ssg75
g4394
sg68
(lp4405
S':'
asbag61
(g82
g63
NtRp4406
(dp4407
g66
(dp4408
sg75
g4394
sg68
(lp4409
g61
(g62
g63
NtRp4410
(dp4411
g66
(dp4412
g74
I3
ssg75
g4406
sg68
(lp4413
S'user_1'
p4414
asbasbasbag61
(g77
g63
NtRp4415
(dp4416
g66
(dp4417
sg75
g4390
sg68
(lp4418
g61
(g82
g63
NtRp4419
(dp4420
g66
(dp4421
g86
g87
ssg75
g4415
sg68
(lp4422
S'2'
asbag61
(g82
g63
NtRp4423
(dp4424
g66
(dp4425
g93
g94
ssg75
g4415
sg68
(lp4426
S':'
asbag61
(g82
g63
NtRp4427
(dp4428
g66
(dp4429
sg75
g4415
sg68
(lp4430
g61
(g62
g63
NtRp4431
(dp4432
g66
(dp4433
g74
I3
ssg75
g4427
sg68
(lp4434
S'wiki_editor'
p4435
asbasbasbasbasbasbasbasbasbasbasbag61
(g77
g63
NtRp4436
(dp4437
g66
(dp4438
sg75
g4078
sg68
(lp4439
g61
(g82
g63
NtRp4440
(dp4441
g66
(dp4442
g86
g87
ssg75
g4436
sg68
(lp4443
S'flash'
p4444
asbag61
(g82
g63
NtRp4445
(dp4446
g66
(dp4447
g93
g94
ssg75
g4436
sg68
(lp4448
S':'
asbag61
(g82
g63
NtRp4449
(dp4450
g66
(dp4451
sg75
g4436
sg68
(lp4452
g61
(g62
g63
NtRp4453
(dp4454
g66
(dp4455
g74
I5
ssg75
g4449
sg68
(lp4456
S'None'
p4457
asbasbasbasbasbsS'etype'
p4458
S"<class 'sqlite3.OperationalError'>"
p4459
sS'date'
p4460
S'Sat Nov 10 21:12:45 2012'
p4461
sS'response'
p4462
g61
(g62
g63
NtRp4463
(dp4464
g66
(dp4465
sg68
(lp4466
g61
(g70
g63
NtRp4467
(dp4468
g66
(dp4469
g74
I5
ssg75
Nsg68
(lp4470
g61
(g77
g63
NtRp4471
(dp4472
g66
(dp4473
sg75
g4467
sg68
(lp4474
g61
(g82
g63
NtRp4475
(dp4476
g66
(dp4477
g86
g87
ssg75
g4471
sg68
(lp4478
g159
asbag61
(g82
g63
NtRp4479
(dp4480
g66
(dp4481
g93
g94
ssg75
g4471
sg68
(lp4482
S':'
asbag61
(g82
g63
NtRp4483
(dp4484
g66
(dp4485
sg75
g4471
sg68
(lp4486
g61
(g62
g63
NtRp4487
(dp4488
g66
(dp4489
g74
I5
ssg75
g4483
sg68
(lp4490
S'<cStringIO.StringO object at 0x04DB1BC0>'
p4491
asbasbasbag61
(g77
g63
NtRp4492
(dp4493
g66
(dp4494
sg75
g4467
sg68
(lp4495
g61
(g82
g63
NtRp4496
(dp4497
g66
(dp4498
g86
g87
ssg75
g4492
sg68
(lp4499
g247
asbag61
(g82
g63
NtRp4500
(dp4501
g66
(dp4502
g93
g94
ssg75
g4492
sg68
(lp4503
S':'
asbag61
(g82
g63
NtRp4504
(dp4505
g66
(dp4506
sg75
g4492
sg68
(lp4507
g61
(g62
g63
NtRp4508
(dp4509
g66
(dp4510
g74
I5
ssg75
g4504
sg68
(lp4511
g61
(g70
g63
NtRp4512
(dp4513
g66
(dp4514
g74
I4
ssg75
Nsg68
(lp4515
g61
(g77
g63
NtRp4516
(dp4517
g66
(dp4518
sg75
g4512
sg68
(lp4519
g61
(g82
g63
NtRp4520
(dp4521
g66
(dp4522
g86
g87
ssg75
g4516
sg68
(lp4523
S'session_id_web2py_xlchart_dashboard'
p4524
asbag61
(g82
g63
NtRp4525
(dp4526
g66
(dp4527
g93
g94
ssg75
g4516
sg68
(lp4528
S':'
asbag61
(g82
g63
NtRp4529
(dp4530
g66
(dp4531
sg75
g4516
sg68
(lp4532
g61
(g62
g63
NtRp4533
(dp4534
g66
(dp4535
g74
I4
ssg75
g4529
sg68
(lp4536
g479
ag61
(g70
g63
NtRp4537
(dp4538
g66
(dp4539
g74
I3
ssg75
Nsg68
(lp4540
g61
(g77
g63
NtRp4541
(dp4542
g66
(dp4543
sg75
g4537
sg68
(lp4544
g61
(g82
g63
NtRp4545
(dp4546
g66
(dp4547
g86
g87
ssg75
g4541
sg68
(lp4548
g298
asbag61
(g82
g63
NtRp4549
(dp4550
g66
(dp4551
g93
g94
ssg75
g4541
sg68
(lp4552
S':'
asbag61
(g82
g63
NtRp4553
(dp4554
g66
(dp4555
sg75
g4541
sg68
(lp4556
g61
(g62
g63
NtRp4557
(dp4558
g66
(dp4559
g74
I3
ssg75
g4553
sg68
(lp4560
S''
asbasbasbag61
(g77
g63
NtRp4561
(dp4562
g66
(dp4563
sg75
g4537
sg68
(lp4564
g61
(g82
g63
NtRp4565
(dp4566
g66
(dp4567
g86
g87
ssg75
g4561
sg68
(lp4568
g319
asbag61
(g82
g63
NtRp4569
(dp4570
g66
(dp4571
g93
g94
ssg75
g4561
sg68
(lp4572
S':'
asbag61
(g82
g63
NtRp4573
(dp4574
g66
(dp4575
sg75
g4561
sg68
(lp4576
g61
(g62
g63
NtRp4577
(dp4578
g66
(dp4579
g74
I3
ssg75
g4573
sg68
(lp4580
S''
asbasbasbag61
(g77
g63
NtRp4581
(dp4582
g66
(dp4583
sg75
g4537
sg68
(lp4584
g61
(g82
g63
NtRp4585
(dp4586
g66
(dp4587
g86
g87
ssg75
g4581
sg68
(lp4588
g340
asbag61
(g82
g63
NtRp4589
(dp4590
g66
(dp4591
g93
g94
ssg75
g4581
sg68
(lp4592
S':'
asbag61
(g82
g63
NtRp4593
(dp4594
g66
(dp4595
sg75
g4581
sg68
(lp4596
g61
(g62
g63
NtRp4597
(dp4598
g66
(dp4599
g74
I3
ssg75
g4593
sg68
(lp4600
S'2592000'
p4601
asbasbasbag61
(g77
g63
NtRp4602
(dp4603
g66
(dp4604
sg75
g4537
sg68
(lp4605
g61
(g82
g63
NtRp4606
(dp4607
g66
(dp4608
g86
g87
ssg75
g4602
sg68
(lp4609
g361
asbag61
(g82
g63
NtRp4610
(dp4611
g66
(dp4612
g93
g94
ssg75
g4602
sg68
(lp4613
S':'
asbag61
(g82
g63
NtRp4614
(dp4615
g66
(dp4616
sg75
g4602
sg68
(lp4617
g61
(g62
g63
NtRp4618
(dp4619
g66
(dp4620
g74
I3
ssg75
g4614
sg68
(lp4621
S''
asbasbasbag61
(g77
g63
NtRp4622
(dp4623
g66
(dp4624
sg75
g4537
sg68
(lp4625
g61
(g82
g63
NtRp4626
(dp4627
g66
(dp4628
g86
g87
ssg75
g4622
sg68
(lp4629
g382
asbag61
(g82
g63
NtRp4630
(dp4631
g66
(dp4632
g93
g94
ssg75
g4622
sg68
(lp4633
S':'
asbag61
(g82
g63
NtRp4634
(dp4635
g66
(dp4636
sg75
g4622
sg68
(lp4637
g61
(g62
g63
NtRp4638
(dp4639
g66
(dp4640
g74
I3
ssg75
g4634
sg68
(lp4641
S''
asbasbasbag61
(g77
g63
NtRp4642
(dp4643
g66
(dp4644
sg75
g4537
sg68
(lp4645
g61
(g82
g63
NtRp4646
(dp4647
g66
(dp4648
g86
g87
ssg75
g4642
sg68
(lp4649
g403
asbag61
(g82
g63
NtRp4650
(dp4651
g66
(dp4652
g93
g94
ssg75
g4642
sg68
(lp4653
S':'
asbag61
(g82
g63
NtRp4654
(dp4655
g66
(dp4656
sg75
g4642
sg68
(lp4657
g61
(g62
g63
NtRp4658
(dp4659
g66
(dp4660
g74
I3
ssg75
g4654
sg68
(lp4661
S'/'
asbasbasbag61
(g77
g63
NtRp4662
(dp4663
g66
(dp4664
sg75
g4537
sg68
(lp4665
g61
(g82
g63
NtRp4666
(dp4667
g66
(dp4668
g86
g87
ssg75
g4662
sg68
(lp4669
g424
asbag61
(g82
g63
NtRp4670
(dp4671
g66
(dp4672
g93
g94
ssg75
g4662
sg68
(lp4673
S':'
asbag61
(g82
g63
NtRp4674
(dp4675
g66
(dp4676
sg75
g4662
sg68
(lp4677
g61
(g62
g63
NtRp4678
(dp4679
g66
(dp4680
g74
I3
ssg75
g4674
sg68
(lp4681
S''
asbasbasbag61
(g77
g63
NtRp4682
(dp4683
g66
(dp4684
sg75
g4537
sg68
(lp4685
g61
(g82
g63
NtRp4686
(dp4687
g66
(dp4688
g86
g87
ssg75
g4682
sg68
(lp4689
g445
asbag61
(g82
g63
NtRp4690
(dp4691
g66
(dp4692
g93
g94
ssg75
g4682
sg68
(lp4693
S':'
asbag61
(g82
g63
NtRp4694
(dp4695
g66
(dp4696
sg75
g4682
sg68
(lp4697
g61
(g62
g63
NtRp4698
(dp4699
g66
(dp4700
g74
I3
ssg75
g4694
sg68
(lp4701
S''
asbasbasbasbasbasbasbasbasbasbasbag61
(g77
g63
NtRp4702
(dp4703
g66
(dp4704
sg75
g4467
sg68
(lp4705
g61
(g82
g63
NtRp4706
(dp4707
g66
(dp4708
g86
g87
ssg75
g4702
sg68
(lp4709
S'delimiters'
p4710
asbag61
(g82
g63
NtRp4711
(dp4712
g66
(dp4713
g93
g94
ssg75
g4702
sg68
(lp4714
S':'
asbag61
(g82
g63
NtRp4715
(dp4716
g66
(dp4717
sg75
g4702
sg68
(lp4718
g61
(g62
g63
NtRp4719
(dp4720
g66
(dp4721
g74
I5
ssg75
g4715
sg68
(lp4722
g61
(g70
g63
NtRp4723
(dp4724
g66
(dp4725
g74
I4
ssg75
Nsg68
(lp4726
g61
(g77
g63
NtRp4727
(dp4728
g66
(dp4729
sg75
g4723
sg68
(lp4730
g61
(g82
g63
NtRp4731
(dp4732
g66
(dp4733
sg75
g4727
sg68
(lp4734
g61
(g62
g63
NtRp4735
(dp4736
g66
(dp4737
g74
I4
ssg75
g4731
sg68
(lp4738
S'{{'
p4739
asbasbasbag61
(g77
g63
NtRp4740
(dp4741
g66
(dp4742
sg75
g4723
sg68
(lp4743
g61
(g82
g63
NtRp4744
(dp4745
g66
(dp4746
sg75
g4740
sg68
(lp4747
g61
(g62
g63
NtRp4748
(dp4749
g66
(dp4750
g74
I4
ssg75
g4744
sg68
(lp4751
S'}}'
p4752
asbasbasbasbasbasbasbag61
(g77
g63
NtRp4753
(dp4754
g66
(dp4755
sg75
g4467
sg68
(lp4756
g61
(g82
g63
NtRp4757
(dp4758
g66
(dp4759
g86
g87
ssg75
g4753
sg68
(lp4760
S'files'
p4761
asbag61
(g82
g63
NtRp4762
(dp4763
g66
(dp4764
g93
g94
ssg75
g4753
sg68
(lp4765
S':'
asbag61
(g82
g63
NtRp4766
(dp4767
g66
(dp4768
sg75
g4753
sg68
(lp4769
g61
(g62
g63
NtRp4770
(dp4771
g66
(dp4772
g74
I5
ssg75
g4766
sg68
(lp4773
g61
(g70
g63
NtRp4774
(dp4775
g66
(dp4776
g74
I4
ssg75
Nsg68
(lp4777
sbasbasbasbag61
(g77
g63
NtRp4778
(dp4779
g66
(dp4780
sg75
g4467
sg68
(lp4781
g61
(g82
g63
NtRp4782
(dp4783
g66
(dp4784
g86
g87
ssg75
g4778
sg68
(lp4785
S'flash'
p4786
asbag61
(g82
g63
NtRp4787
(dp4788
g66
(dp4789
g93
g94
ssg75
g4778
sg68
(lp4790
S':'
asbag61
(g82
g63
NtRp4791
(dp4792
g66
(dp4793
sg75
g4778
sg68
(lp4794
g61
(g62
g63
NtRp4795
(dp4796
g66
(dp4797
g74
I5
ssg75
g4791
sg68
(lp4798
S''
asbasbasbag61
(g77
g63
NtRp4799
(dp4800
g66
(dp4801
sg75
g4467
sg68
(lp4802
g61
(g82
g63
NtRp4803
(dp4804
g66
(dp4805
g86
g87
ssg75
g4799
sg68
(lp4806
S'generic_patterns'
p4807
asbag61
(g82
g63
NtRp4808
(dp4809
g66
(dp4810
g93
g94
ssg75
g4799
sg68
(lp4811
S':'
asbag61
(g82
g63
NtRp4812
(dp4813
g66
(dp4814
sg75
g4799
sg68
(lp4815
g61
(g62
g63
NtRp4816
(dp4817
g66
(dp4818
g74
I5
ssg75
g4812
sg68
(lp4819
g61
(g70
g63
NtRp4820
(dp4821
g66
(dp4822
g74
I4
ssg75
Nsg68
(lp4823
g61
(g77
g63
NtRp4824
(dp4825
g66
(dp4826
sg75
g4820
sg68
(lp4827
g61
(g82
g63
NtRp4828
(dp4829
g66
(dp4830
sg75
g4824
sg68
(lp4831
g61
(g62
g63
NtRp4832
(dp4833
g66
(dp4834
g74
I4
ssg75
g4828
sg68
(lp4835
S'*'
asbasbasbasbasbasbasbag61
(g77
g63
NtRp4836
(dp4837
g66
(dp4838
sg75
g4467
sg68
(lp4839
g61
(g82
g63
NtRp4840
(dp4841
g66
(dp4842
g86
g87
ssg75
g4836
sg68
(lp4843
S'google_analytics_id'
p4844
asbag61
(g82
g63
NtRp4845
(dp4846
g66
(dp4847
g93
g94
ssg75
g4836
sg68
(lp4848
S':'
asbag61
(g82
g63
NtRp4849
(dp4850
g66
(dp4851
sg75
g4836
sg68
(lp4852
g61
(g62
g63
NtRp4853
(dp4854
g66
(dp4855
g74
I5
ssg75
g4849
sg68
(lp4856
S'None'
p4857
asbasbasbag61
(g77
g63
NtRp4858
(dp4859
g66
(dp4860
sg75
g4467
sg68
(lp4861
g61
(g82
g63
NtRp4862
(dp4863
g66
(dp4864
g86
g87
ssg75
g4858
sg68
(lp4865
S'headers'
p4866
asbag61
(g82
g63
NtRp4867
(dp4868
g66
(dp4869
g93
g94
ssg75
g4858
sg68
(lp4870
S':'
asbag61
(g82
g63
NtRp4871
(dp4872
g66
(dp4873
sg75
g4858
sg68
(lp4874
g61
(g62
g63
NtRp4875
(dp4876
g66
(dp4877
g74
I5
ssg75
g4871
sg68
(lp4878
g61
(g70
g63
NtRp4879
(dp4880
g66
(dp4881
g74
I4
ssg75
Nsg68
(lp4882
g61
(g77
g63
NtRp4883
(dp4884
g66
(dp4885
sg75
g4879
sg68
(lp4886
g61
(g82
g63
NtRp4887
(dp4888
g66
(dp4889
g86
g87
ssg75
g4883
sg68
(lp4890
S'X-Powered-By'
p4891
asbag61
(g82
g63
NtRp4892
(dp4893
g66
(dp4894
g93
g94
ssg75
g4883
sg68
(lp4895
S':'
asbag61
(g82
g63
NtRp4896
(dp4897
g66
(dp4898
sg75
g4883
sg68
(lp4899
g61
(g62
g63
NtRp4900
(dp4901
g66
(dp4902
g74
I4
ssg75
g4896
sg68
(lp4903
S'web2py'
p4904
asbasbasbasbasbasbasbag61
(g77
g63
NtRp4905
(dp4906
g66
(dp4907
sg75
g4467
sg68
(lp4908
g61
(g82
g63
NtRp4909
(dp4910
g66
(dp4911
g86
g87
ssg75
g4905
sg68
(lp4912
S'menu'
p4913
asbag61
(g82
g63
NtRp4914
(dp4915
g66
(dp4916
g93
g94
ssg75
g4905
sg68
(lp4917
S':'
asbag61
(g82
g63
NtRp4918
(dp4919
g66
(dp4920
sg75
g4905
sg68
(lp4921
g61
(g62
g63
NtRp4922
(dp4923
g66
(dp4924
g74
I5
ssg75
g4918
sg68
(lp4925
g61
(g70
g63
NtRp4926
(dp4927
g66
(dp4928
g74
I4
ssg75
Nsg68
(lp4929
g61
(g77
g63
NtRp4930
(dp4931
g66
(dp4932
sg75
g4926
sg68
(lp4933
g61
(g82
g63
NtRp4934
(dp4935
g66
(dp4936
sg75
g4930
sg68
(lp4937
g61
(g62
g63
NtRp4938
(dp4939
g66
(dp4940
g74
I4
ssg75
g4934
sg68
(lp4941
g61
(g70
g63
NtRp4942
(dp4943
g66
(dp4944
g74
I3
ssg75
Nsg68
(lp4945
g61
(g77
g63
NtRp4946
(dp4947
g66
(dp4948
sg75
g4942
sg68
(lp4949
g61
(g82
g63
NtRp4950
(dp4951
g66
(dp4952
sg75
g4946
sg68
(lp4953
g61
(g62
g63
NtRp4954
(dp4955
g66
(dp4956
g74
I3
ssg75
g4950
sg68
(lp4957
cgluon.languages
lazyT_unpickle
p4958
(S't\t\x00\x00\x00Dashboard'
tRp4959
asbasbasbag61
(g77
g63
NtRp4960
(dp4961
g66
(dp4962
sg75
g4942
sg68
(lp4963
g61
(g82
g63
NtRp4964
(dp4965
g66
(dp4966
sg75
g4960
sg68
(lp4967
g61
(g62
g63
NtRp4968
(dp4969
g66
(dp4970
g74
I3
ssg75
g4964
sg68
(lp4971
g847
asbasbasbag61
(g77
g63
NtRp4972
(dp4973
g66
(dp4974
sg75
g4942
sg68
(lp4975
g61
(g82
g63
NtRp4976
(dp4977
g66
(dp4978
sg75
g4972
sg68
(lp4979
g61
(g62
g63
NtRp4980
(dp4981
g66
(dp4982
g74
I3
ssg75
g4976
sg68
(lp4983
S'/web2py_xlchart_dashboard/default/index'
p4984
asbasbasbag61
(g77
g63
NtRp4985
(dp4986
g66
(dp4987
sg75
g4942
sg68
(lp4988
g61
(g82
g63
NtRp4989
(dp4990
g66
(dp4991
sg75
g4985
sg68
(lp4992
g61
(g62
g63
NtRp4993
(dp4994
g66
(dp4995
g74
I3
ssg75
g4989
sg68
(lp4996
g61
(g70
g63
NtRp4997
(dp4998
g66
(dp4999
g74
I2
ssg75
Nsg68
(lp5000
g61
(g77
g63
NtRp5001
(dp5002
g66
(dp5003
sg75
g4997
sg68
(lp5004
g61
(g82
g63
NtRp5005
(dp5006
g66
(dp5007
sg75
g5001
sg68
(lp5008
g61
(g62
g63
NtRp5009
(dp5010
g66
(dp5011
g74
I2
ssg75
g5005
sg68
(lp5012
g61
(g70
g63
NtRp5013
(dp5014
g66
(dp5015
g74
I1
ssg75
Nsg68
(lp5016
g61
(g77
g63
NtRp5017
(dp5018
g66
(dp5019
sg75
g5013
sg68
(lp5020
g61
(g82
g63
NtRp5021
(dp5022
g66
(dp5023
sg75
g5017
sg68
(lp5024
g61
(g62
g63
NtRp5025
(dp5026
g66
(dp5027
g74
I1
ssg75
g5021
sg68
(lp5028
g4958
(S's\x0c\x00\x00\x00My Dashboard'
tRp5029
asbasbasbag61
(g77
g63
NtRp5030
(dp5031
g66
(dp5032
sg75
g5013
sg68
(lp5033
g61
(g82
g63
NtRp5034
(dp5035
g66
(dp5036
sg75
g5030
sg68
(lp5037
g61
(g62
g63
NtRp5038
(dp5039
g66
(dp5040
g74
I1
ssg75
g5034
sg68
(lp5041
I00
asbasbasbag61
(g77
g63
NtRp5042
(dp5043
g66
(dp5044
sg75
g5013
sg68
(lp5045
g61
(g82
g63
NtRp5046
(dp5047
g66
(dp5048
sg75
g5042
sg68
(lp5049
g61
(g62
g63
NtRp5050
(dp5051
g66
(dp5052
g74
I1
ssg75
g5046
sg68
(lp5053
S'/web2py_xlchart_dashboard/default/index'
p5054
asbasbasbag61
(g77
g63
NtRp5055
(dp5056
g66
(dp5057
sg75
g5013
sg68
(lp5058
g61
(g82
g63
NtRp5059
(dp5060
g66
(dp5061
sg75
g5055
sg68
(lp5062
g61
(g62
g63
NtRp5063
(dp5064
g66
(dp5065
g74
I1
ssg75
g5059
sg68
(lp5066
(lp5067
(g4958
(S's\x11\x00\x00\x00Manage Dashboards'
tRp5068
I00
S'/web2py_xlchart_dashboard/dashboard/manage_dashboard'
tp5069
a(g4958
(S's\x0f\x00\x00\x00Manage Projects'
tRp5070
I00
S'/web2py_xlchart_dashboard/default/add_workbook'
tp5071
a(g4958
(S's\x0b\x00\x00\x00Add Project'
tRp5072
I00
S'/web2py_xlchart_dashboard/default/add_workbook'
tp5073
aasbasbasbasbasbasbasbag61
(g77
g63
NtRp5074
(dp5075
g66
(dp5076
sg75
g4997
sg68
(lp5077
g61
(g82
g63
NtRp5078
(dp5079
g66
(dp5080
sg75
g5074
sg68
(lp5081
g61
(g62
g63
NtRp5082
(dp5083
g66
(dp5084
g74
I2
ssg75
g5078
sg68
(lp5085
g61
(g70
g63
NtRp5086
(dp5087
g66
(dp5088
g74
I1
ssg75
Nsg68
(lp5089
g61
(g77
g63
NtRp5090
(dp5091
g66
(dp5092
sg75
g5086
sg68
(lp5093
g61
(g82
g63
NtRp5094
(dp5095
g66
(dp5096
sg75
g5090
sg68
(lp5097
g61
(g62
g63
NtRp5098
(dp5099
g66
(dp5100
g74
I1
ssg75
g5094
sg68
(lp5101
g4958
(S't\x06\x00\x00\x00Charts'
tRp5102
asbasbasbag61
(g77
g63
NtRp5103
(dp5104
g66
(dp5105
sg75
g5086
sg68
(lp5106
g61
(g82
g63
NtRp5107
(dp5108
g66
(dp5109
sg75
g5103
sg68
(lp5110
g61
(g62
g63
NtRp5111
(dp5112
g66
(dp5113
g74
I1
ssg75
g5107
sg68
(lp5114
I00
asbasbasbag61
(g77
g63
NtRp5115
(dp5116
g66
(dp5117
sg75
g5086
sg68
(lp5118
g61
(g82
g63
NtRp5119
(dp5120
g66
(dp5121
sg75
g5115
sg68
(lp5122
g61
(g62
g63
NtRp5123
(dp5124
g66
(dp5125
g74
I1
ssg75
g5119
sg68
(lp5126
S'/web2py_xlchart_dashboard/default/index'
p5127
asbasbasbag61
(g77
g63
NtRp5128
(dp5129
g66
(dp5130
sg75
g5086
sg68
(lp5131
g61
(g82
g63
NtRp5132
(dp5133
g66
(dp5134
sg75
g5128
sg68
(lp5135
g61
(g62
g63
NtRp5136
(dp5137
g66
(dp5138
g74
I1
ssg75
g5132
sg68
(lp5139
(lp5140
(g4958
(S's\x13\x00\x00\x00Subscribe to Charts'
tRp5141
I00
S'/web2py_xlchart_dashboard/charts/user_charts'
tp5142
aasbasbasbasbasbasbasbag61
(g77
g63
NtRp5143
(dp5144
g66
(dp5145
sg75
g4997
sg68
(lp5146
g61
(g82
g63
NtRp5147
(dp5148
g66
(dp5149
sg75
g5143
sg68
(lp5150
g61
(g62
g63
NtRp5151
(dp5152
g66
(dp5153
g74
I2
ssg75
g5147
sg68
(lp5154
g61
(g70
g63
NtRp5155
(dp5156
g66
(dp5157
g74
I1
ssg75
Nsg68
(lp5158
g61
(g77
g63
NtRp5159
(dp5160
g66
(dp5161
sg75
g5155
sg68
(lp5162
g61
(g82
g63
NtRp5163
(dp5164
g66
(dp5165
sg75
g5159
sg68
(lp5166
g61
(g62
g63
NtRp5167
(dp5168
g66
(dp5169
g74
I1
ssg75
g5163
sg68
(lp5170
g4958
(S't\t\x00\x00\x00Workbooks'
tRp5171
asbasbasbag61
(g77
g63
NtRp5172
(dp5173
g66
(dp5174
sg75
g5155
sg68
(lp5175
g61
(g82
g63
NtRp5176
(dp5177
g66
(dp5178
sg75
g5172
sg68
(lp5179
g61
(g62
g63
NtRp5180
(dp5181
g66
(dp5182
g74
I1
ssg75
g5176
sg68
(lp5183
I00
asbasbasbag61
(g77
g63
NtRp5184
(dp5185
g66
(dp5186
sg75
g5155
sg68
(lp5187
g61
(g82
g63
NtRp5188
(dp5189
g66
(dp5190
sg75
g5184
sg68
(lp5191
g61
(g62
g63
NtRp5192
(dp5193
g66
(dp5194
g74
I1
ssg75
g5188
sg68
(lp5195
S'/web2py_xlchart_dashboard/default/register_chart_part1'
p5196
asbasbasbag61
(g77
g63
NtRp5197
(dp5198
g66
(dp5199
sg75
g5155
sg68
(lp5200
g61
(g82
g63
NtRp5201
(dp5202
g66
(dp5203
sg75
g5197
sg68
(lp5204
g61
(g62
g63
NtRp5205
(dp5206
g66
(dp5207
g74
I1
ssg75
g5201
sg68
(lp5208
(lp5209
(g4958
(S's\x0c\x00\x00\x00Add Workbook'
tRp5210
I00
S'/web2py_xlchart_dashboard/default/register_chart_part1'
tp5211
aasbasbasbasbasbasbasbasbasbasbasbasbasbasbasbag61
(g77
g63
NtRp5212
(dp5213
g66
(dp5214
sg75
g4926
sg68
(lp5215
g61
(g82
g63
NtRp5216
(dp5217
g66
(dp5218
sg75
g5212
sg68
(lp5219
g61
(g62
g63
NtRp5220
(dp5221
g66
(dp5222
g74
I4
ssg75
g5216
sg68
(lp5223
g61
(g70
g63
NtRp5224
(dp5225
g66
(dp5226
g74
I3
ssg75
Nsg68
(lp5227
g61
(g77
g63
NtRp5228
(dp5229
g66
(dp5230
sg75
g5224
sg68
(lp5231
g61
(g82
g63
NtRp5232
(dp5233
g66
(dp5234
sg75
g5228
sg68
(lp5235
g61
(g62
g63
NtRp5236
(dp5237
g66
(dp5238
g74
I3
ssg75
g5232
sg68
(lp5239
g61
(cgluon.html
SPAN
p5240
g63
NtRp5241
(dp5242
g66
(dp5243
S'_class'
p5244
S'highlighted'
p5245
ssg75
Nsg68
(lp5246
g4904
asbasbasbasbag61
(g77
g63
NtRp5247
(dp5248
g66
(dp5249
sg75
g5224
sg68
(lp5250
g61
(g82
g63
NtRp5251
(dp5252
g66
(dp5253
sg75
g5247
sg68
(lp5254
g61
(g62
g63
NtRp5255
(dp5256
g66
(dp5257
g74
I3
ssg75
g5251
sg68
(lp5258
g847
asbasbasbag61
(g77
g63
NtRp5259
(dp5260
g66
(dp5261
sg75
g5224
sg68
(lp5262
g61
(g82
g63
NtRp5263
(dp5264
g66
(dp5265
sg75
g5259
sg68
(lp5266
g61
(g62
g63
NtRp5267
(dp5268
g66
(dp5269
g74
I3
ssg75
g5263
sg68
(lp5270
S'http://web2py.com'
p5271
asbasbasbag61
(g77
g63
NtRp5272
(dp5273
g66
(dp5274
sg75
g5224
sg68
(lp5275
g61
(g82
g63
NtRp5276
(dp5277
g66
(dp5278
sg75
g5272
sg68
(lp5279
g61
(g62
g63
NtRp5280
(dp5281
g66
(dp5282
g74
I3
ssg75
g5276
sg68
(lp5283
g61
(g70
g63
NtRp5284
(dp5285
g66
(dp5286
g74
I2
ssg75
Nsg68
(lp5287
g61
(g77
g63
NtRp5288
(dp5289
g66
(dp5290
sg75
g5284
sg68
(lp5291
g61
(g82
g63
NtRp5292
(dp5293
g66
(dp5294
sg75
g5288
sg68
(lp5295
g61
(g62
g63
NtRp5296
(dp5297
g66
(dp5298
g74
I2
ssg75
g5292
sg68
(lp5299
g61
(g70
g63
NtRp5300
(dp5301
g66
(dp5302
g74
I1
ssg75
Nsg68
(lp5303
g61
(g77
g63
NtRp5304
(dp5305
g66
(dp5306
sg75
g5300
sg68
(lp5307
g61
(g82
g63
NtRp5308
(dp5309
g66
(dp5310
sg75
g5304
sg68
(lp5311
g61
(g62
g63
NtRp5312
(dp5313
g66
(dp5314
g74
I1
ssg75
g5308
sg68
(lp5315
g4958
(S's\x08\x00\x00\x00My Sites'
tRp5316
asbasbasbag61
(g77
g63
NtRp5317
(dp5318
g66
(dp5319
sg75
g5300
sg68
(lp5320
g61
(g82
g63
NtRp5321
(dp5322
g66
(dp5323
sg75
g5317
sg68
(lp5324
g61
(g62
g63
NtRp5325
(dp5326
g66
(dp5327
g74
I1
ssg75
g5321
sg68
(lp5328
I00
asbasbasbag61
(g77
g63
NtRp5329
(dp5330
g66
(dp5331
sg75
g5300
sg68
(lp5332
g61
(g82
g63
NtRp5333
(dp5334
g66
(dp5335
sg75
g5329
sg68
(lp5336
g61
(g62
g63
NtRp5337
(dp5338
g66
(dp5339
g74
I1
ssg75
g5333
sg68
(lp5340
S'/admin/default/site'
p5341
asbasbasbasbasbasbasbag61
(g77
g63
NtRp5342
(dp5343
g66
(dp5344
sg75
g5284
sg68
(lp5345
g61
(g82
g63
NtRp5346
(dp5347
g66
(dp5348
sg75
g5342
sg68
(lp5349
g61
(g62
g63
NtRp5350
(dp5351
g66
(dp5352
g74
I2
ssg75
g5346
sg68
(lp5353
g61
(g70
g63
NtRp5354
(dp5355
g66
(dp5356
g74
I1
ssg75
Nsg68
(lp5357
g61
(g77
g63
NtRp5358
(dp5359
g66
(dp5360
sg75
g5354
sg68
(lp5361
g61
(g82
g63
NtRp5362
(dp5363
g66
(dp5364
sg75
g5358
sg68
(lp5365
g61
(g62
g63
NtRp5366
(dp5367
g66
(dp5368
g74
I1
ssg75
g5362
sg68
(lp5369
g4958
(S's\x08\x00\x00\x00This App'
tRp5370
asbasbasbag61
(g77
g63
NtRp5371
(dp5372
g66
(dp5373
sg75
g5354
sg68
(lp5374
g61
(g82
g63
NtRp5375
(dp5376
g66
(dp5377
sg75
g5371
sg68
(lp5378
g61
(g62
g63
NtRp5379
(dp5380
g66
(dp5381
g74
I1
ssg75
g5375
sg68
(lp5382
I00
asbasbasbag61
(g77
g63
NtRp5383
(dp5384
g66
(dp5385
sg75
g5354
sg68
(lp5386
g61
(g82
g63
NtRp5387
(dp5388
g66
(dp5389
sg75
g5383
sg68
(lp5390
g61
(g62
g63
NtRp5391
(dp5392
g66
(dp5393
g74
I1
ssg75
g5387
sg68
(lp5394
S'/admin/default/design/web2py_xlchart_dashboard'
p5395
asbasbasbag61
(g77
g63
NtRp5396
(dp5397
g66
(dp5398
sg75
g5354
sg68
(lp5399
g61
(g82
g63
NtRp5400
(dp5401
g66
(dp5402
sg75
g5396
sg68
(lp5403
g61
(g62
g63
NtRp5404
(dp5405
g66
(dp5406
g74
I1
ssg75
g5400
sg68
(lp5407
(lp5408
(g4958
(S's\n\x00\x00\x00Controller'
tRp5409
I00
S'/admin/default/edit/web2py_xlchart_dashboard/controllers/dashboard.py'
tp5410
a(g4958
(S's\x04\x00\x00\x00View'
tRp5411
I00
S'/admin/default/edit/web2py_xlchart_dashboard/views/dashboard/edit_chart.html'
tp5412
a(g4958
(S's\x06\x00\x00\x00Layout'
tRp5413
I00
S'/admin/default/edit/web2py_xlchart_dashboard/views/layout.html'
tp5414
a(g4958
(S's\n\x00\x00\x00Stylesheet'
tRp5415
I00
S'/admin/default/edit/web2py_xlchart_dashboard/static/css/web2py.css'
tp5416
a(g4958
(S's\x08\x00\x00\x00DB Model'
tRp5417
I00
S'/admin/default/edit/web2py_xlchart_dashboard/models/db.py'
tp5418
a(g4958
(S's\n\x00\x00\x00Menu Model'
tRp5419
I00
S'/admin/default/edit/web2py_xlchart_dashboard/models/menu.py'
tp5420
a(g4958
(S's\x08\x00\x00\x00Database'
tRp5421
I00
S'/web2py_xlchart_dashboard/appadmin/index'
tp5422
a(g4958
(S's\x06\x00\x00\x00Errors'
tRp5423
I00
S'/admin/default/errors/web2py_xlchart_dashboard'
tp5424
a(g4958
(S's\x05\x00\x00\x00About'
tRp5425
I00
S'/admin/default/about/web2py_xlchart_dashboard'
tp5426
aasbasbasbasbasbasbasbag61
(g77
g63
NtRp5427
(dp5428
g66
(dp5429
sg75
g5284
sg68
(lp5430
g61
(g82
g63
NtRp5431
(dp5432
g66
(dp5433
sg75
g5427
sg68
(lp5434
g61
(g62
g63
NtRp5435
(dp5436
g66
(dp5437
g74
I2
ssg75
g5431
sg68
(lp5438
g61
(g70
g63
NtRp5439
(dp5440
g66
(dp5441
g74
I1
ssg75
Nsg68
(lp5442
g61
(g77
g63
NtRp5443
(dp5444
g66
(dp5445
sg75
g5439
sg68
(lp5446
g61
(g82
g63
NtRp5447
(dp5448
g66
(dp5449
sg75
g5443
sg68
(lp5450
g61
(g62
g63
NtRp5451
(dp5452
g66
(dp5453
g74
I1
ssg75
g5447
sg68
(lp5454
S'web2py.com'
p5455
asbasbasbag61
(g77
g63
NtRp5456
(dp5457
g66
(dp5458
sg75
g5439
sg68
(lp5459
g61
(g82
g63
NtRp5460
(dp5461
g66
(dp5462
sg75
g5456
sg68
(lp5463
g61
(g62
g63
NtRp5464
(dp5465
g66
(dp5466
g74
I1
ssg75
g5460
sg68
(lp5467
I00
asbasbasbag61
(g77
g63
NtRp5468
(dp5469
g66
(dp5470
sg75
g5439
sg68
(lp5471
g61
(g82
g63
NtRp5472
(dp5473
g66
(dp5474
sg75
g5468
sg68
(lp5475
g61
(g62
g63
NtRp5476
(dp5477
g66
(dp5478
g74
I1
ssg75
g5472
sg68
(lp5479
S'http://www.web2py.com'
p5480
asbasbasbag61
(g77
g63
NtRp5481
(dp5482
g66
(dp5483
sg75
g5439
sg68
(lp5484
g61
(g82
g63
NtRp5485
(dp5486
g66
(dp5487
sg75
g5481
sg68
(lp5488
g61
(g62
g63
NtRp5489
(dp5490
g66
(dp5491
g74
I1
ssg75
g5485
sg68
(lp5492
(lp5493
(g4958
(S's\x08\x00\x00\x00Download'
tRp5494
I00
S'http://www.web2py.com/examples/default/download'
p5495
tp5496
a(g4958
(S's\x07\x00\x00\x00Support'
tRp5497
I00
S'http://www.web2py.com/examples/default/support'
p5498
tp5499
a(g4958
(S's\x04\x00\x00\x00Demo'
tRp5500
I00
S'http://web2py.com/demo_admin'
p5501
tp5502
a(g4958
(S's\x0e\x00\x00\x00Quick Examples'
tRp5503
I00
S'http://web2py.com/examples/default/examples'
p5504
tp5505
a(g4958
(S's\x03\x00\x00\x00FAQ'
tRp5506
I00
S'http://web2py.com/AlterEgo'
p5507
tp5508
a(g4958
(S's\x06\x00\x00\x00Videos'
tRp5509
I00
S'http://www.web2py.com/examples/default/videos/'
p5510
tp5511
a(g4958
(S's\x11\x00\x00\x00Free Applications'
tRp5512
I00
S'http://web2py.com/appliances'
p5513
tp5514
a(g4958
(S's\x07\x00\x00\x00Plugins'
tRp5515
I00
S'http://web2py.com/plugins'
p5516
tp5517
a(g4958
(S's\x07\x00\x00\x00Layouts'
tRp5518
I00
S'http://web2py.com/layouts'
p5519
tp5520
a(g4958
(S's\x07\x00\x00\x00Recipes'
tRp5521
I00
S'http://web2pyslices.com/'
p5522
tp5523
a(g4958
(S's\x08\x00\x00\x00Semantic'
tRp5524
I00
S'http://web2py.com/semantic'
p5525
tp5526
aasbasbasbasbasbasbasbag61
(g77
g63
NtRp5527
(dp5528
g66
(dp5529
sg75
g5284
sg68
(lp5530
g61
(g82
g63
NtRp5531
(dp5532
g66
(dp5533
sg75
g5527
sg68
(lp5534
g61
(g62
g63
NtRp5535
(dp5536
g66
(dp5537
g74
I2
ssg75
g5531
sg68
(lp5538
g61
(g70
g63
NtRp5539
(dp5540
g66
(dp5541
g74
I1
ssg75
Nsg68
(lp5542
g61
(g77
g63
NtRp5543
(dp5544
g66
(dp5545
sg75
g5539
sg68
(lp5546
g61
(g82
g63
NtRp5547
(dp5548
g66
(dp5549
sg75
g5543
sg68
(lp5550
g61
(g62
g63
NtRp5551
(dp5552
g66
(dp5553
g74
I1
ssg75
g5547
sg68
(lp5554
g4958
(S's\r\x00\x00\x00Documentation'
tRp5555
asbasbasbag61
(g77
g63
NtRp5556
(dp5557
g66
(dp5558
sg75
g5539
sg68
(lp5559
g61
(g82
g63
NtRp5560
(dp5561
g66
(dp5562
sg75
g5556
sg68
(lp5563
g61
(g62
g63
NtRp5564
(dp5565
g66
(dp5566
g74
I1
ssg75
g5560
sg68
(lp5567
I00
asbasbasbag61
(g77
g63
NtRp5568
(dp5569
g66
(dp5570
sg75
g5539
sg68
(lp5571
g61
(g82
g63
NtRp5572
(dp5573
g66
(dp5574
sg75
g5568
sg68
(lp5575
g61
(g62
g63
NtRp5576
(dp5577
g66
(dp5578
g74
I1
ssg75
g5572
sg68
(lp5579
S'http://www.web2py.com/book'
p5580
asbasbasbag61
(g77
g63
NtRp5581
(dp5582
g66
(dp5583
sg75
g5539
sg68
(lp5584
g61
(g82
g63
NtRp5585
(dp5586
g66
(dp5587
sg75
g5581
sg68
(lp5588
g61
(g62
g63
NtRp5589
(dp5590
g66
(dp5591
g74
I1
ssg75
g5585
sg68
(lp5592
(lp5593
(g4958
(S's\x07\x00\x00\x00Preface'
tRp5594
I00
S'http://www.web2py.com/book/default/chapter/00'
p5595
tp5596
a(g4958
(S's\x0c\x00\x00\x00Introduction'
tRp5597
I00
S'http://www.web2py.com/book/default/chapter/01'
p5598
tp5599
a(g4958
(S's\x06\x00\x00\x00Python'
tRp5600
I00
S'http://www.web2py.com/book/default/chapter/02'
p5601
tp5602
a(g4958
(S's\x08\x00\x00\x00Overview'
tRp5603
I00
S'http://www.web2py.com/book/default/chapter/03'
p5604
tp5605
a(g4958
(S's\x08\x00\x00\x00The Core'
tRp5606
I00
S'http://www.web2py.com/book/default/chapter/04'
p5607
tp5608
a(g4958
(S's\t\x00\x00\x00The Views'
tRp5609
I00
S'http://www.web2py.com/book/default/chapter/05'
p5610
tp5611
a(g4958
(S's\x08\x00\x00\x00Database'
tRp5612
I00
S'http://www.web2py.com/book/default/chapter/06'
p5613
tp5614
a(g4958
(S's\x14\x00\x00\x00Forms and Validators'
tRp5615
I00
S'http://www.web2py.com/book/default/chapter/07'
p5616
tp5617
a(g4958
(S's\r\x00\x00\x00Email and SMS'
tRp5618
I00
S'http://www.web2py.com/book/default/chapter/08'
p5619
tp5620
a(g4958
(S's\x0e\x00\x00\x00Access Control'
tRp5621
I00
S'http://www.web2py.com/book/default/chapter/09'
p5622
tp5623
a(g4958
(S's\x08\x00\x00\x00Services'
tRp5624
I00
S'http://www.web2py.com/book/default/chapter/10'
p5625
tp5626
a(g4958
(S's\x0c\x00\x00\x00Ajax Recipes'
tRp5627
I00
S'http://www.web2py.com/book/default/chapter/11'
p5628
tp5629
a(g4958
(S's\x16\x00\x00\x00Components and Plugins'
tRp5630
I00
S'http://www.web2py.com/book/default/chapter/12'
p5631
tp5632
a(g4958
(S's\x12\x00\x00\x00Deployment Recipes'
tRp5633
I00
S'http://www.web2py.com/book/default/chapter/13'
p5634
tp5635
a(g4958
(S's\r\x00\x00\x00Other Recipes'
tRp5636
I00
S'http://www.web2py.com/book/default/chapter/14'
p5637
tp5638
a(g4958
(S's\r\x00\x00\x00Buy this book'
tRp5639
I00
S'http://stores.lulu.com/web2py'
p5640
tp5641
aasbasbasbasbasbasbasbag61
(g77
g63
NtRp5642
(dp5643
g66
(dp5644
sg75
g5284
sg68
(lp5645
g61
(g82
g63
NtRp5646
(dp5647
g66
(dp5648
sg75
g5642
sg68
(lp5649
g61
(g62
g63
NtRp5650
(dp5651
g66
(dp5652
g74
I2
ssg75
g5646
sg68
(lp5653
g61
(g70
g63
NtRp5654
(dp5655
g66
(dp5656
g74
I1
ssg75
Nsg68
(lp5657
g61
(g77
g63
NtRp5658
(dp5659
g66
(dp5660
sg75
g5654
sg68
(lp5661
g61
(g82
g63
NtRp5662
(dp5663
g66
(dp5664
sg75
g5658
sg68
(lp5665
g61
(g62
g63
NtRp5666
(dp5667
g66
(dp5668
g74
I1
ssg75
g5662
sg68
(lp5669
g4958
(S's\t\x00\x00\x00Community'
tRp5670
asbasbasbag61
(g77
g63
NtRp5671
(dp5672
g66
(dp5673
sg75
g5654
sg68
(lp5674
g61
(g82
g63
NtRp5675
(dp5676
g66
(dp5677
sg75
g5671
sg68
(lp5678
g61
(g62
g63
NtRp5679
(dp5680
g66
(dp5681
g74
I1
ssg75
g5675
sg68
(lp5682
I00
asbasbasbag61
(g77
g63
NtRp5683
(dp5684
g66
(dp5685
sg75
g5654
sg68
(lp5686
g61
(g82
g63
NtRp5687
(dp5688
g66
(dp5689
sg75
g5683
sg68
(lp5690
g61
(g62
g63
NtRp5691
(dp5692
g66
(dp5693
g74
I1
ssg75
g5687
sg68
(lp5694
Nasbasbasbag61
(g77
g63
NtRp5695
(dp5696
g66
(dp5697
sg75
g5654
sg68
(lp5698
g61
(g82
g63
NtRp5699
(dp5700
g66
(dp5701
sg75
g5695
sg68
(lp5702
g61
(g62
g63
NtRp5703
(dp5704
g66
(dp5705
g74
I1
ssg75
g5699
sg68
(lp5706
(lp5707
(g4958
(S's\x06\x00\x00\x00Groups'
tRp5708
I00
S'http://www.web2py.com/examples/default/usergroups'
p5709
tp5710
a(g4958
(S's\x07\x00\x00\x00Twitter'
tRp5711
I00
S'http://twitter.com/web2py'
p5712
tp5713
a(g4958
(S's\t\x00\x00\x00Live Chat'
tRp5714
I00
S'http://webchat.freenode.net/?channels=web2py'
p5715
tp5716
aasbasbasbasbasbasbasbag61
(g77
g63
NtRp5717
(dp5718
g66
(dp5719
sg75
g5284
sg68
(lp5720
g61
(g82
g63
NtRp5721
(dp5722
g66
(dp5723
sg75
g5717
sg68
(lp5724
g61
(g62
g63
NtRp5725
(dp5726
g66
(dp5727
g74
I2
ssg75
g5721
sg68
(lp5728
g61
(g70
g63
NtRp5729
(dp5730
g66
(dp5731
g74
I1
ssg75
Nsg68
(lp5732
g61
(g77
g63
NtRp5733
(dp5734
g66
(dp5735
sg75
g5729
sg68
(lp5736
g61
(g82
g63
NtRp5737
(dp5738
g66
(dp5739
sg75
g5733
sg68
(lp5740
g61
(g62
g63
NtRp5741
(dp5742
g66
(dp5743
g74
I1
ssg75
g5737
sg68
(lp5744
g4958
(S's\x07\x00\x00\x00Plugins'
tRp5745
asbasbasbag61
(g77
g63
NtRp5746
(dp5747
g66
(dp5748
sg75
g5729
sg68
(lp5749
g61
(g82
g63
NtRp5750
(dp5751
g66
(dp5752
sg75
g5746
sg68
(lp5753
g61
(g62
g63
NtRp5754
(dp5755
g66
(dp5756
g74
I1
ssg75
g5750
sg68
(lp5757
I00
asbasbasbag61
(g77
g63
NtRp5758
(dp5759
g66
(dp5760
sg75
g5729
sg68
(lp5761
g61
(g82
g63
NtRp5762
(dp5763
g66
(dp5764
sg75
g5758
sg68
(lp5765
g61
(g62
g63
NtRp5766
(dp5767
g66
(dp5768
g74
I1
ssg75
g5762
sg68
(lp5769
Nasbasbasbag61
(g77
g63
NtRp5770
(dp5771
g66
(dp5772
sg75
g5729
sg68
(lp5773
g61
(g82
g63
NtRp5774
(dp5775
g66
(dp5776
sg75
g5770
sg68
(lp5777
g61
(g62
g63
NtRp5778
(dp5779
g66
(dp5780
g74
I1
ssg75
g5774
sg68
(lp5781
(lp5782
(S'plugin_wiki'
p5783
I00
S'http://web2py.com/examples/default/download'
p5784
tp5785
a(g4958
(S's\r\x00\x00\x00Other Plugins'
tRp5786
I00
g5516
tp5787
a(g4958
(S's\x0e\x00\x00\x00Layout Plugins'
tRp5788
I00
g5519
tp5789
aasbasbasbasbasbasbasbasbasbasbasbasbasbasbasbasbasbasbasbag61
(g77
g63
NtRp5790
(dp5791
g66
(dp5792
sg75
g4467
sg68
(lp5793
g61
(g82
g63
NtRp5794
(dp5795
g66
(dp5796
g86
g87
ssg75
g5790
sg68
(lp5797
S'meta'
p5798
asbag61
(g82
g63
NtRp5799
(dp5800
g66
(dp5801
g93
g94
ssg75
g5790
sg68
(lp5802
S':'
asbag61
(g82
g63
NtRp5803
(dp5804
g66
(dp5805
sg75
g5790
sg68
(lp5806
g61
(g62
g63
NtRp5807
(dp5808
g66
(dp5809
g74
I5
ssg75
g5803
sg68
(lp5810
g61
(g70
g63
NtRp5811
(dp5812
g66
(dp5813
g74
I4
ssg75
Nsg68
(lp5814
g61
(g77
g63
NtRp5815
(dp5816
g66
(dp5817
sg75
g5811
sg68
(lp5818
g61
(g82
g63
NtRp5819
(dp5820
g66
(dp5821
g86
g87
ssg75
g5815
sg68
(lp5822
S'author'
p5823
asbag61
(g82
g63
NtRp5824
(dp5825
g66
(dp5826
g93
g94
ssg75
g5815
sg68
(lp5827
S':'
asbag61
(g82
g63
NtRp5828
(dp5829
g66
(dp5830
sg75
g5815
sg68
(lp5831
g61
(g62
g63
NtRp5832
(dp5833
g66
(dp5834
g74
I4
ssg75
g5828
sg68
(lp5835
S'Your Name <you@example.com>'
p5836
asbasbasbag61
(g77
g63
NtRp5837
(dp5838
g66
(dp5839
sg75
g5811
sg68
(lp5840
g61
(g82
g63
NtRp5841
(dp5842
g66
(dp5843
g86
g87
ssg75
g5837
sg68
(lp5844
S'description'
p5845
asbag61
(g82
g63
NtRp5846
(dp5847
g66
(dp5848
g93
g94
ssg75
g5837
sg68
(lp5849
S':'
asbag61
(g82
g63
NtRp5850
(dp5851
g66
(dp5852
sg75
g5837
sg68
(lp5853
g61
(g62
g63
NtRp5854
(dp5855
g66
(dp5856
g74
I4
ssg75
g5850
sg68
(lp5857
S'a cool new app'
p5858
asbasbasbag61
(g77
g63
NtRp5859
(dp5860
g66
(dp5861
sg75
g5811
sg68
(lp5862
g61
(g82
g63
NtRp5863
(dp5864
g66
(dp5865
g86
g87
ssg75
g5859
sg68
(lp5866
S'generator'
p5867
asbag61
(g82
g63
NtRp5868
(dp5869
g66
(dp5870
g93
g94
ssg75
g5859
sg68
(lp5871
S':'
asbag61
(g82
g63
NtRp5872
(dp5873
g66
(dp5874
sg75
g5859
sg68
(lp5875
g61
(g62
g63
NtRp5876
(dp5877
g66
(dp5878
g74
I4
ssg75
g5872
sg68
(lp5879
S'Web2py Web Framework'
p5880
asbasbasbag61
(g77
g63
NtRp5881
(dp5882
g66
(dp5883
sg75
g5811
sg68
(lp5884
g61
(g82
g63
NtRp5885
(dp5886
g66
(dp5887
g86
g87
ssg75
g5881
sg68
(lp5888
S'keywords'
p5889
asbag61
(g82
g63
NtRp5890
(dp5891
g66
(dp5892
g93
g94
ssg75
g5881
sg68
(lp5893
S':'
asbag61
(g82
g63
NtRp5894
(dp5895
g66
(dp5896
sg75
g5881
sg68
(lp5897
g61
(g62
g63
NtRp5898
(dp5899
g66
(dp5900
g74
I4
ssg75
g5894
sg68
(lp5901
S'web2py, python, framework'
p5902
asbasbasbasbasbasbasbag61
(g77
g63
NtRp5903
(dp5904
g66
(dp5905
sg75
g4467
sg68
(lp5906
g61
(g82
g63
NtRp5907
(dp5908
g66
(dp5909
g86
g87
ssg75
g5903
sg68
(lp5910
S'models_to_run'
p5911
asbag61
(g82
g63
NtRp5912
(dp5913
g66
(dp5914
g93
g94
ssg75
g5903
sg68
(lp5915
S':'
asbag61
(g82
g63
NtRp5916
(dp5917
g66
(dp5918
sg75
g5903
sg68
(lp5919
g61
(g62
g63
NtRp5920
(dp5921
g66
(dp5922
g74
I5
ssg75
g5916
sg68
(lp5923
g61
(g70
g63
NtRp5924
(dp5925
g66
(dp5926
g74
I4
ssg75
Nsg68
(lp5927
g61
(g77
g63
NtRp5928
(dp5929
g66
(dp5930
sg75
g5924
sg68
(lp5931
g61
(g82
g63
NtRp5932
(dp5933
g66
(dp5934
sg75
g5928
sg68
(lp5935
g61
(g62
g63
NtRp5936
(dp5937
g66
(dp5938
g74
I4
ssg75
g5932
sg68
(lp5939
S'^\\w+\\.py$'
p5940
asbasbasbag61
(g77
g63
NtRp5941
(dp5942
g66
(dp5943
sg75
g5924
sg68
(lp5944
g61
(g82
g63
NtRp5945
(dp5946
g66
(dp5947
sg75
g5941
sg68
(lp5948
g61
(g62
g63
NtRp5949
(dp5950
g66
(dp5951
g74
I4
ssg75
g5945
sg68
(lp5952
S'^dashboard/\\w+\\.py$'
p5953
asbasbasbag61
(g77
g63
NtRp5954
(dp5955
g66
(dp5956
sg75
g5924
sg68
(lp5957
g61
(g82
g63
NtRp5958
(dp5959
g66
(dp5960
sg75
g5954
sg68
(lp5961
g61
(g62
g63
NtRp5962
(dp5963
g66
(dp5964
g74
I4
ssg75
g5958
sg68
(lp5965
S'^dashboard/edit_chart/\\w+\\.py$'
p5966
asbasbasbasbasbasbasbag61
(g77
g63
NtRp5967
(dp5968
g66
(dp5969
sg75
g4467
sg68
(lp5970
g61
(g82
g63
NtRp5971
(dp5972
g66
(dp5973
g86
g87
ssg75
g5967
sg68
(lp5974
S'postprocessing'
p5975
asbag61
(g82
g63
NtRp5976
(dp5977
g66
(dp5978
g93
g94
ssg75
g5967
sg68
(lp5979
S':'
asbag61
(g82
g63
NtRp5980
(dp5981
g66
(dp5982
sg75
g5967
sg68
(lp5983
g61
(g62
g63
NtRp5984
(dp5985
g66
(dp5986
g74
I5
ssg75
g5980
sg68
(lp5987
g61
(g70
g63
NtRp5988
(dp5989
g66
(dp5990
g74
I4
ssg75
Nsg68
(lp5991
sbasbasbasbag61
(g77
g63
NtRp5992
(dp5993
g66
(dp5994
sg75
g4467
sg68
(lp5995
g61
(g82
g63
NtRp5996
(dp5997
g66
(dp5998
g86
g87
ssg75
g5992
sg68
(lp5999
S'session_cookie_expires'
p6000
asbag61
(g82
g63
NtRp6001
(dp6002
g66
(dp6003
g93
g94
ssg75
g5992
sg68
(lp6004
S':'
asbag61
(g82
g63
NtRp6005
(dp6006
g66
(dp6007
sg75
g5992
sg68
(lp6008
g61
(g62
g63
NtRp6009
(dp6010
g66
(dp6011
g74
I5
ssg75
g6005
sg68
(lp6012
S'None'
p6013
asbasbasbag61
(g77
g63
NtRp6014
(dp6015
g66
(dp6016
sg75
g4467
sg68
(lp6017
g61
(g82
g63
NtRp6018
(dp6019
g66
(dp6020
g86
g87
ssg75
g6014
sg68
(lp6021
S'session_data_name'
p6022
asbag61
(g82
g63
NtRp6023
(dp6024
g66
(dp6025
g93
g94
ssg75
g6014
sg68
(lp6026
S':'
asbag61
(g82
g63
NtRp6027
(dp6028
g66
(dp6029
sg75
g6014
sg68
(lp6030
g61
(g62
g63
NtRp6031
(dp6032
g66
(dp6033
g74
I5
ssg75
g6027
sg68
(lp6034
S'session_data_web2py_xlchart_dashboard'
p6035
asbasbasbag61
(g77
g63
NtRp6036
(dp6037
g66
(dp6038
sg75
g4467
sg68
(lp6039
g61
(g82
g63
NtRp6040
(dp6041
g66
(dp6042
g86
g87
ssg75
g6036
sg68
(lp6043
S'session_file'
p6044
asbag61
(g82
g63
NtRp6045
(dp6046
g66
(dp6047
g93
g94
ssg75
g6036
sg68
(lp6048
S':'
asbag61
(g82
g63
NtRp6049
(dp6050
g66
(dp6051
sg75
g6036
sg68
(lp6052
g61
(g62
g63
NtRp6053
(dp6054
g66
(dp6055
g74
I5
ssg75
g6049
sg68
(lp6056
S"<open file 'D:\\web2py\\source\\web2py\\applications\\web2py_xlchart_dashboard\\sessions\\127.0.0.1-fdf175eb-d99c-42dc-806f-28e6c18b9b0d', mode 'rb+' at 0x054B9180>"
p6057
asbasbasbag61
(g77
g63
NtRp6058
(dp6059
g66
(dp6060
sg75
g4467
sg68
(lp6061
g61
(g82
g63
NtRp6062
(dp6063
g66
(dp6064
g86
g87
ssg75
g6058
sg68
(lp6065
S'session_filename'
p6066
asbag61
(g82
g63
NtRp6067
(dp6068
g66
(dp6069
g93
g94
ssg75
g6058
sg68
(lp6070
S':'
asbag61
(g82
g63
NtRp6071
(dp6072
g66
(dp6073
sg75
g6058
sg68
(lp6074
g61
(g62
g63
NtRp6075
(dp6076
g66
(dp6077
g74
I5
ssg75
g6071
sg68
(lp6078
S'D:\\web2py\\source\\web2py\\applications\\web2py_xlchart_dashboard\\sessions\\127.0.0.1-fdf175eb-d99c-42dc-806f-28e6c18b9b0d'
p6079
asbasbasbag61
(g77
g63
NtRp6080
(dp6081
g66
(dp6082
sg75
g4467
sg68
(lp6083
g61
(g82
g63
NtRp6084
(dp6085
g66
(dp6086
g86
g87
ssg75
g6080
sg68
(lp6087
S'session_id'
p6088
asbag61
(g82
g63
NtRp6089
(dp6090
g66
(dp6091
g93
g94
ssg75
g6080
sg68
(lp6092
S':'
asbag61
(g82
g63
NtRp6093
(dp6094
g66
(dp6095
sg75
g6080
sg68
(lp6096
g61
(g62
g63
NtRp6097
(dp6098
g66
(dp6099
g74
I5
ssg75
g6093
sg68
(lp6100
g479
asbasbasbag61
(g77
g63
NtRp6101
(dp6102
g66
(dp6103
sg75
g4467
sg68
(lp6104
g61
(g82
g63
NtRp6105
(dp6106
g66
(dp6107
g86
g87
ssg75
g6101
sg68
(lp6108
S'session_id_name'
p6109
asbag61
(g82
g63
NtRp6110
(dp6111
g66
(dp6112
g93
g94
ssg75
g6101
sg68
(lp6113
S':'
asbag61
(g82
g63
NtRp6114
(dp6115
g66
(dp6116
sg75
g6101
sg68
(lp6117
g61
(g62
g63
NtRp6118
(dp6119
g66
(dp6120
g74
I5
ssg75
g6114
sg68
(lp6121
g4524
asbasbasbag61
(g77
g63
NtRp6122
(dp6123
g66
(dp6124
sg75
g4467
sg68
(lp6125
g61
(g82
g63
NtRp6126
(dp6127
g66
(dp6128
g86
g87
ssg75
g6122
sg68
(lp6129
S'session_locked'
p6130
asbag61
(g82
g63
NtRp6131
(dp6132
g66
(dp6133
g93
g94
ssg75
g6122
sg68
(lp6134
S':'
asbag61
(g82
g63
NtRp6135
(dp6136
g66
(dp6137
sg75
g6122
sg68
(lp6138
g61
(g62
g63
NtRp6139
(dp6140
g66
(dp6141
g74
I5
ssg75
g6135
sg68
(lp6142
g104
asbasbasbag61
(g77
g63
NtRp6143
(dp6144
g66
(dp6145
sg75
g4467
sg68
(lp6146
g61
(g82
g63
NtRp6147
(dp6148
g66
(dp6149
g86
g87
ssg75
g6143
sg68
(lp6150
S'session_new'
p6151
asbag61
(g82
g63
NtRp6152
(dp6153
g66
(dp6154
g93
g94
ssg75
g6143
sg68
(lp6155
S':'
asbag61
(g82
g63
NtRp6156
(dp6157
g66
(dp6158
sg75
g6143
sg68
(lp6159
g61
(g62
g63
NtRp6160
(dp6161
g66
(dp6162
g74
I5
ssg75
g6156
sg68
(lp6163
g847
asbasbasbag61
(g77
g63
NtRp6164
(dp6165
g66
(dp6166
sg75
g4467
sg68
(lp6167
g61
(g82
g63
NtRp6168
(dp6169
g66
(dp6170
g86
g87
ssg75
g6164
sg68
(lp6171
S'session_storage_type'
p6172
asbag61
(g82
g63
NtRp6173
(dp6174
g66
(dp6175
g93
g94
ssg75
g6164
sg68
(lp6176
S':'
asbag61
(g82
g63
NtRp6177
(dp6178
g66
(dp6179
sg75
g6164
sg68
(lp6180
g61
(g62
g63
NtRp6181
(dp6182
g66
(dp6183
g74
I5
ssg75
g6177
sg68
(lp6184
g3816
asbasbasbag61
(g77
g63
NtRp6185
(dp6186
g66
(dp6187
sg75
g4467
sg68
(lp6188
g61
(g82
g63
NtRp6189
(dp6190
g66
(dp6191
g86
g87
ssg75
g6185
sg68
(lp6192
S'status'
p6193
asbag61
(g82
g63
NtRp6194
(dp6195
g66
(dp6196
g93
g94
ssg75
g6185
sg68
(lp6197
S':'
asbag61
(g82
g63
NtRp6198
(dp6199
g66
(dp6200
sg75
g6185
sg68
(lp6201
g61
(g62
g63
NtRp6202
(dp6203
g66
(dp6204
g74
I5
ssg75
g6198
sg68
(lp6205
S'200'
p6206
asbasbasbag61
(g77
g63
NtRp6207
(dp6208
g66
(dp6209
sg75
g4467
sg68
(lp6210
g61
(g82
g63
NtRp6211
(dp6212
g66
(dp6213
g86
g87
ssg75
g6207
sg68
(lp6214
S'subtitle'
p6215
asbag61
(g82
g63
NtRp6216
(dp6217
g66
(dp6218
g93
g94
ssg75
g6207
sg68
(lp6219
S':'
asbag61
(g82
g63
NtRp6220
(dp6221
g66
(dp6222
sg75
g6207
sg68
(lp6223
g61
(g62
g63
NtRp6224
(dp6225
g66
(dp6226
g74
I5
ssg75
g6220
sg68
(lp6227
g4958
(S's\r\x00\x00\x00customize me!'
tRp6228
asbasbasbag61
(g77
g63
NtRp6229
(dp6230
g66
(dp6231
sg75
g4467
sg68
(lp6232
g61
(g82
g63
NtRp6233
(dp6234
g66
(dp6235
g86
g87
ssg75
g6229
sg68
(lp6236
S'title'
p6237
asbag61
(g82
g63
NtRp6238
(dp6239
g66
(dp6240
g93
g94
ssg75
g6229
sg68
(lp6241
S':'
asbag61
(g82
g63
NtRp6242
(dp6243
g66
(dp6244
sg75
g6229
sg68
(lp6245
g61
(g62
g63
NtRp6246
(dp6247
g66
(dp6248
g74
I5
ssg75
g6242
sg68
(lp6249
S'Web2py Xlchart Dashboard'
p6250
asbasbasbag61
(g77
g63
NtRp6251
(dp6252
g66
(dp6253
sg75
g4467
sg68
(lp6254
g61
(g82
g63
NtRp6255
(dp6256
g66
(dp6257
g86
g87
ssg75
g6251
sg68
(lp6258
S'view'
p6259
asbag61
(g82
g63
NtRp6260
(dp6261
g66
(dp6262
g93
g94
ssg75
g6251
sg68
(lp6263
S':'
asbag61
(g82
g63
NtRp6264
(dp6265
g66
(dp6266
sg75
g6251
sg68
(lp6267
g61
(g62
g63
NtRp6268
(dp6269
g66
(dp6270
g74
I5
ssg75
g6264
sg68
(lp6271
S'dashboard/edit_chart.html'
p6272
asbasbasbasbasbsS'locals'
p6273
(dp6274
S'a'
S"('select position from section_charts where id_section = ',)"
p6275
sS'self'
p6276
S'<gluon.dal.SQLiteAdapter object>'
p6277
sS'b'
g21
sS'command'
p6278
S"'select position from section_charts where id_section = '"
p6279
sS't0'
p6280
S'1352581965.265'
p6281
sssS'traceback'
p6282
S'Traceback (most recent call last):\n  File "D:\\web2py\\source\\web2py\\gluon\\restricted.py", line 212, in restricted\n    exec ccode in environment\n  File "D:\\web2py\\source\\web2py\\applications\\web2py_xlchart_dashboard\\controllers/dashboard.py", line 129, in <module>\n  File "D:\\web2py\\source\\web2py\\gluon\\globals.py", line 188, in <lambda>\n    self._caller = lambda f: f()\n  File "D:\\web2py\\source\\web2py\\gluon\\tools.py", line 2911, in f\n    return action(*a, **b)\n  File "D:\\web2py\\source\\web2py\\applications\\web2py_xlchart_dashboard\\controllers/dashboard.py", line 81, in edit_chart\n    if form.process(onvalidation=change_img_position).accepted:\n  File "D:\\web2py\\source\\web2py\\gluon\\html.py", line 2170, in process\n    self.validate(**kwargs)\n  File "D:\\web2py\\source\\web2py\\gluon\\html.py", line 2109, in validate\n    if self.accepts(**kwargs):\n  File "D:\\web2py\\source\\web2py\\gluon\\sqlhtml.py", line 1281, in accepts\n    **kwargs\n  File "D:\\web2py\\source\\web2py\\gluon\\html.py", line 2012, in accepts\n    onvalidation(self)\n  File "D:\\web2py\\source\\web2py\\applications\\web2py_xlchart_dashboard\\controllers/dashboard.py", line 95, in change_img_position\n    chartpos = db.executesql(sql)\n  File "D:\\web2py\\source\\web2py\\gluon\\dal.py", line 7247, in executesql\n    adapter.execute(query)\n  File "D:\\web2py\\source\\web2py\\gluon\\dal.py", line 1694, in execute\n    return self.log_execute(*a, **b)\n  File "D:\\web2py\\source\\web2py\\gluon\\dal.py", line 1688, in log_execute\n    ret = self.cursor.execute(*a, **b)\nOperationalError: near " ": syntax error\n'
p6283
s.