(dp1
S'output'
p2
S"<type 'exceptions.WindowsError'> [Error 123] The filename, directory name, or volume label syntax is incorrect: 'c:\\\\web2py\\\\applications\\\\web2py_xlchart_dashboard\\\\static\\\\images\\temp'"
p3
sS'layer'
p4
S'c:\\web2py\\applications\\web2py_xlchart_dashboard\\controllers/default.py'
p5
sS'code'
p6
S'# -*- coding: utf-8 -*-\n# this file is released under public domain and you can use without limitations\n\n#########################################################################\n## This is a samples controller\n## - index is the default action of any application\n## - user is required for authentication and authorization\n## - download is for downloading files uploaded in the db (does streaming)\n## - call exposes all registered services (none by default)\n#########################################################################\n\n\ndef index():\n    """\n    example action using the internationalization operator T and flash\n    rendered by views/default/index.html or views/generic.html\n\n    if you need a simple wiki simple replace the two lines below with:\n    return auth.wiki()\n    """\n  \n    response.flash = T("Welcome to web2py!")\n    return dict(message=T(\'Hello World\'))\n\ndef add_workbook():\n    grid = SQLFORM.smartgrid(db.workbook)\n    return locals()\n\ndef add_chart():\n    grid = SQLFORM.smartgrid(db.chart)\n    return locals()\n\ndef register_chart_part1():\n    grid = SQLFORM.smartgrid(db.workbook,links = [lambda row: A(T(\'List charts in this workbook\'),_href=URL("default","list_workbook_charts",vars={\'wbid\':row.id})),] )\n    return dict(workbookGrid = grid)\n    \ndef list_workbook_charts():\n    import os\n    wbid = request.vars[\'wbid\']\n    rsPath = db(db.workbook.id == wbid).select(db.workbook.path)\n    wbPath = rsPath[0].path\n    exportFolder = get_chart(wbPath)\n    chartfiles = []\n    for root, dirs, files in os.walk(exportFolder):\n        for file in files:\n            chartfiles.append(os.path.join(exportFolder,file))\n    return dict(chartfiles=chartfiles)\n\ndef get_chart(workbookPath, imageName="XLChart"):\n    import os, time\n    wbPath, wbFile = os.path.split(workbookPath)\n    import pythoncom\n    pythoncom.CoInitialize()\n    from pyxlchart import Pyxlchart\n    \n    ChartObj = Pyxlchart()\n    ChartObj.WorkbookDirectory = wbPath\n    ChartObj.WorkbookFilename = wbFile\n    ChartObj.ImageFilename = imageName\n    timeDir = str(time.time())\n    os.makedirs(os.path.join(request.folder, \'static\\images\\temp\', timeDir))\n    exportFolder = os.path.join(request.folder, \'static\\images\\temp\', timeDir)\n    ChartObj.ExportPath =  exportFolder\n    ChartObj.start_export()\n    webfolder = os.path.join(\'/images/temp/\',timeDir)\n    return webfolder\n\ndef user():\n    """\n    exposes:\n    http://..../[app]/default/user/login\n    http://..../[app]/default/user/logout\n    http://..../[app]/default/user/register\n    http://..../[app]/default/user/profile\n    http://..../[app]/default/user/retrieve_password\n    http://..../[app]/default/user/change_password\n    use @auth.requires_login()\n        @auth.requires_membership(\'group name\')\n        @auth.requires_permission(\'read\',\'table name\',record_id)\n    to decorate functions that need access control\n    """\n    return dict(form=auth())\n\n\ndef download():\n    """\n    allows downloading of uploaded files\n    http://..../[app]/default/download/[filename]\n    """\n    return response.download(request, db)\n\n\ndef call():\n    """\n    exposes services. for example:\n    http://..../[app]/default/call/jsonrpc\n    decorate with @services.jsonrpc the functions to expose\n    supports xml, json, xmlrpc, jsonrpc, amfrpc, rss, csv\n    """\n    return service()\n\n\n@auth.requires_signature()\ndef data():\n    """\n    http://..../[app]/default/data/tables\n    http://..../[app]/default/data/create/[table]\n    http://..../[app]/default/data/read/[table]/[id]\n    http://..../[app]/default/data/update/[table]/[id]\n    http://..../[app]/default/data/delete/[table]/[id]\n    http://..../[app]/default/data/select/[table]\n    http://..../[app]/default/data/search/[table]\n    but URLs must be signed, i.e. linked with\n      A(\'table\',_href=URL(\'data/tables\',user_signature=True))\n    or with the signed load operator\n      LOAD(\'default\',\'data.load\',args=\'tables\',ajax=True,user_signature=True)\n    """\n    return dict(form=crud())\n\nresponse._vars=response._caller(list_workbook_charts)\n'
p7
sS'snapshot'
p8
(dp9
S'exception'
p10
(dp11
S'__getslice__'
p12
S"<method-wrapper '__getslice__' of exceptions.WindowsError object>"
p13
sS'__str__'
p14
S"<method-wrapper '__str__' of exceptions.WindowsError object>"
p15
sS'__reduce__'
p16
S'<built-in method __reduce__ of exceptions.WindowsError object>'
p17
sS'__dict__'
p18
S'{}'
p19
sS'__sizeof__'
p20
S'<built-in method __sizeof__ of exceptions.WindowsError object>'
p21
sS'__init__'
p22
S"<method-wrapper '__init__' of exceptions.WindowsError object>"
p23
sS'__setattr__'
p24
S"<method-wrapper '__setattr__' of exceptions.WindowsError object>"
p25
sS'__reduce_ex__'
p26
S'<built-in method __reduce_ex__ of exceptions.WindowsError object>'
p27
sS'__new__'
p28
S'<built-in method __new__ of type object>'
p29
sS'errno'
p30
S'22'
p31
sS'__format__'
p32
S'<built-in method __format__ of exceptions.WindowsError object>'
p33
sS'__class__'
p34
S"<type 'exceptions.WindowsError'>"
p35
sS'filename'
p36
S"'c:\\\\web2py\\\\applications\\\\web2py_xlchart_dashboard\\\\static\\\\images\\temp'"
p37
sS'__doc__'
p38
S"'MS-Windows OS system call failed.'"
p39
sS'__getitem__'
p40
S"<method-wrapper '__getitem__' of exceptions.WindowsError object>"
p41
sS'__setstate__'
p42
S'<built-in method __setstate__ of exceptions.WindowsError object>'
p43
sS'__getattribute__'
p44
S"<method-wrapper '__getattribute__' of exceptions.WindowsError object>"
p45
sS'args'
p46
S"(123, 'The filename, directory name, or volume label syntax is incorrect')"
p47
sS'__subclasshook__'
p48
S'<built-in method __subclasshook__ of type object>'
p49
sS'__unicode__'
p50
S'<built-in method __unicode__ of exceptions.WindowsError object>'
p51
sS'winerror'
p52
S'123'
p53
sS'strerror'
p54
S"'The filename, directory name, or volume label syntax is incorrect'"
p55
sS'__delattr__'
p56
S"<method-wrapper '__delattr__' of exceptions.WindowsError object>"
p57
sS'__repr__'
p58
S"<method-wrapper '__repr__' of exceptions.WindowsError object>"
p59
sS'__hash__'
p60
S"<method-wrapper '__hash__' of exceptions.WindowsError object>"
p61
ssS'evalue'
p62
S"[Error 123] The filename, directory name, or volume label syntax is incorrect: 'c:\\\\web2py\\\\applications\\\\web2py_xlchart_dashboard\\\\static\\\\images\\temp'"
p63
sS'request'
p64
ccopy_reg
_reconstructor
p65
(cgluon.html
BEAUTIFY
p66
c__builtin__
object
p67
NtRp68
(dp69
S'attributes'
p70
(dp71
sS'components'
p72
(lp73
g65
(cgluon.html
TABLE
p74
g67
NtRp75
(dp76
g70
(dp77
S'level'
p78
I5
ssS'parent'
p79
Nsg72
(lp80
g65
(cgluon.html
TR
p81
g67
NtRp82
(dp83
g70
(dp84
sg79
g75
sg72
(lp85
g65
(cgluon.html
TD
p86
g67
NtRp87
(dp88
g70
(dp89
S'_style'
p90
S'font-weight:bold;vertical-align:top'
p91
ssg79
g82
sg72
(lp92
S'ajax'
p93
asbag65
(g86
g67
NtRp94
(dp95
g70
(dp96
S'_valign'
p97
S'top'
p98
ssg79
g82
sg72
(lp99
S':'
asbag65
(g86
g67
NtRp100
(dp101
g70
(dp102
sg79
g82
sg72
(lp103
g65
(g66
g67
NtRp104
(dp105
g70
(dp106
g78
I5
ssg79
g100
sg72
(lp107
S'False'
p108
asbasbasbag65
(g81
g67
NtRp109
(dp110
g70
(dp111
sg79
g75
sg72
(lp112
g65
(g86
g67
NtRp113
(dp114
g70
(dp115
g90
g91
ssg79
g109
sg72
(lp116
S'application'
p117
asbag65
(g86
g67
NtRp118
(dp119
g70
(dp120
g97
g98
ssg79
g109
sg72
(lp121
S':'
asbag65
(g86
g67
NtRp122
(dp123
g70
(dp124
sg79
g109
sg72
(lp125
g65
(g66
g67
NtRp126
(dp127
g70
(dp128
g78
I5
ssg79
g122
sg72
(lp129
S'web2py_xlchart_dashboard'
p130
asbasbasbag65
(g81
g67
NtRp131
(dp132
g70
(dp133
sg79
g75
sg72
(lp134
g65
(g86
g67
NtRp135
(dp136
g70
(dp137
g90
g91
ssg79
g131
sg72
(lp138
g46
asbag65
(g86
g67
NtRp139
(dp140
g70
(dp141
g97
g98
ssg79
g131
sg72
(lp142
S':'
asbag65
(g86
g67
NtRp143
(dp144
g70
(dp145
sg79
g131
sg72
(lp146
g65
(g66
g67
NtRp147
(dp148
g70
(dp149
g78
I5
ssg79
g143
sg72
(lp150
g65
(g74
g67
NtRp151
(dp152
g70
(dp153
g78
I4
ssg79
Nsg72
(lp154
sbasbasbasbag65
(g81
g67
NtRp155
(dp156
g70
(dp157
sg79
g75
sg72
(lp158
g65
(g86
g67
NtRp159
(dp160
g70
(dp161
g90
g91
ssg79
g155
sg72
(lp162
S'body'
p163
asbag65
(g86
g67
NtRp164
(dp165
g70
(dp166
g97
g98
ssg79
g155
sg72
(lp167
S':'
asbag65
(g86
g67
NtRp168
(dp169
g70
(dp170
sg79
g155
sg72
(lp171
g65
(g66
g67
NtRp172
(dp173
g70
(dp174
g78
I5
ssg79
g168
sg72
(lp175
S'<cStringIO.StringO object at 0x07AB1380>'
p176
asbasbasbag65
(g81
g67
NtRp177
(dp178
g70
(dp179
sg79
g75
sg72
(lp180
g65
(g86
g67
NtRp181
(dp182
g70
(dp183
g90
g91
ssg79
g177
sg72
(lp184
S'cid'
p185
asbag65
(g86
g67
NtRp186
(dp187
g70
(dp188
g97
g98
ssg79
g177
sg72
(lp189
S':'
asbag65
(g86
g67
NtRp190
(dp191
g70
(dp192
sg79
g177
sg72
(lp193
g65
(g66
g67
NtRp194
(dp195
g70
(dp196
g78
I5
ssg79
g190
sg72
(lp197
S'None'
p198
asbasbasbag65
(g81
g67
NtRp199
(dp200
g70
(dp201
sg79
g75
sg72
(lp202
g65
(g86
g67
NtRp203
(dp204
g70
(dp205
g90
g91
ssg79
g199
sg72
(lp206
S'client'
p207
asbag65
(g86
g67
NtRp208
(dp209
g70
(dp210
g97
g98
ssg79
g199
sg72
(lp211
S':'
asbag65
(g86
g67
NtRp212
(dp213
g70
(dp214
sg79
g199
sg72
(lp215
g65
(g66
g67
NtRp216
(dp217
g70
(dp218
g78
I5
ssg79
g212
sg72
(lp219
S'127.0.0.1'
p220
asbasbasbag65
(g81
g67
NtRp221
(dp222
g70
(dp223
sg79
g75
sg72
(lp224
g65
(g86
g67
NtRp225
(dp226
g70
(dp227
g90
g91
ssg79
g221
sg72
(lp228
S'controller'
p229
asbag65
(g86
g67
NtRp230
(dp231
g70
(dp232
g97
g98
ssg79
g221
sg72
(lp233
S':'
asbag65
(g86
g67
NtRp234
(dp235
g70
(dp236
sg79
g221
sg72
(lp237
g65
(g66
g67
NtRp238
(dp239
g70
(dp240
g78
I5
ssg79
g234
sg72
(lp241
S'default'
p242
asbasbasbag65
(g81
g67
NtRp243
(dp244
g70
(dp245
sg79
g75
sg72
(lp246
g65
(g86
g67
NtRp247
(dp248
g70
(dp249
g90
g91
ssg79
g243
sg72
(lp250
S'cookies'
p251
asbag65
(g86
g67
NtRp252
(dp253
g70
(dp254
g97
g98
ssg79
g243
sg72
(lp255
S':'
asbag65
(g86
g67
NtRp256
(dp257
g70
(dp258
sg79
g243
sg72
(lp259
g65
(g66
g67
NtRp260
(dp261
g70
(dp262
g78
I5
ssg79
g256
sg72
(lp263
g65
(g74
g67
NtRp264
(dp265
g70
(dp266
g78
I4
ssg79
Nsg72
(lp267
g65
(g81
g67
NtRp268
(dp269
g70
(dp270
sg79
g264
sg72
(lp271
g65
(g86
g67
NtRp272
(dp273
g70
(dp274
g90
g91
ssg79
g268
sg72
(lp275
S'session_id_admin'
p276
asbag65
(g86
g67
NtRp277
(dp278
g70
(dp279
g97
g98
ssg79
g268
sg72
(lp280
S':'
asbag65
(g86
g67
NtRp281
(dp282
g70
(dp283
sg79
g268
sg72
(lp284
g65
(g66
g67
NtRp285
(dp286
g70
(dp287
g78
I4
ssg79
g281
sg72
(lp288
S'127.0.0.1-18865676-835c-4b6d-b767-c1518f1dcd4f'
p289
ag65
(g74
g67
NtRp290
(dp291
g70
(dp292
g78
I3
ssg79
Nsg72
(lp293
g65
(g81
g67
NtRp294
(dp295
g70
(dp296
sg79
g290
sg72
(lp297
g65
(g86
g67
NtRp298
(dp299
g70
(dp300
g90
g91
ssg79
g294
sg72
(lp301
S'comment'
p302
asbag65
(g86
g67
NtRp303
(dp304
g70
(dp305
g97
g98
ssg79
g294
sg72
(lp306
S':'
asbag65
(g86
g67
NtRp307
(dp308
g70
(dp309
sg79
g294
sg72
(lp310
g65
(g66
g67
NtRp311
(dp312
g70
(dp313
g78
I3
ssg79
g307
sg72
(lp314
S''
asbasbasbag65
(g81
g67
NtRp315
(dp316
g70
(dp317
sg79
g290
sg72
(lp318
g65
(g86
g67
NtRp319
(dp320
g70
(dp321
g90
g91
ssg79
g315
sg72
(lp322
S'domain'
p323
asbag65
(g86
g67
NtRp324
(dp325
g70
(dp326
g97
g98
ssg79
g315
sg72
(lp327
S':'
asbag65
(g86
g67
NtRp328
(dp329
g70
(dp330
sg79
g315
sg72
(lp331
g65
(g66
g67
NtRp332
(dp333
g70
(dp334
g78
I3
ssg79
g328
sg72
(lp335
S''
asbasbasbag65
(g81
g67
NtRp336
(dp337
g70
(dp338
sg79
g290
sg72
(lp339
g65
(g86
g67
NtRp340
(dp341
g70
(dp342
g90
g91
ssg79
g336
sg72
(lp343
S'expires'
p344
asbag65
(g86
g67
NtRp345
(dp346
g70
(dp347
g97
g98
ssg79
g336
sg72
(lp348
S':'
asbag65
(g86
g67
NtRp349
(dp350
g70
(dp351
sg79
g336
sg72
(lp352
g65
(g66
g67
NtRp353
(dp354
g70
(dp355
g78
I3
ssg79
g349
sg72
(lp356
S''
asbasbasbag65
(g81
g67
NtRp357
(dp358
g70
(dp359
sg79
g290
sg72
(lp360
g65
(g86
g67
NtRp361
(dp362
g70
(dp363
g90
g91
ssg79
g357
sg72
(lp364
S'httponly'
p365
asbag65
(g86
g67
NtRp366
(dp367
g70
(dp368
g97
g98
ssg79
g357
sg72
(lp369
S':'
asbag65
(g86
g67
NtRp370
(dp371
g70
(dp372
sg79
g357
sg72
(lp373
g65
(g66
g67
NtRp374
(dp375
g70
(dp376
g78
I3
ssg79
g370
sg72
(lp377
S''
asbasbasbag65
(g81
g67
NtRp378
(dp379
g70
(dp380
sg79
g290
sg72
(lp381
g65
(g86
g67
NtRp382
(dp383
g70
(dp384
g90
g91
ssg79
g378
sg72
(lp385
S'max-age'
p386
asbag65
(g86
g67
NtRp387
(dp388
g70
(dp389
g97
g98
ssg79
g378
sg72
(lp390
S':'
asbag65
(g86
g67
NtRp391
(dp392
g70
(dp393
sg79
g378
sg72
(lp394
g65
(g66
g67
NtRp395
(dp396
g70
(dp397
g78
I3
ssg79
g391
sg72
(lp398
S''
asbasbasbag65
(g81
g67
NtRp399
(dp400
g70
(dp401
sg79
g290
sg72
(lp402
g65
(g86
g67
NtRp403
(dp404
g70
(dp405
g90
g91
ssg79
g399
sg72
(lp406
S'path'
p407
asbag65
(g86
g67
NtRp408
(dp409
g70
(dp410
g97
g98
ssg79
g399
sg72
(lp411
S':'
asbag65
(g86
g67
NtRp412
(dp413
g70
(dp414
sg79
g399
sg72
(lp415
g65
(g66
g67
NtRp416
(dp417
g70
(dp418
g78
I3
ssg79
g412
sg72
(lp419
S''
asbasbasbag65
(g81
g67
NtRp420
(dp421
g70
(dp422
sg79
g290
sg72
(lp423
g65
(g86
g67
NtRp424
(dp425
g70
(dp426
g90
g91
ssg79
g420
sg72
(lp427
S'secure'
p428
asbag65
(g86
g67
NtRp429
(dp430
g70
(dp431
g97
g98
ssg79
g420
sg72
(lp432
S':'
asbag65
(g86
g67
NtRp433
(dp434
g70
(dp435
sg79
g420
sg72
(lp436
g65
(g66
g67
NtRp437
(dp438
g70
(dp439
g78
I3
ssg79
g433
sg72
(lp440
S''
asbasbasbag65
(g81
g67
NtRp441
(dp442
g70
(dp443
sg79
g290
sg72
(lp444
g65
(g86
g67
NtRp445
(dp446
g70
(dp447
g90
g91
ssg79
g441
sg72
(lp448
S'version'
p449
asbag65
(g86
g67
NtRp450
(dp451
g70
(dp452
g97
g98
ssg79
g441
sg72
(lp453
S':'
asbag65
(g86
g67
NtRp454
(dp455
g70
(dp456
sg79
g441
sg72
(lp457
g65
(g66
g67
NtRp458
(dp459
g70
(dp460
g78
I3
ssg79
g454
sg72
(lp461
S''
asbasbasbasbasbasbasbag65
(g81
g67
NtRp462
(dp463
g70
(dp464
sg79
g264
sg72
(lp465
g65
(g86
g67
NtRp466
(dp467
g70
(dp468
g90
g91
ssg79
g462
sg72
(lp469
S'session_id_web2py_xlchart_dashboard'
p470
asbag65
(g86
g67
NtRp471
(dp472
g70
(dp473
g97
g98
ssg79
g462
sg72
(lp474
S':'
asbag65
(g86
g67
NtRp475
(dp476
g70
(dp477
sg79
g462
sg72
(lp478
g65
(g66
g67
NtRp479
(dp480
g70
(dp481
g78
I4
ssg79
g475
sg72
(lp482
S'127.0.0.1-08b039f4-8372-4bda-9ce9-032ae97eb74f'
p483
ag65
(g74
g67
NtRp484
(dp485
g70
(dp486
g78
I3
ssg79
Nsg72
(lp487
g65
(g81
g67
NtRp488
(dp489
g70
(dp490
sg79
g484
sg72
(lp491
g65
(g86
g67
NtRp492
(dp493
g70
(dp494
g90
g91
ssg79
g488
sg72
(lp495
g302
asbag65
(g86
g67
NtRp496
(dp497
g70
(dp498
g97
g98
ssg79
g488
sg72
(lp499
S':'
asbag65
(g86
g67
NtRp500
(dp501
g70
(dp502
sg79
g488
sg72
(lp503
g65
(g66
g67
NtRp504
(dp505
g70
(dp506
g78
I3
ssg79
g500
sg72
(lp507
S''
asbasbasbag65
(g81
g67
NtRp508
(dp509
g70
(dp510
sg79
g484
sg72
(lp511
g65
(g86
g67
NtRp512
(dp513
g70
(dp514
g90
g91
ssg79
g508
sg72
(lp515
g323
asbag65
(g86
g67
NtRp516
(dp517
g70
(dp518
g97
g98
ssg79
g508
sg72
(lp519
S':'
asbag65
(g86
g67
NtRp520
(dp521
g70
(dp522
sg79
g508
sg72
(lp523
g65
(g66
g67
NtRp524
(dp525
g70
(dp526
g78
I3
ssg79
g520
sg72
(lp527
S''
asbasbasbag65
(g81
g67
NtRp528
(dp529
g70
(dp530
sg79
g484
sg72
(lp531
g65
(g86
g67
NtRp532
(dp533
g70
(dp534
g90
g91
ssg79
g528
sg72
(lp535
g344
asbag65
(g86
g67
NtRp536
(dp537
g70
(dp538
g97
g98
ssg79
g528
sg72
(lp539
S':'
asbag65
(g86
g67
NtRp540
(dp541
g70
(dp542
sg79
g528
sg72
(lp543
g65
(g66
g67
NtRp544
(dp545
g70
(dp546
g78
I3
ssg79
g540
sg72
(lp547
S''
asbasbasbag65
(g81
g67
NtRp548
(dp549
g70
(dp550
sg79
g484
sg72
(lp551
g65
(g86
g67
NtRp552
(dp553
g70
(dp554
g90
g91
ssg79
g548
sg72
(lp555
g365
asbag65
(g86
g67
NtRp556
(dp557
g70
(dp558
g97
g98
ssg79
g548
sg72
(lp559
S':'
asbag65
(g86
g67
NtRp560
(dp561
g70
(dp562
sg79
g548
sg72
(lp563
g65
(g66
g67
NtRp564
(dp565
g70
(dp566
g78
I3
ssg79
g560
sg72
(lp567
S''
asbasbasbag65
(g81
g67
NtRp568
(dp569
g70
(dp570
sg79
g484
sg72
(lp571
g65
(g86
g67
NtRp572
(dp573
g70
(dp574
g90
g91
ssg79
g568
sg72
(lp575
g386
asbag65
(g86
g67
NtRp576
(dp577
g70
(dp578
g97
g98
ssg79
g568
sg72
(lp579
S':'
asbag65
(g86
g67
NtRp580
(dp581
g70
(dp582
sg79
g568
sg72
(lp583
g65
(g66
g67
NtRp584
(dp585
g70
(dp586
g78
I3
ssg79
g580
sg72
(lp587
S''
asbasbasbag65
(g81
g67
NtRp588
(dp589
g70
(dp590
sg79
g484
sg72
(lp591
g65
(g86
g67
NtRp592
(dp593
g70
(dp594
g90
g91
ssg79
g588
sg72
(lp595
g407
asbag65
(g86
g67
NtRp596
(dp597
g70
(dp598
g97
g98
ssg79
g588
sg72
(lp599
S':'
asbag65
(g86
g67
NtRp600
(dp601
g70
(dp602
sg79
g588
sg72
(lp603
g65
(g66
g67
NtRp604
(dp605
g70
(dp606
g78
I3
ssg79
g600
sg72
(lp607
S''
asbasbasbag65
(g81
g67
NtRp608
(dp609
g70
(dp610
sg79
g484
sg72
(lp611
g65
(g86
g67
NtRp612
(dp613
g70
(dp614
g90
g91
ssg79
g608
sg72
(lp615
g428
asbag65
(g86
g67
NtRp616
(dp617
g70
(dp618
g97
g98
ssg79
g608
sg72
(lp619
S':'
asbag65
(g86
g67
NtRp620
(dp621
g70
(dp622
sg79
g608
sg72
(lp623
g65
(g66
g67
NtRp624
(dp625
g70
(dp626
g78
I3
ssg79
g620
sg72
(lp627
S''
asbasbasbag65
(g81
g67
NtRp628
(dp629
g70
(dp630
sg79
g484
sg72
(lp631
g65
(g86
g67
NtRp632
(dp633
g70
(dp634
g90
g91
ssg79
g628
sg72
(lp635
g449
asbag65
(g86
g67
NtRp636
(dp637
g70
(dp638
g97
g98
ssg79
g628
sg72
(lp639
S':'
asbag65
(g86
g67
NtRp640
(dp641
g70
(dp642
sg79
g628
sg72
(lp643
g65
(g66
g67
NtRp644
(dp645
g70
(dp646
g78
I3
ssg79
g640
sg72
(lp647
S''
asbasbasbasbasbasbasbag65
(g81
g67
NtRp648
(dp649
g70
(dp650
sg79
g264
sg72
(lp651
g65
(g86
g67
NtRp652
(dp653
g70
(dp654
g90
g91
ssg79
g648
sg72
(lp655
S'session_id_welcome'
p656
asbag65
(g86
g67
NtRp657
(dp658
g70
(dp659
g97
g98
ssg79
g648
sg72
(lp660
S':'
asbag65
(g86
g67
NtRp661
(dp662
g70
(dp663
sg79
g648
sg72
(lp664
g65
(g66
g67
NtRp665
(dp666
g70
(dp667
g78
I4
ssg79
g661
sg72
(lp668
S'127.0.0.1-a62b192a-78c6-49be-836b-6e4012e79365'
p669
ag65
(g74
g67
NtRp670
(dp671
g70
(dp672
g78
I3
ssg79
Nsg72
(lp673
g65
(g81
g67
NtRp674
(dp675
g70
(dp676
sg79
g670
sg72
(lp677
g65
(g86
g67
NtRp678
(dp679
g70
(dp680
g90
g91
ssg79
g674
sg72
(lp681
g302
asbag65
(g86
g67
NtRp682
(dp683
g70
(dp684
g97
g98
ssg79
g674
sg72
(lp685
S':'
asbag65
(g86
g67
NtRp686
(dp687
g70
(dp688
sg79
g674
sg72
(lp689
g65
(g66
g67
NtRp690
(dp691
g70
(dp692
g78
I3
ssg79
g686
sg72
(lp693
S''
asbasbasbag65
(g81
g67
NtRp694
(dp695
g70
(dp696
sg79
g670
sg72
(lp697
g65
(g86
g67
NtRp698
(dp699
g70
(dp700
g90
g91
ssg79
g694
sg72
(lp701
g323
asbag65
(g86
g67
NtRp702
(dp703
g70
(dp704
g97
g98
ssg79
g694
sg72
(lp705
S':'
asbag65
(g86
g67
NtRp706
(dp707
g70
(dp708
sg79
g694
sg72
(lp709
g65
(g66
g67
NtRp710
(dp711
g70
(dp712
g78
I3
ssg79
g706
sg72
(lp713
S''
asbasbasbag65
(g81
g67
NtRp714
(dp715
g70
(dp716
sg79
g670
sg72
(lp717
g65
(g86
g67
NtRp718
(dp719
g70
(dp720
g90
g91
ssg79
g714
sg72
(lp721
g344
asbag65
(g86
g67
NtRp722
(dp723
g70
(dp724
g97
g98
ssg79
g714
sg72
(lp725
S':'
asbag65
(g86
g67
NtRp726
(dp727
g70
(dp728
sg79
g714
sg72
(lp729
g65
(g66
g67
NtRp730
(dp731
g70
(dp732
g78
I3
ssg79
g726
sg72
(lp733
S''
asbasbasbag65
(g81
g67
NtRp734
(dp735
g70
(dp736
sg79
g670
sg72
(lp737
g65
(g86
g67
NtRp738
(dp739
g70
(dp740
g90
g91
ssg79
g734
sg72
(lp741
g365
asbag65
(g86
g67
NtRp742
(dp743
g70
(dp744
g97
g98
ssg79
g734
sg72
(lp745
S':'
asbag65
(g86
g67
NtRp746
(dp747
g70
(dp748
sg79
g734
sg72
(lp749
g65
(g66
g67
NtRp750
(dp751
g70
(dp752
g78
I3
ssg79
g746
sg72
(lp753
S''
asbasbasbag65
(g81
g67
NtRp754
(dp755
g70
(dp756
sg79
g670
sg72
(lp757
g65
(g86
g67
NtRp758
(dp759
g70
(dp760
g90
g91
ssg79
g754
sg72
(lp761
g386
asbag65
(g86
g67
NtRp762
(dp763
g70
(dp764
g97
g98
ssg79
g754
sg72
(lp765
S':'
asbag65
(g86
g67
NtRp766
(dp767
g70
(dp768
sg79
g754
sg72
(lp769
g65
(g66
g67
NtRp770
(dp771
g70
(dp772
g78
I3
ssg79
g766
sg72
(lp773
S''
asbasbasbag65
(g81
g67
NtRp774
(dp775
g70
(dp776
sg79
g670
sg72
(lp777
g65
(g86
g67
NtRp778
(dp779
g70
(dp780
g90
g91
ssg79
g774
sg72
(lp781
g407
asbag65
(g86
g67
NtRp782
(dp783
g70
(dp784
g97
g98
ssg79
g774
sg72
(lp785
S':'
asbag65
(g86
g67
NtRp786
(dp787
g70
(dp788
sg79
g774
sg72
(lp789
g65
(g66
g67
NtRp790
(dp791
g70
(dp792
g78
I3
ssg79
g786
sg72
(lp793
S''
asbasbasbag65
(g81
g67
NtRp794
(dp795
g70
(dp796
sg79
g670
sg72
(lp797
g65
(g86
g67
NtRp798
(dp799
g70
(dp800
g90
g91
ssg79
g794
sg72
(lp801
g428
asbag65
(g86
g67
NtRp802
(dp803
g70
(dp804
g97
g98
ssg79
g794
sg72
(lp805
S':'
asbag65
(g86
g67
NtRp806
(dp807
g70
(dp808
sg79
g794
sg72
(lp809
g65
(g66
g67
NtRp810
(dp811
g70
(dp812
g78
I3
ssg79
g806
sg72
(lp813
S''
asbasbasbag65
(g81
g67
NtRp814
(dp815
g70
(dp816
sg79
g670
sg72
(lp817
g65
(g86
g67
NtRp818
(dp819
g70
(dp820
g90
g91
ssg79
g814
sg72
(lp821
g449
asbag65
(g86
g67
NtRp822
(dp823
g70
(dp824
g97
g98
ssg79
g814
sg72
(lp825
S':'
asbag65
(g86
g67
NtRp826
(dp827
g70
(dp828
sg79
g814
sg72
(lp829
g65
(g66
g67
NtRp830
(dp831
g70
(dp832
g78
I3
ssg79
g826
sg72
(lp833
S''
asbasbasbasbasbasbasbasbasbasbasbag65
(g81
g67
NtRp834
(dp835
g70
(dp836
sg79
g75
sg72
(lp837
g65
(g86
g67
NtRp838
(dp839
g70
(dp840
g90
g91
ssg79
g834
sg72
(lp841
S'env'
p842
asbag65
(g86
g67
NtRp843
(dp844
g70
(dp845
g97
g98
ssg79
g834
sg72
(lp846
S':'
asbag65
(g86
g67
NtRp847
(dp848
g70
(dp849
sg79
g834
sg72
(lp850
g65
(g66
g67
NtRp851
(dp852
g70
(dp853
g78
I5
ssg79
g847
sg72
(lp854
g65
(g74
g67
NtRp855
(dp856
g70
(dp857
g78
I4
ssg79
Nsg72
(lp858
g65
(g81
g67
NtRp859
(dp860
g70
(dp861
sg79
g855
sg72
(lp862
g65
(g86
g67
NtRp863
(dp864
g70
(dp865
g90
g91
ssg79
g859
sg72
(lp866
S'app_folders'
p867
asbag65
(g86
g67
NtRp868
(dp869
g70
(dp870
g97
g98
ssg79
g859
sg72
(lp871
S':'
asbag65
(g86
g67
NtRp872
(dp873
g70
(dp874
sg79
g859
sg72
(lp875
g65
(g66
g67
NtRp876
(dp877
g70
(dp878
g78
I4
ssg79
g872
sg72
(lp879
S"set(['c:\\\\web2py\\\\applications\\\\admin\\\\', 'c:\\\\web2py\\\\applications\\\\web2py_xlchart_dashboard\\\\', 'c:\\\\web2py\\\\applications\\\\welcome\\\\'])"
p880
asbasbasbag65
(g81
g67
NtRp881
(dp882
g70
(dp883
sg79
g855
sg72
(lp884
g65
(g86
g67
NtRp885
(dp886
g70
(dp887
g90
g91
ssg79
g881
sg72
(lp888
S'applications_parent'
p889
asbag65
(g86
g67
NtRp890
(dp891
g70
(dp892
g97
g98
ssg79
g881
sg72
(lp893
S':'
asbag65
(g86
g67
NtRp894
(dp895
g70
(dp896
sg79
g881
sg72
(lp897
g65
(g66
g67
NtRp898
(dp899
g70
(dp900
g78
I4
ssg79
g894
sg72
(lp901
S'c:\\web2py'
p902
asbasbasbag65
(g81
g67
NtRp903
(dp904
g70
(dp905
sg79
g855
sg72
(lp906
g65
(g86
g67
NtRp907
(dp908
g70
(dp909
g90
g91
ssg79
g903
sg72
(lp910
S'cmd_args'
p911
asbag65
(g86
g67
NtRp912
(dp913
g70
(dp914
g97
g98
ssg79
g903
sg72
(lp915
S':'
asbag65
(g86
g67
NtRp916
(dp917
g70
(dp918
sg79
g903
sg72
(lp919
g65
(g66
g67
NtRp920
(dp921
g70
(dp922
g78
I4
ssg79
g916
sg72
(lp923
g65
(g74
g67
NtRp924
(dp925
g70
(dp926
g78
I3
ssg79
Nsg72
(lp927
sbasbasbasbag65
(g81
g67
NtRp928
(dp929
g70
(dp930
sg79
g855
sg72
(lp931
g65
(g86
g67
NtRp932
(dp933
g70
(dp934
g90
g91
ssg79
g928
sg72
(lp935
S'cmd_options'
p936
asbag65
(g86
g67
NtRp937
(dp938
g70
(dp939
g97
g98
ssg79
g928
sg72
(lp940
S':'
asbag65
(g86
g67
NtRp941
(dp942
g70
(dp943
sg79
g928
sg72
(lp944
g65
(g66
g67
NtRp945
(dp946
g70
(dp947
g78
I4
ssg79
g941
sg72
(lp948
S"<Values at 0x306e968: {'verbose': False, 'ip': '127.0.0.1', 'with_scheduler': False, 'ips': ['10.37.130.2', '192.168.0.4', '192.168.56.1', '10.37.131.2'], 'shutdown_timeout': 5, 'taskbar': False, 'port': 8000, 'maxthreads': None, 'softcron': False, 'server_name': 'Simon-PC', 'bpython': False, 'nogui': False, 'pid_filename': 'httpserver.pid', 'extcron': False, 'runcron': False, 'run_system_tests': False, 'test': None, 'folder': 'c:\\\\web2py', 'config': '', 'import_models': False, 'winservice': '', 'shell': None, 'run': '', 'log_filename': 'httpserver.log', 'debuglevel': 30, 'args': [''], 'socket_timeout': 5, 'ssl_ca_certificate': None, 'scheduler': None, 'profiler_filename': None, 'ssl_private_key': '', 'scheduler_groups': None, 'password': '<ask>', 'request_queue_size': 5, 'ssl_certificate': '', 'cronjob': False, 'numthreads': None, 'quiet': False, 'interfaces': None, 'minthreads': None, 'timeout': 10, 'plain': False, 'nobanner': False}>"
p949
asbasbasbag65
(g81
g67
NtRp950
(dp951
g70
(dp952
sg79
g855
sg72
(lp953
g65
(g86
g67
NtRp954
(dp955
g70
(dp956
g90
g91
ssg79
g950
sg72
(lp957
S'db_sessions'
p958
asbag65
(g86
g67
NtRp959
(dp960
g70
(dp961
g97
g98
ssg79
g950
sg72
(lp962
S':'
asbag65
(g86
g67
NtRp963
(dp964
g70
(dp965
sg79
g950
sg72
(lp966
g65
(g66
g67
NtRp967
(dp968
g70
(dp969
g78
I4
ssg79
g963
sg72
(lp970
S'set([])'
p971
asbasbasbag65
(g81
g67
NtRp972
(dp973
g70
(dp974
sg79
g855
sg72
(lp975
g65
(g86
g67
NtRp976
(dp977
g70
(dp978
g90
g91
ssg79
g972
sg72
(lp979
S'debugging'
p980
asbag65
(g86
g67
NtRp981
(dp982
g70
(dp983
g97
g98
ssg79
g972
sg72
(lp984
S':'
asbag65
(g86
g67
NtRp985
(dp986
g70
(dp987
sg79
g972
sg72
(lp988
g65
(g66
g67
NtRp989
(dp990
g70
(dp991
g78
I4
ssg79
g985
sg72
(lp992
g108
asbasbasbag65
(g81
g67
NtRp993
(dp994
g70
(dp995
sg79
g855
sg72
(lp996
g65
(g86
g67
NtRp997
(dp998
g70
(dp999
g90
g91
ssg79
g993
sg72
(lp1000
S'gluon_parent'
p1001
asbag65
(g86
g67
NtRp1002
(dp1003
g70
(dp1004
g97
g98
ssg79
g993
sg72
(lp1005
S':'
asbag65
(g86
g67
NtRp1006
(dp1007
g70
(dp1008
sg79
g993
sg72
(lp1009
g65
(g66
g67
NtRp1010
(dp1011
g70
(dp1012
g78
I4
ssg79
g1006
sg72
(lp1013
S'c:\\web2py'
p1014
asbasbasbag65
(g81
g67
NtRp1015
(dp1016
g70
(dp1017
sg79
g855
sg72
(lp1018
g65
(g86
g67
NtRp1019
(dp1020
g70
(dp1021
g90
g91
ssg79
g1015
sg72
(lp1022
S'http_accept'
p1023
asbag65
(g86
g67
NtRp1024
(dp1025
g70
(dp1026
g97
g98
ssg79
g1015
sg72
(lp1027
S':'
asbag65
(g86
g67
NtRp1028
(dp1029
g70
(dp1030
sg79
g1015
sg72
(lp1031
g65
(g66
g67
NtRp1032
(dp1033
g70
(dp1034
g78
I4
ssg79
g1028
sg72
(lp1035
S'text/html,application/xhtml+xml,application/xml;q=0.9,*/*;q=0.8'
p1036
asbasbasbag65
(g81
g67
NtRp1037
(dp1038
g70
(dp1039
sg79
g855
sg72
(lp1040
g65
(g86
g67
NtRp1041
(dp1042
g70
(dp1043
g90
g91
ssg79
g1037
sg72
(lp1044
S'http_accept_charset'
p1045
asbag65
(g86
g67
NtRp1046
(dp1047
g70
(dp1048
g97
g98
ssg79
g1037
sg72
(lp1049
S':'
asbag65
(g86
g67
NtRp1050
(dp1051
g70
(dp1052
sg79
g1037
sg72
(lp1053
g65
(g66
g67
NtRp1054
(dp1055
g70
(dp1056
g78
I4
ssg79
g1050
sg72
(lp1057
S'ISO-8859-1,utf-8;q=0.7,*;q=0.3'
p1058
asbasbasbag65
(g81
g67
NtRp1059
(dp1060
g70
(dp1061
sg79
g855
sg72
(lp1062
g65
(g86
g67
NtRp1063
(dp1064
g70
(dp1065
g90
g91
ssg79
g1059
sg72
(lp1066
S'http_accept_encoding'
p1067
asbag65
(g86
g67
NtRp1068
(dp1069
g70
(dp1070
g97
g98
ssg79
g1059
sg72
(lp1071
S':'
asbag65
(g86
g67
NtRp1072
(dp1073
g70
(dp1074
sg79
g1059
sg72
(lp1075
g65
(g66
g67
NtRp1076
(dp1077
g70
(dp1078
g78
I4
ssg79
g1072
sg72
(lp1079
S'gzip,deflate,sdch'
p1080
asbasbasbag65
(g81
g67
NtRp1081
(dp1082
g70
(dp1083
sg79
g855
sg72
(lp1084
g65
(g86
g67
NtRp1085
(dp1086
g70
(dp1087
g90
g91
ssg79
g1081
sg72
(lp1088
S'http_accept_language'
p1089
asbag65
(g86
g67
NtRp1090
(dp1091
g70
(dp1092
g97
g98
ssg79
g1081
sg72
(lp1093
S':'
asbag65
(g86
g67
NtRp1094
(dp1095
g70
(dp1096
sg79
g1081
sg72
(lp1097
g65
(g66
g67
NtRp1098
(dp1099
g70
(dp1100
g78
I4
ssg79
g1094
sg72
(lp1101
S'en-US,en;q=0.8'
p1102
asbasbasbag65
(g81
g67
NtRp1103
(dp1104
g70
(dp1105
sg79
g855
sg72
(lp1106
g65
(g86
g67
NtRp1107
(dp1108
g70
(dp1109
g90
g91
ssg79
g1103
sg72
(lp1110
S'http_connection'
p1111
asbag65
(g86
g67
NtRp1112
(dp1113
g70
(dp1114
g97
g98
ssg79
g1103
sg72
(lp1115
S':'
asbag65
(g86
g67
NtRp1116
(dp1117
g70
(dp1118
sg79
g1103
sg72
(lp1119
g65
(g66
g67
NtRp1120
(dp1121
g70
(dp1122
g78
I4
ssg79
g1116
sg72
(lp1123
S'keep-alive'
p1124
asbasbasbag65
(g81
g67
NtRp1125
(dp1126
g70
(dp1127
sg79
g855
sg72
(lp1128
g65
(g86
g67
NtRp1129
(dp1130
g70
(dp1131
g90
g91
ssg79
g1125
sg72
(lp1132
S'http_cookie'
p1133
asbag65
(g86
g67
NtRp1134
(dp1135
g70
(dp1136
g97
g98
ssg79
g1125
sg72
(lp1137
S':'
asbag65
(g86
g67
NtRp1138
(dp1139
g70
(dp1140
sg79
g1125
sg72
(lp1141
g65
(g66
g67
NtRp1142
(dp1143
g70
(dp1144
g78
I4
ssg79
g1138
sg72
(lp1145
S'session_id_welcome=127.0.0.1-a62b192a-78c6-49be-836b-6e4012e79365; session_id_admin=127.0.0.1-18865676-835c-4b6d-b767-c1518f1dcd4f; session_id_web2py_xlchart_dashboard=127.0.0.1-08b039f4-8372-4bda-9ce9-032ae97eb74f'
p1146
asbasbasbag65
(g81
g67
NtRp1147
(dp1148
g70
(dp1149
sg79
g855
sg72
(lp1150
g65
(g86
g67
NtRp1151
(dp1152
g70
(dp1153
g90
g91
ssg79
g1147
sg72
(lp1154
S'http_host'
p1155
asbag65
(g86
g67
NtRp1156
(dp1157
g70
(dp1158
g97
g98
ssg79
g1147
sg72
(lp1159
S':'
asbag65
(g86
g67
NtRp1160
(dp1161
g70
(dp1162
sg79
g1147
sg72
(lp1163
g65
(g66
g67
NtRp1164
(dp1165
g70
(dp1166
g78
I4
ssg79
g1160
sg72
(lp1167
S'127.0.0.1:8000'
p1168
asbasbasbag65
(g81
g67
NtRp1169
(dp1170
g70
(dp1171
sg79
g855
sg72
(lp1172
g65
(g86
g67
NtRp1173
(dp1174
g70
(dp1175
g90
g91
ssg79
g1169
sg72
(lp1176
S'http_referer'
p1177
asbag65
(g86
g67
NtRp1178
(dp1179
g70
(dp1180
g97
g98
ssg79
g1169
sg72
(lp1181
S':'
asbag65
(g86
g67
NtRp1182
(dp1183
g70
(dp1184
sg79
g1169
sg72
(lp1185
g65
(g66
g67
NtRp1186
(dp1187
g70
(dp1188
g78
I4
ssg79
g1182
sg72
(lp1189
S'http://127.0.0.1:8000/web2py_xlchart_dashboard/default/register_chart_part1'
p1190
asbasbasbag65
(g81
g67
NtRp1191
(dp1192
g70
(dp1193
sg79
g855
sg72
(lp1194
g65
(g86
g67
NtRp1195
(dp1196
g70
(dp1197
g90
g91
ssg79
g1191
sg72
(lp1198
S'http_user_agent'
p1199
asbag65
(g86
g67
NtRp1200
(dp1201
g70
(dp1202
g97
g98
ssg79
g1191
sg72
(lp1203
S':'
asbag65
(g86
g67
NtRp1204
(dp1205
g70
(dp1206
sg79
g1191
sg72
(lp1207
g65
(g66
g67
NtRp1208
(dp1209
g70
(dp1210
g78
I4
ssg79
g1204
sg72
(lp1211
S'Mozilla/5.0 (Windows NT 6.0; WOW64) AppleWebKit/537.4 (KHTML, like Gecko) Chrome/22.0.1229.94 Safari/537.4'
p1212
asbasbasbag65
(g81
g67
NtRp1213
(dp1214
g70
(dp1215
sg79
g855
sg72
(lp1216
g65
(g86
g67
NtRp1217
(dp1218
g70
(dp1219
g90
g91
ssg79
g1213
sg72
(lp1220
S'is_jython'
p1221
asbag65
(g86
g67
NtRp1222
(dp1223
g70
(dp1224
g97
g98
ssg79
g1213
sg72
(lp1225
S':'
asbag65
(g86
g67
NtRp1226
(dp1227
g70
(dp1228
sg79
g1213
sg72
(lp1229
g65
(g66
g67
NtRp1230
(dp1231
g70
(dp1232
g78
I4
ssg79
g1226
sg72
(lp1233
g108
asbasbasbag65
(g81
g67
NtRp1234
(dp1235
g70
(dp1236
sg79
g855
sg72
(lp1237
g65
(g86
g67
NtRp1238
(dp1239
g70
(dp1240
g90
g91
ssg79
g1234
sg72
(lp1241
S'is_pypy'
p1242
asbag65
(g86
g67
NtRp1243
(dp1244
g70
(dp1245
g97
g98
ssg79
g1234
sg72
(lp1246
S':'
asbag65
(g86
g67
NtRp1247
(dp1248
g70
(dp1249
sg79
g1234
sg72
(lp1250
g65
(g66
g67
NtRp1251
(dp1252
g70
(dp1253
g78
I4
ssg79
g1247
sg72
(lp1254
g108
asbasbasbag65
(g81
g67
NtRp1255
(dp1256
g70
(dp1257
sg79
g855
sg72
(lp1258
g65
(g86
g67
NtRp1259
(dp1260
g70
(dp1261
g90
g91
ssg79
g1255
sg72
(lp1262
S'local_hosts'
p1263
asbag65
(g86
g67
NtRp1264
(dp1265
g70
(dp1266
g97
g98
ssg79
g1255
sg72
(lp1267
S':'
asbag65
(g86
g67
NtRp1268
(dp1269
g70
(dp1270
sg79
g1255
sg72
(lp1271
g65
(g66
g67
NtRp1272
(dp1273
g70
(dp1274
g78
I4
ssg79
g1268
sg72
(lp1275
g65
(g74
g67
NtRp1276
(dp1277
g70
(dp1278
g78
I3
ssg79
Nsg72
(lp1279
g65
(g81
g67
NtRp1280
(dp1281
g70
(dp1282
sg79
g1276
sg72
(lp1283
g65
(g86
g67
NtRp1284
(dp1285
g70
(dp1286
sg79
g1280
sg72
(lp1287
g65
(g66
g67
NtRp1288
(dp1289
g70
(dp1290
g78
I3
ssg79
g1284
sg72
(lp1291
S'127.0.0.1'
p1292
asbasbasbag65
(g81
g67
NtRp1293
(dp1294
g70
(dp1295
sg79
g1276
sg72
(lp1296
g65
(g86
g67
NtRp1297
(dp1298
g70
(dp1299
sg79
g1293
sg72
(lp1300
g65
(g66
g67
NtRp1301
(dp1302
g70
(dp1303
g78
I3
ssg79
g1297
sg72
(lp1304
S'::ffff:127.0.0.1'
p1305
asbasbasbag65
(g81
g67
NtRp1306
(dp1307
g70
(dp1308
sg79
g1276
sg72
(lp1309
g65
(g86
g67
NtRp1310
(dp1311
g70
(dp1312
sg79
g1306
sg72
(lp1313
g65
(g66
g67
NtRp1314
(dp1315
g70
(dp1316
g78
I3
ssg79
g1310
sg72
(lp1317
S'Simon-PC'
p1318
asbasbasbag65
(g81
g67
NtRp1319
(dp1320
g70
(dp1321
sg79
g1276
sg72
(lp1322
g65
(g86
g67
NtRp1323
(dp1324
g70
(dp1325
sg79
g1319
sg72
(lp1326
g65
(g66
g67
NtRp1327
(dp1328
g70
(dp1329
g78
I3
ssg79
g1323
sg72
(lp1330
S'Simon-PC'
p1331
asbasbasbag65
(g81
g67
NtRp1332
(dp1333
g70
(dp1334
sg79
g1276
sg72
(lp1335
g65
(g86
g67
NtRp1336
(dp1337
g70
(dp1338
sg79
g1332
sg72
(lp1339
g65
(g66
g67
NtRp1340
(dp1341
g70
(dp1342
g78
I3
ssg79
g1336
sg72
(lp1343
S'192.168.0.4'
p1344
asbasbasbasbasbasbasbag65
(g81
g67
NtRp1345
(dp1346
g70
(dp1347
sg79
g855
sg72
(lp1348
g65
(g86
g67
NtRp1349
(dp1350
g70
(dp1351
g90
g91
ssg79
g1345
sg72
(lp1352
S'path_info'
p1353
asbag65
(g86
g67
NtRp1354
(dp1355
g70
(dp1356
g97
g98
ssg79
g1345
sg72
(lp1357
S':'
asbag65
(g86
g67
NtRp1358
(dp1359
g70
(dp1360
sg79
g1345
sg72
(lp1361
g65
(g66
g67
NtRp1362
(dp1363
g70
(dp1364
g78
I4
ssg79
g1358
sg72
(lp1365
S'/web2py_xlchart_dashboard/default/list_workbook_charts'
p1366
asbasbasbag65
(g81
g67
NtRp1367
(dp1368
g70
(dp1369
sg79
g855
sg72
(lp1370
g65
(g86
g67
NtRp1371
(dp1372
g70
(dp1373
g90
g91
ssg79
g1367
sg72
(lp1374
S'query_string'
p1375
asbag65
(g86
g67
NtRp1376
(dp1377
g70
(dp1378
g97
g98
ssg79
g1367
sg72
(lp1379
S':'
asbag65
(g86
g67
NtRp1380
(dp1381
g70
(dp1382
sg79
g1367
sg72
(lp1383
g65
(g66
g67
NtRp1384
(dp1385
g70
(dp1386
g78
I4
ssg79
g1380
sg72
(lp1387
S'wbid=3'
p1388
asbasbasbag65
(g81
g67
NtRp1389
(dp1390
g70
(dp1391
sg79
g855
sg72
(lp1392
g65
(g86
g67
NtRp1393
(dp1394
g70
(dp1395
g90
g91
ssg79
g1389
sg72
(lp1396
S'remote_addr'
p1397
asbag65
(g86
g67
NtRp1398
(dp1399
g70
(dp1400
g97
g98
ssg79
g1389
sg72
(lp1401
S':'
asbag65
(g86
g67
NtRp1402
(dp1403
g70
(dp1404
sg79
g1389
sg72
(lp1405
g65
(g66
g67
NtRp1406
(dp1407
g70
(dp1408
g78
I4
ssg79
g1402
sg72
(lp1409
g220
asbasbasbag65
(g81
g67
NtRp1410
(dp1411
g70
(dp1412
sg79
g855
sg72
(lp1413
g65
(g86
g67
NtRp1414
(dp1415
g70
(dp1416
g90
g91
ssg79
g1410
sg72
(lp1417
S'remote_port'
p1418
asbag65
(g86
g67
NtRp1419
(dp1420
g70
(dp1421
g97
g98
ssg79
g1410
sg72
(lp1422
S':'
asbag65
(g86
g67
NtRp1423
(dp1424
g70
(dp1425
sg79
g1410
sg72
(lp1426
g65
(g66
g67
NtRp1427
(dp1428
g70
(dp1429
g78
I4
ssg79
g1423
sg72
(lp1430
S'63446'
p1431
asbasbasbag65
(g81
g67
NtRp1432
(dp1433
g70
(dp1434
sg79
g855
sg72
(lp1435
g65
(g86
g67
NtRp1436
(dp1437
g70
(dp1438
g90
g91
ssg79
g1432
sg72
(lp1439
S'request_method'
p1440
asbag65
(g86
g67
NtRp1441
(dp1442
g70
(dp1443
g97
g98
ssg79
g1432
sg72
(lp1444
S':'
asbag65
(g86
g67
NtRp1445
(dp1446
g70
(dp1447
sg79
g1432
sg72
(lp1448
g65
(g66
g67
NtRp1449
(dp1450
g70
(dp1451
g78
I4
ssg79
g1445
sg72
(lp1452
S'GET'
p1453
asbasbasbag65
(g81
g67
NtRp1454
(dp1455
g70
(dp1456
sg79
g855
sg72
(lp1457
g65
(g86
g67
NtRp1458
(dp1459
g70
(dp1460
g90
g91
ssg79
g1454
sg72
(lp1461
S'request_uri'
p1462
asbag65
(g86
g67
NtRp1463
(dp1464
g70
(dp1465
g97
g98
ssg79
g1454
sg72
(lp1466
S':'
asbag65
(g86
g67
NtRp1467
(dp1468
g70
(dp1469
sg79
g1454
sg72
(lp1470
g65
(g66
g67
NtRp1471
(dp1472
g70
(dp1473
g78
I4
ssg79
g1467
sg72
(lp1474
S'/web2py_xlchart_dashboard/default/list_workbook_charts?wbid=3'
p1475
asbasbasbag65
(g81
g67
NtRp1476
(dp1477
g70
(dp1478
sg79
g855
sg72
(lp1479
g65
(g86
g67
NtRp1480
(dp1481
g70
(dp1482
g90
g91
ssg79
g1476
sg72
(lp1483
S'script_name'
p1484
asbag65
(g86
g67
NtRp1485
(dp1486
g70
(dp1487
g97
g98
ssg79
g1476
sg72
(lp1488
S':'
asbag65
(g86
g67
NtRp1489
(dp1490
g70
(dp1491
sg79
g1476
sg72
(lp1492
g65
(g66
g67
NtRp1493
(dp1494
g70
(dp1495
g78
I4
ssg79
g1489
sg72
(lp1496
S''
asbasbasbag65
(g81
g67
NtRp1497
(dp1498
g70
(dp1499
sg79
g855
sg72
(lp1500
g65
(g86
g67
NtRp1501
(dp1502
g70
(dp1503
g90
g91
ssg79
g1497
sg72
(lp1504
S'server_name'
p1505
asbag65
(g86
g67
NtRp1506
(dp1507
g70
(dp1508
g97
g98
ssg79
g1497
sg72
(lp1509
S':'
asbag65
(g86
g67
NtRp1510
(dp1511
g70
(dp1512
sg79
g1497
sg72
(lp1513
g65
(g66
g67
NtRp1514
(dp1515
g70
(dp1516
g78
I4
ssg79
g1510
sg72
(lp1517
g1331
asbasbasbag65
(g81
g67
NtRp1518
(dp1519
g70
(dp1520
sg79
g855
sg72
(lp1521
g65
(g86
g67
NtRp1522
(dp1523
g70
(dp1524
g90
g91
ssg79
g1518
sg72
(lp1525
S'server_port'
p1526
asbag65
(g86
g67
NtRp1527
(dp1528
g70
(dp1529
g97
g98
ssg79
g1518
sg72
(lp1530
S':'
asbag65
(g86
g67
NtRp1531
(dp1532
g70
(dp1533
sg79
g1518
sg72
(lp1534
g65
(g66
g67
NtRp1535
(dp1536
g70
(dp1537
g78
I4
ssg79
g1531
sg72
(lp1538
S'8000'
p1539
asbasbasbag65
(g81
g67
NtRp1540
(dp1541
g70
(dp1542
sg79
g855
sg72
(lp1543
g65
(g86
g67
NtRp1544
(dp1545
g70
(dp1546
g90
g91
ssg79
g1540
sg72
(lp1547
S'server_protocol'
p1548
asbag65
(g86
g67
NtRp1549
(dp1550
g70
(dp1551
g97
g98
ssg79
g1540
sg72
(lp1552
S':'
asbag65
(g86
g67
NtRp1553
(dp1554
g70
(dp1555
sg79
g1540
sg72
(lp1556
g65
(g66
g67
NtRp1557
(dp1558
g70
(dp1559
g78
I4
ssg79
g1553
sg72
(lp1560
S'HTTP/1.1'
p1561
asbasbasbag65
(g81
g67
NtRp1562
(dp1563
g70
(dp1564
sg79
g855
sg72
(lp1565
g65
(g86
g67
NtRp1566
(dp1567
g70
(dp1568
g90
g91
ssg79
g1562
sg72
(lp1569
S'server_software'
p1570
asbag65
(g86
g67
NtRp1571
(dp1572
g70
(dp1573
g97
g98
ssg79
g1562
sg72
(lp1574
S':'
asbag65
(g86
g67
NtRp1575
(dp1576
g70
(dp1577
sg79
g1562
sg72
(lp1578
g65
(g66
g67
NtRp1579
(dp1580
g70
(dp1581
g78
I4
ssg79
g1575
sg72
(lp1582
S'Rocket 1.2.5'
p1583
asbasbasbag65
(g81
g67
NtRp1584
(dp1585
g70
(dp1586
sg79
g855
sg72
(lp1587
g65
(g86
g67
NtRp1588
(dp1589
g70
(dp1590
g90
g91
ssg79
g1584
sg72
(lp1591
S'web2py_path'
p1592
asbag65
(g86
g67
NtRp1593
(dp1594
g70
(dp1595
g97
g98
ssg79
g1584
sg72
(lp1596
S':'
asbag65
(g86
g67
NtRp1597
(dp1598
g70
(dp1599
sg79
g1584
sg72
(lp1600
g65
(g66
g67
NtRp1601
(dp1602
g70
(dp1603
g78
I4
ssg79
g1597
sg72
(lp1604
g902
asbasbasbag65
(g81
g67
NtRp1605
(dp1606
g70
(dp1607
sg79
g855
sg72
(lp1608
g65
(g86
g67
NtRp1609
(dp1610
g70
(dp1611
g90
g91
ssg79
g1605
sg72
(lp1612
S'web2py_version'
p1613
asbag65
(g86
g67
NtRp1614
(dp1615
g70
(dp1616
g97
g98
ssg79
g1605
sg72
(lp1617
S':'
asbag65
(g86
g67
NtRp1618
(dp1619
g70
(dp1620
sg79
g1605
sg72
(lp1621
g65
(g66
g67
NtRp1622
(dp1623
g70
(dp1624
g78
I4
ssg79
g1618
sg72
(lp1625
g65
(g74
g67
NtRp1626
(dp1627
g70
(dp1628
g78
I3
ssg79
Nsg72
(lp1629
g65
(g81
g67
NtRp1630
(dp1631
g70
(dp1632
sg79
g1626
sg72
(lp1633
g65
(g86
g67
NtRp1634
(dp1635
g70
(dp1636
sg79
g1630
sg72
(lp1637
g65
(g66
g67
NtRp1638
(dp1639
g70
(dp1640
g78
I3
ssg79
g1634
sg72
(lp1641
S'2'
asbasbasbag65
(g81
g67
NtRp1642
(dp1643
g70
(dp1644
sg79
g1626
sg72
(lp1645
g65
(g86
g67
NtRp1646
(dp1647
g70
(dp1648
sg79
g1642
sg72
(lp1649
g65
(g66
g67
NtRp1650
(dp1651
g70
(dp1652
g78
I3
ssg79
g1646
sg72
(lp1653
S'2'
asbasbasbag65
(g81
g67
NtRp1654
(dp1655
g70
(dp1656
sg79
g1626
sg72
(lp1657
g65
(g86
g67
NtRp1658
(dp1659
g70
(dp1660
sg79
g1654
sg72
(lp1661
g65
(g66
g67
NtRp1662
(dp1663
g70
(dp1664
g78
I3
ssg79
g1658
sg72
(lp1665
S'1'
asbasbasbag65
(g81
g67
NtRp1666
(dp1667
g70
(dp1668
sg79
g1626
sg72
(lp1669
g65
(g86
g67
NtRp1670
(dp1671
g70
(dp1672
sg79
g1666
sg72
(lp1673
g65
(g66
g67
NtRp1674
(dp1675
g70
(dp1676
g78
I3
ssg79
g1670
sg72
(lp1677
S'datetime.datetime(2012, 10, 21, 16, 57, 4)'
p1678
asbasbasbag65
(g81
g67
NtRp1679
(dp1680
g70
(dp1681
sg79
g1626
sg72
(lp1682
g65
(g86
g67
NtRp1683
(dp1684
g70
(dp1685
sg79
g1679
sg72
(lp1686
g65
(g66
g67
NtRp1687
(dp1688
g70
(dp1689
g78
I3
ssg79
g1683
sg72
(lp1690
S'stable'
p1691
asbasbasbasbasbasbasbag65
(g81
g67
NtRp1692
(dp1693
g70
(dp1694
sg79
g855
sg72
(lp1695
g65
(g86
g67
NtRp1696
(dp1697
g70
(dp1698
g90
g91
ssg79
g1692
sg72
(lp1699
S'wsgi_errors'
p1700
asbag65
(g86
g67
NtRp1701
(dp1702
g70
(dp1703
g97
g98
ssg79
g1692
sg72
(lp1704
S':'
asbag65
(g86
g67
NtRp1705
(dp1706
g70
(dp1707
sg79
g1692
sg72
(lp1708
g65
(g66
g67
NtRp1709
(dp1710
g70
(dp1711
g78
I4
ssg79
g1705
sg72
(lp1712
S"<open file '<stderr>', mode 'w' at 0x025850D0>"
p1713
asbasbasbag65
(g81
g67
NtRp1714
(dp1715
g70
(dp1716
sg79
g855
sg72
(lp1717
g65
(g86
g67
NtRp1718
(dp1719
g70
(dp1720
g90
g91
ssg79
g1714
sg72
(lp1721
S'wsgi_file_wrapper'
p1722
asbag65
(g86
g67
NtRp1723
(dp1724
g70
(dp1725
g97
g98
ssg79
g1714
sg72
(lp1726
S':'
asbag65
(g86
g67
NtRp1727
(dp1728
g70
(dp1729
sg79
g1714
sg72
(lp1730
g65
(g66
g67
NtRp1731
(dp1732
g70
(dp1733
g78
I4
ssg79
g1727
sg72
(lp1734
S'<class wsgiref.util.FileWrapper at 0x02FD7618>'
p1735
asbasbasbag65
(g81
g67
NtRp1736
(dp1737
g70
(dp1738
sg79
g855
sg72
(lp1739
g65
(g86
g67
NtRp1740
(dp1741
g70
(dp1742
g90
g91
ssg79
g1736
sg72
(lp1743
S'wsgi_input'
p1744
asbag65
(g86
g67
NtRp1745
(dp1746
g70
(dp1747
g97
g98
ssg79
g1736
sg72
(lp1748
S':'
asbag65
(g86
g67
NtRp1749
(dp1750
g70
(dp1751
sg79
g1736
sg72
(lp1752
g65
(g66
g67
NtRp1753
(dp1754
g70
(dp1755
g78
I4
ssg79
g1749
sg72
(lp1756
S'<socket._fileobject object at 0x07F303F0>'
p1757
asbasbasbag65
(g81
g67
NtRp1758
(dp1759
g70
(dp1760
sg79
g855
sg72
(lp1761
g65
(g86
g67
NtRp1762
(dp1763
g70
(dp1764
g90
g91
ssg79
g1758
sg72
(lp1765
S'wsgi_multiprocess'
p1766
asbag65
(g86
g67
NtRp1767
(dp1768
g70
(dp1769
g97
g98
ssg79
g1758
sg72
(lp1770
S':'
asbag65
(g86
g67
NtRp1771
(dp1772
g70
(dp1773
sg79
g1758
sg72
(lp1774
g65
(g66
g67
NtRp1775
(dp1776
g70
(dp1777
g78
I4
ssg79
g1771
sg72
(lp1778
g108
asbasbasbag65
(g81
g67
NtRp1779
(dp1780
g70
(dp1781
sg79
g855
sg72
(lp1782
g65
(g86
g67
NtRp1783
(dp1784
g70
(dp1785
g90
g91
ssg79
g1779
sg72
(lp1786
S'wsgi_multithread'
p1787
asbag65
(g86
g67
NtRp1788
(dp1789
g70
(dp1790
g97
g98
ssg79
g1779
sg72
(lp1791
S':'
asbag65
(g86
g67
NtRp1792
(dp1793
g70
(dp1794
sg79
g1779
sg72
(lp1795
g65
(g66
g67
NtRp1796
(dp1797
g70
(dp1798
g78
I4
ssg79
g1792
sg72
(lp1799
S'True'
p1800
asbasbasbag65
(g81
g67
NtRp1801
(dp1802
g70
(dp1803
sg79
g855
sg72
(lp1804
g65
(g86
g67
NtRp1805
(dp1806
g70
(dp1807
g90
g91
ssg79
g1801
sg72
(lp1808
S'wsgi_run_once'
p1809
asbag65
(g86
g67
NtRp1810
(dp1811
g70
(dp1812
g97
g98
ssg79
g1801
sg72
(lp1813
S':'
asbag65
(g86
g67
NtRp1814
(dp1815
g70
(dp1816
sg79
g1801
sg72
(lp1817
g65
(g66
g67
NtRp1818
(dp1819
g70
(dp1820
g78
I4
ssg79
g1814
sg72
(lp1821
g108
asbasbasbag65
(g81
g67
NtRp1822
(dp1823
g70
(dp1824
sg79
g855
sg72
(lp1825
g65
(g86
g67
NtRp1826
(dp1827
g70
(dp1828
g90
g91
ssg79
g1822
sg72
(lp1829
S'wsgi_url_scheme'
p1830
asbag65
(g86
g67
NtRp1831
(dp1832
g70
(dp1833
g97
g98
ssg79
g1822
sg72
(lp1834
S':'
asbag65
(g86
g67
NtRp1835
(dp1836
g70
(dp1837
sg79
g1822
sg72
(lp1838
g65
(g66
g67
NtRp1839
(dp1840
g70
(dp1841
g78
I4
ssg79
g1835
sg72
(lp1842
S'http'
p1843
asbasbasbag65
(g81
g67
NtRp1844
(dp1845
g70
(dp1846
sg79
g855
sg72
(lp1847
g65
(g86
g67
NtRp1848
(dp1849
g70
(dp1850
g90
g91
ssg79
g1844
sg72
(lp1851
S'wsgi_version'
p1852
asbag65
(g86
g67
NtRp1853
(dp1854
g70
(dp1855
g97
g98
ssg79
g1844
sg72
(lp1856
S':'
asbag65
(g86
g67
NtRp1857
(dp1858
g70
(dp1859
sg79
g1844
sg72
(lp1860
g65
(g66
g67
NtRp1861
(dp1862
g70
(dp1863
g78
I4
ssg79
g1857
sg72
(lp1864
g65
(g74
g67
NtRp1865
(dp1866
g70
(dp1867
g78
I3
ssg79
Nsg72
(lp1868
g65
(g81
g67
NtRp1869
(dp1870
g70
(dp1871
sg79
g1865
sg72
(lp1872
g65
(g86
g67
NtRp1873
(dp1874
g70
(dp1875
sg79
g1869
sg72
(lp1876
g65
(g66
g67
NtRp1877
(dp1878
g70
(dp1879
g78
I3
ssg79
g1873
sg72
(lp1880
S'1'
asbasbasbag65
(g81
g67
NtRp1881
(dp1882
g70
(dp1883
sg79
g1865
sg72
(lp1884
g65
(g86
g67
NtRp1885
(dp1886
g70
(dp1887
sg79
g1881
sg72
(lp1888
g65
(g66
g67
NtRp1889
(dp1890
g70
(dp1891
g78
I3
ssg79
g1885
sg72
(lp1892
S'0'
asbasbasbasbasbasbasbasbasbasbasbag65
(g81
g67
NtRp1893
(dp1894
g70
(dp1895
sg79
g75
sg72
(lp1896
g65
(g86
g67
NtRp1897
(dp1898
g70
(dp1899
g90
g91
ssg79
g1893
sg72
(lp1900
S'extension'
p1901
asbag65
(g86
g67
NtRp1902
(dp1903
g70
(dp1904
g97
g98
ssg79
g1893
sg72
(lp1905
S':'
asbag65
(g86
g67
NtRp1906
(dp1907
g70
(dp1908
sg79
g1893
sg72
(lp1909
g65
(g66
g67
NtRp1910
(dp1911
g70
(dp1912
g78
I5
ssg79
g1906
sg72
(lp1913
S'html'
p1914
asbasbasbag65
(g81
g67
NtRp1915
(dp1916
g70
(dp1917
sg79
g75
sg72
(lp1918
g65
(g86
g67
NtRp1919
(dp1920
g70
(dp1921
g90
g91
ssg79
g1915
sg72
(lp1922
S'folder'
p1923
asbag65
(g86
g67
NtRp1924
(dp1925
g70
(dp1926
g97
g98
ssg79
g1915
sg72
(lp1927
S':'
asbag65
(g86
g67
NtRp1928
(dp1929
g70
(dp1930
sg79
g1915
sg72
(lp1931
g65
(g66
g67
NtRp1932
(dp1933
g70
(dp1934
g78
I5
ssg79
g1928
sg72
(lp1935
S'c:\\web2py\\applications\\web2py_xlchart_dashboard\\'
p1936
asbasbasbag65
(g81
g67
NtRp1937
(dp1938
g70
(dp1939
sg79
g75
sg72
(lp1940
g65
(g86
g67
NtRp1941
(dp1942
g70
(dp1943
g90
g91
ssg79
g1937
sg72
(lp1944
S'function'
p1945
asbag65
(g86
g67
NtRp1946
(dp1947
g70
(dp1948
g97
g98
ssg79
g1937
sg72
(lp1949
S':'
asbag65
(g86
g67
NtRp1950
(dp1951
g70
(dp1952
sg79
g1937
sg72
(lp1953
g65
(g66
g67
NtRp1954
(dp1955
g70
(dp1956
g78
I5
ssg79
g1950
sg72
(lp1957
S'list_workbook_charts'
p1958
asbasbasbag65
(g81
g67
NtRp1959
(dp1960
g70
(dp1961
sg79
g75
sg72
(lp1962
g65
(g86
g67
NtRp1963
(dp1964
g70
(dp1965
g90
g91
ssg79
g1959
sg72
(lp1966
S'get_vars'
p1967
asbag65
(g86
g67
NtRp1968
(dp1969
g70
(dp1970
g97
g98
ssg79
g1959
sg72
(lp1971
S':'
asbag65
(g86
g67
NtRp1972
(dp1973
g70
(dp1974
sg79
g1959
sg72
(lp1975
g65
(g66
g67
NtRp1976
(dp1977
g70
(dp1978
g78
I5
ssg79
g1972
sg72
(lp1979
g65
(g74
g67
NtRp1980
(dp1981
g70
(dp1982
g78
I4
ssg79
Nsg72
(lp1983
g65
(g81
g67
NtRp1984
(dp1985
g70
(dp1986
sg79
g1980
sg72
(lp1987
g65
(g86
g67
NtRp1988
(dp1989
g70
(dp1990
g90
g91
ssg79
g1984
sg72
(lp1991
S'wbid'
p1992
asbag65
(g86
g67
NtRp1993
(dp1994
g70
(dp1995
g97
g98
ssg79
g1984
sg72
(lp1996
S':'
asbag65
(g86
g67
NtRp1997
(dp1998
g70
(dp1999
sg79
g1984
sg72
(lp2000
g65
(g66
g67
NtRp2001
(dp2002
g70
(dp2003
g78
I4
ssg79
g1997
sg72
(lp2004
S'3'
asbasbasbasbasbasbasbag65
(g81
g67
NtRp2005
(dp2006
g70
(dp2007
sg79
g75
sg72
(lp2008
g65
(g86
g67
NtRp2009
(dp2010
g70
(dp2011
g90
g91
ssg79
g2005
sg72
(lp2012
S'global_settings'
p2013
asbag65
(g86
g67
NtRp2014
(dp2015
g70
(dp2016
g97
g98
ssg79
g2005
sg72
(lp2017
S':'
asbag65
(g86
g67
NtRp2018
(dp2019
g70
(dp2020
sg79
g2005
sg72
(lp2021
g65
(g66
g67
NtRp2022
(dp2023
g70
(dp2024
g78
I5
ssg79
g2018
sg72
(lp2025
g65
(g74
g67
NtRp2026
(dp2027
g70
(dp2028
g78
I4
ssg79
Nsg72
(lp2029
g65
(g81
g67
NtRp2030
(dp2031
g70
(dp2032
sg79
g2026
sg72
(lp2033
g65
(g86
g67
NtRp2034
(dp2035
g70
(dp2036
g90
g91
ssg79
g2030
sg72
(lp2037
g867
asbag65
(g86
g67
NtRp2038
(dp2039
g70
(dp2040
g97
g98
ssg79
g2030
sg72
(lp2041
S':'
asbag65
(g86
g67
NtRp2042
(dp2043
g70
(dp2044
sg79
g2030
sg72
(lp2045
g65
(g66
g67
NtRp2046
(dp2047
g70
(dp2048
g78
I4
ssg79
g2042
sg72
(lp2049
S"set(['c:\\\\web2py\\\\applications\\\\admin\\\\', 'c:\\\\web2py\\\\applications\\\\web2py_xlchart_dashboard\\\\', 'c:\\\\web2py\\\\applications\\\\welcome\\\\'])"
p2050
asbasbasbag65
(g81
g67
NtRp2051
(dp2052
g70
(dp2053
sg79
g2026
sg72
(lp2054
g65
(g86
g67
NtRp2055
(dp2056
g70
(dp2057
g90
g91
ssg79
g2051
sg72
(lp2058
g889
asbag65
(g86
g67
NtRp2059
(dp2060
g70
(dp2061
g97
g98
ssg79
g2051
sg72
(lp2062
S':'
asbag65
(g86
g67
NtRp2063
(dp2064
g70
(dp2065
sg79
g2051
sg72
(lp2066
g65
(g66
g67
NtRp2067
(dp2068
g70
(dp2069
g78
I4
ssg79
g2063
sg72
(lp2070
g902
asbasbasbag65
(g81
g67
NtRp2071
(dp2072
g70
(dp2073
sg79
g2026
sg72
(lp2074
g65
(g86
g67
NtRp2075
(dp2076
g70
(dp2077
g90
g91
ssg79
g2071
sg72
(lp2078
g911
asbag65
(g86
g67
NtRp2079
(dp2080
g70
(dp2081
g97
g98
ssg79
g2071
sg72
(lp2082
S':'
asbag65
(g86
g67
NtRp2083
(dp2084
g70
(dp2085
sg79
g2071
sg72
(lp2086
g65
(g66
g67
NtRp2087
(dp2088
g70
(dp2089
g78
I4
ssg79
g2083
sg72
(lp2090
g65
(g74
g67
NtRp2091
(dp2092
g70
(dp2093
g78
I3
ssg79
Nsg72
(lp2094
sbasbasbasbag65
(g81
g67
NtRp2095
(dp2096
g70
(dp2097
sg79
g2026
sg72
(lp2098
g65
(g86
g67
NtRp2099
(dp2100
g70
(dp2101
g90
g91
ssg79
g2095
sg72
(lp2102
g936
asbag65
(g86
g67
NtRp2103
(dp2104
g70
(dp2105
g97
g98
ssg79
g2095
sg72
(lp2106
S':'
asbag65
(g86
g67
NtRp2107
(dp2108
g70
(dp2109
sg79
g2095
sg72
(lp2110
g65
(g66
g67
NtRp2111
(dp2112
g70
(dp2113
g78
I4
ssg79
g2107
sg72
(lp2114
S"<Values at 0x306e968: {'verbose': False, 'ip': '127.0.0.1', 'with_scheduler': False, 'ips': ['10.37.130.2', '192.168.0.4', '192.168.56.1', '10.37.131.2'], 'shutdown_timeout': 5, 'taskbar': False, 'port': 8000, 'maxthreads': None, 'softcron': False, 'server_name': 'Simon-PC', 'bpython': False, 'nogui': False, 'pid_filename': 'httpserver.pid', 'extcron': False, 'runcron': False, 'run_system_tests': False, 'test': None, 'folder': 'c:\\\\web2py', 'config': '', 'import_models': False, 'winservice': '', 'shell': None, 'run': '', 'log_filename': 'httpserver.log', 'debuglevel': 30, 'args': [''], 'socket_timeout': 5, 'ssl_ca_certificate': None, 'scheduler': None, 'profiler_filename': None, 'ssl_private_key': '', 'scheduler_groups': None, 'password': '<ask>', 'request_queue_size': 5, 'ssl_certificate': '', 'cronjob': False, 'numthreads': None, 'quiet': False, 'interfaces': None, 'minthreads': None, 'timeout': 10, 'plain': False, 'nobanner': False}>"
p2115
asbasbasbag65
(g81
g67
NtRp2116
(dp2117
g70
(dp2118
sg79
g2026
sg72
(lp2119
g65
(g86
g67
NtRp2120
(dp2121
g70
(dp2122
g90
g91
ssg79
g2116
sg72
(lp2123
g958
asbag65
(g86
g67
NtRp2124
(dp2125
g70
(dp2126
g97
g98
ssg79
g2116
sg72
(lp2127
S':'
asbag65
(g86
g67
NtRp2128
(dp2129
g70
(dp2130
sg79
g2116
sg72
(lp2131
g65
(g66
g67
NtRp2132
(dp2133
g70
(dp2134
g78
I4
ssg79
g2128
sg72
(lp2135
S'set([])'
p2136
asbasbasbag65
(g81
g67
NtRp2137
(dp2138
g70
(dp2139
sg79
g2026
sg72
(lp2140
g65
(g86
g67
NtRp2141
(dp2142
g70
(dp2143
g90
g91
ssg79
g2137
sg72
(lp2144
g980
asbag65
(g86
g67
NtRp2145
(dp2146
g70
(dp2147
g97
g98
ssg79
g2137
sg72
(lp2148
S':'
asbag65
(g86
g67
NtRp2149
(dp2150
g70
(dp2151
sg79
g2137
sg72
(lp2152
g65
(g66
g67
NtRp2153
(dp2154
g70
(dp2155
g78
I4
ssg79
g2149
sg72
(lp2156
g108
asbasbasbag65
(g81
g67
NtRp2157
(dp2158
g70
(dp2159
sg79
g2026
sg72
(lp2160
g65
(g86
g67
NtRp2161
(dp2162
g70
(dp2163
g90
g91
ssg79
g2157
sg72
(lp2164
g1001
asbag65
(g86
g67
NtRp2165
(dp2166
g70
(dp2167
g97
g98
ssg79
g2157
sg72
(lp2168
S':'
asbag65
(g86
g67
NtRp2169
(dp2170
g70
(dp2171
sg79
g2157
sg72
(lp2172
g65
(g66
g67
NtRp2173
(dp2174
g70
(dp2175
g78
I4
ssg79
g2169
sg72
(lp2176
g1014
asbasbasbag65
(g81
g67
NtRp2177
(dp2178
g70
(dp2179
sg79
g2026
sg72
(lp2180
g65
(g86
g67
NtRp2181
(dp2182
g70
(dp2183
g90
g91
ssg79
g2177
sg72
(lp2184
g1221
asbag65
(g86
g67
NtRp2185
(dp2186
g70
(dp2187
g97
g98
ssg79
g2177
sg72
(lp2188
S':'
asbag65
(g86
g67
NtRp2189
(dp2190
g70
(dp2191
sg79
g2177
sg72
(lp2192
g65
(g66
g67
NtRp2193
(dp2194
g70
(dp2195
g78
I4
ssg79
g2189
sg72
(lp2196
g108
asbasbasbag65
(g81
g67
NtRp2197
(dp2198
g70
(dp2199
sg79
g2026
sg72
(lp2200
g65
(g86
g67
NtRp2201
(dp2202
g70
(dp2203
g90
g91
ssg79
g2197
sg72
(lp2204
g1242
asbag65
(g86
g67
NtRp2205
(dp2206
g70
(dp2207
g97
g98
ssg79
g2197
sg72
(lp2208
S':'
asbag65
(g86
g67
NtRp2209
(dp2210
g70
(dp2211
sg79
g2197
sg72
(lp2212
g65
(g66
g67
NtRp2213
(dp2214
g70
(dp2215
g78
I4
ssg79
g2209
sg72
(lp2216
g108
asbasbasbag65
(g81
g67
NtRp2217
(dp2218
g70
(dp2219
sg79
g2026
sg72
(lp2220
g65
(g86
g67
NtRp2221
(dp2222
g70
(dp2223
g90
g91
ssg79
g2217
sg72
(lp2224
g1263
asbag65
(g86
g67
NtRp2225
(dp2226
g70
(dp2227
g97
g98
ssg79
g2217
sg72
(lp2228
S':'
asbag65
(g86
g67
NtRp2229
(dp2230
g70
(dp2231
sg79
g2217
sg72
(lp2232
g65
(g66
g67
NtRp2233
(dp2234
g70
(dp2235
g78
I4
ssg79
g2229
sg72
(lp2236
g65
(g74
g67
NtRp2237
(dp2238
g70
(dp2239
g78
I3
ssg79
Nsg72
(lp2240
g65
(g81
g67
NtRp2241
(dp2242
g70
(dp2243
sg79
g2237
sg72
(lp2244
g65
(g86
g67
NtRp2245
(dp2246
g70
(dp2247
sg79
g2241
sg72
(lp2248
g65
(g66
g67
NtRp2249
(dp2250
g70
(dp2251
g78
I3
ssg79
g2245
sg72
(lp2252
g1292
asbasbasbag65
(g81
g67
NtRp2253
(dp2254
g70
(dp2255
sg79
g2237
sg72
(lp2256
g65
(g86
g67
NtRp2257
(dp2258
g70
(dp2259
sg79
g2253
sg72
(lp2260
g65
(g66
g67
NtRp2261
(dp2262
g70
(dp2263
g78
I3
ssg79
g2257
sg72
(lp2264
g1305
asbasbasbag65
(g81
g67
NtRp2265
(dp2266
g70
(dp2267
sg79
g2237
sg72
(lp2268
g65
(g86
g67
NtRp2269
(dp2270
g70
(dp2271
sg79
g2265
sg72
(lp2272
g65
(g66
g67
NtRp2273
(dp2274
g70
(dp2275
g78
I3
ssg79
g2269
sg72
(lp2276
g1318
asbasbasbag65
(g81
g67
NtRp2277
(dp2278
g70
(dp2279
sg79
g2237
sg72
(lp2280
g65
(g86
g67
NtRp2281
(dp2282
g70
(dp2283
sg79
g2277
sg72
(lp2284
g65
(g66
g67
NtRp2285
(dp2286
g70
(dp2287
g78
I3
ssg79
g2281
sg72
(lp2288
g1331
asbasbasbag65
(g81
g67
NtRp2289
(dp2290
g70
(dp2291
sg79
g2237
sg72
(lp2292
g65
(g86
g67
NtRp2293
(dp2294
g70
(dp2295
sg79
g2289
sg72
(lp2296
g65
(g66
g67
NtRp2297
(dp2298
g70
(dp2299
g78
I3
ssg79
g2293
sg72
(lp2300
g1344
asbasbasbasbasbasbasbag65
(g81
g67
NtRp2301
(dp2302
g70
(dp2303
sg79
g2026
sg72
(lp2304
g65
(g86
g67
NtRp2305
(dp2306
g70
(dp2307
g90
g91
ssg79
g2301
sg72
(lp2308
g1613
asbag65
(g86
g67
NtRp2309
(dp2310
g70
(dp2311
g97
g98
ssg79
g2301
sg72
(lp2312
S':'
asbag65
(g86
g67
NtRp2313
(dp2314
g70
(dp2315
sg79
g2301
sg72
(lp2316
g65
(g66
g67
NtRp2317
(dp2318
g70
(dp2319
g78
I4
ssg79
g2313
sg72
(lp2320
g65
(g74
g67
NtRp2321
(dp2322
g70
(dp2323
g78
I3
ssg79
Nsg72
(lp2324
g65
(g81
g67
NtRp2325
(dp2326
g70
(dp2327
sg79
g2321
sg72
(lp2328
g65
(g86
g67
NtRp2329
(dp2330
g70
(dp2331
sg79
g2325
sg72
(lp2332
g65
(g66
g67
NtRp2333
(dp2334
g70
(dp2335
g78
I3
ssg79
g2329
sg72
(lp2336
S'2'
asbasbasbag65
(g81
g67
NtRp2337
(dp2338
g70
(dp2339
sg79
g2321
sg72
(lp2340
g65
(g86
g67
NtRp2341
(dp2342
g70
(dp2343
sg79
g2337
sg72
(lp2344
g65
(g66
g67
NtRp2345
(dp2346
g70
(dp2347
g78
I3
ssg79
g2341
sg72
(lp2348
S'2'
asbasbasbag65
(g81
g67
NtRp2349
(dp2350
g70
(dp2351
sg79
g2321
sg72
(lp2352
g65
(g86
g67
NtRp2353
(dp2354
g70
(dp2355
sg79
g2349
sg72
(lp2356
g65
(g66
g67
NtRp2357
(dp2358
g70
(dp2359
g78
I3
ssg79
g2353
sg72
(lp2360
S'1'
asbasbasbag65
(g81
g67
NtRp2361
(dp2362
g70
(dp2363
sg79
g2321
sg72
(lp2364
g65
(g86
g67
NtRp2365
(dp2366
g70
(dp2367
sg79
g2361
sg72
(lp2368
g65
(g66
g67
NtRp2369
(dp2370
g70
(dp2371
g78
I3
ssg79
g2365
sg72
(lp2372
S'datetime.datetime(2012, 10, 21, 16, 57, 4)'
p2373
asbasbasbag65
(g81
g67
NtRp2374
(dp2375
g70
(dp2376
sg79
g2321
sg72
(lp2377
g65
(g86
g67
NtRp2378
(dp2379
g70
(dp2380
sg79
g2374
sg72
(lp2381
g65
(g66
g67
NtRp2382
(dp2383
g70
(dp2384
g78
I3
ssg79
g2378
sg72
(lp2385
g1691
asbasbasbasbasbasbasbasbasbasbasbag65
(g81
g67
NtRp2386
(dp2387
g70
(dp2388
sg79
g75
sg72
(lp2389
g65
(g86
g67
NtRp2390
(dp2391
g70
(dp2392
g90
g91
ssg79
g2386
sg72
(lp2393
S'is_https'
p2394
asbag65
(g86
g67
NtRp2395
(dp2396
g70
(dp2397
g97
g98
ssg79
g2386
sg72
(lp2398
S':'
asbag65
(g86
g67
NtRp2399
(dp2400
g70
(dp2401
sg79
g2386
sg72
(lp2402
g65
(g66
g67
NtRp2403
(dp2404
g70
(dp2405
g78
I5
ssg79
g2399
sg72
(lp2406
g108
asbasbasbag65
(g81
g67
NtRp2407
(dp2408
g70
(dp2409
sg79
g75
sg72
(lp2410
g65
(g86
g67
NtRp2411
(dp2412
g70
(dp2413
g90
g91
ssg79
g2407
sg72
(lp2414
S'is_local'
p2415
asbag65
(g86
g67
NtRp2416
(dp2417
g70
(dp2418
g97
g98
ssg79
g2407
sg72
(lp2419
S':'
asbag65
(g86
g67
NtRp2420
(dp2421
g70
(dp2422
sg79
g2407
sg72
(lp2423
g65
(g66
g67
NtRp2424
(dp2425
g70
(dp2426
g78
I5
ssg79
g2420
sg72
(lp2427
g1800
asbasbasbag65
(g81
g67
NtRp2428
(dp2429
g70
(dp2430
sg79
g75
sg72
(lp2431
g65
(g86
g67
NtRp2432
(dp2433
g70
(dp2434
g90
g91
ssg79
g2428
sg72
(lp2435
S'is_restful'
p2436
asbag65
(g86
g67
NtRp2437
(dp2438
g70
(dp2439
g97
g98
ssg79
g2428
sg72
(lp2440
S':'
asbag65
(g86
g67
NtRp2441
(dp2442
g70
(dp2443
sg79
g2428
sg72
(lp2444
g65
(g66
g67
NtRp2445
(dp2446
g70
(dp2447
g78
I5
ssg79
g2441
sg72
(lp2448
g108
asbasbasbag65
(g81
g67
NtRp2449
(dp2450
g70
(dp2451
sg79
g75
sg72
(lp2452
g65
(g86
g67
NtRp2453
(dp2454
g70
(dp2455
g90
g91
ssg79
g2449
sg72
(lp2456
S'now'
p2457
asbag65
(g86
g67
NtRp2458
(dp2459
g70
(dp2460
g97
g98
ssg79
g2449
sg72
(lp2461
S':'
asbag65
(g86
g67
NtRp2462
(dp2463
g70
(dp2464
sg79
g2449
sg72
(lp2465
g65
(g66
g67
NtRp2466
(dp2467
g70
(dp2468
g78
I5
ssg79
g2462
sg72
(lp2469
S'datetime.datetime(2012, 11, 4, 19, 0, 9, 947000)'
p2470
asbasbasbag65
(g81
g67
NtRp2471
(dp2472
g70
(dp2473
sg79
g75
sg72
(lp2474
g65
(g86
g67
NtRp2475
(dp2476
g70
(dp2477
g90
g91
ssg79
g2471
sg72
(lp2478
S'post_vars'
p2479
asbag65
(g86
g67
NtRp2480
(dp2481
g70
(dp2482
g97
g98
ssg79
g2471
sg72
(lp2483
S':'
asbag65
(g86
g67
NtRp2484
(dp2485
g70
(dp2486
sg79
g2471
sg72
(lp2487
g65
(g66
g67
NtRp2488
(dp2489
g70
(dp2490
g78
I5
ssg79
g2484
sg72
(lp2491
g65
(g74
g67
NtRp2492
(dp2493
g70
(dp2494
g78
I4
ssg79
Nsg72
(lp2495
sbasbasbasbag65
(g81
g67
NtRp2496
(dp2497
g70
(dp2498
sg79
g75
sg72
(lp2499
g65
(g86
g67
NtRp2500
(dp2501
g70
(dp2502
g90
g91
ssg79
g2496
sg72
(lp2503
S'raw_args'
p2504
asbag65
(g86
g67
NtRp2505
(dp2506
g70
(dp2507
g97
g98
ssg79
g2496
sg72
(lp2508
S':'
asbag65
(g86
g67
NtRp2509
(dp2510
g70
(dp2511
sg79
g2496
sg72
(lp2512
g65
(g66
g67
NtRp2513
(dp2514
g70
(dp2515
g78
I5
ssg79
g2509
sg72
(lp2516
S''
asbasbasbag65
(g81
g67
NtRp2517
(dp2518
g70
(dp2519
sg79
g75
sg72
(lp2520
g65
(g86
g67
NtRp2521
(dp2522
g70
(dp2523
g90
g91
ssg79
g2517
sg72
(lp2524
S'raw_extension'
p2525
asbag65
(g86
g67
NtRp2526
(dp2527
g70
(dp2528
g97
g98
ssg79
g2517
sg72
(lp2529
S':'
asbag65
(g86
g67
NtRp2530
(dp2531
g70
(dp2532
sg79
g2517
sg72
(lp2533
g65
(g66
g67
NtRp2534
(dp2535
g70
(dp2536
g78
I5
ssg79
g2530
sg72
(lp2537
S'None'
p2538
asbasbasbag65
(g81
g67
NtRp2539
(dp2540
g70
(dp2541
sg79
g75
sg72
(lp2542
g65
(g86
g67
NtRp2543
(dp2544
g70
(dp2545
g90
g91
ssg79
g2539
sg72
(lp2546
S'url'
p2547
asbag65
(g86
g67
NtRp2548
(dp2549
g70
(dp2550
g97
g98
ssg79
g2539
sg72
(lp2551
S':'
asbag65
(g86
g67
NtRp2552
(dp2553
g70
(dp2554
sg79
g2539
sg72
(lp2555
g65
(g66
g67
NtRp2556
(dp2557
g70
(dp2558
g78
I5
ssg79
g2552
sg72
(lp2559
g1366
asbasbasbag65
(g81
g67
NtRp2560
(dp2561
g70
(dp2562
sg79
g75
sg72
(lp2563
g65
(g86
g67
NtRp2564
(dp2565
g70
(dp2566
g90
g91
ssg79
g2560
sg72
(lp2567
S'utcnow'
p2568
asbag65
(g86
g67
NtRp2569
(dp2570
g70
(dp2571
g97
g98
ssg79
g2560
sg72
(lp2572
S':'
asbag65
(g86
g67
NtRp2573
(dp2574
g70
(dp2575
sg79
g2560
sg72
(lp2576
g65
(g66
g67
NtRp2577
(dp2578
g70
(dp2579
g78
I5
ssg79
g2573
sg72
(lp2580
S'datetime.datetime(2012, 11, 4, 19, 0, 9, 947000)'
p2581
asbasbasbag65
(g81
g67
NtRp2582
(dp2583
g70
(dp2584
sg79
g75
sg72
(lp2585
g65
(g86
g67
NtRp2586
(dp2587
g70
(dp2588
g90
g91
ssg79
g2582
sg72
(lp2589
S'uuid'
p2590
asbag65
(g86
g67
NtRp2591
(dp2592
g70
(dp2593
g97
g98
ssg79
g2582
sg72
(lp2594
S':'
asbag65
(g86
g67
NtRp2595
(dp2596
g70
(dp2597
sg79
g2582
sg72
(lp2598
g65
(g66
g67
NtRp2599
(dp2600
g70
(dp2601
g78
I5
ssg79
g2595
sg72
(lp2602
S'web2py_xlchart_dashboard/127.0.0.1.2012-11-04.19-00-09.aef1fd59-576d-4828-8750-3ee59878e871'
p2603
asbasbasbag65
(g81
g67
NtRp2604
(dp2605
g70
(dp2606
sg79
g75
sg72
(lp2607
g65
(g86
g67
NtRp2608
(dp2609
g70
(dp2610
g90
g91
ssg79
g2604
sg72
(lp2611
S'vars'
p2612
asbag65
(g86
g67
NtRp2613
(dp2614
g70
(dp2615
g97
g98
ssg79
g2604
sg72
(lp2616
S':'
asbag65
(g86
g67
NtRp2617
(dp2618
g70
(dp2619
sg79
g2604
sg72
(lp2620
g65
(g66
g67
NtRp2621
(dp2622
g70
(dp2623
g78
I5
ssg79
g2617
sg72
(lp2624
g65
(g74
g67
NtRp2625
(dp2626
g70
(dp2627
g78
I4
ssg79
Nsg72
(lp2628
g65
(g81
g67
NtRp2629
(dp2630
g70
(dp2631
sg79
g2625
sg72
(lp2632
g65
(g86
g67
NtRp2633
(dp2634
g70
(dp2635
g90
g91
ssg79
g2629
sg72
(lp2636
g1992
asbag65
(g86
g67
NtRp2637
(dp2638
g70
(dp2639
g97
g98
ssg79
g2629
sg72
(lp2640
S':'
asbag65
(g86
g67
NtRp2641
(dp2642
g70
(dp2643
sg79
g2629
sg72
(lp2644
g65
(g66
g67
NtRp2645
(dp2646
g70
(dp2647
g78
I4
ssg79
g2641
sg72
(lp2648
S'3'
asbasbasbasbasbasbasbag65
(g81
g67
NtRp2649
(dp2650
g70
(dp2651
sg79
g75
sg72
(lp2652
g65
(g86
g67
NtRp2653
(dp2654
g70
(dp2655
g90
g91
ssg79
g2649
sg72
(lp2656
S'wsgi'
p2657
asbag65
(g86
g67
NtRp2658
(dp2659
g70
(dp2660
g97
g98
ssg79
g2649
sg72
(lp2661
S':'
asbag65
(g86
g67
NtRp2662
(dp2663
g70
(dp2664
sg79
g2649
sg72
(lp2665
g65
(g66
g67
NtRp2666
(dp2667
g70
(dp2668
g78
I5
ssg79
g2662
sg72
(lp2669
g65
(g74
g67
NtRp2670
(dp2671
g70
(dp2672
g78
I4
ssg79
Nsg72
(lp2673
g65
(g81
g67
NtRp2674
(dp2675
g70
(dp2676
sg79
g2670
sg72
(lp2677
g65
(g86
g67
NtRp2678
(dp2679
g70
(dp2680
g90
g91
ssg79
g2674
sg72
(lp2681
S'environ'
p2682
asbag65
(g86
g67
NtRp2683
(dp2684
g70
(dp2685
g97
g98
ssg79
g2674
sg72
(lp2686
S':'
asbag65
(g86
g67
NtRp2687
(dp2688
g70
(dp2689
sg79
g2674
sg72
(lp2690
g65
(g66
g67
NtRp2691
(dp2692
g70
(dp2693
g78
I4
ssg79
g2687
sg72
(lp2694
g65
(g74
g67
NtRp2695
(dp2696
g70
(dp2697
g78
I3
ssg79
Nsg72
(lp2698
g65
(g81
g67
NtRp2699
(dp2700
g70
(dp2701
sg79
g2695
sg72
(lp2702
g65
(g86
g67
NtRp2703
(dp2704
g70
(dp2705
g90
g91
ssg79
g2699
sg72
(lp2706
S'HTTP_ACCEPT'
p2707
asbag65
(g86
g67
NtRp2708
(dp2709
g70
(dp2710
g97
g98
ssg79
g2699
sg72
(lp2711
S':'
asbag65
(g86
g67
NtRp2712
(dp2713
g70
(dp2714
sg79
g2699
sg72
(lp2715
g65
(g66
g67
NtRp2716
(dp2717
g70
(dp2718
g78
I3
ssg79
g2712
sg72
(lp2719
g1036
asbasbasbag65
(g81
g67
NtRp2720
(dp2721
g70
(dp2722
sg79
g2695
sg72
(lp2723
g65
(g86
g67
NtRp2724
(dp2725
g70
(dp2726
g90
g91
ssg79
g2720
sg72
(lp2727
S'HTTP_ACCEPT_CHARSET'
p2728
asbag65
(g86
g67
NtRp2729
(dp2730
g70
(dp2731
g97
g98
ssg79
g2720
sg72
(lp2732
S':'
asbag65
(g86
g67
NtRp2733
(dp2734
g70
(dp2735
sg79
g2720
sg72
(lp2736
g65
(g66
g67
NtRp2737
(dp2738
g70
(dp2739
g78
I3
ssg79
g2733
sg72
(lp2740
g1058
asbasbasbag65
(g81
g67
NtRp2741
(dp2742
g70
(dp2743
sg79
g2695
sg72
(lp2744
g65
(g86
g67
NtRp2745
(dp2746
g70
(dp2747
g90
g91
ssg79
g2741
sg72
(lp2748
S'HTTP_ACCEPT_ENCODING'
p2749
asbag65
(g86
g67
NtRp2750
(dp2751
g70
(dp2752
g97
g98
ssg79
g2741
sg72
(lp2753
S':'
asbag65
(g86
g67
NtRp2754
(dp2755
g70
(dp2756
sg79
g2741
sg72
(lp2757
g65
(g66
g67
NtRp2758
(dp2759
g70
(dp2760
g78
I3
ssg79
g2754
sg72
(lp2761
g1080
asbasbasbag65
(g81
g67
NtRp2762
(dp2763
g70
(dp2764
sg79
g2695
sg72
(lp2765
g65
(g86
g67
NtRp2766
(dp2767
g70
(dp2768
g90
g91
ssg79
g2762
sg72
(lp2769
S'HTTP_ACCEPT_LANGUAGE'
p2770
asbag65
(g86
g67
NtRp2771
(dp2772
g70
(dp2773
g97
g98
ssg79
g2762
sg72
(lp2774
S':'
asbag65
(g86
g67
NtRp2775
(dp2776
g70
(dp2777
sg79
g2762
sg72
(lp2778
g65
(g66
g67
NtRp2779
(dp2780
g70
(dp2781
g78
I3
ssg79
g2775
sg72
(lp2782
g1102
asbasbasbag65
(g81
g67
NtRp2783
(dp2784
g70
(dp2785
sg79
g2695
sg72
(lp2786
g65
(g86
g67
NtRp2787
(dp2788
g70
(dp2789
g90
g91
ssg79
g2783
sg72
(lp2790
S'HTTP_CONNECTION'
p2791
asbag65
(g86
g67
NtRp2792
(dp2793
g70
(dp2794
g97
g98
ssg79
g2783
sg72
(lp2795
S':'
asbag65
(g86
g67
NtRp2796
(dp2797
g70
(dp2798
sg79
g2783
sg72
(lp2799
g65
(g66
g67
NtRp2800
(dp2801
g70
(dp2802
g78
I3
ssg79
g2796
sg72
(lp2803
g1124
asbasbasbag65
(g81
g67
NtRp2804
(dp2805
g70
(dp2806
sg79
g2695
sg72
(lp2807
g65
(g86
g67
NtRp2808
(dp2809
g70
(dp2810
g90
g91
ssg79
g2804
sg72
(lp2811
S'HTTP_COOKIE'
p2812
asbag65
(g86
g67
NtRp2813
(dp2814
g70
(dp2815
g97
g98
ssg79
g2804
sg72
(lp2816
S':'
asbag65
(g86
g67
NtRp2817
(dp2818
g70
(dp2819
sg79
g2804
sg72
(lp2820
g65
(g66
g67
NtRp2821
(dp2822
g70
(dp2823
g78
I3
ssg79
g2817
sg72
(lp2824
g1146
asbasbasbag65
(g81
g67
NtRp2825
(dp2826
g70
(dp2827
sg79
g2695
sg72
(lp2828
g65
(g86
g67
NtRp2829
(dp2830
g70
(dp2831
g90
g91
ssg79
g2825
sg72
(lp2832
S'HTTP_HOST'
p2833
asbag65
(g86
g67
NtRp2834
(dp2835
g70
(dp2836
g97
g98
ssg79
g2825
sg72
(lp2837
S':'
asbag65
(g86
g67
NtRp2838
(dp2839
g70
(dp2840
sg79
g2825
sg72
(lp2841
g65
(g66
g67
NtRp2842
(dp2843
g70
(dp2844
g78
I3
ssg79
g2838
sg72
(lp2845
g1168
asbasbasbag65
(g81
g67
NtRp2846
(dp2847
g70
(dp2848
sg79
g2695
sg72
(lp2849
g65
(g86
g67
NtRp2850
(dp2851
g70
(dp2852
g90
g91
ssg79
g2846
sg72
(lp2853
S'HTTP_REFERER'
p2854
asbag65
(g86
g67
NtRp2855
(dp2856
g70
(dp2857
g97
g98
ssg79
g2846
sg72
(lp2858
S':'
asbag65
(g86
g67
NtRp2859
(dp2860
g70
(dp2861
sg79
g2846
sg72
(lp2862
g65
(g66
g67
NtRp2863
(dp2864
g70
(dp2865
g78
I3
ssg79
g2859
sg72
(lp2866
g1190
asbasbasbag65
(g81
g67
NtRp2867
(dp2868
g70
(dp2869
sg79
g2695
sg72
(lp2870
g65
(g86
g67
NtRp2871
(dp2872
g70
(dp2873
g90
g91
ssg79
g2867
sg72
(lp2874
S'HTTP_USER_AGENT'
p2875
asbag65
(g86
g67
NtRp2876
(dp2877
g70
(dp2878
g97
g98
ssg79
g2867
sg72
(lp2879
S':'
asbag65
(g86
g67
NtRp2880
(dp2881
g70
(dp2882
sg79
g2867
sg72
(lp2883
g65
(g66
g67
NtRp2884
(dp2885
g70
(dp2886
g78
I3
ssg79
g2880
sg72
(lp2887
g1212
asbasbasbag65
(g81
g67
NtRp2888
(dp2889
g70
(dp2890
sg79
g2695
sg72
(lp2891
g65
(g86
g67
NtRp2892
(dp2893
g70
(dp2894
g90
g91
ssg79
g2888
sg72
(lp2895
S'PATH_INFO'
p2896
asbag65
(g86
g67
NtRp2897
(dp2898
g70
(dp2899
g97
g98
ssg79
g2888
sg72
(lp2900
S':'
asbag65
(g86
g67
NtRp2901
(dp2902
g70
(dp2903
sg79
g2888
sg72
(lp2904
g65
(g66
g67
NtRp2905
(dp2906
g70
(dp2907
g78
I3
ssg79
g2901
sg72
(lp2908
g1366
asbasbasbag65
(g81
g67
NtRp2909
(dp2910
g70
(dp2911
sg79
g2695
sg72
(lp2912
g65
(g86
g67
NtRp2913
(dp2914
g70
(dp2915
g90
g91
ssg79
g2909
sg72
(lp2916
S'QUERY_STRING'
p2917
asbag65
(g86
g67
NtRp2918
(dp2919
g70
(dp2920
g97
g98
ssg79
g2909
sg72
(lp2921
S':'
asbag65
(g86
g67
NtRp2922
(dp2923
g70
(dp2924
sg79
g2909
sg72
(lp2925
g65
(g66
g67
NtRp2926
(dp2927
g70
(dp2928
g78
I3
ssg79
g2922
sg72
(lp2929
g1388
asbasbasbag65
(g81
g67
NtRp2930
(dp2931
g70
(dp2932
sg79
g2695
sg72
(lp2933
g65
(g86
g67
NtRp2934
(dp2935
g70
(dp2936
g90
g91
ssg79
g2930
sg72
(lp2937
S'REMOTE_ADDR'
p2938
asbag65
(g86
g67
NtRp2939
(dp2940
g70
(dp2941
g97
g98
ssg79
g2930
sg72
(lp2942
S':'
asbag65
(g86
g67
NtRp2943
(dp2944
g70
(dp2945
sg79
g2930
sg72
(lp2946
g65
(g66
g67
NtRp2947
(dp2948
g70
(dp2949
g78
I3
ssg79
g2943
sg72
(lp2950
g220
asbasbasbag65
(g81
g67
NtRp2951
(dp2952
g70
(dp2953
sg79
g2695
sg72
(lp2954
g65
(g86
g67
NtRp2955
(dp2956
g70
(dp2957
g90
g91
ssg79
g2951
sg72
(lp2958
S'REMOTE_PORT'
p2959
asbag65
(g86
g67
NtRp2960
(dp2961
g70
(dp2962
g97
g98
ssg79
g2951
sg72
(lp2963
S':'
asbag65
(g86
g67
NtRp2964
(dp2965
g70
(dp2966
sg79
g2951
sg72
(lp2967
g65
(g66
g67
NtRp2968
(dp2969
g70
(dp2970
g78
I3
ssg79
g2964
sg72
(lp2971
g1431
asbasbasbag65
(g81
g67
NtRp2972
(dp2973
g70
(dp2974
sg79
g2695
sg72
(lp2975
g65
(g86
g67
NtRp2976
(dp2977
g70
(dp2978
g90
g91
ssg79
g2972
sg72
(lp2979
S'REQUEST_METHOD'
p2980
asbag65
(g86
g67
NtRp2981
(dp2982
g70
(dp2983
g97
g98
ssg79
g2972
sg72
(lp2984
S':'
asbag65
(g86
g67
NtRp2985
(dp2986
g70
(dp2987
sg79
g2972
sg72
(lp2988
g65
(g66
g67
NtRp2989
(dp2990
g70
(dp2991
g78
I3
ssg79
g2985
sg72
(lp2992
g1453
asbasbasbag65
(g81
g67
NtRp2993
(dp2994
g70
(dp2995
sg79
g2695
sg72
(lp2996
g65
(g86
g67
NtRp2997
(dp2998
g70
(dp2999
g90
g91
ssg79
g2993
sg72
(lp3000
S'REQUEST_URI'
p3001
asbag65
(g86
g67
NtRp3002
(dp3003
g70
(dp3004
g97
g98
ssg79
g2993
sg72
(lp3005
S':'
asbag65
(g86
g67
NtRp3006
(dp3007
g70
(dp3008
sg79
g2993
sg72
(lp3009
g65
(g66
g67
NtRp3010
(dp3011
g70
(dp3012
g78
I3
ssg79
g3006
sg72
(lp3013
g1475
asbasbasbag65
(g81
g67
NtRp3014
(dp3015
g70
(dp3016
sg79
g2695
sg72
(lp3017
g65
(g86
g67
NtRp3018
(dp3019
g70
(dp3020
g90
g91
ssg79
g3014
sg72
(lp3021
S'SCRIPT_NAME'
p3022
asbag65
(g86
g67
NtRp3023
(dp3024
g70
(dp3025
g97
g98
ssg79
g3014
sg72
(lp3026
S':'
asbag65
(g86
g67
NtRp3027
(dp3028
g70
(dp3029
sg79
g3014
sg72
(lp3030
g65
(g66
g67
NtRp3031
(dp3032
g70
(dp3033
g78
I3
ssg79
g3027
sg72
(lp3034
S''
asbasbasbag65
(g81
g67
NtRp3035
(dp3036
g70
(dp3037
sg79
g2695
sg72
(lp3038
g65
(g86
g67
NtRp3039
(dp3040
g70
(dp3041
g90
g91
ssg79
g3035
sg72
(lp3042
S'SERVER_NAME'
p3043
asbag65
(g86
g67
NtRp3044
(dp3045
g70
(dp3046
g97
g98
ssg79
g3035
sg72
(lp3047
S':'
asbag65
(g86
g67
NtRp3048
(dp3049
g70
(dp3050
sg79
g3035
sg72
(lp3051
g65
(g66
g67
NtRp3052
(dp3053
g70
(dp3054
g78
I3
ssg79
g3048
sg72
(lp3055
g1331
asbasbasbag65
(g81
g67
NtRp3056
(dp3057
g70
(dp3058
sg79
g2695
sg72
(lp3059
g65
(g86
g67
NtRp3060
(dp3061
g70
(dp3062
g90
g91
ssg79
g3056
sg72
(lp3063
S'SERVER_PORT'
p3064
asbag65
(g86
g67
NtRp3065
(dp3066
g70
(dp3067
g97
g98
ssg79
g3056
sg72
(lp3068
S':'
asbag65
(g86
g67
NtRp3069
(dp3070
g70
(dp3071
sg79
g3056
sg72
(lp3072
g65
(g66
g67
NtRp3073
(dp3074
g70
(dp3075
g78
I3
ssg79
g3069
sg72
(lp3076
g1539
asbasbasbag65
(g81
g67
NtRp3077
(dp3078
g70
(dp3079
sg79
g2695
sg72
(lp3080
g65
(g86
g67
NtRp3081
(dp3082
g70
(dp3083
g90
g91
ssg79
g3077
sg72
(lp3084
S'SERVER_PROTOCOL'
p3085
asbag65
(g86
g67
NtRp3086
(dp3087
g70
(dp3088
g97
g98
ssg79
g3077
sg72
(lp3089
S':'
asbag65
(g86
g67
NtRp3090
(dp3091
g70
(dp3092
sg79
g3077
sg72
(lp3093
g65
(g66
g67
NtRp3094
(dp3095
g70
(dp3096
g78
I3
ssg79
g3090
sg72
(lp3097
g1561
asbasbasbag65
(g81
g67
NtRp3098
(dp3099
g70
(dp3100
sg79
g2695
sg72
(lp3101
g65
(g86
g67
NtRp3102
(dp3103
g70
(dp3104
g90
g91
ssg79
g3098
sg72
(lp3105
S'SERVER_SOFTWARE'
p3106
asbag65
(g86
g67
NtRp3107
(dp3108
g70
(dp3109
g97
g98
ssg79
g3098
sg72
(lp3110
S':'
asbag65
(g86
g67
NtRp3111
(dp3112
g70
(dp3113
sg79
g3098
sg72
(lp3114
g65
(g66
g67
NtRp3115
(dp3116
g70
(dp3117
g78
I3
ssg79
g3111
sg72
(lp3118
g1583
asbasbasbag65
(g81
g67
NtRp3119
(dp3120
g70
(dp3121
sg79
g2695
sg72
(lp3122
g65
(g86
g67
NtRp3123
(dp3124
g70
(dp3125
g90
g91
ssg79
g3119
sg72
(lp3126
S'wsgi.errors'
p3127
asbag65
(g86
g67
NtRp3128
(dp3129
g70
(dp3130
g97
g98
ssg79
g3119
sg72
(lp3131
S':'
asbag65
(g86
g67
NtRp3132
(dp3133
g70
(dp3134
sg79
g3119
sg72
(lp3135
g65
(g66
g67
NtRp3136
(dp3137
g70
(dp3138
g78
I3
ssg79
g3132
sg72
(lp3139
S"<open file '<stderr>', mode 'w' at 0x025850D0>"
p3140
asbasbasbag65
(g81
g67
NtRp3141
(dp3142
g70
(dp3143
sg79
g2695
sg72
(lp3144
g65
(g86
g67
NtRp3145
(dp3146
g70
(dp3147
g90
g91
ssg79
g3141
sg72
(lp3148
S'wsgi.file_wrapper'
p3149
asbag65
(g86
g67
NtRp3150
(dp3151
g70
(dp3152
g97
g98
ssg79
g3141
sg72
(lp3153
S':'
asbag65
(g86
g67
NtRp3154
(dp3155
g70
(dp3156
sg79
g3141
sg72
(lp3157
g65
(g66
g67
NtRp3158
(dp3159
g70
(dp3160
g78
I3
ssg79
g3154
sg72
(lp3161
S'<class wsgiref.util.FileWrapper at 0x02FD7618>'
p3162
asbasbasbag65
(g81
g67
NtRp3163
(dp3164
g70
(dp3165
sg79
g2695
sg72
(lp3166
g65
(g86
g67
NtRp3167
(dp3168
g70
(dp3169
g90
g91
ssg79
g3163
sg72
(lp3170
S'wsgi.input'
p3171
asbag65
(g86
g67
NtRp3172
(dp3173
g70
(dp3174
g97
g98
ssg79
g3163
sg72
(lp3175
S':'
asbag65
(g86
g67
NtRp3176
(dp3177
g70
(dp3178
sg79
g3163
sg72
(lp3179
g65
(g66
g67
NtRp3180
(dp3181
g70
(dp3182
g78
I3
ssg79
g3176
sg72
(lp3183
S'<cStringIO.StringO object at 0x07AB1380>'
p3184
asbasbasbag65
(g81
g67
NtRp3185
(dp3186
g70
(dp3187
sg79
g2695
sg72
(lp3188
g65
(g86
g67
NtRp3189
(dp3190
g70
(dp3191
g90
g91
ssg79
g3185
sg72
(lp3192
S'wsgi.multiprocess'
p3193
asbag65
(g86
g67
NtRp3194
(dp3195
g70
(dp3196
g97
g98
ssg79
g3185
sg72
(lp3197
S':'
asbag65
(g86
g67
NtRp3198
(dp3199
g70
(dp3200
sg79
g3185
sg72
(lp3201
g65
(g66
g67
NtRp3202
(dp3203
g70
(dp3204
g78
I3
ssg79
g3198
sg72
(lp3205
g108
asbasbasbag65
(g81
g67
NtRp3206
(dp3207
g70
(dp3208
sg79
g2695
sg72
(lp3209
g65
(g86
g67
NtRp3210
(dp3211
g70
(dp3212
g90
g91
ssg79
g3206
sg72
(lp3213
S'wsgi.multithread'
p3214
asbag65
(g86
g67
NtRp3215
(dp3216
g70
(dp3217
g97
g98
ssg79
g3206
sg72
(lp3218
S':'
asbag65
(g86
g67
NtRp3219
(dp3220
g70
(dp3221
sg79
g3206
sg72
(lp3222
g65
(g66
g67
NtRp3223
(dp3224
g70
(dp3225
g78
I3
ssg79
g3219
sg72
(lp3226
g1800
asbasbasbag65
(g81
g67
NtRp3227
(dp3228
g70
(dp3229
sg79
g2695
sg72
(lp3230
g65
(g86
g67
NtRp3231
(dp3232
g70
(dp3233
g90
g91
ssg79
g3227
sg72
(lp3234
S'wsgi.run_once'
p3235
asbag65
(g86
g67
NtRp3236
(dp3237
g70
(dp3238
g97
g98
ssg79
g3227
sg72
(lp3239
S':'
asbag65
(g86
g67
NtRp3240
(dp3241
g70
(dp3242
sg79
g3227
sg72
(lp3243
g65
(g66
g67
NtRp3244
(dp3245
g70
(dp3246
g78
I3
ssg79
g3240
sg72
(lp3247
g108
asbasbasbag65
(g81
g67
NtRp3248
(dp3249
g70
(dp3250
sg79
g2695
sg72
(lp3251
g65
(g86
g67
NtRp3252
(dp3253
g70
(dp3254
g90
g91
ssg79
g3248
sg72
(lp3255
S'wsgi.url_scheme'
p3256
asbag65
(g86
g67
NtRp3257
(dp3258
g70
(dp3259
g97
g98
ssg79
g3248
sg72
(lp3260
S':'
asbag65
(g86
g67
NtRp3261
(dp3262
g70
(dp3263
sg79
g3248
sg72
(lp3264
g65
(g66
g67
NtRp3265
(dp3266
g70
(dp3267
g78
I3
ssg79
g3261
sg72
(lp3268
g1843
asbasbasbag65
(g81
g67
NtRp3269
(dp3270
g70
(dp3271
sg79
g2695
sg72
(lp3272
g65
(g86
g67
NtRp3273
(dp3274
g70
(dp3275
g90
g91
ssg79
g3269
sg72
(lp3276
S'wsgi.version'
p3277
asbag65
(g86
g67
NtRp3278
(dp3279
g70
(dp3280
g97
g98
ssg79
g3269
sg72
(lp3281
S':'
asbag65
(g86
g67
NtRp3282
(dp3283
g70
(dp3284
sg79
g3269
sg72
(lp3285
g65
(g66
g67
NtRp3286
(dp3287
g70
(dp3288
g78
I3
ssg79
g3282
sg72
(lp3289
S'1'
asbasbasbasbasbasbasbasbasbasbasbasbasbsS'frames'
p3290
(lp3291
(dp3292
S'file'
p3293
S'c:\\web2py\\gluon\\restricted.py'
p3294
sS'dump'
p3295
(dp3296
S'environment'
p3297
S"{'A': <class 'gluon.html.A'>, 'Auth': <class 'gluon.tools.Auth'>, 'B': <class 'gluon.html.B'>, 'BEAUTIFY': <class 'gluon.html.BEAUTIFY'>, 'BODY': <class 'gluon.html.BODY'>, 'BR': <class 'gluon.html.BR'>, 'BUTTON': <class 'gluon.html.BUTTON'>, 'CAT': <class 'gluon.html.CAT'>, 'CENTER': <class 'gluon.html.CENTER'>, 'CLEANUP': <class 'gluon.validators.CLEANUP'>, ...}"
p3298
sS'ccode'
p3299
S'<code object <module> at 0777C6E0, file "c:\\web2...chart_dashboard\\controllers/default.py", line 13>'
p3300
ssS'lnum'
p3301
I212
sS'lines'
p3302
(dp3303
I207
S'    try:'
p3304
sI208
S'        if isinstance(code, types.CodeType):'
p3305
sI209
S'            ccode = code'
p3306
sI210
S'        else:'
p3307
sI211
S'            ccode = compile2(code, layer)'
p3308
sI212
S'        exec ccode in environment'
p3309
sI213
S'    except HTTP:'
p3310
sI214
S'        raise'
p3311
sI215
S'    except RestrictedError:'
p3312
sI216
S'        # do not encapsulate (obfuscate) the original RestrictedError'
p3313
ssS'call'
p3314
S"(code='# -*- coding: utf-8 -*-\\n# this file is released ...nse._vars=response._caller(list_workbook_charts)\\n', environment={'A': <class 'gluon.html.A'>, 'Auth': <class 'gluon.tools.Auth'>, 'B': <class 'gluon.html.B'>, 'BEAUTIFY': <class 'gluon.html.BEAUTIFY'>, 'BODY': <class 'gluon.html.BODY'>, 'BR': <class 'gluon.html.BR'>, 'BUTTON': <class 'gluon.html.BUTTON'>, 'CAT': <class 'gluon.html.CAT'>, 'CENTER': <class 'gluon.html.CENTER'>, 'CLEANUP': <class 'gluon.validators.CLEANUP'>, ...}, layer=r'c:\\web2py\\applications\\web2py_xlchart_dashboard\\controllers/default.py')"
p3315
sS'func'
p3316
S'restricted'
p3317
sa(dp3318
g3293
S'c:\\web2py\\applications\\web2py_xlchart_dashboard\\controllers\\default.py'
p3319
sg3295
(dp3320
sg3301
I120
sg3302
(dp3321
I109
S'    http://..../[app]/default/data/update/[table]/[id]'
p3322
sI110
S'    http://..../[app]/default/data/delete/[table]/[id]'
p3323
sI111
S'    http://..../[app]/default/data/select/[table]'
p3324
sI112
S'    http://..../[app]/default/data/search/[table]'
p3325
sI113
S'    but URLs must be signed, i.e. linked with'
p3326
sI114
S"      A('table',_href=URL('data/tables',user_signature=True))"
p3327
sI115
S'    or with the signed load operator'
p3328
sI116
S"      LOAD('default','data.load',args='tables',ajax=True,user_signature=True)"
p3329
sI117
S'    """'
p3330
sI118
S'    return dict(form=crud())'
p3331
ssg3314
S'()'
p3332
sg3316
S'<module>'
p3333
sa(dp3334
g3293
S'c:\\web2py\\gluon\\globals.py'
p3335
sg3295
(dp3336
S'self'
p3337
S'undefined'
p3338
sS'f'
S'<function list_workbook_charts>'
p3339
ssg3301
I188
sg3302
(dp3340
I192
S''
sI183
S'        self.menu = []             # used by the default view layout'
p3341
sI184
S'        self.files = []            # used by web2py_ajax.html'
p3342
sI185
S'        self.generic_patterns = []  # patterns to allow generic views'
p3343
sI186
S"        self.delimiters = ('{{', '}}')"
p3344
sI187
S'        self._vars = None'
p3345
sI188
S'        self._caller = lambda f: f()'
p3346
sI189
S'        self._view_environment = None'
p3347
sI190
S'        self._custom_commit = None'
p3348
sI191
S'        self._custom_rollback = None'
p3349
ssg3314
S'(f=<function list_workbook_charts>)'
p3350
sg3316
S'<lambda>'
p3351
sa(dp3352
g3293
S'c:\\web2py\\applications\\web2py_xlchart_dashboard\\controllers\\default.py'
p3353
sg3295
(dp3354
S'global get_chart'
p3355
S'<function get_chart>'
p3356
sS'wbPath'
p3357
S"r'C:\\pycharts\\month-week'"
p3358
ssg3301
I42
sg3302
(dp3359
I37
S'def list_workbook_charts():'
p3360
sI38
S'    import os'
p3361
sI39
S"    wbid = request.vars['wbid']"
p3362
sI40
S'    rsPath = db(db.workbook.id == wbid).select(db.workbook.path)'
p3363
sI41
S'    wbPath = rsPath[0].path'
p3364
sI42
S'    exportFolder = get_chart(wbPath)'
p3365
sI43
S'    chartfiles = []'
p3366
sI44
S'    for root, dirs, files in os.walk(exportFolder):'
p3367
sI45
S'        for file in files:'
p3368
sI46
S'            chartfiles.append(os.path.join(exportFolder,file))'
p3369
ssg3314
S'()'
p3370
sg3316
S'list_workbook_charts'
p3371
sa(dp3372
g3293
S'c:\\web2py\\applications\\web2py_xlchart_dashboard\\controllers\\default.py'
p3373
sg3295
(dp3374
sg3301
I61
sg3302
(dp3375
I64
S'    ChartObj.start_export()'
p3376
sI65
S"    webfolder = os.path.join('/images/temp/',timeDir)"
p3377
sI56
S'    ChartObj = Pyxlchart()'
p3378
sI57
S'    ChartObj.WorkbookDirectory = wbPath'
p3379
sI58
S'    ChartObj.WorkbookFilename = wbFile'
p3380
sI59
S'    ChartObj.ImageFilename = imageName'
p3381
sI60
S'    timeDir = str(time.time())'
p3382
sI61
S"    os.makedirs(os.path.join(request.folder, 'static\\images\\temp', timeDir))"
p3383
sI62
S"    exportFolder = os.path.join(request.folder, 'static\\images\\temp', timeDir)"
p3384
sI63
S'    ChartObj.ExportPath =  exportFolder'
p3385
ssg3314
S"(workbookPath=r'C:\\pycharts\\month-week', imageName='XLChart')"
p3386
sg3316
S'get_chart'
p3387
sa(dp3388
g3293
S'C:\\Python27\\lib\\os.py'
p3389
sg3295
(dp3390
S'global makedirs'
p3391
S'<function makedirs>'
p3392
sS'head'
p3393
S"'c:\\\\web2py\\\\applications\\\\web2py_xlchart_dashboard\\\\static\\\\images\\temp'"
p3394
sS'mode'
p3395
S'511'
p3396
ssg3301
I150
sg3302
(dp3397
I145
S'    head, tail = path.split(name)'
p3398
sI146
S'    if not tail:'
p3399
sI147
S'        head, tail = path.split(head)'
p3400
sI148
S'    if head and tail and not path.exists(head):'
p3401
sI149
S'        try:'
p3402
sI150
S'            makedirs(head, mode)'
p3403
sI151
S'        except OSError, e:'
p3404
sI152
S'            # be happy if someone already created the path'
p3405
sI153
S'            if e.errno != errno.EEXIST:'
p3406
sI154
S'                raise'
p3407
ssg3314
S"(name='c:\\\\web2py\\\\applications\\\\web2py_xlchart_dashboard\\\\static\\\\images\\temp\\\\1352055609.98', mode=511)"
p3408
sg3316
S'makedirs'
p3409
sa(dp3410
g3293
S'C:\\Python27\\lib\\os.py'
p3411
sg3295
(dp3412
S'global mkdir'
p3413
S'<built-in function mkdir>'
p3414
sS'name'
p3415
S"'c:\\\\web2py\\\\applications\\\\web2py_xlchart_dashboard\\\\static\\\\images\\temp'"
p3416
sS'mode'
p3417
S'511'
p3418
ssg3301
I157
sg3302
(dp3419
I160
S'    """removedirs(path)'
p3420
sI161
S''
sI152
S'            # be happy if someone already created the path'
p3421
sI153
S'            if e.errno != errno.EEXIST:'
p3422
sI154
S'                raise'
p3423
sI155
S'        if tail == curdir:           # xxx/newdir/. exists if xxx/newdir exists'
p3424
sI156
S'            return'
p3425
sI157
S'    mkdir(name, mode)'
p3426
sI158
S''
sI159
S'def removedirs(name):'
p3427
ssg3314
S"(name='c:\\\\web2py\\\\applications\\\\web2py_xlchart_dashboard\\\\static\\\\images\\temp', mode=511)"
p3428
sg3316
g3409
sasS'pyver'
p3429
S'Python 2.7.2: C:\\Python27\\python.exe'
p3430
sS'session'
p3431
g65
(g66
g67
NtRp3432
(dp3433
g70
(dp3434
sg72
(lp3435
g65
(g74
g67
NtRp3436
(dp3437
g70
(dp3438
g78
I5
ssg79
Nsg72
(lp3439
g65
(g81
g67
NtRp3440
(dp3441
g70
(dp3442
sg79
g3436
sg72
(lp3443
g65
(g86
g67
NtRp3444
(dp3445
g70
(dp3446
g90
g91
ssg79
g3440
sg72
(lp3447
S'flash'
p3448
asbag65
(g86
g67
NtRp3449
(dp3450
g70
(dp3451
g97
g98
ssg79
g3440
sg72
(lp3452
S':'
asbag65
(g86
g67
NtRp3453
(dp3454
g70
(dp3455
sg79
g3440
sg72
(lp3456
g65
(g66
g67
NtRp3457
(dp3458
g70
(dp3459
g78
I5
ssg79
g3453
sg72
(lp3460
S'None'
p3461
asbasbasbasbasbsS'etype'
p3462
S"<type 'exceptions.WindowsError'>"
p3463
sS'date'
p3464
S'Sun Nov 04 19:00:09 2012'
p3465
sS'response'
p3466
g65
(g66
g67
NtRp3467
(dp3468
g70
(dp3469
sg72
(lp3470
g65
(g74
g67
NtRp3471
(dp3472
g70
(dp3473
g78
I5
ssg79
Nsg72
(lp3474
g65
(g81
g67
NtRp3475
(dp3476
g70
(dp3477
sg79
g3471
sg72
(lp3478
g65
(g86
g67
NtRp3479
(dp3480
g70
(dp3481
g90
g91
ssg79
g3475
sg72
(lp3482
g163
asbag65
(g86
g67
NtRp3483
(dp3484
g70
(dp3485
g97
g98
ssg79
g3475
sg72
(lp3486
S':'
asbag65
(g86
g67
NtRp3487
(dp3488
g70
(dp3489
sg79
g3475
sg72
(lp3490
g65
(g66
g67
NtRp3491
(dp3492
g70
(dp3493
g78
I5
ssg79
g3487
sg72
(lp3494
S'<cStringIO.StringO object at 0x07DD6300>'
p3495
asbasbasbag65
(g81
g67
NtRp3496
(dp3497
g70
(dp3498
sg79
g3471
sg72
(lp3499
g65
(g86
g67
NtRp3500
(dp3501
g70
(dp3502
g90
g91
ssg79
g3496
sg72
(lp3503
g251
asbag65
(g86
g67
NtRp3504
(dp3505
g70
(dp3506
g97
g98
ssg79
g3496
sg72
(lp3507
S':'
asbag65
(g86
g67
NtRp3508
(dp3509
g70
(dp3510
sg79
g3496
sg72
(lp3511
g65
(g66
g67
NtRp3512
(dp3513
g70
(dp3514
g78
I5
ssg79
g3508
sg72
(lp3515
g65
(g74
g67
NtRp3516
(dp3517
g70
(dp3518
g78
I4
ssg79
Nsg72
(lp3519
g65
(g81
g67
NtRp3520
(dp3521
g70
(dp3522
sg79
g3516
sg72
(lp3523
g65
(g86
g67
NtRp3524
(dp3525
g70
(dp3526
g90
g91
ssg79
g3520
sg72
(lp3527
S'session_id_web2py_xlchart_dashboard'
p3528
asbag65
(g86
g67
NtRp3529
(dp3530
g70
(dp3531
g97
g98
ssg79
g3520
sg72
(lp3532
S':'
asbag65
(g86
g67
NtRp3533
(dp3534
g70
(dp3535
sg79
g3520
sg72
(lp3536
g65
(g66
g67
NtRp3537
(dp3538
g70
(dp3539
g78
I4
ssg79
g3533
sg72
(lp3540
g483
ag65
(g74
g67
NtRp3541
(dp3542
g70
(dp3543
g78
I3
ssg79
Nsg72
(lp3544
g65
(g81
g67
NtRp3545
(dp3546
g70
(dp3547
sg79
g3541
sg72
(lp3548
g65
(g86
g67
NtRp3549
(dp3550
g70
(dp3551
g90
g91
ssg79
g3545
sg72
(lp3552
g302
asbag65
(g86
g67
NtRp3553
(dp3554
g70
(dp3555
g97
g98
ssg79
g3545
sg72
(lp3556
S':'
asbag65
(g86
g67
NtRp3557
(dp3558
g70
(dp3559
sg79
g3545
sg72
(lp3560
g65
(g66
g67
NtRp3561
(dp3562
g70
(dp3563
g78
I3
ssg79
g3557
sg72
(lp3564
S''
asbasbasbag65
(g81
g67
NtRp3565
(dp3566
g70
(dp3567
sg79
g3541
sg72
(lp3568
g65
(g86
g67
NtRp3569
(dp3570
g70
(dp3571
g90
g91
ssg79
g3565
sg72
(lp3572
g323
asbag65
(g86
g67
NtRp3573
(dp3574
g70
(dp3575
g97
g98
ssg79
g3565
sg72
(lp3576
S':'
asbag65
(g86
g67
NtRp3577
(dp3578
g70
(dp3579
sg79
g3565
sg72
(lp3580
g65
(g66
g67
NtRp3581
(dp3582
g70
(dp3583
g78
I3
ssg79
g3577
sg72
(lp3584
S''
asbasbasbag65
(g81
g67
NtRp3585
(dp3586
g70
(dp3587
sg79
g3541
sg72
(lp3588
g65
(g86
g67
NtRp3589
(dp3590
g70
(dp3591
g90
g91
ssg79
g3585
sg72
(lp3592
g344
asbag65
(g86
g67
NtRp3593
(dp3594
g70
(dp3595
g97
g98
ssg79
g3585
sg72
(lp3596
S':'
asbag65
(g86
g67
NtRp3597
(dp3598
g70
(dp3599
sg79
g3585
sg72
(lp3600
g65
(g66
g67
NtRp3601
(dp3602
g70
(dp3603
g78
I3
ssg79
g3597
sg72
(lp3604
S''
asbasbasbag65
(g81
g67
NtRp3605
(dp3606
g70
(dp3607
sg79
g3541
sg72
(lp3608
g65
(g86
g67
NtRp3609
(dp3610
g70
(dp3611
g90
g91
ssg79
g3605
sg72
(lp3612
g365
asbag65
(g86
g67
NtRp3613
(dp3614
g70
(dp3615
g97
g98
ssg79
g3605
sg72
(lp3616
S':'
asbag65
(g86
g67
NtRp3617
(dp3618
g70
(dp3619
sg79
g3605
sg72
(lp3620
g65
(g66
g67
NtRp3621
(dp3622
g70
(dp3623
g78
I3
ssg79
g3617
sg72
(lp3624
S''
asbasbasbag65
(g81
g67
NtRp3625
(dp3626
g70
(dp3627
sg79
g3541
sg72
(lp3628
g65
(g86
g67
NtRp3629
(dp3630
g70
(dp3631
g90
g91
ssg79
g3625
sg72
(lp3632
g386
asbag65
(g86
g67
NtRp3633
(dp3634
g70
(dp3635
g97
g98
ssg79
g3625
sg72
(lp3636
S':'
asbag65
(g86
g67
NtRp3637
(dp3638
g70
(dp3639
sg79
g3625
sg72
(lp3640
g65
(g66
g67
NtRp3641
(dp3642
g70
(dp3643
g78
I3
ssg79
g3637
sg72
(lp3644
S''
asbasbasbag65
(g81
g67
NtRp3645
(dp3646
g70
(dp3647
sg79
g3541
sg72
(lp3648
g65
(g86
g67
NtRp3649
(dp3650
g70
(dp3651
g90
g91
ssg79
g3645
sg72
(lp3652
g407
asbag65
(g86
g67
NtRp3653
(dp3654
g70
(dp3655
g97
g98
ssg79
g3645
sg72
(lp3656
S':'
asbag65
(g86
g67
NtRp3657
(dp3658
g70
(dp3659
sg79
g3645
sg72
(lp3660
g65
(g66
g67
NtRp3661
(dp3662
g70
(dp3663
g78
I3
ssg79
g3657
sg72
(lp3664
S'/'
asbasbasbag65
(g81
g67
NtRp3665
(dp3666
g70
(dp3667
sg79
g3541
sg72
(lp3668
g65
(g86
g67
NtRp3669
(dp3670
g70
(dp3671
g90
g91
ssg79
g3665
sg72
(lp3672
g428
asbag65
(g86
g67
NtRp3673
(dp3674
g70
(dp3675
g97
g98
ssg79
g3665
sg72
(lp3676
S':'
asbag65
(g86
g67
NtRp3677
(dp3678
g70
(dp3679
sg79
g3665
sg72
(lp3680
g65
(g66
g67
NtRp3681
(dp3682
g70
(dp3683
g78
I3
ssg79
g3677
sg72
(lp3684
S''
asbasbasbag65
(g81
g67
NtRp3685
(dp3686
g70
(dp3687
sg79
g3541
sg72
(lp3688
g65
(g86
g67
NtRp3689
(dp3690
g70
(dp3691
g90
g91
ssg79
g3685
sg72
(lp3692
g449
asbag65
(g86
g67
NtRp3693
(dp3694
g70
(dp3695
g97
g98
ssg79
g3685
sg72
(lp3696
S':'
asbag65
(g86
g67
NtRp3697
(dp3698
g70
(dp3699
sg79
g3685
sg72
(lp3700
g65
(g66
g67
NtRp3701
(dp3702
g70
(dp3703
g78
I3
ssg79
g3697
sg72
(lp3704
S''
asbasbasbasbasbasbasbasbasbasbasbag65
(g81
g67
NtRp3705
(dp3706
g70
(dp3707
sg79
g3471
sg72
(lp3708
g65
(g86
g67
NtRp3709
(dp3710
g70
(dp3711
g90
g91
ssg79
g3705
sg72
(lp3712
S'delimiters'
p3713
asbag65
(g86
g67
NtRp3714
(dp3715
g70
(dp3716
g97
g98
ssg79
g3705
sg72
(lp3717
S':'
asbag65
(g86
g67
NtRp3718
(dp3719
g70
(dp3720
sg79
g3705
sg72
(lp3721
g65
(g66
g67
NtRp3722
(dp3723
g70
(dp3724
g78
I5
ssg79
g3718
sg72
(lp3725
g65
(g74
g67
NtRp3726
(dp3727
g70
(dp3728
g78
I4
ssg79
Nsg72
(lp3729
g65
(g81
g67
NtRp3730
(dp3731
g70
(dp3732
sg79
g3726
sg72
(lp3733
g65
(g86
g67
NtRp3734
(dp3735
g70
(dp3736
sg79
g3730
sg72
(lp3737
g65
(g66
g67
NtRp3738
(dp3739
g70
(dp3740
g78
I4
ssg79
g3734
sg72
(lp3741
S'{{'
p3742
asbasbasbag65
(g81
g67
NtRp3743
(dp3744
g70
(dp3745
sg79
g3726
sg72
(lp3746
g65
(g86
g67
NtRp3747
(dp3748
g70
(dp3749
sg79
g3743
sg72
(lp3750
g65
(g66
g67
NtRp3751
(dp3752
g70
(dp3753
g78
I4
ssg79
g3747
sg72
(lp3754
S'}}'
p3755
asbasbasbasbasbasbasbag65
(g81
g67
NtRp3756
(dp3757
g70
(dp3758
sg79
g3471
sg72
(lp3759
g65
(g86
g67
NtRp3760
(dp3761
g70
(dp3762
g90
g91
ssg79
g3756
sg72
(lp3763
S'files'
p3764
asbag65
(g86
g67
NtRp3765
(dp3766
g70
(dp3767
g97
g98
ssg79
g3756
sg72
(lp3768
S':'
asbag65
(g86
g67
NtRp3769
(dp3770
g70
(dp3771
sg79
g3756
sg72
(lp3772
g65
(g66
g67
NtRp3773
(dp3774
g70
(dp3775
g78
I5
ssg79
g3769
sg72
(lp3776
g65
(g74
g67
NtRp3777
(dp3778
g70
(dp3779
g78
I4
ssg79
Nsg72
(lp3780
sbasbasbasbag65
(g81
g67
NtRp3781
(dp3782
g70
(dp3783
sg79
g3471
sg72
(lp3784
g65
(g86
g67
NtRp3785
(dp3786
g70
(dp3787
g90
g91
ssg79
g3781
sg72
(lp3788
S'flash'
p3789
asbag65
(g86
g67
NtRp3790
(dp3791
g70
(dp3792
g97
g98
ssg79
g3781
sg72
(lp3793
S':'
asbag65
(g86
g67
NtRp3794
(dp3795
g70
(dp3796
sg79
g3781
sg72
(lp3797
g65
(g66
g67
NtRp3798
(dp3799
g70
(dp3800
g78
I5
ssg79
g3794
sg72
(lp3801
S''
asbasbasbag65
(g81
g67
NtRp3802
(dp3803
g70
(dp3804
sg79
g3471
sg72
(lp3805
g65
(g86
g67
NtRp3806
(dp3807
g70
(dp3808
g90
g91
ssg79
g3802
sg72
(lp3809
S'generic_patterns'
p3810
asbag65
(g86
g67
NtRp3811
(dp3812
g70
(dp3813
g97
g98
ssg79
g3802
sg72
(lp3814
S':'
asbag65
(g86
g67
NtRp3815
(dp3816
g70
(dp3817
sg79
g3802
sg72
(lp3818
g65
(g66
g67
NtRp3819
(dp3820
g70
(dp3821
g78
I5
ssg79
g3815
sg72
(lp3822
g65
(g74
g67
NtRp3823
(dp3824
g70
(dp3825
g78
I4
ssg79
Nsg72
(lp3826
g65
(g81
g67
NtRp3827
(dp3828
g70
(dp3829
sg79
g3823
sg72
(lp3830
g65
(g86
g67
NtRp3831
(dp3832
g70
(dp3833
sg79
g3827
sg72
(lp3834
g65
(g66
g67
NtRp3835
(dp3836
g70
(dp3837
g78
I4
ssg79
g3831
sg72
(lp3838
S'*'
asbasbasbasbasbasbasbag65
(g81
g67
NtRp3839
(dp3840
g70
(dp3841
sg79
g3471
sg72
(lp3842
g65
(g86
g67
NtRp3843
(dp3844
g70
(dp3845
g90
g91
ssg79
g3839
sg72
(lp3846
S'google_analytics_id'
p3847
asbag65
(g86
g67
NtRp3848
(dp3849
g70
(dp3850
g97
g98
ssg79
g3839
sg72
(lp3851
S':'
asbag65
(g86
g67
NtRp3852
(dp3853
g70
(dp3854
sg79
g3839
sg72
(lp3855
g65
(g66
g67
NtRp3856
(dp3857
g70
(dp3858
g78
I5
ssg79
g3852
sg72
(lp3859
S'None'
p3860
asbasbasbag65
(g81
g67
NtRp3861
(dp3862
g70
(dp3863
sg79
g3471
sg72
(lp3864
g65
(g86
g67
NtRp3865
(dp3866
g70
(dp3867
g90
g91
ssg79
g3861
sg72
(lp3868
S'headers'
p3869
asbag65
(g86
g67
NtRp3870
(dp3871
g70
(dp3872
g97
g98
ssg79
g3861
sg72
(lp3873
S':'
asbag65
(g86
g67
NtRp3874
(dp3875
g70
(dp3876
sg79
g3861
sg72
(lp3877
g65
(g66
g67
NtRp3878
(dp3879
g70
(dp3880
g78
I5
ssg79
g3874
sg72
(lp3881
g65
(g74
g67
NtRp3882
(dp3883
g70
(dp3884
g78
I4
ssg79
Nsg72
(lp3885
g65
(g81
g67
NtRp3886
(dp3887
g70
(dp3888
sg79
g3882
sg72
(lp3889
g65
(g86
g67
NtRp3890
(dp3891
g70
(dp3892
g90
g91
ssg79
g3886
sg72
(lp3893
S'X-Powered-By'
p3894
asbag65
(g86
g67
NtRp3895
(dp3896
g70
(dp3897
g97
g98
ssg79
g3886
sg72
(lp3898
S':'
asbag65
(g86
g67
NtRp3899
(dp3900
g70
(dp3901
sg79
g3886
sg72
(lp3902
g65
(g66
g67
NtRp3903
(dp3904
g70
(dp3905
g78
I4
ssg79
g3899
sg72
(lp3906
S'web2py'
p3907
asbasbasbasbasbasbasbag65
(g81
g67
NtRp3908
(dp3909
g70
(dp3910
sg79
g3471
sg72
(lp3911
g65
(g86
g67
NtRp3912
(dp3913
g70
(dp3914
g90
g91
ssg79
g3908
sg72
(lp3915
S'menu'
p3916
asbag65
(g86
g67
NtRp3917
(dp3918
g70
(dp3919
g97
g98
ssg79
g3908
sg72
(lp3920
S':'
asbag65
(g86
g67
NtRp3921
(dp3922
g70
(dp3923
sg79
g3908
sg72
(lp3924
g65
(g66
g67
NtRp3925
(dp3926
g70
(dp3927
g78
I5
ssg79
g3921
sg72
(lp3928
g65
(g74
g67
NtRp3929
(dp3930
g70
(dp3931
g78
I4
ssg79
Nsg72
(lp3932
g65
(g81
g67
NtRp3933
(dp3934
g70
(dp3935
sg79
g3929
sg72
(lp3936
g65
(g86
g67
NtRp3937
(dp3938
g70
(dp3939
sg79
g3933
sg72
(lp3940
g65
(g66
g67
NtRp3941
(dp3942
g70
(dp3943
g78
I4
ssg79
g3937
sg72
(lp3944
g65
(g74
g67
NtRp3945
(dp3946
g70
(dp3947
g78
I3
ssg79
Nsg72
(lp3948
g65
(g81
g67
NtRp3949
(dp3950
g70
(dp3951
sg79
g3945
sg72
(lp3952
g65
(g86
g67
NtRp3953
(dp3954
g70
(dp3955
sg79
g3949
sg72
(lp3956
g65
(g66
g67
NtRp3957
(dp3958
g70
(dp3959
g78
I3
ssg79
g3953
sg72
(lp3960
cgluon.languages
lazyT_unpickle
p3961
(S's\x04\x00\x00\x00Home'
tRp3962
asbasbasbag65
(g81
g67
NtRp3963
(dp3964
g70
(dp3965
sg79
g3945
sg72
(lp3966
g65
(g86
g67
NtRp3967
(dp3968
g70
(dp3969
sg79
g3963
sg72
(lp3970
g65
(g66
g67
NtRp3971
(dp3972
g70
(dp3973
g78
I3
ssg79
g3967
sg72
(lp3974
g108
asbasbasbag65
(g81
g67
NtRp3975
(dp3976
g70
(dp3977
sg79
g3945
sg72
(lp3978
g65
(g86
g67
NtRp3979
(dp3980
g70
(dp3981
sg79
g3975
sg72
(lp3982
g65
(g66
g67
NtRp3983
(dp3984
g70
(dp3985
g78
I3
ssg79
g3979
sg72
(lp3986
S'/web2py_xlchart_dashboard/default/index'
p3987
asbasbasbag65
(g81
g67
NtRp3988
(dp3989
g70
(dp3990
sg79
g3945
sg72
(lp3991
g65
(g86
g67
NtRp3992
(dp3993
g70
(dp3994
sg79
g3988
sg72
(lp3995
g65
(g66
g67
NtRp3996
(dp3997
g70
(dp3998
g78
I3
ssg79
g3992
sg72
(lp3999
g65
(g74
g67
NtRp4000
(dp4001
g70
(dp4002
g78
I2
ssg79
Nsg72
(lp4003
sbasbasbasbasbasbasbasbag65
(g81
g67
NtRp4004
(dp4005
g70
(dp4006
sg79
g3929
sg72
(lp4007
g65
(g86
g67
NtRp4008
(dp4009
g70
(dp4010
sg79
g4004
sg72
(lp4011
g65
(g66
g67
NtRp4012
(dp4013
g70
(dp4014
g78
I4
ssg79
g4008
sg72
(lp4015
g65
(g74
g67
NtRp4016
(dp4017
g70
(dp4018
g78
I3
ssg79
Nsg72
(lp4019
g65
(g81
g67
NtRp4020
(dp4021
g70
(dp4022
sg79
g4016
sg72
(lp4023
g65
(g86
g67
NtRp4024
(dp4025
g70
(dp4026
sg79
g4020
sg72
(lp4027
g65
(g66
g67
NtRp4028
(dp4029
g70
(dp4030
g78
I3
ssg79
g4024
sg72
(lp4031
g65
(cgluon.html
SPAN
p4032
g67
NtRp4033
(dp4034
g70
(dp4035
S'_class'
p4036
S'highlighted'
p4037
ssg79
Nsg72
(lp4038
g3907
asbasbasbasbag65
(g81
g67
NtRp4039
(dp4040
g70
(dp4041
sg79
g4016
sg72
(lp4042
g65
(g86
g67
NtRp4043
(dp4044
g70
(dp4045
sg79
g4039
sg72
(lp4046
g65
(g66
g67
NtRp4047
(dp4048
g70
(dp4049
g78
I3
ssg79
g4043
sg72
(lp4050
g108
asbasbasbag65
(g81
g67
NtRp4051
(dp4052
g70
(dp4053
sg79
g4016
sg72
(lp4054
g65
(g86
g67
NtRp4055
(dp4056
g70
(dp4057
sg79
g4051
sg72
(lp4058
g65
(g66
g67
NtRp4059
(dp4060
g70
(dp4061
g78
I3
ssg79
g4055
sg72
(lp4062
S'http://web2py.com'
p4063
asbasbasbag65
(g81
g67
NtRp4064
(dp4065
g70
(dp4066
sg79
g4016
sg72
(lp4067
g65
(g86
g67
NtRp4068
(dp4069
g70
(dp4070
sg79
g4064
sg72
(lp4071
g65
(g66
g67
NtRp4072
(dp4073
g70
(dp4074
g78
I3
ssg79
g4068
sg72
(lp4075
g65
(g74
g67
NtRp4076
(dp4077
g70
(dp4078
g78
I2
ssg79
Nsg72
(lp4079
g65
(g81
g67
NtRp4080
(dp4081
g70
(dp4082
sg79
g4076
sg72
(lp4083
g65
(g86
g67
NtRp4084
(dp4085
g70
(dp4086
sg79
g4080
sg72
(lp4087
g65
(g66
g67
NtRp4088
(dp4089
g70
(dp4090
g78
I2
ssg79
g4084
sg72
(lp4091
g65
(g74
g67
NtRp4092
(dp4093
g70
(dp4094
g78
I1
ssg79
Nsg72
(lp4095
g65
(g81
g67
NtRp4096
(dp4097
g70
(dp4098
sg79
g4092
sg72
(lp4099
g65
(g86
g67
NtRp4100
(dp4101
g70
(dp4102
sg79
g4096
sg72
(lp4103
g65
(g66
g67
NtRp4104
(dp4105
g70
(dp4106
g78
I1
ssg79
g4100
sg72
(lp4107
g3961
(S's\x08\x00\x00\x00My Sites'
tRp4108
asbasbasbag65
(g81
g67
NtRp4109
(dp4110
g70
(dp4111
sg79
g4092
sg72
(lp4112
g65
(g86
g67
NtRp4113
(dp4114
g70
(dp4115
sg79
g4109
sg72
(lp4116
g65
(g66
g67
NtRp4117
(dp4118
g70
(dp4119
g78
I1
ssg79
g4113
sg72
(lp4120
I00
asbasbasbag65
(g81
g67
NtRp4121
(dp4122
g70
(dp4123
sg79
g4092
sg72
(lp4124
g65
(g86
g67
NtRp4125
(dp4126
g70
(dp4127
sg79
g4121
sg72
(lp4128
g65
(g66
g67
NtRp4129
(dp4130
g70
(dp4131
g78
I1
ssg79
g4125
sg72
(lp4132
S'/admin/default/site'
p4133
asbasbasbasbasbasbasbag65
(g81
g67
NtRp4134
(dp4135
g70
(dp4136
sg79
g4076
sg72
(lp4137
g65
(g86
g67
NtRp4138
(dp4139
g70
(dp4140
sg79
g4134
sg72
(lp4141
g65
(g66
g67
NtRp4142
(dp4143
g70
(dp4144
g78
I2
ssg79
g4138
sg72
(lp4145
g65
(g74
g67
NtRp4146
(dp4147
g70
(dp4148
g78
I1
ssg79
Nsg72
(lp4149
g65
(g81
g67
NtRp4150
(dp4151
g70
(dp4152
sg79
g4146
sg72
(lp4153
g65
(g86
g67
NtRp4154
(dp4155
g70
(dp4156
sg79
g4150
sg72
(lp4157
g65
(g66
g67
NtRp4158
(dp4159
g70
(dp4160
g78
I1
ssg79
g4154
sg72
(lp4161
g3961
(S's\x08\x00\x00\x00This App'
tRp4162
asbasbasbag65
(g81
g67
NtRp4163
(dp4164
g70
(dp4165
sg79
g4146
sg72
(lp4166
g65
(g86
g67
NtRp4167
(dp4168
g70
(dp4169
sg79
g4163
sg72
(lp4170
g65
(g66
g67
NtRp4171
(dp4172
g70
(dp4173
g78
I1
ssg79
g4167
sg72
(lp4174
I00
asbasbasbag65
(g81
g67
NtRp4175
(dp4176
g70
(dp4177
sg79
g4146
sg72
(lp4178
g65
(g86
g67
NtRp4179
(dp4180
g70
(dp4181
sg79
g4175
sg72
(lp4182
g65
(g66
g67
NtRp4183
(dp4184
g70
(dp4185
g78
I1
ssg79
g4179
sg72
(lp4186
S'/admin/default/design/web2py_xlchart_dashboard'
p4187
asbasbasbag65
(g81
g67
NtRp4188
(dp4189
g70
(dp4190
sg79
g4146
sg72
(lp4191
g65
(g86
g67
NtRp4192
(dp4193
g70
(dp4194
sg79
g4188
sg72
(lp4195
g65
(g66
g67
NtRp4196
(dp4197
g70
(dp4198
g78
I1
ssg79
g4192
sg72
(lp4199
(lp4200
(g3961
(S's\n\x00\x00\x00Controller'
tRp4201
I00
S'/admin/default/edit/web2py_xlchart_dashboard/controllers/default.py'
tp4202
a(g3961
(S's\x04\x00\x00\x00View'
tRp4203
I00
S'/admin/default/edit/web2py_xlchart_dashboard/views/default/list_workbook_charts.html'
tp4204
a(g3961
(S's\x06\x00\x00\x00Layout'
tRp4205
I00
S'/admin/default/edit/web2py_xlchart_dashboard/views/layout.html'
tp4206
a(g3961
(S's\n\x00\x00\x00Stylesheet'
tRp4207
I00
S'/admin/default/edit/web2py_xlchart_dashboard/static/css/web2py.css'
tp4208
a(g3961
(S's\x08\x00\x00\x00DB Model'
tRp4209
I00
S'/admin/default/edit/web2py_xlchart_dashboard/models/db.py'
tp4210
a(g3961
(S's\n\x00\x00\x00Menu Model'
tRp4211
I00
S'/admin/default/edit/web2py_xlchart_dashboard/models/menu.py'
tp4212
a(g3961
(S's\x08\x00\x00\x00Database'
tRp4213
I00
S'/web2py_xlchart_dashboard/appadmin/index'
tp4214
a(g3961
(S's\x06\x00\x00\x00Errors'
tRp4215
I00
S'/admin/default/errors/web2py_xlchart_dashboard'
tp4216
a(g3961
(S's\x05\x00\x00\x00About'
tRp4217
I00
S'/admin/default/about/web2py_xlchart_dashboard'
tp4218
aasbasbasbasbasbasbasbag65
(g81
g67
NtRp4219
(dp4220
g70
(dp4221
sg79
g4076
sg72
(lp4222
g65
(g86
g67
NtRp4223
(dp4224
g70
(dp4225
sg79
g4219
sg72
(lp4226
g65
(g66
g67
NtRp4227
(dp4228
g70
(dp4229
g78
I2
ssg79
g4223
sg72
(lp4230
g65
(g74
g67
NtRp4231
(dp4232
g70
(dp4233
g78
I1
ssg79
Nsg72
(lp4234
g65
(g81
g67
NtRp4235
(dp4236
g70
(dp4237
sg79
g4231
sg72
(lp4238
g65
(g86
g67
NtRp4239
(dp4240
g70
(dp4241
sg79
g4235
sg72
(lp4242
g65
(g66
g67
NtRp4243
(dp4244
g70
(dp4245
g78
I1
ssg79
g4239
sg72
(lp4246
S'web2py.com'
p4247
asbasbasbag65
(g81
g67
NtRp4248
(dp4249
g70
(dp4250
sg79
g4231
sg72
(lp4251
g65
(g86
g67
NtRp4252
(dp4253
g70
(dp4254
sg79
g4248
sg72
(lp4255
g65
(g66
g67
NtRp4256
(dp4257
g70
(dp4258
g78
I1
ssg79
g4252
sg72
(lp4259
I00
asbasbasbag65
(g81
g67
NtRp4260
(dp4261
g70
(dp4262
sg79
g4231
sg72
(lp4263
g65
(g86
g67
NtRp4264
(dp4265
g70
(dp4266
sg79
g4260
sg72
(lp4267
g65
(g66
g67
NtRp4268
(dp4269
g70
(dp4270
g78
I1
ssg79
g4264
sg72
(lp4271
S'http://www.web2py.com'
p4272
asbasbasbag65
(g81
g67
NtRp4273
(dp4274
g70
(dp4275
sg79
g4231
sg72
(lp4276
g65
(g86
g67
NtRp4277
(dp4278
g70
(dp4279
sg79
g4273
sg72
(lp4280
g65
(g66
g67
NtRp4281
(dp4282
g70
(dp4283
g78
I1
ssg79
g4277
sg72
(lp4284
(lp4285
(g3961
(S's\x08\x00\x00\x00Download'
tRp4286
I00
S'http://www.web2py.com/examples/default/download'
p4287
tp4288
a(g3961
(S's\x07\x00\x00\x00Support'
tRp4289
I00
S'http://www.web2py.com/examples/default/support'
p4290
tp4291
a(g3961
(S's\x04\x00\x00\x00Demo'
tRp4292
I00
S'http://web2py.com/demo_admin'
p4293
tp4294
a(g3961
(S's\x0e\x00\x00\x00Quick Examples'
tRp4295
I00
S'http://web2py.com/examples/default/examples'
p4296
tp4297
a(g3961
(S's\x03\x00\x00\x00FAQ'
tRp4298
I00
S'http://web2py.com/AlterEgo'
p4299
tp4300
a(g3961
(S's\x06\x00\x00\x00Videos'
tRp4301
I00
S'http://www.web2py.com/examples/default/videos/'
p4302
tp4303
a(g3961
(S's\x11\x00\x00\x00Free Applications'
tRp4304
I00
S'http://web2py.com/appliances'
p4305
tp4306
a(g3961
(S's\x07\x00\x00\x00Plugins'
tRp4307
I00
S'http://web2py.com/plugins'
p4308
tp4309
a(g3961
(S's\x07\x00\x00\x00Layouts'
tRp4310
I00
S'http://web2py.com/layouts'
p4311
tp4312
a(g3961
(S's\x07\x00\x00\x00Recipes'
tRp4313
I00
S'http://web2pyslices.com/'
p4314
tp4315
a(g3961
(S's\x08\x00\x00\x00Semantic'
tRp4316
I00
S'http://web2py.com/semantic'
p4317
tp4318
aasbasbasbasbasbasbasbag65
(g81
g67
NtRp4319
(dp4320
g70
(dp4321
sg79
g4076
sg72
(lp4322
g65
(g86
g67
NtRp4323
(dp4324
g70
(dp4325
sg79
g4319
sg72
(lp4326
g65
(g66
g67
NtRp4327
(dp4328
g70
(dp4329
g78
I2
ssg79
g4323
sg72
(lp4330
g65
(g74
g67
NtRp4331
(dp4332
g70
(dp4333
g78
I1
ssg79
Nsg72
(lp4334
g65
(g81
g67
NtRp4335
(dp4336
g70
(dp4337
sg79
g4331
sg72
(lp4338
g65
(g86
g67
NtRp4339
(dp4340
g70
(dp4341
sg79
g4335
sg72
(lp4342
g65
(g66
g67
NtRp4343
(dp4344
g70
(dp4345
g78
I1
ssg79
g4339
sg72
(lp4346
g3961
(S's\r\x00\x00\x00Documentation'
tRp4347
asbasbasbag65
(g81
g67
NtRp4348
(dp4349
g70
(dp4350
sg79
g4331
sg72
(lp4351
g65
(g86
g67
NtRp4352
(dp4353
g70
(dp4354
sg79
g4348
sg72
(lp4355
g65
(g66
g67
NtRp4356
(dp4357
g70
(dp4358
g78
I1
ssg79
g4352
sg72
(lp4359
I00
asbasbasbag65
(g81
g67
NtRp4360
(dp4361
g70
(dp4362
sg79
g4331
sg72
(lp4363
g65
(g86
g67
NtRp4364
(dp4365
g70
(dp4366
sg79
g4360
sg72
(lp4367
g65
(g66
g67
NtRp4368
(dp4369
g70
(dp4370
g78
I1
ssg79
g4364
sg72
(lp4371
S'http://www.web2py.com/book'
p4372
asbasbasbag65
(g81
g67
NtRp4373
(dp4374
g70
(dp4375
sg79
g4331
sg72
(lp4376
g65
(g86
g67
NtRp4377
(dp4378
g70
(dp4379
sg79
g4373
sg72
(lp4380
g65
(g66
g67
NtRp4381
(dp4382
g70
(dp4383
g78
I1
ssg79
g4377
sg72
(lp4384
(lp4385
(g3961
(S's\x07\x00\x00\x00Preface'
tRp4386
I00
S'http://www.web2py.com/book/default/chapter/00'
p4387
tp4388
a(g3961
(S's\x0c\x00\x00\x00Introduction'
tRp4389
I00
S'http://www.web2py.com/book/default/chapter/01'
p4390
tp4391
a(g3961
(S's\x06\x00\x00\x00Python'
tRp4392
I00
S'http://www.web2py.com/book/default/chapter/02'
p4393
tp4394
a(g3961
(S's\x08\x00\x00\x00Overview'
tRp4395
I00
S'http://www.web2py.com/book/default/chapter/03'
p4396
tp4397
a(g3961
(S's\x08\x00\x00\x00The Core'
tRp4398
I00
S'http://www.web2py.com/book/default/chapter/04'
p4399
tp4400
a(g3961
(S's\t\x00\x00\x00The Views'
tRp4401
I00
S'http://www.web2py.com/book/default/chapter/05'
p4402
tp4403
a(g3961
(S's\x08\x00\x00\x00Database'
tRp4404
I00
S'http://www.web2py.com/book/default/chapter/06'
p4405
tp4406
a(g3961
(S's\x14\x00\x00\x00Forms and Validators'
tRp4407
I00
S'http://www.web2py.com/book/default/chapter/07'
p4408
tp4409
a(g3961
(S's\r\x00\x00\x00Email and SMS'
tRp4410
I00
S'http://www.web2py.com/book/default/chapter/08'
p4411
tp4412
a(g3961
(S's\x0e\x00\x00\x00Access Control'
tRp4413
I00
S'http://www.web2py.com/book/default/chapter/09'
p4414
tp4415
a(g3961
(S's\x08\x00\x00\x00Services'
tRp4416
I00
S'http://www.web2py.com/book/default/chapter/10'
p4417
tp4418
a(g3961
(S's\x0c\x00\x00\x00Ajax Recipes'
tRp4419
I00
S'http://www.web2py.com/book/default/chapter/11'
p4420
tp4421
a(g3961
(S's\x16\x00\x00\x00Components and Plugins'
tRp4422
I00
S'http://www.web2py.com/book/default/chapter/12'
p4423
tp4424
a(g3961
(S's\x12\x00\x00\x00Deployment Recipes'
tRp4425
I00
S'http://www.web2py.com/book/default/chapter/13'
p4426
tp4427
a(g3961
(S's\r\x00\x00\x00Other Recipes'
tRp4428
I00
S'http://www.web2py.com/book/default/chapter/14'
p4429
tp4430
a(g3961
(S's\r\x00\x00\x00Buy this book'
tRp4431
I00
S'http://stores.lulu.com/web2py'
p4432
tp4433
aasbasbasbasbasbasbasbag65
(g81
g67
NtRp4434
(dp4435
g70
(dp4436
sg79
g4076
sg72
(lp4437
g65
(g86
g67
NtRp4438
(dp4439
g70
(dp4440
sg79
g4434
sg72
(lp4441
g65
(g66
g67
NtRp4442
(dp4443
g70
(dp4444
g78
I2
ssg79
g4438
sg72
(lp4445
g65
(g74
g67
NtRp4446
(dp4447
g70
(dp4448
g78
I1
ssg79
Nsg72
(lp4449
g65
(g81
g67
NtRp4450
(dp4451
g70
(dp4452
sg79
g4446
sg72
(lp4453
g65
(g86
g67
NtRp4454
(dp4455
g70
(dp4456
sg79
g4450
sg72
(lp4457
g65
(g66
g67
NtRp4458
(dp4459
g70
(dp4460
g78
I1
ssg79
g4454
sg72
(lp4461
g3961
(S's\t\x00\x00\x00Community'
tRp4462
asbasbasbag65
(g81
g67
NtRp4463
(dp4464
g70
(dp4465
sg79
g4446
sg72
(lp4466
g65
(g86
g67
NtRp4467
(dp4468
g70
(dp4469
sg79
g4463
sg72
(lp4470
g65
(g66
g67
NtRp4471
(dp4472
g70
(dp4473
g78
I1
ssg79
g4467
sg72
(lp4474
I00
asbasbasbag65
(g81
g67
NtRp4475
(dp4476
g70
(dp4477
sg79
g4446
sg72
(lp4478
g65
(g86
g67
NtRp4479
(dp4480
g70
(dp4481
sg79
g4475
sg72
(lp4482
g65
(g66
g67
NtRp4483
(dp4484
g70
(dp4485
g78
I1
ssg79
g4479
sg72
(lp4486
Nasbasbasbag65
(g81
g67
NtRp4487
(dp4488
g70
(dp4489
sg79
g4446
sg72
(lp4490
g65
(g86
g67
NtRp4491
(dp4492
g70
(dp4493
sg79
g4487
sg72
(lp4494
g65
(g66
g67
NtRp4495
(dp4496
g70
(dp4497
g78
I1
ssg79
g4491
sg72
(lp4498
(lp4499
(g3961
(S's\x06\x00\x00\x00Groups'
tRp4500
I00
S'http://www.web2py.com/examples/default/usergroups'
p4501
tp4502
a(g3961
(S's\x07\x00\x00\x00Twitter'
tRp4503
I00
S'http://twitter.com/web2py'
p4504
tp4505
a(g3961
(S's\t\x00\x00\x00Live Chat'
tRp4506
I00
S'http://webchat.freenode.net/?channels=web2py'
p4507
tp4508
aasbasbasbasbasbasbasbag65
(g81
g67
NtRp4509
(dp4510
g70
(dp4511
sg79
g4076
sg72
(lp4512
g65
(g86
g67
NtRp4513
(dp4514
g70
(dp4515
sg79
g4509
sg72
(lp4516
g65
(g66
g67
NtRp4517
(dp4518
g70
(dp4519
g78
I2
ssg79
g4513
sg72
(lp4520
g65
(g74
g67
NtRp4521
(dp4522
g70
(dp4523
g78
I1
ssg79
Nsg72
(lp4524
g65
(g81
g67
NtRp4525
(dp4526
g70
(dp4527
sg79
g4521
sg72
(lp4528
g65
(g86
g67
NtRp4529
(dp4530
g70
(dp4531
sg79
g4525
sg72
(lp4532
g65
(g66
g67
NtRp4533
(dp4534
g70
(dp4535
g78
I1
ssg79
g4529
sg72
(lp4536
g3961
(S's\x07\x00\x00\x00Plugins'
tRp4537
asbasbasbag65
(g81
g67
NtRp4538
(dp4539
g70
(dp4540
sg79
g4521
sg72
(lp4541
g65
(g86
g67
NtRp4542
(dp4543
g70
(dp4544
sg79
g4538
sg72
(lp4545
g65
(g66
g67
NtRp4546
(dp4547
g70
(dp4548
g78
I1
ssg79
g4542
sg72
(lp4549
I00
asbasbasbag65
(g81
g67
NtRp4550
(dp4551
g70
(dp4552
sg79
g4521
sg72
(lp4553
g65
(g86
g67
NtRp4554
(dp4555
g70
(dp4556
sg79
g4550
sg72
(lp4557
g65
(g66
g67
NtRp4558
(dp4559
g70
(dp4560
g78
I1
ssg79
g4554
sg72
(lp4561
Nasbasbasbag65
(g81
g67
NtRp4562
(dp4563
g70
(dp4564
sg79
g4521
sg72
(lp4565
g65
(g86
g67
NtRp4566
(dp4567
g70
(dp4568
sg79
g4562
sg72
(lp4569
g65
(g66
g67
NtRp4570
(dp4571
g70
(dp4572
g78
I1
ssg79
g4566
sg72
(lp4573
(lp4574
(S'plugin_wiki'
p4575
I00
S'http://web2py.com/examples/default/download'
p4576
tp4577
a(g3961
(S's\r\x00\x00\x00Other Plugins'
tRp4578
I00
g4308
tp4579
a(g3961
(S's\x0e\x00\x00\x00Layout Plugins'
tRp4580
I00
g4311
tp4581
aasbasbasbasbasbasbasbasbasbasbasbasbasbasbasbasbasbasbasbag65
(g81
g67
NtRp4582
(dp4583
g70
(dp4584
sg79
g3471
sg72
(lp4585
g65
(g86
g67
NtRp4586
(dp4587
g70
(dp4588
g90
g91
ssg79
g4582
sg72
(lp4589
S'meta'
p4590
asbag65
(g86
g67
NtRp4591
(dp4592
g70
(dp4593
g97
g98
ssg79
g4582
sg72
(lp4594
S':'
asbag65
(g86
g67
NtRp4595
(dp4596
g70
(dp4597
sg79
g4582
sg72
(lp4598
g65
(g66
g67
NtRp4599
(dp4600
g70
(dp4601
g78
I5
ssg79
g4595
sg72
(lp4602
g65
(g74
g67
NtRp4603
(dp4604
g70
(dp4605
g78
I4
ssg79
Nsg72
(lp4606
g65
(g81
g67
NtRp4607
(dp4608
g70
(dp4609
sg79
g4603
sg72
(lp4610
g65
(g86
g67
NtRp4611
(dp4612
g70
(dp4613
g90
g91
ssg79
g4607
sg72
(lp4614
S'author'
p4615
asbag65
(g86
g67
NtRp4616
(dp4617
g70
(dp4618
g97
g98
ssg79
g4607
sg72
(lp4619
S':'
asbag65
(g86
g67
NtRp4620
(dp4621
g70
(dp4622
sg79
g4607
sg72
(lp4623
g65
(g66
g67
NtRp4624
(dp4625
g70
(dp4626
g78
I4
ssg79
g4620
sg72
(lp4627
S'Your Name <you@example.com>'
p4628
asbasbasbag65
(g81
g67
NtRp4629
(dp4630
g70
(dp4631
sg79
g4603
sg72
(lp4632
g65
(g86
g67
NtRp4633
(dp4634
g70
(dp4635
g90
g91
ssg79
g4629
sg72
(lp4636
S'description'
p4637
asbag65
(g86
g67
NtRp4638
(dp4639
g70
(dp4640
g97
g98
ssg79
g4629
sg72
(lp4641
S':'
asbag65
(g86
g67
NtRp4642
(dp4643
g70
(dp4644
sg79
g4629
sg72
(lp4645
g65
(g66
g67
NtRp4646
(dp4647
g70
(dp4648
g78
I4
ssg79
g4642
sg72
(lp4649
S'a cool new app'
p4650
asbasbasbag65
(g81
g67
NtRp4651
(dp4652
g70
(dp4653
sg79
g4603
sg72
(lp4654
g65
(g86
g67
NtRp4655
(dp4656
g70
(dp4657
g90
g91
ssg79
g4651
sg72
(lp4658
S'generator'
p4659
asbag65
(g86
g67
NtRp4660
(dp4661
g70
(dp4662
g97
g98
ssg79
g4651
sg72
(lp4663
S':'
asbag65
(g86
g67
NtRp4664
(dp4665
g70
(dp4666
sg79
g4651
sg72
(lp4667
g65
(g66
g67
NtRp4668
(dp4669
g70
(dp4670
g78
I4
ssg79
g4664
sg72
(lp4671
S'Web2py Web Framework'
p4672
asbasbasbag65
(g81
g67
NtRp4673
(dp4674
g70
(dp4675
sg79
g4603
sg72
(lp4676
g65
(g86
g67
NtRp4677
(dp4678
g70
(dp4679
g90
g91
ssg79
g4673
sg72
(lp4680
S'keywords'
p4681
asbag65
(g86
g67
NtRp4682
(dp4683
g70
(dp4684
g97
g98
ssg79
g4673
sg72
(lp4685
S':'
asbag65
(g86
g67
NtRp4686
(dp4687
g70
(dp4688
sg79
g4673
sg72
(lp4689
g65
(g66
g67
NtRp4690
(dp4691
g70
(dp4692
g78
I4
ssg79
g4686
sg72
(lp4693
S'web2py, python, framework'
p4694
asbasbasbasbasbasbasbag65
(g81
g67
NtRp4695
(dp4696
g70
(dp4697
sg79
g3471
sg72
(lp4698
g65
(g86
g67
NtRp4699
(dp4700
g70
(dp4701
g90
g91
ssg79
g4695
sg72
(lp4702
S'models_to_run'
p4703
asbag65
(g86
g67
NtRp4704
(dp4705
g70
(dp4706
g97
g98
ssg79
g4695
sg72
(lp4707
S':'
asbag65
(g86
g67
NtRp4708
(dp4709
g70
(dp4710
sg79
g4695
sg72
(lp4711
g65
(g66
g67
NtRp4712
(dp4713
g70
(dp4714
g78
I5
ssg79
g4708
sg72
(lp4715
g65
(g74
g67
NtRp4716
(dp4717
g70
(dp4718
g78
I4
ssg79
Nsg72
(lp4719
g65
(g81
g67
NtRp4720
(dp4721
g70
(dp4722
sg79
g4716
sg72
(lp4723
g65
(g86
g67
NtRp4724
(dp4725
g70
(dp4726
sg79
g4720
sg72
(lp4727
g65
(g66
g67
NtRp4728
(dp4729
g70
(dp4730
g78
I4
ssg79
g4724
sg72
(lp4731
S'^\\w+\\.py$'
p4732
asbasbasbag65
(g81
g67
NtRp4733
(dp4734
g70
(dp4735
sg79
g4716
sg72
(lp4736
g65
(g86
g67
NtRp4737
(dp4738
g70
(dp4739
sg79
g4733
sg72
(lp4740
g65
(g66
g67
NtRp4741
(dp4742
g70
(dp4743
g78
I4
ssg79
g4737
sg72
(lp4744
S'^default/\\w+\\.py$'
p4745
asbasbasbag65
(g81
g67
NtRp4746
(dp4747
g70
(dp4748
sg79
g4716
sg72
(lp4749
g65
(g86
g67
NtRp4750
(dp4751
g70
(dp4752
sg79
g4746
sg72
(lp4753
g65
(g66
g67
NtRp4754
(dp4755
g70
(dp4756
g78
I4
ssg79
g4750
sg72
(lp4757
S'^default/list_workbook_charts/\\w+\\.py$'
p4758
asbasbasbasbasbasbasbag65
(g81
g67
NtRp4759
(dp4760
g70
(dp4761
sg79
g3471
sg72
(lp4762
g65
(g86
g67
NtRp4763
(dp4764
g70
(dp4765
g90
g91
ssg79
g4759
sg72
(lp4766
S'postprocessing'
p4767
asbag65
(g86
g67
NtRp4768
(dp4769
g70
(dp4770
g97
g98
ssg79
g4759
sg72
(lp4771
S':'
asbag65
(g86
g67
NtRp4772
(dp4773
g70
(dp4774
sg79
g4759
sg72
(lp4775
g65
(g66
g67
NtRp4776
(dp4777
g70
(dp4778
g78
I5
ssg79
g4772
sg72
(lp4779
g65
(g74
g67
NtRp4780
(dp4781
g70
(dp4782
g78
I4
ssg79
Nsg72
(lp4783
sbasbasbasbag65
(g81
g67
NtRp4784
(dp4785
g70
(dp4786
sg79
g3471
sg72
(lp4787
g65
(g86
g67
NtRp4788
(dp4789
g70
(dp4790
g90
g91
ssg79
g4784
sg72
(lp4791
S'session_cookie_expires'
p4792
asbag65
(g86
g67
NtRp4793
(dp4794
g70
(dp4795
g97
g98
ssg79
g4784
sg72
(lp4796
S':'
asbag65
(g86
g67
NtRp4797
(dp4798
g70
(dp4799
sg79
g4784
sg72
(lp4800
g65
(g66
g67
NtRp4801
(dp4802
g70
(dp4803
g78
I5
ssg79
g4797
sg72
(lp4804
S'None'
p4805
asbasbasbag65
(g81
g67
NtRp4806
(dp4807
g70
(dp4808
sg79
g3471
sg72
(lp4809
g65
(g86
g67
NtRp4810
(dp4811
g70
(dp4812
g90
g91
ssg79
g4806
sg72
(lp4813
S'session_data_name'
p4814
asbag65
(g86
g67
NtRp4815
(dp4816
g70
(dp4817
g97
g98
ssg79
g4806
sg72
(lp4818
S':'
asbag65
(g86
g67
NtRp4819
(dp4820
g70
(dp4821
sg79
g4806
sg72
(lp4822
g65
(g66
g67
NtRp4823
(dp4824
g70
(dp4825
g78
I5
ssg79
g4819
sg72
(lp4826
S'session_data_web2py_xlchart_dashboard'
p4827
asbasbasbag65
(g81
g67
NtRp4828
(dp4829
g70
(dp4830
sg79
g3471
sg72
(lp4831
g65
(g86
g67
NtRp4832
(dp4833
g70
(dp4834
g90
g91
ssg79
g4828
sg72
(lp4835
S'session_file'
p4836
asbag65
(g86
g67
NtRp4837
(dp4838
g70
(dp4839
g97
g98
ssg79
g4828
sg72
(lp4840
S':'
asbag65
(g86
g67
NtRp4841
(dp4842
g70
(dp4843
sg79
g4828
sg72
(lp4844
g65
(g66
g67
NtRp4845
(dp4846
g70
(dp4847
g78
I5
ssg79
g4841
sg72
(lp4848
S"<open file 'c:\\web2py\\applications\\web2py_xlchart_dashboard\\sessions\\127.0.0.1-08b039f4-8372-4bda-9ce9-032ae97eb74f', mode 'rb+' at 0x081859C0>"
p4849
asbasbasbag65
(g81
g67
NtRp4850
(dp4851
g70
(dp4852
sg79
g3471
sg72
(lp4853
g65
(g86
g67
NtRp4854
(dp4855
g70
(dp4856
g90
g91
ssg79
g4850
sg72
(lp4857
S'session_filename'
p4858
asbag65
(g86
g67
NtRp4859
(dp4860
g70
(dp4861
g97
g98
ssg79
g4850
sg72
(lp4862
S':'
asbag65
(g86
g67
NtRp4863
(dp4864
g70
(dp4865
sg79
g4850
sg72
(lp4866
g65
(g66
g67
NtRp4867
(dp4868
g70
(dp4869
g78
I5
ssg79
g4863
sg72
(lp4870
S'c:\\web2py\\applications\\web2py_xlchart_dashboard\\sessions\\127.0.0.1-08b039f4-8372-4bda-9ce9-032ae97eb74f'
p4871
asbasbasbag65
(g81
g67
NtRp4872
(dp4873
g70
(dp4874
sg79
g3471
sg72
(lp4875
g65
(g86
g67
NtRp4876
(dp4877
g70
(dp4878
g90
g91
ssg79
g4872
sg72
(lp4879
S'session_id'
p4880
asbag65
(g86
g67
NtRp4881
(dp4882
g70
(dp4883
g97
g98
ssg79
g4872
sg72
(lp4884
S':'
asbag65
(g86
g67
NtRp4885
(dp4886
g70
(dp4887
sg79
g4872
sg72
(lp4888
g65
(g66
g67
NtRp4889
(dp4890
g70
(dp4891
g78
I5
ssg79
g4885
sg72
(lp4892
g483
asbasbasbag65
(g81
g67
NtRp4893
(dp4894
g70
(dp4895
sg79
g3471
sg72
(lp4896
g65
(g86
g67
NtRp4897
(dp4898
g70
(dp4899
g90
g91
ssg79
g4893
sg72
(lp4900
S'session_id_name'
p4901
asbag65
(g86
g67
NtRp4902
(dp4903
g70
(dp4904
g97
g98
ssg79
g4893
sg72
(lp4905
S':'
asbag65
(g86
g67
NtRp4906
(dp4907
g70
(dp4908
sg79
g4893
sg72
(lp4909
g65
(g66
g67
NtRp4910
(dp4911
g70
(dp4912
g78
I5
ssg79
g4906
sg72
(lp4913
g3528
asbasbasbag65
(g81
g67
NtRp4914
(dp4915
g70
(dp4916
sg79
g3471
sg72
(lp4917
g65
(g86
g67
NtRp4918
(dp4919
g70
(dp4920
g90
g91
ssg79
g4914
sg72
(lp4921
S'session_locked'
p4922
asbag65
(g86
g67
NtRp4923
(dp4924
g70
(dp4925
g97
g98
ssg79
g4914
sg72
(lp4926
S':'
asbag65
(g86
g67
NtRp4927
(dp4928
g70
(dp4929
sg79
g4914
sg72
(lp4930
g65
(g66
g67
NtRp4931
(dp4932
g70
(dp4933
g78
I5
ssg79
g4927
sg72
(lp4934
g1800
asbasbasbag65
(g81
g67
NtRp4935
(dp4936
g70
(dp4937
sg79
g3471
sg72
(lp4938
g65
(g86
g67
NtRp4939
(dp4940
g70
(dp4941
g90
g91
ssg79
g4935
sg72
(lp4942
S'session_new'
p4943
asbag65
(g86
g67
NtRp4944
(dp4945
g70
(dp4946
g97
g98
ssg79
g4935
sg72
(lp4947
S':'
asbag65
(g86
g67
NtRp4948
(dp4949
g70
(dp4950
sg79
g4935
sg72
(lp4951
g65
(g66
g67
NtRp4952
(dp4953
g70
(dp4954
g78
I5
ssg79
g4948
sg72
(lp4955
g108
asbasbasbag65
(g81
g67
NtRp4956
(dp4957
g70
(dp4958
sg79
g3471
sg72
(lp4959
g65
(g86
g67
NtRp4960
(dp4961
g70
(dp4962
g90
g91
ssg79
g4956
sg72
(lp4963
S'session_storage_type'
p4964
asbag65
(g86
g67
NtRp4965
(dp4966
g70
(dp4967
g97
g98
ssg79
g4956
sg72
(lp4968
S':'
asbag65
(g86
g67
NtRp4969
(dp4970
g70
(dp4971
sg79
g4956
sg72
(lp4972
g65
(g66
g67
NtRp4973
(dp4974
g70
(dp4975
g78
I5
ssg79
g4969
sg72
(lp4976
g3293
asbasbasbag65
(g81
g67
NtRp4977
(dp4978
g70
(dp4979
sg79
g3471
sg72
(lp4980
g65
(g86
g67
NtRp4981
(dp4982
g70
(dp4983
g90
g91
ssg79
g4977
sg72
(lp4984
S'status'
p4985
asbag65
(g86
g67
NtRp4986
(dp4987
g70
(dp4988
g97
g98
ssg79
g4977
sg72
(lp4989
S':'
asbag65
(g86
g67
NtRp4990
(dp4991
g70
(dp4992
sg79
g4977
sg72
(lp4993
g65
(g66
g67
NtRp4994
(dp4995
g70
(dp4996
g78
I5
ssg79
g4990
sg72
(lp4997
S'200'
p4998
asbasbasbag65
(g81
g67
NtRp4999
(dp5000
g70
(dp5001
sg79
g3471
sg72
(lp5002
g65
(g86
g67
NtRp5003
(dp5004
g70
(dp5005
g90
g91
ssg79
g4999
sg72
(lp5006
S'subtitle'
p5007
asbag65
(g86
g67
NtRp5008
(dp5009
g70
(dp5010
g97
g98
ssg79
g4999
sg72
(lp5011
S':'
asbag65
(g86
g67
NtRp5012
(dp5013
g70
(dp5014
sg79
g4999
sg72
(lp5015
g65
(g66
g67
NtRp5016
(dp5017
g70
(dp5018
g78
I5
ssg79
g5012
sg72
(lp5019
g3961
(S's\r\x00\x00\x00customize me!'
tRp5020
asbasbasbag65
(g81
g67
NtRp5021
(dp5022
g70
(dp5023
sg79
g3471
sg72
(lp5024
g65
(g86
g67
NtRp5025
(dp5026
g70
(dp5027
g90
g91
ssg79
g5021
sg72
(lp5028
S'title'
p5029
asbag65
(g86
g67
NtRp5030
(dp5031
g70
(dp5032
g97
g98
ssg79
g5021
sg72
(lp5033
S':'
asbag65
(g86
g67
NtRp5034
(dp5035
g70
(dp5036
sg79
g5021
sg72
(lp5037
g65
(g66
g67
NtRp5038
(dp5039
g70
(dp5040
g78
I5
ssg79
g5034
sg72
(lp5041
S'Web2py Xlchart Dashboard'
p5042
asbasbasbag65
(g81
g67
NtRp5043
(dp5044
g70
(dp5045
sg79
g3471
sg72
(lp5046
g65
(g86
g67
NtRp5047
(dp5048
g70
(dp5049
g90
g91
ssg79
g5043
sg72
(lp5050
S'view'
p5051
asbag65
(g86
g67
NtRp5052
(dp5053
g70
(dp5054
g97
g98
ssg79
g5043
sg72
(lp5055
S':'
asbag65
(g86
g67
NtRp5056
(dp5057
g70
(dp5058
sg79
g5043
sg72
(lp5059
g65
(g66
g67
NtRp5060
(dp5061
g70
(dp5062
g78
I5
ssg79
g5056
sg72
(lp5063
S'default/list_workbook_charts.html'
p5064
asbasbasbasbasbsS'locals'
p5065
(dp5066
S'mode'
p5067
S'511'
p5068
sS'tail'
p5069
S"'images\\temp'"
p5070
sS'head'
p5071
S"r'c:\\web2py\\applications\\web2py_xlchart_dashboard\\static'"
p5072
sS'name'
p5073
S"'c:\\\\web2py\\\\applications\\\\web2py_xlchart_dashboard\\\\static\\\\images\\temp'"
p5074
sssS'traceback'
p5075
S'Traceback (most recent call last):\n  File "c:\\web2py\\gluon\\restricted.py", line 212, in restricted\n    exec ccode in environment\n  File "c:\\web2py\\applications\\web2py_xlchart_dashboard\\controllers/default.py", line 120, in <module>\n  File "c:\\web2py\\gluon\\globals.py", line 188, in <lambda>\n    self._caller = lambda f: f()\n  File "c:\\web2py\\applications\\web2py_xlchart_dashboard\\controllers/default.py", line 42, in list_workbook_charts\n    exportFolder = get_chart(wbPath)\n  File "c:\\web2py\\applications\\web2py_xlchart_dashboard\\controllers/default.py", line 61, in get_chart\n    os.makedirs(os.path.join(request.folder, \'static\\images\\temp\', timeDir))\n  File "C:\\Python27\\lib\\os.py", line 150, in makedirs\n    makedirs(head, mode)\n  File "C:\\Python27\\lib\\os.py", line 157, in makedirs\n    mkdir(name, mode)\nWindowsError: [Error 123] The filename, directory name, or volume label syntax is incorrect: \'c:\\\\web2py\\\\applications\\\\web2py_xlchart_dashboard\\\\static\\\\images\\temp\'\n'
p5076
s.