(dp1
S'output'
p2
S"<type 'exceptions.NameError'> name 'requires_https' is not defined"
p3
sS'layer'
p4
S'D:\\web2py\\source\\web2py\\applications\\web2py_xlchart_dashboard\\controllers/dashboard.py'
p5
sS'code'
p6
S'# coding: utf8\n# try something like\ndef component(text):\n    return text\n    \ndef index(): \n    return auth.wiki()\n    \n@auth.requires_login()\n@requires_https()\ndef manage_dashboard():\n    dash_data = db(db.dashboard.id_user == auth.user_id).select(db.dashboard.ALL)\n    return dict(dash_data = dash_data)\n\n@auth.requires_login()   \ndef view_dashboard():\n    dashboard = db.dashboard(request.vars[\'dbid\'])\n    sections = db(db.dashboard_section.id_dashboard == request.vars[\'dbid\']).select(db.dashboard_section.ALL)\n    return dict(sections = sections,dashboard_title = dashboard.title)\n    \ndef get_chart(id):\n    return id\n\n@auth.requires_login()    \ndef add_dashboard():\n    form = SQLFORM(db.dashboard,Fields=(\'name\',\'title\',\'description\'))\n    if form.process().accepted:\n        response.flash = "Dashboard Created"\n        redirect(URL(\'manage_dashboard\'))\n    elif form.errors:\n        response.flash = "There were errors in the form"\n    else:\n        response.flash = "Please complete the form."\n    return dict(form = form)\n\n@auth.requires_login()\ndef add_section():\n    form = SQLFORM(db.dashboard_section,Fields=(\'title\'),hidden=dict(id_dashboard=request.vars[\'dbid\']))\n    form.vars.id_dashboard = request.vars[\'dbid\']\n    if form.process().accepted:\n        response.flash = "Section Created"\n        redirect(URL(\'manage_dashboard\'))\n    elif form.errors:\n        response.flash = "There were errors in the form"\n    else:\n        response.flash = "Please complete the form."\n    return form\n\n@auth.requires_login()\ndef delete_section():\n    form = FORM.confirm(\'Yes Delete\',{"No, DON\'T Delete":URL(\'manage_dashboard\')})\n    if form.accepted:\n        response.flash = "Form Accepted"\n        db(db.dashboard_section.id == request.vars[\'sid\']).delete()\n        redirect(URL(\'manage_dashboard\'),client_side=True)\n    return form\n\n@auth.requires_login()\ndef select_charts():\n    chartlist = ""\n    for charts in db(db.user_chart.id_user == auth.user_id).select(db.user_chart.ALL):\n       \n        chartlist += str(A(IMG(_src=URL(\'download\',args=charts.id_chart.file),_class=\'select_chart\'),_href=URL(\'add_chart_to_section\',vars={\'sid\':request.vars[\'sid\'],\'cid\':charts.id_chart.id})))\n    \n    return chartlist\n\n@auth.requires_login()    \ndef add_chart_to_section():\n    sid = request.vars[\'sid\']\n    cid = request.vars[\'cid\']\n    if db.section_charts.insert(id_section = sid, chart = cid):\n        response.flash = "Chart Added to section"\n    else:\n        response.flash = "Error: Unable to add chart to section"\n    redirect(URL(\'manage_dashboard\'))\n\n@auth.requires_login()   \ndef edit_chart():\n    record = db.section_charts(request.vars[\'scid\'])\n    \n    form = SQLFORM(db.section_charts,record,Fields=(\'title\',\'description\',\'width\',\'position\'),deletable=True,hidden=dict(oldposition=record.position,sec_chart_id=request.vars[\'scid\'],id_section=request.vars[\'sid\']))\n    \n    if form.process(onvalidation=change_img_position).accepted:\n        response.flash = "Chart Updated"\n        redirect(URL(\'manage_dashboard\'),client_side=True)\n    elif form.errors:\n        response.flash = "The forms has errors"\n    else:\n       \n        response.flash = "Please complete the form"\n    return form\n\ndef change_img_position(form):\n    print request.vars[\'oldposition\'], form.vars[\'position\']\n    oldpos = int(request.vars[\'oldposition\'])\n    newpos = int(form.vars[\'position\'])\n    if request.vars[\'oldposition\'] != form.vars[\'position\']:\n        sql = "select position from section_charts where id_section = " + str(request.vars.id_section) + " and position = " + str(form.vars[\'position\'])\n        chartpos = db.executesql(sql)\n        print chartpos\n        \n        if chartpos:\n            print oldpos, newpos\n            if oldpos < newpos:\n                \n                sql = "update section_charts set position = position - 1 where id_section = " + str(request.vars.id_section) + " and position <= " + str(newpos) + " and position > " + str(oldpos)\n            else:    \n                sql = "update section_charts set position = position + 1 where id_section = " + str(request.vars.id_section) + " and position >= " + str(form.vars[\'position\'])\n            db.executesql(sql)\n    \n@auth.requires_login() \ndef delete_chart():\n    form = FORM.confirm(\'Yes Delete\',{"No, DON\'T Delete":URL(\'manage_dashboard\')})\n    if form.accepted:\n        response.flash = "Form Accepted"\n        db(db.section_charts.id == request.vars[\'sid\']).delete()\n        redirect(URL(\'manage_dashboard\'),client_side=True)\n    return form\n\n@auth.requires_login() \ndef edit_section():\n    sid = request.vars[\'sid\']\n    section = db.dashboard_section(sid)\n    form = SQLFORM(db.dashboard_section,section)\n    if form.process().accepted:\n        response.flash = "Section updated"\n        redirect(URL(\'manage_dashboard\'),client_side=True)\n    elif form.errors:\n        response.flash = "There were errors in the form"\n    else:\n        response.flash = "Use the form to edit this section"\n    return form\n               \n@auth.requires_login()        \ndef download():\n    return response.download(request, db)\n\nresponse._vars=response._caller(manage_dashboard)\n'
p7
sS'snapshot'
p8
(dp9
S'exception'
p10
(dp11
S'__hash__'
p12
S"<method-wrapper '__hash__' of exceptions.NameError object>"
p13
sS'__setattr__'
p14
S"<method-wrapper '__setattr__' of exceptions.NameError object>"
p15
sS'__reduce_ex__'
p16
S'<built-in method __reduce_ex__ of exceptions.NameError object>'
p17
sS'__getslice__'
p18
S"<method-wrapper '__getslice__' of exceptions.NameError object>"
p19
sS'__getitem__'
p20
S"<method-wrapper '__getitem__' of exceptions.NameError object>"
p21
sS'__setstate__'
p22
S'<built-in method __setstate__ of exceptions.NameError object>'
p23
sS'__reduce__'
p24
S'<built-in method __reduce__ of exceptions.NameError object>'
p25
sS'__str__'
p26
S"<method-wrapper '__str__' of exceptions.NameError object>"
p27
sS'__format__'
p28
S'<built-in method __format__ of exceptions.NameError object>'
p29
sS'__getattribute__'
p30
S"<method-wrapper '__getattribute__' of exceptions.NameError object>"
p31
sS'__class__'
p32
S"<type 'exceptions.NameError'>"
p33
sS'__unicode__'
p34
S'<built-in method __unicode__ of exceptions.NameError object>'
p35
sS'__delattr__'
p36
S"<method-wrapper '__delattr__' of exceptions.NameError object>"
p37
sS'__subclasshook__'
p38
S'<built-in method __subclasshook__ of type object>'
p39
sS'__repr__'
p40
S"<method-wrapper '__repr__' of exceptions.NameError object>"
p41
sS'args'
p42
S'("name \'requires_https\' is not defined",)'
p43
sS'__dict__'
p44
S'{}'
p45
sS'__sizeof__'
p46
S'<built-in method __sizeof__ of exceptions.NameError object>'
p47
sS'__doc__'
p48
S"'Name not found globally.'"
p49
sS'__init__'
p50
S"<method-wrapper '__init__' of exceptions.NameError object>"
p51
sS'__new__'
p52
S'<built-in method __new__ of type object>'
p53
ssS'evalue'
p54
S"name 'requires_https' is not defined"
p55
sS'request'
p56
ccopy_reg
_reconstructor
p57
(cgluon.html
BEAUTIFY
p58
c__builtin__
object
p59
NtRp60
(dp61
S'attributes'
p62
(dp63
sS'components'
p64
(lp65
g57
(cgluon.html
TABLE
p66
g59
NtRp67
(dp68
g62
(dp69
S'level'
p70
I5
ssS'parent'
p71
Nsg64
(lp72
g57
(cgluon.html
TR
p73
g59
NtRp74
(dp75
g62
(dp76
sg71
g67
sg64
(lp77
g57
(cgluon.html
TD
p78
g59
NtRp79
(dp80
g62
(dp81
S'_style'
p82
S'font-weight:bold;vertical-align:top'
p83
ssg71
g74
sg64
(lp84
S'ajax'
p85
asbag57
(g78
g59
NtRp86
(dp87
g62
(dp88
S'_valign'
p89
S'top'
p90
ssg71
g74
sg64
(lp91
S':'
asbag57
(g78
g59
NtRp92
(dp93
g62
(dp94
sg71
g74
sg64
(lp95
g57
(g58
g59
NtRp96
(dp97
g62
(dp98
g70
I5
ssg71
g92
sg64
(lp99
S'False'
p100
asbasbasbag57
(g73
g59
NtRp101
(dp102
g62
(dp103
sg71
g67
sg64
(lp104
g57
(g78
g59
NtRp105
(dp106
g62
(dp107
g82
g83
ssg71
g101
sg64
(lp108
S'application'
p109
asbag57
(g78
g59
NtRp110
(dp111
g62
(dp112
g89
g90
ssg71
g101
sg64
(lp113
S':'
asbag57
(g78
g59
NtRp114
(dp115
g62
(dp116
sg71
g101
sg64
(lp117
g57
(g58
g59
NtRp118
(dp119
g62
(dp120
g70
I5
ssg71
g114
sg64
(lp121
S'web2py_xlchart_dashboard'
p122
asbasbasbag57
(g73
g59
NtRp123
(dp124
g62
(dp125
sg71
g67
sg64
(lp126
g57
(g78
g59
NtRp127
(dp128
g62
(dp129
g82
g83
ssg71
g123
sg64
(lp130
g42
asbag57
(g78
g59
NtRp131
(dp132
g62
(dp133
g89
g90
ssg71
g123
sg64
(lp134
S':'
asbag57
(g78
g59
NtRp135
(dp136
g62
(dp137
sg71
g123
sg64
(lp138
g57
(g58
g59
NtRp139
(dp140
g62
(dp141
g70
I5
ssg71
g135
sg64
(lp142
g57
(g66
g59
NtRp143
(dp144
g62
(dp145
g70
I4
ssg71
Nsg64
(lp146
sbasbasbasbag57
(g73
g59
NtRp147
(dp148
g62
(dp149
sg71
g67
sg64
(lp150
g57
(g78
g59
NtRp151
(dp152
g62
(dp153
g82
g83
ssg71
g147
sg64
(lp154
S'body'
p155
asbag57
(g78
g59
NtRp156
(dp157
g62
(dp158
g89
g90
ssg71
g147
sg64
(lp159
S':'
asbag57
(g78
g59
NtRp160
(dp161
g62
(dp162
sg71
g147
sg64
(lp163
g57
(g58
g59
NtRp164
(dp165
g62
(dp166
g70
I5
ssg71
g160
sg64
(lp167
S'<cStringIO.StringO object at 0x05808500>'
p168
asbasbasbag57
(g73
g59
NtRp169
(dp170
g62
(dp171
sg71
g67
sg64
(lp172
g57
(g78
g59
NtRp173
(dp174
g62
(dp175
g82
g83
ssg71
g169
sg64
(lp176
S'cid'
p177
asbag57
(g78
g59
NtRp178
(dp179
g62
(dp180
g89
g90
ssg71
g169
sg64
(lp181
S':'
asbag57
(g78
g59
NtRp182
(dp183
g62
(dp184
sg71
g169
sg64
(lp185
g57
(g58
g59
NtRp186
(dp187
g62
(dp188
g70
I5
ssg71
g182
sg64
(lp189
S'None'
p190
asbasbasbag57
(g73
g59
NtRp191
(dp192
g62
(dp193
sg71
g67
sg64
(lp194
g57
(g78
g59
NtRp195
(dp196
g62
(dp197
g82
g83
ssg71
g191
sg64
(lp198
S'client'
p199
asbag57
(g78
g59
NtRp200
(dp201
g62
(dp202
g89
g90
ssg71
g191
sg64
(lp203
S':'
asbag57
(g78
g59
NtRp204
(dp205
g62
(dp206
sg71
g191
sg64
(lp207
g57
(g58
g59
NtRp208
(dp209
g62
(dp210
g70
I5
ssg71
g204
sg64
(lp211
S'127.0.0.1'
p212
asbasbasbag57
(g73
g59
NtRp213
(dp214
g62
(dp215
sg71
g67
sg64
(lp216
g57
(g78
g59
NtRp217
(dp218
g62
(dp219
g82
g83
ssg71
g213
sg64
(lp220
S'controller'
p221
asbag57
(g78
g59
NtRp222
(dp223
g62
(dp224
g89
g90
ssg71
g213
sg64
(lp225
S':'
asbag57
(g78
g59
NtRp226
(dp227
g62
(dp228
sg71
g213
sg64
(lp229
g57
(g58
g59
NtRp230
(dp231
g62
(dp232
g70
I5
ssg71
g226
sg64
(lp233
S'dashboard'
p234
asbasbasbag57
(g73
g59
NtRp235
(dp236
g62
(dp237
sg71
g67
sg64
(lp238
g57
(g78
g59
NtRp239
(dp240
g62
(dp241
g82
g83
ssg71
g235
sg64
(lp242
S'cookies'
p243
asbag57
(g78
g59
NtRp244
(dp245
g62
(dp246
g89
g90
ssg71
g235
sg64
(lp247
S':'
asbag57
(g78
g59
NtRp248
(dp249
g62
(dp250
sg71
g235
sg64
(lp251
g57
(g58
g59
NtRp252
(dp253
g62
(dp254
g70
I5
ssg71
g248
sg64
(lp255
g57
(g66
g59
NtRp256
(dp257
g62
(dp258
g70
I4
ssg71
Nsg64
(lp259
g57
(g73
g59
NtRp260
(dp261
g62
(dp262
sg71
g256
sg64
(lp263
g57
(g78
g59
NtRp264
(dp265
g62
(dp266
g82
g83
ssg71
g260
sg64
(lp267
S'session_id_admin'
p268
asbag57
(g78
g59
NtRp269
(dp270
g62
(dp271
g89
g90
ssg71
g260
sg64
(lp272
S':'
asbag57
(g78
g59
NtRp273
(dp274
g62
(dp275
sg71
g260
sg64
(lp276
g57
(g58
g59
NtRp277
(dp278
g62
(dp279
g70
I4
ssg71
g273
sg64
(lp280
S'127.0.0.1-db52ccf7-5a6b-4e20-b485-d91de466a8ba'
p281
ag57
(g66
g59
NtRp282
(dp283
g62
(dp284
g70
I3
ssg71
Nsg64
(lp285
g57
(g73
g59
NtRp286
(dp287
g62
(dp288
sg71
g282
sg64
(lp289
g57
(g78
g59
NtRp290
(dp291
g62
(dp292
g82
g83
ssg71
g286
sg64
(lp293
S'comment'
p294
asbag57
(g78
g59
NtRp295
(dp296
g62
(dp297
g89
g90
ssg71
g286
sg64
(lp298
S':'
asbag57
(g78
g59
NtRp299
(dp300
g62
(dp301
sg71
g286
sg64
(lp302
g57
(g58
g59
NtRp303
(dp304
g62
(dp305
g70
I3
ssg71
g299
sg64
(lp306
S''
asbasbasbag57
(g73
g59
NtRp307
(dp308
g62
(dp309
sg71
g282
sg64
(lp310
g57
(g78
g59
NtRp311
(dp312
g62
(dp313
g82
g83
ssg71
g307
sg64
(lp314
S'domain'
p315
asbag57
(g78
g59
NtRp316
(dp317
g62
(dp318
g89
g90
ssg71
g307
sg64
(lp319
S':'
asbag57
(g78
g59
NtRp320
(dp321
g62
(dp322
sg71
g307
sg64
(lp323
g57
(g58
g59
NtRp324
(dp325
g62
(dp326
g70
I3
ssg71
g320
sg64
(lp327
S''
asbasbasbag57
(g73
g59
NtRp328
(dp329
g62
(dp330
sg71
g282
sg64
(lp331
g57
(g78
g59
NtRp332
(dp333
g62
(dp334
g82
g83
ssg71
g328
sg64
(lp335
S'expires'
p336
asbag57
(g78
g59
NtRp337
(dp338
g62
(dp339
g89
g90
ssg71
g328
sg64
(lp340
S':'
asbag57
(g78
g59
NtRp341
(dp342
g62
(dp343
sg71
g328
sg64
(lp344
g57
(g58
g59
NtRp345
(dp346
g62
(dp347
g70
I3
ssg71
g341
sg64
(lp348
S''
asbasbasbag57
(g73
g59
NtRp349
(dp350
g62
(dp351
sg71
g282
sg64
(lp352
g57
(g78
g59
NtRp353
(dp354
g62
(dp355
g82
g83
ssg71
g349
sg64
(lp356
S'httponly'
p357
asbag57
(g78
g59
NtRp358
(dp359
g62
(dp360
g89
g90
ssg71
g349
sg64
(lp361
S':'
asbag57
(g78
g59
NtRp362
(dp363
g62
(dp364
sg71
g349
sg64
(lp365
g57
(g58
g59
NtRp366
(dp367
g62
(dp368
g70
I3
ssg71
g362
sg64
(lp369
S''
asbasbasbag57
(g73
g59
NtRp370
(dp371
g62
(dp372
sg71
g282
sg64
(lp373
g57
(g78
g59
NtRp374
(dp375
g62
(dp376
g82
g83
ssg71
g370
sg64
(lp377
S'max-age'
p378
asbag57
(g78
g59
NtRp379
(dp380
g62
(dp381
g89
g90
ssg71
g370
sg64
(lp382
S':'
asbag57
(g78
g59
NtRp383
(dp384
g62
(dp385
sg71
g370
sg64
(lp386
g57
(g58
g59
NtRp387
(dp388
g62
(dp389
g70
I3
ssg71
g383
sg64
(lp390
S''
asbasbasbag57
(g73
g59
NtRp391
(dp392
g62
(dp393
sg71
g282
sg64
(lp394
g57
(g78
g59
NtRp395
(dp396
g62
(dp397
g82
g83
ssg71
g391
sg64
(lp398
S'path'
p399
asbag57
(g78
g59
NtRp400
(dp401
g62
(dp402
g89
g90
ssg71
g391
sg64
(lp403
S':'
asbag57
(g78
g59
NtRp404
(dp405
g62
(dp406
sg71
g391
sg64
(lp407
g57
(g58
g59
NtRp408
(dp409
g62
(dp410
g70
I3
ssg71
g404
sg64
(lp411
S''
asbasbasbag57
(g73
g59
NtRp412
(dp413
g62
(dp414
sg71
g282
sg64
(lp415
g57
(g78
g59
NtRp416
(dp417
g62
(dp418
g82
g83
ssg71
g412
sg64
(lp419
S'secure'
p420
asbag57
(g78
g59
NtRp421
(dp422
g62
(dp423
g89
g90
ssg71
g412
sg64
(lp424
S':'
asbag57
(g78
g59
NtRp425
(dp426
g62
(dp427
sg71
g412
sg64
(lp428
g57
(g58
g59
NtRp429
(dp430
g62
(dp431
g70
I3
ssg71
g425
sg64
(lp432
S''
asbasbasbag57
(g73
g59
NtRp433
(dp434
g62
(dp435
sg71
g282
sg64
(lp436
g57
(g78
g59
NtRp437
(dp438
g62
(dp439
g82
g83
ssg71
g433
sg64
(lp440
S'version'
p441
asbag57
(g78
g59
NtRp442
(dp443
g62
(dp444
g89
g90
ssg71
g433
sg64
(lp445
S':'
asbag57
(g78
g59
NtRp446
(dp447
g62
(dp448
sg71
g433
sg64
(lp449
g57
(g58
g59
NtRp450
(dp451
g62
(dp452
g70
I3
ssg71
g446
sg64
(lp453
S''
asbasbasbasbasbasbasbag57
(g73
g59
NtRp454
(dp455
g62
(dp456
sg71
g256
sg64
(lp457
g57
(g78
g59
NtRp458
(dp459
g62
(dp460
g82
g83
ssg71
g454
sg64
(lp461
S'session_id_web2py_xlchart_dashboard'
p462
asbag57
(g78
g59
NtRp463
(dp464
g62
(dp465
g89
g90
ssg71
g454
sg64
(lp466
S':'
asbag57
(g78
g59
NtRp467
(dp468
g62
(dp469
sg71
g454
sg64
(lp470
g57
(g58
g59
NtRp471
(dp472
g62
(dp473
g70
I4
ssg71
g467
sg64
(lp474
S'127.0.0.1-fd56ccaf-e933-4e68-a9a7-c4c9f1a23405'
p475
ag57
(g66
g59
NtRp476
(dp477
g62
(dp478
g70
I3
ssg71
Nsg64
(lp479
g57
(g73
g59
NtRp480
(dp481
g62
(dp482
sg71
g476
sg64
(lp483
g57
(g78
g59
NtRp484
(dp485
g62
(dp486
g82
g83
ssg71
g480
sg64
(lp487
g294
asbag57
(g78
g59
NtRp488
(dp489
g62
(dp490
g89
g90
ssg71
g480
sg64
(lp491
S':'
asbag57
(g78
g59
NtRp492
(dp493
g62
(dp494
sg71
g480
sg64
(lp495
g57
(g58
g59
NtRp496
(dp497
g62
(dp498
g70
I3
ssg71
g492
sg64
(lp499
S''
asbasbasbag57
(g73
g59
NtRp500
(dp501
g62
(dp502
sg71
g476
sg64
(lp503
g57
(g78
g59
NtRp504
(dp505
g62
(dp506
g82
g83
ssg71
g500
sg64
(lp507
g315
asbag57
(g78
g59
NtRp508
(dp509
g62
(dp510
g89
g90
ssg71
g500
sg64
(lp511
S':'
asbag57
(g78
g59
NtRp512
(dp513
g62
(dp514
sg71
g500
sg64
(lp515
g57
(g58
g59
NtRp516
(dp517
g62
(dp518
g70
I3
ssg71
g512
sg64
(lp519
S''
asbasbasbag57
(g73
g59
NtRp520
(dp521
g62
(dp522
sg71
g476
sg64
(lp523
g57
(g78
g59
NtRp524
(dp525
g62
(dp526
g82
g83
ssg71
g520
sg64
(lp527
g336
asbag57
(g78
g59
NtRp528
(dp529
g62
(dp530
g89
g90
ssg71
g520
sg64
(lp531
S':'
asbag57
(g78
g59
NtRp532
(dp533
g62
(dp534
sg71
g520
sg64
(lp535
g57
(g58
g59
NtRp536
(dp537
g62
(dp538
g70
I3
ssg71
g532
sg64
(lp539
S''
asbasbasbag57
(g73
g59
NtRp540
(dp541
g62
(dp542
sg71
g476
sg64
(lp543
g57
(g78
g59
NtRp544
(dp545
g62
(dp546
g82
g83
ssg71
g540
sg64
(lp547
g357
asbag57
(g78
g59
NtRp548
(dp549
g62
(dp550
g89
g90
ssg71
g540
sg64
(lp551
S':'
asbag57
(g78
g59
NtRp552
(dp553
g62
(dp554
sg71
g540
sg64
(lp555
g57
(g58
g59
NtRp556
(dp557
g62
(dp558
g70
I3
ssg71
g552
sg64
(lp559
S''
asbasbasbag57
(g73
g59
NtRp560
(dp561
g62
(dp562
sg71
g476
sg64
(lp563
g57
(g78
g59
NtRp564
(dp565
g62
(dp566
g82
g83
ssg71
g560
sg64
(lp567
g378
asbag57
(g78
g59
NtRp568
(dp569
g62
(dp570
g89
g90
ssg71
g560
sg64
(lp571
S':'
asbag57
(g78
g59
NtRp572
(dp573
g62
(dp574
sg71
g560
sg64
(lp575
g57
(g58
g59
NtRp576
(dp577
g62
(dp578
g70
I3
ssg71
g572
sg64
(lp579
S''
asbasbasbag57
(g73
g59
NtRp580
(dp581
g62
(dp582
sg71
g476
sg64
(lp583
g57
(g78
g59
NtRp584
(dp585
g62
(dp586
g82
g83
ssg71
g580
sg64
(lp587
g399
asbag57
(g78
g59
NtRp588
(dp589
g62
(dp590
g89
g90
ssg71
g580
sg64
(lp591
S':'
asbag57
(g78
g59
NtRp592
(dp593
g62
(dp594
sg71
g580
sg64
(lp595
g57
(g58
g59
NtRp596
(dp597
g62
(dp598
g70
I3
ssg71
g592
sg64
(lp599
S''
asbasbasbag57
(g73
g59
NtRp600
(dp601
g62
(dp602
sg71
g476
sg64
(lp603
g57
(g78
g59
NtRp604
(dp605
g62
(dp606
g82
g83
ssg71
g600
sg64
(lp607
g420
asbag57
(g78
g59
NtRp608
(dp609
g62
(dp610
g89
g90
ssg71
g600
sg64
(lp611
S':'
asbag57
(g78
g59
NtRp612
(dp613
g62
(dp614
sg71
g600
sg64
(lp615
g57
(g58
g59
NtRp616
(dp617
g62
(dp618
g70
I3
ssg71
g612
sg64
(lp619
S''
asbasbasbag57
(g73
g59
NtRp620
(dp621
g62
(dp622
sg71
g476
sg64
(lp623
g57
(g78
g59
NtRp624
(dp625
g62
(dp626
g82
g83
ssg71
g620
sg64
(lp627
g441
asbag57
(g78
g59
NtRp628
(dp629
g62
(dp630
g89
g90
ssg71
g620
sg64
(lp631
S':'
asbag57
(g78
g59
NtRp632
(dp633
g62
(dp634
sg71
g620
sg64
(lp635
g57
(g58
g59
NtRp636
(dp637
g62
(dp638
g70
I3
ssg71
g632
sg64
(lp639
S''
asbasbasbasbasbasbasbasbasbasbasbag57
(g73
g59
NtRp640
(dp641
g62
(dp642
sg71
g67
sg64
(lp643
g57
(g78
g59
NtRp644
(dp645
g62
(dp646
g82
g83
ssg71
g640
sg64
(lp647
S'env'
p648
asbag57
(g78
g59
NtRp649
(dp650
g62
(dp651
g89
g90
ssg71
g640
sg64
(lp652
S':'
asbag57
(g78
g59
NtRp653
(dp654
g62
(dp655
sg71
g640
sg64
(lp656
g57
(g58
g59
NtRp657
(dp658
g62
(dp659
g70
I5
ssg71
g653
sg64
(lp660
g57
(g66
g59
NtRp661
(dp662
g62
(dp663
g70
I4
ssg71
Nsg64
(lp664
g57
(g73
g59
NtRp665
(dp666
g62
(dp667
sg71
g661
sg64
(lp668
g57
(g78
g59
NtRp669
(dp670
g62
(dp671
g82
g83
ssg71
g665
sg64
(lp672
S'app_folders'
p673
asbag57
(g78
g59
NtRp674
(dp675
g62
(dp676
g89
g90
ssg71
g665
sg64
(lp677
S':'
asbag57
(g78
g59
NtRp678
(dp679
g62
(dp680
sg71
g665
sg64
(lp681
g57
(g58
g59
NtRp682
(dp683
g62
(dp684
g70
I4
ssg71
g678
sg64
(lp685
S"set(['D:\\\\web2py\\\\source\\\\web2py\\\\applications\\\\admin\\\\', 'D:\\\\web2py\\\\source\\\\web2py\\\\applications\\\\web2py_xlchart_dashboard\\\\'])"
p686
asbasbasbag57
(g73
g59
NtRp687
(dp688
g62
(dp689
sg71
g661
sg64
(lp690
g57
(g78
g59
NtRp691
(dp692
g62
(dp693
g82
g83
ssg71
g687
sg64
(lp694
S'applications_parent'
p695
asbag57
(g78
g59
NtRp696
(dp697
g62
(dp698
g89
g90
ssg71
g687
sg64
(lp699
S':'
asbag57
(g78
g59
NtRp700
(dp701
g62
(dp702
sg71
g687
sg64
(lp703
g57
(g58
g59
NtRp704
(dp705
g62
(dp706
g70
I4
ssg71
g700
sg64
(lp707
S'D:\\web2py\\source\\web2py'
p708
asbasbasbag57
(g73
g59
NtRp709
(dp710
g62
(dp711
sg71
g661
sg64
(lp712
g57
(g78
g59
NtRp713
(dp714
g62
(dp715
g82
g83
ssg71
g709
sg64
(lp716
S'cmd_args'
p717
asbag57
(g78
g59
NtRp718
(dp719
g62
(dp720
g89
g90
ssg71
g709
sg64
(lp721
S':'
asbag57
(g78
g59
NtRp722
(dp723
g62
(dp724
sg71
g709
sg64
(lp725
g57
(g58
g59
NtRp726
(dp727
g62
(dp728
g70
I4
ssg71
g722
sg64
(lp729
g57
(g66
g59
NtRp730
(dp731
g62
(dp732
g70
I3
ssg71
Nsg64
(lp733
sbasbasbasbag57
(g73
g59
NtRp734
(dp735
g62
(dp736
sg71
g661
sg64
(lp737
g57
(g78
g59
NtRp738
(dp739
g62
(dp740
g82
g83
ssg71
g734
sg64
(lp741
S'cmd_options'
p742
asbag57
(g78
g59
NtRp743
(dp744
g62
(dp745
g89
g90
ssg71
g734
sg64
(lp746
S':'
asbag57
(g78
g59
NtRp747
(dp748
g62
(dp749
sg71
g734
sg64
(lp750
g57
(g58
g59
NtRp751
(dp752
g62
(dp753
g70
I4
ssg71
g747
sg64
(lp754
S"<Values at 0xc7b788: {'verbose': False, 'ip': '127.0.0.1', 'with_scheduler': False, 'ips': [], 'shutdown_timeout': 5, 'taskbar': False, 'port': 8000, 'maxthreads': None, 'softcron': False, 'server_name': 'GLKLAG235327', 'bpython': False, 'nogui': False, 'pid_filename': 'httpserver.pid', 'extcron': False, 'runcron': False, 'run_system_tests': False, 'test': None, 'folder': 'D:\\\\web2py\\\\source\\\\web2py', 'config': '', 'import_models': False, 'winservice': '', 'shell': None, 'run': '', 'log_filename': 'httpserver.log', 'debuglevel': 30, 'args': [''], 'socket_timeout': 5, 'ssl_ca_certificate': None, 'scheduler': None, 'profiler_filename': None, 'ssl_private_key': '', 'scheduler_groups': None, 'password': '<ask>', 'request_queue_size': 5, 'ssl_certificate': '', 'cronjob': False, 'numthreads': None, 'quiet': False, 'interfaces': None, 'minthreads': None, 'timeout': 10, 'plain': False, 'nobanner': False}>"
p755
asbasbasbag57
(g73
g59
NtRp756
(dp757
g62
(dp758
sg71
g661
sg64
(lp759
g57
(g78
g59
NtRp760
(dp761
g62
(dp762
g82
g83
ssg71
g756
sg64
(lp763
S'db_sessions'
p764
asbag57
(g78
g59
NtRp765
(dp766
g62
(dp767
g89
g90
ssg71
g756
sg64
(lp768
S':'
asbag57
(g78
g59
NtRp769
(dp770
g62
(dp771
sg71
g756
sg64
(lp772
g57
(g58
g59
NtRp773
(dp774
g62
(dp775
g70
I4
ssg71
g769
sg64
(lp776
S'set([])'
p777
asbasbasbag57
(g73
g59
NtRp778
(dp779
g62
(dp780
sg71
g661
sg64
(lp781
g57
(g78
g59
NtRp782
(dp783
g62
(dp784
g82
g83
ssg71
g778
sg64
(lp785
S'debugging'
p786
asbag57
(g78
g59
NtRp787
(dp788
g62
(dp789
g89
g90
ssg71
g778
sg64
(lp790
S':'
asbag57
(g78
g59
NtRp791
(dp792
g62
(dp793
sg71
g778
sg64
(lp794
g57
(g58
g59
NtRp795
(dp796
g62
(dp797
g70
I4
ssg71
g791
sg64
(lp798
g100
asbasbasbag57
(g73
g59
NtRp799
(dp800
g62
(dp801
sg71
g661
sg64
(lp802
g57
(g78
g59
NtRp803
(dp804
g62
(dp805
g82
g83
ssg71
g799
sg64
(lp806
S'gluon_parent'
p807
asbag57
(g78
g59
NtRp808
(dp809
g62
(dp810
g89
g90
ssg71
g799
sg64
(lp811
S':'
asbag57
(g78
g59
NtRp812
(dp813
g62
(dp814
sg71
g799
sg64
(lp815
g57
(g58
g59
NtRp816
(dp817
g62
(dp818
g70
I4
ssg71
g812
sg64
(lp819
S'D:\\web2py\\source\\web2py'
p820
asbasbasbag57
(g73
g59
NtRp821
(dp822
g62
(dp823
sg71
g661
sg64
(lp824
g57
(g78
g59
NtRp825
(dp826
g62
(dp827
g82
g83
ssg71
g821
sg64
(lp828
S'http_accept'
p829
asbag57
(g78
g59
NtRp830
(dp831
g62
(dp832
g89
g90
ssg71
g821
sg64
(lp833
S':'
asbag57
(g78
g59
NtRp834
(dp835
g62
(dp836
sg71
g821
sg64
(lp837
g57
(g58
g59
NtRp838
(dp839
g62
(dp840
g70
I4
ssg71
g834
sg64
(lp841
S'image/gif, image/jpeg, image/pjpeg, image/pjpeg, application/x-shockwave-flash, application/x-ms-application, application/x-ms-xbap, application/vnd.ms-xpsdocument, application/xaml+xml, application/vnd.ms-excel, application/vnd.ms-powerpoint, application/msword, */*'
p842
asbasbasbag57
(g73
g59
NtRp843
(dp844
g62
(dp845
sg71
g661
sg64
(lp846
g57
(g78
g59
NtRp847
(dp848
g62
(dp849
g82
g83
ssg71
g843
sg64
(lp850
S'http_accept_encoding'
p851
asbag57
(g78
g59
NtRp852
(dp853
g62
(dp854
g89
g90
ssg71
g843
sg64
(lp855
S':'
asbag57
(g78
g59
NtRp856
(dp857
g62
(dp858
sg71
g843
sg64
(lp859
g57
(g58
g59
NtRp860
(dp861
g62
(dp862
g70
I4
ssg71
g856
sg64
(lp863
S'gzip, deflate'
p864
asbasbasbag57
(g73
g59
NtRp865
(dp866
g62
(dp867
sg71
g661
sg64
(lp868
g57
(g78
g59
NtRp869
(dp870
g62
(dp871
g82
g83
ssg71
g865
sg64
(lp872
S'http_accept_language'
p873
asbag57
(g78
g59
NtRp874
(dp875
g62
(dp876
g89
g90
ssg71
g865
sg64
(lp877
S':'
asbag57
(g78
g59
NtRp878
(dp879
g62
(dp880
sg71
g865
sg64
(lp881
g57
(g58
g59
NtRp882
(dp883
g62
(dp884
g70
I4
ssg71
g878
sg64
(lp885
S'en-gb'
p886
asbasbasbag57
(g73
g59
NtRp887
(dp888
g62
(dp889
sg71
g661
sg64
(lp890
g57
(g78
g59
NtRp891
(dp892
g62
(dp893
g82
g83
ssg71
g887
sg64
(lp894
S'http_connection'
p895
asbag57
(g78
g59
NtRp896
(dp897
g62
(dp898
g89
g90
ssg71
g887
sg64
(lp899
S':'
asbag57
(g78
g59
NtRp900
(dp901
g62
(dp902
sg71
g887
sg64
(lp903
g57
(g58
g59
NtRp904
(dp905
g62
(dp906
g70
I4
ssg71
g900
sg64
(lp907
S'Keep-Alive'
p908
asbasbasbag57
(g73
g59
NtRp909
(dp910
g62
(dp911
sg71
g661
sg64
(lp912
g57
(g78
g59
NtRp913
(dp914
g62
(dp915
g82
g83
ssg71
g909
sg64
(lp916
S'http_cookie'
p917
asbag57
(g78
g59
NtRp918
(dp919
g62
(dp920
g89
g90
ssg71
g909
sg64
(lp921
S':'
asbag57
(g78
g59
NtRp922
(dp923
g62
(dp924
sg71
g909
sg64
(lp925
g57
(g58
g59
NtRp926
(dp927
g62
(dp928
g70
I4
ssg71
g922
sg64
(lp929
S'session_id_web2py_xlchart_dashboard=127.0.0.1-fd56ccaf-e933-4e68-a9a7-c4c9f1a23405; session_id_admin=127.0.0.1-db52ccf7-5a6b-4e20-b485-d91de466a8ba'
p930
asbasbasbag57
(g73
g59
NtRp931
(dp932
g62
(dp933
sg71
g661
sg64
(lp934
g57
(g78
g59
NtRp935
(dp936
g62
(dp937
g82
g83
ssg71
g931
sg64
(lp938
S'http_host'
p939
asbag57
(g78
g59
NtRp940
(dp941
g62
(dp942
g89
g90
ssg71
g931
sg64
(lp943
S':'
asbag57
(g78
g59
NtRp944
(dp945
g62
(dp946
sg71
g931
sg64
(lp947
g57
(g58
g59
NtRp948
(dp949
g62
(dp950
g70
I4
ssg71
g944
sg64
(lp951
S'127.0.0.1:8000'
p952
asbasbasbag57
(g73
g59
NtRp953
(dp954
g62
(dp955
sg71
g661
sg64
(lp956
g57
(g78
g59
NtRp957
(dp958
g62
(dp959
g82
g83
ssg71
g953
sg64
(lp960
S'http_referer'
p961
asbag57
(g78
g59
NtRp962
(dp963
g62
(dp964
g89
g90
ssg71
g953
sg64
(lp965
S':'
asbag57
(g78
g59
NtRp966
(dp967
g62
(dp968
sg71
g953
sg64
(lp969
g57
(g58
g59
NtRp970
(dp971
g62
(dp972
g70
I4
ssg71
g966
sg64
(lp973
S'http://127.0.0.1:8000/admin/default/edit/web2py_xlchart_dashboard/controllers/dashboard.py?id=controllers__dashboard__py'
p974
asbasbasbag57
(g73
g59
NtRp975
(dp976
g62
(dp977
sg71
g661
sg64
(lp978
g57
(g78
g59
NtRp979
(dp980
g62
(dp981
g82
g83
ssg71
g975
sg64
(lp982
S'http_user_agent'
p983
asbag57
(g78
g59
NtRp984
(dp985
g62
(dp986
g89
g90
ssg71
g975
sg64
(lp987
S':'
asbag57
(g78
g59
NtRp988
(dp989
g62
(dp990
sg71
g975
sg64
(lp991
g57
(g58
g59
NtRp992
(dp993
g62
(dp994
g70
I4
ssg71
g988
sg64
(lp995
S'Mozilla/4.0 (compatible; MSIE 8.0; Windows NT 5.1; Trident/4.0; .NET CLR 1.1.4322; .NET CLR 2.0.50727; .NET CLR 3.0.4506.2152; .NET CLR 3.5.30729; .NET4.0C; .NET4.0E; InfoPath.3)'
p996
asbasbasbag57
(g73
g59
NtRp997
(dp998
g62
(dp999
sg71
g661
sg64
(lp1000
g57
(g78
g59
NtRp1001
(dp1002
g62
(dp1003
g82
g83
ssg71
g997
sg64
(lp1004
S'is_jython'
p1005
asbag57
(g78
g59
NtRp1006
(dp1007
g62
(dp1008
g89
g90
ssg71
g997
sg64
(lp1009
S':'
asbag57
(g78
g59
NtRp1010
(dp1011
g62
(dp1012
sg71
g997
sg64
(lp1013
g57
(g58
g59
NtRp1014
(dp1015
g62
(dp1016
g70
I4
ssg71
g1010
sg64
(lp1017
g100
asbasbasbag57
(g73
g59
NtRp1018
(dp1019
g62
(dp1020
sg71
g661
sg64
(lp1021
g57
(g78
g59
NtRp1022
(dp1023
g62
(dp1024
g82
g83
ssg71
g1018
sg64
(lp1025
S'is_pypy'
p1026
asbag57
(g78
g59
NtRp1027
(dp1028
g62
(dp1029
g89
g90
ssg71
g1018
sg64
(lp1030
S':'
asbag57
(g78
g59
NtRp1031
(dp1032
g62
(dp1033
sg71
g1018
sg64
(lp1034
g57
(g58
g59
NtRp1035
(dp1036
g62
(dp1037
g70
I4
ssg71
g1031
sg64
(lp1038
g100
asbasbasbag57
(g73
g59
NtRp1039
(dp1040
g62
(dp1041
sg71
g661
sg64
(lp1042
g57
(g78
g59
NtRp1043
(dp1044
g62
(dp1045
g82
g83
ssg71
g1039
sg64
(lp1046
S'local_hosts'
p1047
asbag57
(g78
g59
NtRp1048
(dp1049
g62
(dp1050
g89
g90
ssg71
g1039
sg64
(lp1051
S':'
asbag57
(g78
g59
NtRp1052
(dp1053
g62
(dp1054
sg71
g1039
sg64
(lp1055
g57
(g58
g59
NtRp1056
(dp1057
g62
(dp1058
g70
I4
ssg71
g1052
sg64
(lp1059
g57
(g66
g59
NtRp1060
(dp1061
g62
(dp1062
g70
I3
ssg71
Nsg64
(lp1063
g57
(g73
g59
NtRp1064
(dp1065
g62
(dp1066
sg71
g1060
sg64
(lp1067
g57
(g78
g59
NtRp1068
(dp1069
g62
(dp1070
sg71
g1064
sg64
(lp1071
g57
(g58
g59
NtRp1072
(dp1073
g62
(dp1074
g70
I3
ssg71
g1068
sg64
(lp1075
S'127.0.0.1'
p1076
asbasbasbag57
(g73
g59
NtRp1077
(dp1078
g62
(dp1079
sg71
g1060
sg64
(lp1080
g57
(g78
g59
NtRp1081
(dp1082
g62
(dp1083
sg71
g1077
sg64
(lp1084
g57
(g58
g59
NtRp1085
(dp1086
g62
(dp1087
g70
I3
ssg71
g1081
sg64
(lp1088
S'::ffff:127.0.0.1'
p1089
asbasbasbag57
(g73
g59
NtRp1090
(dp1091
g62
(dp1092
sg71
g1060
sg64
(lp1093
g57
(g78
g59
NtRp1094
(dp1095
g62
(dp1096
sg71
g1090
sg64
(lp1097
g57
(g58
g59
NtRp1098
(dp1099
g62
(dp1100
g70
I3
ssg71
g1094
sg64
(lp1101
S'GLKLAG235327'
p1102
asbasbasbag57
(g73
g59
NtRp1103
(dp1104
g62
(dp1105
sg71
g1060
sg64
(lp1106
g57
(g78
g59
NtRp1107
(dp1108
g62
(dp1109
sg71
g1103
sg64
(lp1110
g57
(g58
g59
NtRp1111
(dp1112
g62
(dp1113
g70
I3
ssg71
g1107
sg64
(lp1114
S'GLKLAG235327'
p1115
asbasbasbag57
(g73
g59
NtRp1116
(dp1117
g62
(dp1118
sg71
g1060
sg64
(lp1119
g57
(g78
g59
NtRp1120
(dp1121
g62
(dp1122
sg71
g1116
sg64
(lp1123
g57
(g58
g59
NtRp1124
(dp1125
g62
(dp1126
g70
I3
ssg71
g1120
sg64
(lp1127
S'127.0.0.1'
p1128
asbasbasbasbasbasbasbag57
(g73
g59
NtRp1129
(dp1130
g62
(dp1131
sg71
g661
sg64
(lp1132
g57
(g78
g59
NtRp1133
(dp1134
g62
(dp1135
g82
g83
ssg71
g1129
sg64
(lp1136
S'path_info'
p1137
asbag57
(g78
g59
NtRp1138
(dp1139
g62
(dp1140
g89
g90
ssg71
g1129
sg64
(lp1141
S':'
asbag57
(g78
g59
NtRp1142
(dp1143
g62
(dp1144
sg71
g1129
sg64
(lp1145
g57
(g58
g59
NtRp1146
(dp1147
g62
(dp1148
g70
I4
ssg71
g1142
sg64
(lp1149
S'/web2py_xlchart_dashboard/dashboard/manage_dashboard'
p1150
asbasbasbag57
(g73
g59
NtRp1151
(dp1152
g62
(dp1153
sg71
g661
sg64
(lp1154
g57
(g78
g59
NtRp1155
(dp1156
g62
(dp1157
g82
g83
ssg71
g1151
sg64
(lp1158
S'query_string'
p1159
asbag57
(g78
g59
NtRp1160
(dp1161
g62
(dp1162
g89
g90
ssg71
g1151
sg64
(lp1163
S':'
asbag57
(g78
g59
NtRp1164
(dp1165
g62
(dp1166
sg71
g1151
sg64
(lp1167
g57
(g58
g59
NtRp1168
(dp1169
g62
(dp1170
g70
I4
ssg71
g1164
sg64
(lp1171
S''
asbasbasbag57
(g73
g59
NtRp1172
(dp1173
g62
(dp1174
sg71
g661
sg64
(lp1175
g57
(g78
g59
NtRp1176
(dp1177
g62
(dp1178
g82
g83
ssg71
g1172
sg64
(lp1179
S'remote_addr'
p1180
asbag57
(g78
g59
NtRp1181
(dp1182
g62
(dp1183
g89
g90
ssg71
g1172
sg64
(lp1184
S':'
asbag57
(g78
g59
NtRp1185
(dp1186
g62
(dp1187
sg71
g1172
sg64
(lp1188
g57
(g58
g59
NtRp1189
(dp1190
g62
(dp1191
g70
I4
ssg71
g1185
sg64
(lp1192
g212
asbasbasbag57
(g73
g59
NtRp1193
(dp1194
g62
(dp1195
sg71
g661
sg64
(lp1196
g57
(g78
g59
NtRp1197
(dp1198
g62
(dp1199
g82
g83
ssg71
g1193
sg64
(lp1200
S'remote_port'
p1201
asbag57
(g78
g59
NtRp1202
(dp1203
g62
(dp1204
g89
g90
ssg71
g1193
sg64
(lp1205
S':'
asbag57
(g78
g59
NtRp1206
(dp1207
g62
(dp1208
sg71
g1193
sg64
(lp1209
g57
(g58
g59
NtRp1210
(dp1211
g62
(dp1212
g70
I4
ssg71
g1206
sg64
(lp1213
S'2913'
p1214
asbasbasbag57
(g73
g59
NtRp1215
(dp1216
g62
(dp1217
sg71
g661
sg64
(lp1218
g57
(g78
g59
NtRp1219
(dp1220
g62
(dp1221
g82
g83
ssg71
g1215
sg64
(lp1222
S'request_method'
p1223
asbag57
(g78
g59
NtRp1224
(dp1225
g62
(dp1226
g89
g90
ssg71
g1215
sg64
(lp1227
S':'
asbag57
(g78
g59
NtRp1228
(dp1229
g62
(dp1230
sg71
g1215
sg64
(lp1231
g57
(g58
g59
NtRp1232
(dp1233
g62
(dp1234
g70
I4
ssg71
g1228
sg64
(lp1235
S'GET'
p1236
asbasbasbag57
(g73
g59
NtRp1237
(dp1238
g62
(dp1239
sg71
g661
sg64
(lp1240
g57
(g78
g59
NtRp1241
(dp1242
g62
(dp1243
g82
g83
ssg71
g1237
sg64
(lp1244
S'request_uri'
p1245
asbag57
(g78
g59
NtRp1246
(dp1247
g62
(dp1248
g89
g90
ssg71
g1237
sg64
(lp1249
S':'
asbag57
(g78
g59
NtRp1250
(dp1251
g62
(dp1252
sg71
g1237
sg64
(lp1253
g57
(g58
g59
NtRp1254
(dp1255
g62
(dp1256
g70
I4
ssg71
g1250
sg64
(lp1257
g1150
asbasbasbag57
(g73
g59
NtRp1258
(dp1259
g62
(dp1260
sg71
g661
sg64
(lp1261
g57
(g78
g59
NtRp1262
(dp1263
g62
(dp1264
g82
g83
ssg71
g1258
sg64
(lp1265
S'script_name'
p1266
asbag57
(g78
g59
NtRp1267
(dp1268
g62
(dp1269
g89
g90
ssg71
g1258
sg64
(lp1270
S':'
asbag57
(g78
g59
NtRp1271
(dp1272
g62
(dp1273
sg71
g1258
sg64
(lp1274
g57
(g58
g59
NtRp1275
(dp1276
g62
(dp1277
g70
I4
ssg71
g1271
sg64
(lp1278
S''
asbasbasbag57
(g73
g59
NtRp1279
(dp1280
g62
(dp1281
sg71
g661
sg64
(lp1282
g57
(g78
g59
NtRp1283
(dp1284
g62
(dp1285
g82
g83
ssg71
g1279
sg64
(lp1286
S'server_name'
p1287
asbag57
(g78
g59
NtRp1288
(dp1289
g62
(dp1290
g89
g90
ssg71
g1279
sg64
(lp1291
S':'
asbag57
(g78
g59
NtRp1292
(dp1293
g62
(dp1294
sg71
g1279
sg64
(lp1295
g57
(g58
g59
NtRp1296
(dp1297
g62
(dp1298
g70
I4
ssg71
g1292
sg64
(lp1299
g1115
asbasbasbag57
(g73
g59
NtRp1300
(dp1301
g62
(dp1302
sg71
g661
sg64
(lp1303
g57
(g78
g59
NtRp1304
(dp1305
g62
(dp1306
g82
g83
ssg71
g1300
sg64
(lp1307
S'server_port'
p1308
asbag57
(g78
g59
NtRp1309
(dp1310
g62
(dp1311
g89
g90
ssg71
g1300
sg64
(lp1312
S':'
asbag57
(g78
g59
NtRp1313
(dp1314
g62
(dp1315
sg71
g1300
sg64
(lp1316
g57
(g58
g59
NtRp1317
(dp1318
g62
(dp1319
g70
I4
ssg71
g1313
sg64
(lp1320
S'8000'
p1321
asbasbasbag57
(g73
g59
NtRp1322
(dp1323
g62
(dp1324
sg71
g661
sg64
(lp1325
g57
(g78
g59
NtRp1326
(dp1327
g62
(dp1328
g82
g83
ssg71
g1322
sg64
(lp1329
S'server_protocol'
p1330
asbag57
(g78
g59
NtRp1331
(dp1332
g62
(dp1333
g89
g90
ssg71
g1322
sg64
(lp1334
S':'
asbag57
(g78
g59
NtRp1335
(dp1336
g62
(dp1337
sg71
g1322
sg64
(lp1338
g57
(g58
g59
NtRp1339
(dp1340
g62
(dp1341
g70
I4
ssg71
g1335
sg64
(lp1342
S'HTTP/1.1'
p1343
asbasbasbag57
(g73
g59
NtRp1344
(dp1345
g62
(dp1346
sg71
g661
sg64
(lp1347
g57
(g78
g59
NtRp1348
(dp1349
g62
(dp1350
g82
g83
ssg71
g1344
sg64
(lp1351
S'server_software'
p1352
asbag57
(g78
g59
NtRp1353
(dp1354
g62
(dp1355
g89
g90
ssg71
g1344
sg64
(lp1356
S':'
asbag57
(g78
g59
NtRp1357
(dp1358
g62
(dp1359
sg71
g1344
sg64
(lp1360
g57
(g58
g59
NtRp1361
(dp1362
g62
(dp1363
g70
I4
ssg71
g1357
sg64
(lp1364
S'Rocket 1.2.5'
p1365
asbasbasbag57
(g73
g59
NtRp1366
(dp1367
g62
(dp1368
sg71
g661
sg64
(lp1369
g57
(g78
g59
NtRp1370
(dp1371
g62
(dp1372
g82
g83
ssg71
g1366
sg64
(lp1373
S'web2py_original_uri'
p1374
asbag57
(g78
g59
NtRp1375
(dp1376
g62
(dp1377
g89
g90
ssg71
g1366
sg64
(lp1378
S':'
asbag57
(g78
g59
NtRp1379
(dp1380
g62
(dp1381
sg71
g1366
sg64
(lp1382
g57
(g58
g59
NtRp1383
(dp1384
g62
(dp1385
g70
I4
ssg71
g1379
sg64
(lp1386
S'/web2py_xlchart_dashboard/dashboard/manage_dashboard'
p1387
asbasbasbag57
(g73
g59
NtRp1388
(dp1389
g62
(dp1390
sg71
g661
sg64
(lp1391
g57
(g78
g59
NtRp1392
(dp1393
g62
(dp1394
g82
g83
ssg71
g1388
sg64
(lp1395
S'web2py_path'
p1396
asbag57
(g78
g59
NtRp1397
(dp1398
g62
(dp1399
g89
g90
ssg71
g1388
sg64
(lp1400
S':'
asbag57
(g78
g59
NtRp1401
(dp1402
g62
(dp1403
sg71
g1388
sg64
(lp1404
g57
(g58
g59
NtRp1405
(dp1406
g62
(dp1407
g70
I4
ssg71
g1401
sg64
(lp1408
g708
asbasbasbag57
(g73
g59
NtRp1409
(dp1410
g62
(dp1411
sg71
g661
sg64
(lp1412
g57
(g78
g59
NtRp1413
(dp1414
g62
(dp1415
g82
g83
ssg71
g1409
sg64
(lp1416
S'web2py_version'
p1417
asbag57
(g78
g59
NtRp1418
(dp1419
g62
(dp1420
g89
g90
ssg71
g1409
sg64
(lp1421
S':'
asbag57
(g78
g59
NtRp1422
(dp1423
g62
(dp1424
sg71
g1409
sg64
(lp1425
g57
(g58
g59
NtRp1426
(dp1427
g62
(dp1428
g70
I4
ssg71
g1422
sg64
(lp1429
g57
(g66
g59
NtRp1430
(dp1431
g62
(dp1432
g70
I3
ssg71
Nsg64
(lp1433
g57
(g73
g59
NtRp1434
(dp1435
g62
(dp1436
sg71
g1430
sg64
(lp1437
g57
(g78
g59
NtRp1438
(dp1439
g62
(dp1440
sg71
g1434
sg64
(lp1441
g57
(g58
g59
NtRp1442
(dp1443
g62
(dp1444
g70
I3
ssg71
g1438
sg64
(lp1445
S'2'
asbasbasbag57
(g73
g59
NtRp1446
(dp1447
g62
(dp1448
sg71
g1430
sg64
(lp1449
g57
(g78
g59
NtRp1450
(dp1451
g62
(dp1452
sg71
g1446
sg64
(lp1453
g57
(g58
g59
NtRp1454
(dp1455
g62
(dp1456
g70
I3
ssg71
g1450
sg64
(lp1457
S'2'
asbasbasbag57
(g73
g59
NtRp1458
(dp1459
g62
(dp1460
sg71
g1430
sg64
(lp1461
g57
(g78
g59
NtRp1462
(dp1463
g62
(dp1464
sg71
g1458
sg64
(lp1465
g57
(g58
g59
NtRp1466
(dp1467
g62
(dp1468
g70
I3
ssg71
g1462
sg64
(lp1469
S'1'
asbasbasbag57
(g73
g59
NtRp1470
(dp1471
g62
(dp1472
sg71
g1430
sg64
(lp1473
g57
(g78
g59
NtRp1474
(dp1475
g62
(dp1476
sg71
g1470
sg64
(lp1477
g57
(g58
g59
NtRp1478
(dp1479
g62
(dp1480
g70
I3
ssg71
g1474
sg64
(lp1481
S'datetime.datetime(2012, 10, 21, 16, 57, 4)'
p1482
asbasbasbag57
(g73
g59
NtRp1483
(dp1484
g62
(dp1485
sg71
g1430
sg64
(lp1486
g57
(g78
g59
NtRp1487
(dp1488
g62
(dp1489
sg71
g1483
sg64
(lp1490
g57
(g58
g59
NtRp1491
(dp1492
g62
(dp1493
g70
I3
ssg71
g1487
sg64
(lp1494
S'stable'
p1495
asbasbasbasbasbasbasbag57
(g73
g59
NtRp1496
(dp1497
g62
(dp1498
sg71
g661
sg64
(lp1499
g57
(g78
g59
NtRp1500
(dp1501
g62
(dp1502
g82
g83
ssg71
g1496
sg64
(lp1503
S'wsgi_errors'
p1504
asbag57
(g78
g59
NtRp1505
(dp1506
g62
(dp1507
g89
g90
ssg71
g1496
sg64
(lp1508
S':'
asbag57
(g78
g59
NtRp1509
(dp1510
g62
(dp1511
sg71
g1496
sg64
(lp1512
g57
(g58
g59
NtRp1513
(dp1514
g62
(dp1515
g70
I4
ssg71
g1509
sg64
(lp1516
S"<open file '<stderr>', mode 'w' at 0x00A850D0>"
p1517
asbasbasbag57
(g73
g59
NtRp1518
(dp1519
g62
(dp1520
sg71
g661
sg64
(lp1521
g57
(g78
g59
NtRp1522
(dp1523
g62
(dp1524
g82
g83
ssg71
g1518
sg64
(lp1525
S'wsgi_file_wrapper'
p1526
asbag57
(g78
g59
NtRp1527
(dp1528
g62
(dp1529
g89
g90
ssg71
g1518
sg64
(lp1530
S':'
asbag57
(g78
g59
NtRp1531
(dp1532
g62
(dp1533
sg71
g1518
sg64
(lp1534
g57
(g58
g59
NtRp1535
(dp1536
g62
(dp1537
g70
I4
ssg71
g1531
sg64
(lp1538
S'<class wsgiref.util.FileWrapper at 0x0172EE68>'
p1539
asbasbasbag57
(g73
g59
NtRp1540
(dp1541
g62
(dp1542
sg71
g661
sg64
(lp1543
g57
(g78
g59
NtRp1544
(dp1545
g62
(dp1546
g82
g83
ssg71
g1540
sg64
(lp1547
S'wsgi_input'
p1548
asbag57
(g78
g59
NtRp1549
(dp1550
g62
(dp1551
g89
g90
ssg71
g1540
sg64
(lp1552
S':'
asbag57
(g78
g59
NtRp1553
(dp1554
g62
(dp1555
sg71
g1540
sg64
(lp1556
g57
(g58
g59
NtRp1557
(dp1558
g62
(dp1559
g70
I4
ssg71
g1553
sg64
(lp1560
S'<socket._fileobject object at 0x04F2EBF0>'
p1561
asbasbasbag57
(g73
g59
NtRp1562
(dp1563
g62
(dp1564
sg71
g661
sg64
(lp1565
g57
(g78
g59
NtRp1566
(dp1567
g62
(dp1568
g82
g83
ssg71
g1562
sg64
(lp1569
S'wsgi_multiprocess'
p1570
asbag57
(g78
g59
NtRp1571
(dp1572
g62
(dp1573
g89
g90
ssg71
g1562
sg64
(lp1574
S':'
asbag57
(g78
g59
NtRp1575
(dp1576
g62
(dp1577
sg71
g1562
sg64
(lp1578
g57
(g58
g59
NtRp1579
(dp1580
g62
(dp1581
g70
I4
ssg71
g1575
sg64
(lp1582
g100
asbasbasbag57
(g73
g59
NtRp1583
(dp1584
g62
(dp1585
sg71
g661
sg64
(lp1586
g57
(g78
g59
NtRp1587
(dp1588
g62
(dp1589
g82
g83
ssg71
g1583
sg64
(lp1590
S'wsgi_multithread'
p1591
asbag57
(g78
g59
NtRp1592
(dp1593
g62
(dp1594
g89
g90
ssg71
g1583
sg64
(lp1595
S':'
asbag57
(g78
g59
NtRp1596
(dp1597
g62
(dp1598
sg71
g1583
sg64
(lp1599
g57
(g58
g59
NtRp1600
(dp1601
g62
(dp1602
g70
I4
ssg71
g1596
sg64
(lp1603
S'True'
p1604
asbasbasbag57
(g73
g59
NtRp1605
(dp1606
g62
(dp1607
sg71
g661
sg64
(lp1608
g57
(g78
g59
NtRp1609
(dp1610
g62
(dp1611
g82
g83
ssg71
g1605
sg64
(lp1612
S'wsgi_run_once'
p1613
asbag57
(g78
g59
NtRp1614
(dp1615
g62
(dp1616
g89
g90
ssg71
g1605
sg64
(lp1617
S':'
asbag57
(g78
g59
NtRp1618
(dp1619
g62
(dp1620
sg71
g1605
sg64
(lp1621
g57
(g58
g59
NtRp1622
(dp1623
g62
(dp1624
g70
I4
ssg71
g1618
sg64
(lp1625
g100
asbasbasbag57
(g73
g59
NtRp1626
(dp1627
g62
(dp1628
sg71
g661
sg64
(lp1629
g57
(g78
g59
NtRp1630
(dp1631
g62
(dp1632
g82
g83
ssg71
g1626
sg64
(lp1633
S'wsgi_url_scheme'
p1634
asbag57
(g78
g59
NtRp1635
(dp1636
g62
(dp1637
g89
g90
ssg71
g1626
sg64
(lp1638
S':'
asbag57
(g78
g59
NtRp1639
(dp1640
g62
(dp1641
sg71
g1626
sg64
(lp1642
g57
(g58
g59
NtRp1643
(dp1644
g62
(dp1645
g70
I4
ssg71
g1639
sg64
(lp1646
S'http'
p1647
asbasbasbag57
(g73
g59
NtRp1648
(dp1649
g62
(dp1650
sg71
g661
sg64
(lp1651
g57
(g78
g59
NtRp1652
(dp1653
g62
(dp1654
g82
g83
ssg71
g1648
sg64
(lp1655
S'wsgi_version'
p1656
asbag57
(g78
g59
NtRp1657
(dp1658
g62
(dp1659
g89
g90
ssg71
g1648
sg64
(lp1660
S':'
asbag57
(g78
g59
NtRp1661
(dp1662
g62
(dp1663
sg71
g1648
sg64
(lp1664
g57
(g58
g59
NtRp1665
(dp1666
g62
(dp1667
g70
I4
ssg71
g1661
sg64
(lp1668
g57
(g66
g59
NtRp1669
(dp1670
g62
(dp1671
g70
I3
ssg71
Nsg64
(lp1672
g57
(g73
g59
NtRp1673
(dp1674
g62
(dp1675
sg71
g1669
sg64
(lp1676
g57
(g78
g59
NtRp1677
(dp1678
g62
(dp1679
sg71
g1673
sg64
(lp1680
g57
(g58
g59
NtRp1681
(dp1682
g62
(dp1683
g70
I3
ssg71
g1677
sg64
(lp1684
S'1'
asbasbasbag57
(g73
g59
NtRp1685
(dp1686
g62
(dp1687
sg71
g1669
sg64
(lp1688
g57
(g78
g59
NtRp1689
(dp1690
g62
(dp1691
sg71
g1685
sg64
(lp1692
g57
(g58
g59
NtRp1693
(dp1694
g62
(dp1695
g70
I3
ssg71
g1689
sg64
(lp1696
S'0'
asbasbasbasbasbasbasbasbasbasbasbag57
(g73
g59
NtRp1697
(dp1698
g62
(dp1699
sg71
g67
sg64
(lp1700
g57
(g78
g59
NtRp1701
(dp1702
g62
(dp1703
g82
g83
ssg71
g1697
sg64
(lp1704
S'extension'
p1705
asbag57
(g78
g59
NtRp1706
(dp1707
g62
(dp1708
g89
g90
ssg71
g1697
sg64
(lp1709
S':'
asbag57
(g78
g59
NtRp1710
(dp1711
g62
(dp1712
sg71
g1697
sg64
(lp1713
g57
(g58
g59
NtRp1714
(dp1715
g62
(dp1716
g70
I5
ssg71
g1710
sg64
(lp1717
S'html'
p1718
asbasbasbag57
(g73
g59
NtRp1719
(dp1720
g62
(dp1721
sg71
g67
sg64
(lp1722
g57
(g78
g59
NtRp1723
(dp1724
g62
(dp1725
g82
g83
ssg71
g1719
sg64
(lp1726
S'folder'
p1727
asbag57
(g78
g59
NtRp1728
(dp1729
g62
(dp1730
g89
g90
ssg71
g1719
sg64
(lp1731
S':'
asbag57
(g78
g59
NtRp1732
(dp1733
g62
(dp1734
sg71
g1719
sg64
(lp1735
g57
(g58
g59
NtRp1736
(dp1737
g62
(dp1738
g70
I5
ssg71
g1732
sg64
(lp1739
S'D:\\web2py\\source\\web2py\\applications\\web2py_xlchart_dashboard\\'
p1740
asbasbasbag57
(g73
g59
NtRp1741
(dp1742
g62
(dp1743
sg71
g67
sg64
(lp1744
g57
(g78
g59
NtRp1745
(dp1746
g62
(dp1747
g82
g83
ssg71
g1741
sg64
(lp1748
S'function'
p1749
asbag57
(g78
g59
NtRp1750
(dp1751
g62
(dp1752
g89
g90
ssg71
g1741
sg64
(lp1753
S':'
asbag57
(g78
g59
NtRp1754
(dp1755
g62
(dp1756
sg71
g1741
sg64
(lp1757
g57
(g58
g59
NtRp1758
(dp1759
g62
(dp1760
g70
I5
ssg71
g1754
sg64
(lp1761
S'manage_dashboard'
p1762
asbasbasbag57
(g73
g59
NtRp1763
(dp1764
g62
(dp1765
sg71
g67
sg64
(lp1766
g57
(g78
g59
NtRp1767
(dp1768
g62
(dp1769
g82
g83
ssg71
g1763
sg64
(lp1770
S'get_vars'
p1771
asbag57
(g78
g59
NtRp1772
(dp1773
g62
(dp1774
g89
g90
ssg71
g1763
sg64
(lp1775
S':'
asbag57
(g78
g59
NtRp1776
(dp1777
g62
(dp1778
sg71
g1763
sg64
(lp1779
g57
(g58
g59
NtRp1780
(dp1781
g62
(dp1782
g70
I5
ssg71
g1776
sg64
(lp1783
g57
(g66
g59
NtRp1784
(dp1785
g62
(dp1786
g70
I4
ssg71
Nsg64
(lp1787
sbasbasbasbag57
(g73
g59
NtRp1788
(dp1789
g62
(dp1790
sg71
g67
sg64
(lp1791
g57
(g78
g59
NtRp1792
(dp1793
g62
(dp1794
g82
g83
ssg71
g1788
sg64
(lp1795
S'global_settings'
p1796
asbag57
(g78
g59
NtRp1797
(dp1798
g62
(dp1799
g89
g90
ssg71
g1788
sg64
(lp1800
S':'
asbag57
(g78
g59
NtRp1801
(dp1802
g62
(dp1803
sg71
g1788
sg64
(lp1804
g57
(g58
g59
NtRp1805
(dp1806
g62
(dp1807
g70
I5
ssg71
g1801
sg64
(lp1808
g57
(g66
g59
NtRp1809
(dp1810
g62
(dp1811
g70
I4
ssg71
Nsg64
(lp1812
g57
(g73
g59
NtRp1813
(dp1814
g62
(dp1815
sg71
g1809
sg64
(lp1816
g57
(g78
g59
NtRp1817
(dp1818
g62
(dp1819
g82
g83
ssg71
g1813
sg64
(lp1820
g673
asbag57
(g78
g59
NtRp1821
(dp1822
g62
(dp1823
g89
g90
ssg71
g1813
sg64
(lp1824
S':'
asbag57
(g78
g59
NtRp1825
(dp1826
g62
(dp1827
sg71
g1813
sg64
(lp1828
g57
(g58
g59
NtRp1829
(dp1830
g62
(dp1831
g70
I4
ssg71
g1825
sg64
(lp1832
S"set(['D:\\\\web2py\\\\source\\\\web2py\\\\applications\\\\admin\\\\', 'D:\\\\web2py\\\\source\\\\web2py\\\\applications\\\\web2py_xlchart_dashboard\\\\'])"
p1833
asbasbasbag57
(g73
g59
NtRp1834
(dp1835
g62
(dp1836
sg71
g1809
sg64
(lp1837
g57
(g78
g59
NtRp1838
(dp1839
g62
(dp1840
g82
g83
ssg71
g1834
sg64
(lp1841
g695
asbag57
(g78
g59
NtRp1842
(dp1843
g62
(dp1844
g89
g90
ssg71
g1834
sg64
(lp1845
S':'
asbag57
(g78
g59
NtRp1846
(dp1847
g62
(dp1848
sg71
g1834
sg64
(lp1849
g57
(g58
g59
NtRp1850
(dp1851
g62
(dp1852
g70
I4
ssg71
g1846
sg64
(lp1853
g708
asbasbasbag57
(g73
g59
NtRp1854
(dp1855
g62
(dp1856
sg71
g1809
sg64
(lp1857
g57
(g78
g59
NtRp1858
(dp1859
g62
(dp1860
g82
g83
ssg71
g1854
sg64
(lp1861
g717
asbag57
(g78
g59
NtRp1862
(dp1863
g62
(dp1864
g89
g90
ssg71
g1854
sg64
(lp1865
S':'
asbag57
(g78
g59
NtRp1866
(dp1867
g62
(dp1868
sg71
g1854
sg64
(lp1869
g57
(g58
g59
NtRp1870
(dp1871
g62
(dp1872
g70
I4
ssg71
g1866
sg64
(lp1873
g57
(g66
g59
NtRp1874
(dp1875
g62
(dp1876
g70
I3
ssg71
Nsg64
(lp1877
sbasbasbasbag57
(g73
g59
NtRp1878
(dp1879
g62
(dp1880
sg71
g1809
sg64
(lp1881
g57
(g78
g59
NtRp1882
(dp1883
g62
(dp1884
g82
g83
ssg71
g1878
sg64
(lp1885
g742
asbag57
(g78
g59
NtRp1886
(dp1887
g62
(dp1888
g89
g90
ssg71
g1878
sg64
(lp1889
S':'
asbag57
(g78
g59
NtRp1890
(dp1891
g62
(dp1892
sg71
g1878
sg64
(lp1893
g57
(g58
g59
NtRp1894
(dp1895
g62
(dp1896
g70
I4
ssg71
g1890
sg64
(lp1897
S"<Values at 0xc7b788: {'verbose': False, 'ip': '127.0.0.1', 'with_scheduler': False, 'ips': [], 'shutdown_timeout': 5, 'taskbar': False, 'port': 8000, 'maxthreads': None, 'softcron': False, 'server_name': 'GLKLAG235327', 'bpython': False, 'nogui': False, 'pid_filename': 'httpserver.pid', 'extcron': False, 'runcron': False, 'run_system_tests': False, 'test': None, 'folder': 'D:\\\\web2py\\\\source\\\\web2py', 'config': '', 'import_models': False, 'winservice': '', 'shell': None, 'run': '', 'log_filename': 'httpserver.log', 'debuglevel': 30, 'args': [''], 'socket_timeout': 5, 'ssl_ca_certificate': None, 'scheduler': None, 'profiler_filename': None, 'ssl_private_key': '', 'scheduler_groups': None, 'password': '<ask>', 'request_queue_size': 5, 'ssl_certificate': '', 'cronjob': False, 'numthreads': None, 'quiet': False, 'interfaces': None, 'minthreads': None, 'timeout': 10, 'plain': False, 'nobanner': False}>"
p1898
asbasbasbag57
(g73
g59
NtRp1899
(dp1900
g62
(dp1901
sg71
g1809
sg64
(lp1902
g57
(g78
g59
NtRp1903
(dp1904
g62
(dp1905
g82
g83
ssg71
g1899
sg64
(lp1906
g764
asbag57
(g78
g59
NtRp1907
(dp1908
g62
(dp1909
g89
g90
ssg71
g1899
sg64
(lp1910
S':'
asbag57
(g78
g59
NtRp1911
(dp1912
g62
(dp1913
sg71
g1899
sg64
(lp1914
g57
(g58
g59
NtRp1915
(dp1916
g62
(dp1917
g70
I4
ssg71
g1911
sg64
(lp1918
S'set([])'
p1919
asbasbasbag57
(g73
g59
NtRp1920
(dp1921
g62
(dp1922
sg71
g1809
sg64
(lp1923
g57
(g78
g59
NtRp1924
(dp1925
g62
(dp1926
g82
g83
ssg71
g1920
sg64
(lp1927
g786
asbag57
(g78
g59
NtRp1928
(dp1929
g62
(dp1930
g89
g90
ssg71
g1920
sg64
(lp1931
S':'
asbag57
(g78
g59
NtRp1932
(dp1933
g62
(dp1934
sg71
g1920
sg64
(lp1935
g57
(g58
g59
NtRp1936
(dp1937
g62
(dp1938
g70
I4
ssg71
g1932
sg64
(lp1939
g100
asbasbasbag57
(g73
g59
NtRp1940
(dp1941
g62
(dp1942
sg71
g1809
sg64
(lp1943
g57
(g78
g59
NtRp1944
(dp1945
g62
(dp1946
g82
g83
ssg71
g1940
sg64
(lp1947
g807
asbag57
(g78
g59
NtRp1948
(dp1949
g62
(dp1950
g89
g90
ssg71
g1940
sg64
(lp1951
S':'
asbag57
(g78
g59
NtRp1952
(dp1953
g62
(dp1954
sg71
g1940
sg64
(lp1955
g57
(g58
g59
NtRp1956
(dp1957
g62
(dp1958
g70
I4
ssg71
g1952
sg64
(lp1959
g820
asbasbasbag57
(g73
g59
NtRp1960
(dp1961
g62
(dp1962
sg71
g1809
sg64
(lp1963
g57
(g78
g59
NtRp1964
(dp1965
g62
(dp1966
g82
g83
ssg71
g1960
sg64
(lp1967
g1005
asbag57
(g78
g59
NtRp1968
(dp1969
g62
(dp1970
g89
g90
ssg71
g1960
sg64
(lp1971
S':'
asbag57
(g78
g59
NtRp1972
(dp1973
g62
(dp1974
sg71
g1960
sg64
(lp1975
g57
(g58
g59
NtRp1976
(dp1977
g62
(dp1978
g70
I4
ssg71
g1972
sg64
(lp1979
g100
asbasbasbag57
(g73
g59
NtRp1980
(dp1981
g62
(dp1982
sg71
g1809
sg64
(lp1983
g57
(g78
g59
NtRp1984
(dp1985
g62
(dp1986
g82
g83
ssg71
g1980
sg64
(lp1987
g1026
asbag57
(g78
g59
NtRp1988
(dp1989
g62
(dp1990
g89
g90
ssg71
g1980
sg64
(lp1991
S':'
asbag57
(g78
g59
NtRp1992
(dp1993
g62
(dp1994
sg71
g1980
sg64
(lp1995
g57
(g58
g59
NtRp1996
(dp1997
g62
(dp1998
g70
I4
ssg71
g1992
sg64
(lp1999
g100
asbasbasbag57
(g73
g59
NtRp2000
(dp2001
g62
(dp2002
sg71
g1809
sg64
(lp2003
g57
(g78
g59
NtRp2004
(dp2005
g62
(dp2006
g82
g83
ssg71
g2000
sg64
(lp2007
g1047
asbag57
(g78
g59
NtRp2008
(dp2009
g62
(dp2010
g89
g90
ssg71
g2000
sg64
(lp2011
S':'
asbag57
(g78
g59
NtRp2012
(dp2013
g62
(dp2014
sg71
g2000
sg64
(lp2015
g57
(g58
g59
NtRp2016
(dp2017
g62
(dp2018
g70
I4
ssg71
g2012
sg64
(lp2019
g57
(g66
g59
NtRp2020
(dp2021
g62
(dp2022
g70
I3
ssg71
Nsg64
(lp2023
g57
(g73
g59
NtRp2024
(dp2025
g62
(dp2026
sg71
g2020
sg64
(lp2027
g57
(g78
g59
NtRp2028
(dp2029
g62
(dp2030
sg71
g2024
sg64
(lp2031
g57
(g58
g59
NtRp2032
(dp2033
g62
(dp2034
g70
I3
ssg71
g2028
sg64
(lp2035
g1076
asbasbasbag57
(g73
g59
NtRp2036
(dp2037
g62
(dp2038
sg71
g2020
sg64
(lp2039
g57
(g78
g59
NtRp2040
(dp2041
g62
(dp2042
sg71
g2036
sg64
(lp2043
g57
(g58
g59
NtRp2044
(dp2045
g62
(dp2046
g70
I3
ssg71
g2040
sg64
(lp2047
g1089
asbasbasbag57
(g73
g59
NtRp2048
(dp2049
g62
(dp2050
sg71
g2020
sg64
(lp2051
g57
(g78
g59
NtRp2052
(dp2053
g62
(dp2054
sg71
g2048
sg64
(lp2055
g57
(g58
g59
NtRp2056
(dp2057
g62
(dp2058
g70
I3
ssg71
g2052
sg64
(lp2059
g1102
asbasbasbag57
(g73
g59
NtRp2060
(dp2061
g62
(dp2062
sg71
g2020
sg64
(lp2063
g57
(g78
g59
NtRp2064
(dp2065
g62
(dp2066
sg71
g2060
sg64
(lp2067
g57
(g58
g59
NtRp2068
(dp2069
g62
(dp2070
g70
I3
ssg71
g2064
sg64
(lp2071
g1115
asbasbasbag57
(g73
g59
NtRp2072
(dp2073
g62
(dp2074
sg71
g2020
sg64
(lp2075
g57
(g78
g59
NtRp2076
(dp2077
g62
(dp2078
sg71
g2072
sg64
(lp2079
g57
(g58
g59
NtRp2080
(dp2081
g62
(dp2082
g70
I3
ssg71
g2076
sg64
(lp2083
g1128
asbasbasbasbasbasbasbag57
(g73
g59
NtRp2084
(dp2085
g62
(dp2086
sg71
g1809
sg64
(lp2087
g57
(g78
g59
NtRp2088
(dp2089
g62
(dp2090
g82
g83
ssg71
g2084
sg64
(lp2091
g1417
asbag57
(g78
g59
NtRp2092
(dp2093
g62
(dp2094
g89
g90
ssg71
g2084
sg64
(lp2095
S':'
asbag57
(g78
g59
NtRp2096
(dp2097
g62
(dp2098
sg71
g2084
sg64
(lp2099
g57
(g58
g59
NtRp2100
(dp2101
g62
(dp2102
g70
I4
ssg71
g2096
sg64
(lp2103
g57
(g66
g59
NtRp2104
(dp2105
g62
(dp2106
g70
I3
ssg71
Nsg64
(lp2107
g57
(g73
g59
NtRp2108
(dp2109
g62
(dp2110
sg71
g2104
sg64
(lp2111
g57
(g78
g59
NtRp2112
(dp2113
g62
(dp2114
sg71
g2108
sg64
(lp2115
g57
(g58
g59
NtRp2116
(dp2117
g62
(dp2118
g70
I3
ssg71
g2112
sg64
(lp2119
S'2'
asbasbasbag57
(g73
g59
NtRp2120
(dp2121
g62
(dp2122
sg71
g2104
sg64
(lp2123
g57
(g78
g59
NtRp2124
(dp2125
g62
(dp2126
sg71
g2120
sg64
(lp2127
g57
(g58
g59
NtRp2128
(dp2129
g62
(dp2130
g70
I3
ssg71
g2124
sg64
(lp2131
S'2'
asbasbasbag57
(g73
g59
NtRp2132
(dp2133
g62
(dp2134
sg71
g2104
sg64
(lp2135
g57
(g78
g59
NtRp2136
(dp2137
g62
(dp2138
sg71
g2132
sg64
(lp2139
g57
(g58
g59
NtRp2140
(dp2141
g62
(dp2142
g70
I3
ssg71
g2136
sg64
(lp2143
S'1'
asbasbasbag57
(g73
g59
NtRp2144
(dp2145
g62
(dp2146
sg71
g2104
sg64
(lp2147
g57
(g78
g59
NtRp2148
(dp2149
g62
(dp2150
sg71
g2144
sg64
(lp2151
g57
(g58
g59
NtRp2152
(dp2153
g62
(dp2154
g70
I3
ssg71
g2148
sg64
(lp2155
S'datetime.datetime(2012, 10, 21, 16, 57, 4)'
p2156
asbasbasbag57
(g73
g59
NtRp2157
(dp2158
g62
(dp2159
sg71
g2104
sg64
(lp2160
g57
(g78
g59
NtRp2161
(dp2162
g62
(dp2163
sg71
g2157
sg64
(lp2164
g57
(g58
g59
NtRp2165
(dp2166
g62
(dp2167
g70
I3
ssg71
g2161
sg64
(lp2168
g1495
asbasbasbasbasbasbasbasbasbasbasbag57
(g73
g59
NtRp2169
(dp2170
g62
(dp2171
sg71
g67
sg64
(lp2172
g57
(g78
g59
NtRp2173
(dp2174
g62
(dp2175
g82
g83
ssg71
g2169
sg64
(lp2176
S'is_https'
p2177
asbag57
(g78
g59
NtRp2178
(dp2179
g62
(dp2180
g89
g90
ssg71
g2169
sg64
(lp2181
S':'
asbag57
(g78
g59
NtRp2182
(dp2183
g62
(dp2184
sg71
g2169
sg64
(lp2185
g57
(g58
g59
NtRp2186
(dp2187
g62
(dp2188
g70
I5
ssg71
g2182
sg64
(lp2189
g100
asbasbasbag57
(g73
g59
NtRp2190
(dp2191
g62
(dp2192
sg71
g67
sg64
(lp2193
g57
(g78
g59
NtRp2194
(dp2195
g62
(dp2196
g82
g83
ssg71
g2190
sg64
(lp2197
S'is_local'
p2198
asbag57
(g78
g59
NtRp2199
(dp2200
g62
(dp2201
g89
g90
ssg71
g2190
sg64
(lp2202
S':'
asbag57
(g78
g59
NtRp2203
(dp2204
g62
(dp2205
sg71
g2190
sg64
(lp2206
g57
(g58
g59
NtRp2207
(dp2208
g62
(dp2209
g70
I5
ssg71
g2203
sg64
(lp2210
g1604
asbasbasbag57
(g73
g59
NtRp2211
(dp2212
g62
(dp2213
sg71
g67
sg64
(lp2214
g57
(g78
g59
NtRp2215
(dp2216
g62
(dp2217
g82
g83
ssg71
g2211
sg64
(lp2218
S'is_restful'
p2219
asbag57
(g78
g59
NtRp2220
(dp2221
g62
(dp2222
g89
g90
ssg71
g2211
sg64
(lp2223
S':'
asbag57
(g78
g59
NtRp2224
(dp2225
g62
(dp2226
sg71
g2211
sg64
(lp2227
g57
(g58
g59
NtRp2228
(dp2229
g62
(dp2230
g70
I5
ssg71
g2224
sg64
(lp2231
g100
asbasbasbag57
(g73
g59
NtRp2232
(dp2233
g62
(dp2234
sg71
g67
sg64
(lp2235
g57
(g78
g59
NtRp2236
(dp2237
g62
(dp2238
g82
g83
ssg71
g2232
sg64
(lp2239
S'now'
p2240
asbag57
(g78
g59
NtRp2241
(dp2242
g62
(dp2243
g89
g90
ssg71
g2232
sg64
(lp2244
S':'
asbag57
(g78
g59
NtRp2245
(dp2246
g62
(dp2247
sg71
g2232
sg64
(lp2248
g57
(g58
g59
NtRp2249
(dp2250
g62
(dp2251
g70
I5
ssg71
g2245
sg64
(lp2252
S'datetime.datetime(2012, 11, 11, 20, 39, 9, 703000)'
p2253
asbasbasbag57
(g73
g59
NtRp2254
(dp2255
g62
(dp2256
sg71
g67
sg64
(lp2257
g57
(g78
g59
NtRp2258
(dp2259
g62
(dp2260
g82
g83
ssg71
g2254
sg64
(lp2261
S'post_vars'
p2262
asbag57
(g78
g59
NtRp2263
(dp2264
g62
(dp2265
g89
g90
ssg71
g2254
sg64
(lp2266
S':'
asbag57
(g78
g59
NtRp2267
(dp2268
g62
(dp2269
sg71
g2254
sg64
(lp2270
g57
(g58
g59
NtRp2271
(dp2272
g62
(dp2273
g70
I5
ssg71
g2267
sg64
(lp2274
g57
(g66
g59
NtRp2275
(dp2276
g62
(dp2277
g70
I4
ssg71
Nsg64
(lp2278
sbasbasbasbag57
(g73
g59
NtRp2279
(dp2280
g62
(dp2281
sg71
g67
sg64
(lp2282
g57
(g78
g59
NtRp2283
(dp2284
g62
(dp2285
g82
g83
ssg71
g2279
sg64
(lp2286
S'raw_args'
p2287
asbag57
(g78
g59
NtRp2288
(dp2289
g62
(dp2290
g89
g90
ssg71
g2279
sg64
(lp2291
S':'
asbag57
(g78
g59
NtRp2292
(dp2293
g62
(dp2294
sg71
g2279
sg64
(lp2295
g57
(g58
g59
NtRp2296
(dp2297
g62
(dp2298
g70
I5
ssg71
g2292
sg64
(lp2299
S''
asbasbasbag57
(g73
g59
NtRp2300
(dp2301
g62
(dp2302
sg71
g67
sg64
(lp2303
g57
(g78
g59
NtRp2304
(dp2305
g62
(dp2306
g82
g83
ssg71
g2300
sg64
(lp2307
S'raw_extension'
p2308
asbag57
(g78
g59
NtRp2309
(dp2310
g62
(dp2311
g89
g90
ssg71
g2300
sg64
(lp2312
S':'
asbag57
(g78
g59
NtRp2313
(dp2314
g62
(dp2315
sg71
g2300
sg64
(lp2316
g57
(g58
g59
NtRp2317
(dp2318
g62
(dp2319
g70
I5
ssg71
g2313
sg64
(lp2320
S'None'
p2321
asbasbasbag57
(g73
g59
NtRp2322
(dp2323
g62
(dp2324
sg71
g67
sg64
(lp2325
g57
(g78
g59
NtRp2326
(dp2327
g62
(dp2328
g82
g83
ssg71
g2322
sg64
(lp2329
S'url'
p2330
asbag57
(g78
g59
NtRp2331
(dp2332
g62
(dp2333
g89
g90
ssg71
g2322
sg64
(lp2334
S':'
asbag57
(g78
g59
NtRp2335
(dp2336
g62
(dp2337
sg71
g2322
sg64
(lp2338
g57
(g58
g59
NtRp2339
(dp2340
g62
(dp2341
g70
I5
ssg71
g2335
sg64
(lp2342
g1150
asbasbasbag57
(g73
g59
NtRp2343
(dp2344
g62
(dp2345
sg71
g67
sg64
(lp2346
g57
(g78
g59
NtRp2347
(dp2348
g62
(dp2349
g82
g83
ssg71
g2343
sg64
(lp2350
S'utcnow'
p2351
asbag57
(g78
g59
NtRp2352
(dp2353
g62
(dp2354
g89
g90
ssg71
g2343
sg64
(lp2355
S':'
asbag57
(g78
g59
NtRp2356
(dp2357
g62
(dp2358
sg71
g2343
sg64
(lp2359
g57
(g58
g59
NtRp2360
(dp2361
g62
(dp2362
g70
I5
ssg71
g2356
sg64
(lp2363
S'datetime.datetime(2012, 11, 11, 20, 39, 9, 703000)'
p2364
asbasbasbag57
(g73
g59
NtRp2365
(dp2366
g62
(dp2367
sg71
g67
sg64
(lp2368
g57
(g78
g59
NtRp2369
(dp2370
g62
(dp2371
g82
g83
ssg71
g2365
sg64
(lp2372
S'uuid'
p2373
asbag57
(g78
g59
NtRp2374
(dp2375
g62
(dp2376
g89
g90
ssg71
g2365
sg64
(lp2377
S':'
asbag57
(g78
g59
NtRp2378
(dp2379
g62
(dp2380
sg71
g2365
sg64
(lp2381
g57
(g58
g59
NtRp2382
(dp2383
g62
(dp2384
g70
I5
ssg71
g2378
sg64
(lp2385
S'web2py_xlchart_dashboard/127.0.0.1.2012-11-11.20-39-09.c0fff2ff-9c2a-4626-9a5e-0c2c2bc1a290'
p2386
asbasbasbag57
(g73
g59
NtRp2387
(dp2388
g62
(dp2389
sg71
g67
sg64
(lp2390
g57
(g78
g59
NtRp2391
(dp2392
g62
(dp2393
g82
g83
ssg71
g2387
sg64
(lp2394
S'vars'
p2395
asbag57
(g78
g59
NtRp2396
(dp2397
g62
(dp2398
g89
g90
ssg71
g2387
sg64
(lp2399
S':'
asbag57
(g78
g59
NtRp2400
(dp2401
g62
(dp2402
sg71
g2387
sg64
(lp2403
g57
(g58
g59
NtRp2404
(dp2405
g62
(dp2406
g70
I5
ssg71
g2400
sg64
(lp2407
g57
(g66
g59
NtRp2408
(dp2409
g62
(dp2410
g70
I4
ssg71
Nsg64
(lp2411
sbasbasbasbag57
(g73
g59
NtRp2412
(dp2413
g62
(dp2414
sg71
g67
sg64
(lp2415
g57
(g78
g59
NtRp2416
(dp2417
g62
(dp2418
g82
g83
ssg71
g2412
sg64
(lp2419
S'wsgi'
p2420
asbag57
(g78
g59
NtRp2421
(dp2422
g62
(dp2423
g89
g90
ssg71
g2412
sg64
(lp2424
S':'
asbag57
(g78
g59
NtRp2425
(dp2426
g62
(dp2427
sg71
g2412
sg64
(lp2428
g57
(g58
g59
NtRp2429
(dp2430
g62
(dp2431
g70
I5
ssg71
g2425
sg64
(lp2432
g57
(g66
g59
NtRp2433
(dp2434
g62
(dp2435
g70
I4
ssg71
Nsg64
(lp2436
g57
(g73
g59
NtRp2437
(dp2438
g62
(dp2439
sg71
g2433
sg64
(lp2440
g57
(g78
g59
NtRp2441
(dp2442
g62
(dp2443
g82
g83
ssg71
g2437
sg64
(lp2444
S'environ'
p2445
asbag57
(g78
g59
NtRp2446
(dp2447
g62
(dp2448
g89
g90
ssg71
g2437
sg64
(lp2449
S':'
asbag57
(g78
g59
NtRp2450
(dp2451
g62
(dp2452
sg71
g2437
sg64
(lp2453
g57
(g58
g59
NtRp2454
(dp2455
g62
(dp2456
g70
I4
ssg71
g2450
sg64
(lp2457
g57
(g66
g59
NtRp2458
(dp2459
g62
(dp2460
g70
I3
ssg71
Nsg64
(lp2461
g57
(g73
g59
NtRp2462
(dp2463
g62
(dp2464
sg71
g2458
sg64
(lp2465
g57
(g78
g59
NtRp2466
(dp2467
g62
(dp2468
g82
g83
ssg71
g2462
sg64
(lp2469
S'HTTP_ACCEPT'
p2470
asbag57
(g78
g59
NtRp2471
(dp2472
g62
(dp2473
g89
g90
ssg71
g2462
sg64
(lp2474
S':'
asbag57
(g78
g59
NtRp2475
(dp2476
g62
(dp2477
sg71
g2462
sg64
(lp2478
g57
(g58
g59
NtRp2479
(dp2480
g62
(dp2481
g70
I3
ssg71
g2475
sg64
(lp2482
g842
asbasbasbag57
(g73
g59
NtRp2483
(dp2484
g62
(dp2485
sg71
g2458
sg64
(lp2486
g57
(g78
g59
NtRp2487
(dp2488
g62
(dp2489
g82
g83
ssg71
g2483
sg64
(lp2490
S'HTTP_ACCEPT_ENCODING'
p2491
asbag57
(g78
g59
NtRp2492
(dp2493
g62
(dp2494
g89
g90
ssg71
g2483
sg64
(lp2495
S':'
asbag57
(g78
g59
NtRp2496
(dp2497
g62
(dp2498
sg71
g2483
sg64
(lp2499
g57
(g58
g59
NtRp2500
(dp2501
g62
(dp2502
g70
I3
ssg71
g2496
sg64
(lp2503
g864
asbasbasbag57
(g73
g59
NtRp2504
(dp2505
g62
(dp2506
sg71
g2458
sg64
(lp2507
g57
(g78
g59
NtRp2508
(dp2509
g62
(dp2510
g82
g83
ssg71
g2504
sg64
(lp2511
S'HTTP_ACCEPT_LANGUAGE'
p2512
asbag57
(g78
g59
NtRp2513
(dp2514
g62
(dp2515
g89
g90
ssg71
g2504
sg64
(lp2516
S':'
asbag57
(g78
g59
NtRp2517
(dp2518
g62
(dp2519
sg71
g2504
sg64
(lp2520
g57
(g58
g59
NtRp2521
(dp2522
g62
(dp2523
g70
I3
ssg71
g2517
sg64
(lp2524
g886
asbasbasbag57
(g73
g59
NtRp2525
(dp2526
g62
(dp2527
sg71
g2458
sg64
(lp2528
g57
(g78
g59
NtRp2529
(dp2530
g62
(dp2531
g82
g83
ssg71
g2525
sg64
(lp2532
S'HTTP_CONNECTION'
p2533
asbag57
(g78
g59
NtRp2534
(dp2535
g62
(dp2536
g89
g90
ssg71
g2525
sg64
(lp2537
S':'
asbag57
(g78
g59
NtRp2538
(dp2539
g62
(dp2540
sg71
g2525
sg64
(lp2541
g57
(g58
g59
NtRp2542
(dp2543
g62
(dp2544
g70
I3
ssg71
g2538
sg64
(lp2545
g908
asbasbasbag57
(g73
g59
NtRp2546
(dp2547
g62
(dp2548
sg71
g2458
sg64
(lp2549
g57
(g78
g59
NtRp2550
(dp2551
g62
(dp2552
g82
g83
ssg71
g2546
sg64
(lp2553
S'HTTP_COOKIE'
p2554
asbag57
(g78
g59
NtRp2555
(dp2556
g62
(dp2557
g89
g90
ssg71
g2546
sg64
(lp2558
S':'
asbag57
(g78
g59
NtRp2559
(dp2560
g62
(dp2561
sg71
g2546
sg64
(lp2562
g57
(g58
g59
NtRp2563
(dp2564
g62
(dp2565
g70
I3
ssg71
g2559
sg64
(lp2566
g930
asbasbasbag57
(g73
g59
NtRp2567
(dp2568
g62
(dp2569
sg71
g2458
sg64
(lp2570
g57
(g78
g59
NtRp2571
(dp2572
g62
(dp2573
g82
g83
ssg71
g2567
sg64
(lp2574
S'HTTP_HOST'
p2575
asbag57
(g78
g59
NtRp2576
(dp2577
g62
(dp2578
g89
g90
ssg71
g2567
sg64
(lp2579
S':'
asbag57
(g78
g59
NtRp2580
(dp2581
g62
(dp2582
sg71
g2567
sg64
(lp2583
g57
(g58
g59
NtRp2584
(dp2585
g62
(dp2586
g70
I3
ssg71
g2580
sg64
(lp2587
g952
asbasbasbag57
(g73
g59
NtRp2588
(dp2589
g62
(dp2590
sg71
g2458
sg64
(lp2591
g57
(g78
g59
NtRp2592
(dp2593
g62
(dp2594
g82
g83
ssg71
g2588
sg64
(lp2595
S'HTTP_REFERER'
p2596
asbag57
(g78
g59
NtRp2597
(dp2598
g62
(dp2599
g89
g90
ssg71
g2588
sg64
(lp2600
S':'
asbag57
(g78
g59
NtRp2601
(dp2602
g62
(dp2603
sg71
g2588
sg64
(lp2604
g57
(g58
g59
NtRp2605
(dp2606
g62
(dp2607
g70
I3
ssg71
g2601
sg64
(lp2608
g974
asbasbasbag57
(g73
g59
NtRp2609
(dp2610
g62
(dp2611
sg71
g2458
sg64
(lp2612
g57
(g78
g59
NtRp2613
(dp2614
g62
(dp2615
g82
g83
ssg71
g2609
sg64
(lp2616
S'HTTP_USER_AGENT'
p2617
asbag57
(g78
g59
NtRp2618
(dp2619
g62
(dp2620
g89
g90
ssg71
g2609
sg64
(lp2621
S':'
asbag57
(g78
g59
NtRp2622
(dp2623
g62
(dp2624
sg71
g2609
sg64
(lp2625
g57
(g58
g59
NtRp2626
(dp2627
g62
(dp2628
g70
I3
ssg71
g2622
sg64
(lp2629
g996
asbasbasbag57
(g73
g59
NtRp2630
(dp2631
g62
(dp2632
sg71
g2458
sg64
(lp2633
g57
(g78
g59
NtRp2634
(dp2635
g62
(dp2636
g82
g83
ssg71
g2630
sg64
(lp2637
S'PATH_INFO'
p2638
asbag57
(g78
g59
NtRp2639
(dp2640
g62
(dp2641
g89
g90
ssg71
g2630
sg64
(lp2642
S':'
asbag57
(g78
g59
NtRp2643
(dp2644
g62
(dp2645
sg71
g2630
sg64
(lp2646
g57
(g58
g59
NtRp2647
(dp2648
g62
(dp2649
g70
I3
ssg71
g2643
sg64
(lp2650
g1150
asbasbasbag57
(g73
g59
NtRp2651
(dp2652
g62
(dp2653
sg71
g2458
sg64
(lp2654
g57
(g78
g59
NtRp2655
(dp2656
g62
(dp2657
g82
g83
ssg71
g2651
sg64
(lp2658
S'QUERY_STRING'
p2659
asbag57
(g78
g59
NtRp2660
(dp2661
g62
(dp2662
g89
g90
ssg71
g2651
sg64
(lp2663
S':'
asbag57
(g78
g59
NtRp2664
(dp2665
g62
(dp2666
sg71
g2651
sg64
(lp2667
g57
(g58
g59
NtRp2668
(dp2669
g62
(dp2670
g70
I3
ssg71
g2664
sg64
(lp2671
S''
asbasbasbag57
(g73
g59
NtRp2672
(dp2673
g62
(dp2674
sg71
g2458
sg64
(lp2675
g57
(g78
g59
NtRp2676
(dp2677
g62
(dp2678
g82
g83
ssg71
g2672
sg64
(lp2679
S'REMOTE_ADDR'
p2680
asbag57
(g78
g59
NtRp2681
(dp2682
g62
(dp2683
g89
g90
ssg71
g2672
sg64
(lp2684
S':'
asbag57
(g78
g59
NtRp2685
(dp2686
g62
(dp2687
sg71
g2672
sg64
(lp2688
g57
(g58
g59
NtRp2689
(dp2690
g62
(dp2691
g70
I3
ssg71
g2685
sg64
(lp2692
g212
asbasbasbag57
(g73
g59
NtRp2693
(dp2694
g62
(dp2695
sg71
g2458
sg64
(lp2696
g57
(g78
g59
NtRp2697
(dp2698
g62
(dp2699
g82
g83
ssg71
g2693
sg64
(lp2700
S'REMOTE_PORT'
p2701
asbag57
(g78
g59
NtRp2702
(dp2703
g62
(dp2704
g89
g90
ssg71
g2693
sg64
(lp2705
S':'
asbag57
(g78
g59
NtRp2706
(dp2707
g62
(dp2708
sg71
g2693
sg64
(lp2709
g57
(g58
g59
NtRp2710
(dp2711
g62
(dp2712
g70
I3
ssg71
g2706
sg64
(lp2713
g1214
asbasbasbag57
(g73
g59
NtRp2714
(dp2715
g62
(dp2716
sg71
g2458
sg64
(lp2717
g57
(g78
g59
NtRp2718
(dp2719
g62
(dp2720
g82
g83
ssg71
g2714
sg64
(lp2721
S'REQUEST_METHOD'
p2722
asbag57
(g78
g59
NtRp2723
(dp2724
g62
(dp2725
g89
g90
ssg71
g2714
sg64
(lp2726
S':'
asbag57
(g78
g59
NtRp2727
(dp2728
g62
(dp2729
sg71
g2714
sg64
(lp2730
g57
(g58
g59
NtRp2731
(dp2732
g62
(dp2733
g70
I3
ssg71
g2727
sg64
(lp2734
g1236
asbasbasbag57
(g73
g59
NtRp2735
(dp2736
g62
(dp2737
sg71
g2458
sg64
(lp2738
g57
(g78
g59
NtRp2739
(dp2740
g62
(dp2741
g82
g83
ssg71
g2735
sg64
(lp2742
S'REQUEST_URI'
p2743
asbag57
(g78
g59
NtRp2744
(dp2745
g62
(dp2746
g89
g90
ssg71
g2735
sg64
(lp2747
S':'
asbag57
(g78
g59
NtRp2748
(dp2749
g62
(dp2750
sg71
g2735
sg64
(lp2751
g57
(g58
g59
NtRp2752
(dp2753
g62
(dp2754
g70
I3
ssg71
g2748
sg64
(lp2755
g1150
asbasbasbag57
(g73
g59
NtRp2756
(dp2757
g62
(dp2758
sg71
g2458
sg64
(lp2759
g57
(g78
g59
NtRp2760
(dp2761
g62
(dp2762
g82
g83
ssg71
g2756
sg64
(lp2763
S'SCRIPT_NAME'
p2764
asbag57
(g78
g59
NtRp2765
(dp2766
g62
(dp2767
g89
g90
ssg71
g2756
sg64
(lp2768
S':'
asbag57
(g78
g59
NtRp2769
(dp2770
g62
(dp2771
sg71
g2756
sg64
(lp2772
g57
(g58
g59
NtRp2773
(dp2774
g62
(dp2775
g70
I3
ssg71
g2769
sg64
(lp2776
S''
asbasbasbag57
(g73
g59
NtRp2777
(dp2778
g62
(dp2779
sg71
g2458
sg64
(lp2780
g57
(g78
g59
NtRp2781
(dp2782
g62
(dp2783
g82
g83
ssg71
g2777
sg64
(lp2784
S'SERVER_NAME'
p2785
asbag57
(g78
g59
NtRp2786
(dp2787
g62
(dp2788
g89
g90
ssg71
g2777
sg64
(lp2789
S':'
asbag57
(g78
g59
NtRp2790
(dp2791
g62
(dp2792
sg71
g2777
sg64
(lp2793
g57
(g58
g59
NtRp2794
(dp2795
g62
(dp2796
g70
I3
ssg71
g2790
sg64
(lp2797
g1115
asbasbasbag57
(g73
g59
NtRp2798
(dp2799
g62
(dp2800
sg71
g2458
sg64
(lp2801
g57
(g78
g59
NtRp2802
(dp2803
g62
(dp2804
g82
g83
ssg71
g2798
sg64
(lp2805
S'SERVER_PORT'
p2806
asbag57
(g78
g59
NtRp2807
(dp2808
g62
(dp2809
g89
g90
ssg71
g2798
sg64
(lp2810
S':'
asbag57
(g78
g59
NtRp2811
(dp2812
g62
(dp2813
sg71
g2798
sg64
(lp2814
g57
(g58
g59
NtRp2815
(dp2816
g62
(dp2817
g70
I3
ssg71
g2811
sg64
(lp2818
g1321
asbasbasbag57
(g73
g59
NtRp2819
(dp2820
g62
(dp2821
sg71
g2458
sg64
(lp2822
g57
(g78
g59
NtRp2823
(dp2824
g62
(dp2825
g82
g83
ssg71
g2819
sg64
(lp2826
S'SERVER_PROTOCOL'
p2827
asbag57
(g78
g59
NtRp2828
(dp2829
g62
(dp2830
g89
g90
ssg71
g2819
sg64
(lp2831
S':'
asbag57
(g78
g59
NtRp2832
(dp2833
g62
(dp2834
sg71
g2819
sg64
(lp2835
g57
(g58
g59
NtRp2836
(dp2837
g62
(dp2838
g70
I3
ssg71
g2832
sg64
(lp2839
g1343
asbasbasbag57
(g73
g59
NtRp2840
(dp2841
g62
(dp2842
sg71
g2458
sg64
(lp2843
g57
(g78
g59
NtRp2844
(dp2845
g62
(dp2846
g82
g83
ssg71
g2840
sg64
(lp2847
S'SERVER_SOFTWARE'
p2848
asbag57
(g78
g59
NtRp2849
(dp2850
g62
(dp2851
g89
g90
ssg71
g2840
sg64
(lp2852
S':'
asbag57
(g78
g59
NtRp2853
(dp2854
g62
(dp2855
sg71
g2840
sg64
(lp2856
g57
(g58
g59
NtRp2857
(dp2858
g62
(dp2859
g70
I3
ssg71
g2853
sg64
(lp2860
g1365
asbasbasbag57
(g73
g59
NtRp2861
(dp2862
g62
(dp2863
sg71
g2458
sg64
(lp2864
g57
(g78
g59
NtRp2865
(dp2866
g62
(dp2867
g82
g83
ssg71
g2861
sg64
(lp2868
S'WEB2PY_ORIGINAL_URI'
p2869
asbag57
(g78
g59
NtRp2870
(dp2871
g62
(dp2872
g89
g90
ssg71
g2861
sg64
(lp2873
S':'
asbag57
(g78
g59
NtRp2874
(dp2875
g62
(dp2876
sg71
g2861
sg64
(lp2877
g57
(g58
g59
NtRp2878
(dp2879
g62
(dp2880
g70
I3
ssg71
g2874
sg64
(lp2881
g1387
asbasbasbag57
(g73
g59
NtRp2882
(dp2883
g62
(dp2884
sg71
g2458
sg64
(lp2885
g57
(g78
g59
NtRp2886
(dp2887
g62
(dp2888
g82
g83
ssg71
g2882
sg64
(lp2889
S'wsgi.errors'
p2890
asbag57
(g78
g59
NtRp2891
(dp2892
g62
(dp2893
g89
g90
ssg71
g2882
sg64
(lp2894
S':'
asbag57
(g78
g59
NtRp2895
(dp2896
g62
(dp2897
sg71
g2882
sg64
(lp2898
g57
(g58
g59
NtRp2899
(dp2900
g62
(dp2901
g70
I3
ssg71
g2895
sg64
(lp2902
S"<open file '<stderr>', mode 'w' at 0x00A850D0>"
p2903
asbasbasbag57
(g73
g59
NtRp2904
(dp2905
g62
(dp2906
sg71
g2458
sg64
(lp2907
g57
(g78
g59
NtRp2908
(dp2909
g62
(dp2910
g82
g83
ssg71
g2904
sg64
(lp2911
S'wsgi.file_wrapper'
p2912
asbag57
(g78
g59
NtRp2913
(dp2914
g62
(dp2915
g89
g90
ssg71
g2904
sg64
(lp2916
S':'
asbag57
(g78
g59
NtRp2917
(dp2918
g62
(dp2919
sg71
g2904
sg64
(lp2920
g57
(g58
g59
NtRp2921
(dp2922
g62
(dp2923
g70
I3
ssg71
g2917
sg64
(lp2924
S'<class wsgiref.util.FileWrapper at 0x0172EE68>'
p2925
asbasbasbag57
(g73
g59
NtRp2926
(dp2927
g62
(dp2928
sg71
g2458
sg64
(lp2929
g57
(g78
g59
NtRp2930
(dp2931
g62
(dp2932
g82
g83
ssg71
g2926
sg64
(lp2933
S'wsgi.input'
p2934
asbag57
(g78
g59
NtRp2935
(dp2936
g62
(dp2937
g89
g90
ssg71
g2926
sg64
(lp2938
S':'
asbag57
(g78
g59
NtRp2939
(dp2940
g62
(dp2941
sg71
g2926
sg64
(lp2942
g57
(g58
g59
NtRp2943
(dp2944
g62
(dp2945
g70
I3
ssg71
g2939
sg64
(lp2946
S'<cStringIO.StringO object at 0x05808500>'
p2947
asbasbasbag57
(g73
g59
NtRp2948
(dp2949
g62
(dp2950
sg71
g2458
sg64
(lp2951
g57
(g78
g59
NtRp2952
(dp2953
g62
(dp2954
g82
g83
ssg71
g2948
sg64
(lp2955
S'wsgi.multiprocess'
p2956
asbag57
(g78
g59
NtRp2957
(dp2958
g62
(dp2959
g89
g90
ssg71
g2948
sg64
(lp2960
S':'
asbag57
(g78
g59
NtRp2961
(dp2962
g62
(dp2963
sg71
g2948
sg64
(lp2964
g57
(g58
g59
NtRp2965
(dp2966
g62
(dp2967
g70
I3
ssg71
g2961
sg64
(lp2968
g100
asbasbasbag57
(g73
g59
NtRp2969
(dp2970
g62
(dp2971
sg71
g2458
sg64
(lp2972
g57
(g78
g59
NtRp2973
(dp2974
g62
(dp2975
g82
g83
ssg71
g2969
sg64
(lp2976
S'wsgi.multithread'
p2977
asbag57
(g78
g59
NtRp2978
(dp2979
g62
(dp2980
g89
g90
ssg71
g2969
sg64
(lp2981
S':'
asbag57
(g78
g59
NtRp2982
(dp2983
g62
(dp2984
sg71
g2969
sg64
(lp2985
g57
(g58
g59
NtRp2986
(dp2987
g62
(dp2988
g70
I3
ssg71
g2982
sg64
(lp2989
g1604
asbasbasbag57
(g73
g59
NtRp2990
(dp2991
g62
(dp2992
sg71
g2458
sg64
(lp2993
g57
(g78
g59
NtRp2994
(dp2995
g62
(dp2996
g82
g83
ssg71
g2990
sg64
(lp2997
S'wsgi.run_once'
p2998
asbag57
(g78
g59
NtRp2999
(dp3000
g62
(dp3001
g89
g90
ssg71
g2990
sg64
(lp3002
S':'
asbag57
(g78
g59
NtRp3003
(dp3004
g62
(dp3005
sg71
g2990
sg64
(lp3006
g57
(g58
g59
NtRp3007
(dp3008
g62
(dp3009
g70
I3
ssg71
g3003
sg64
(lp3010
g100
asbasbasbag57
(g73
g59
NtRp3011
(dp3012
g62
(dp3013
sg71
g2458
sg64
(lp3014
g57
(g78
g59
NtRp3015
(dp3016
g62
(dp3017
g82
g83
ssg71
g3011
sg64
(lp3018
S'wsgi.url_scheme'
p3019
asbag57
(g78
g59
NtRp3020
(dp3021
g62
(dp3022
g89
g90
ssg71
g3011
sg64
(lp3023
S':'
asbag57
(g78
g59
NtRp3024
(dp3025
g62
(dp3026
sg71
g3011
sg64
(lp3027
g57
(g58
g59
NtRp3028
(dp3029
g62
(dp3030
g70
I3
ssg71
g3024
sg64
(lp3031
g1647
asbasbasbag57
(g73
g59
NtRp3032
(dp3033
g62
(dp3034
sg71
g2458
sg64
(lp3035
g57
(g78
g59
NtRp3036
(dp3037
g62
(dp3038
g82
g83
ssg71
g3032
sg64
(lp3039
S'wsgi.version'
p3040
asbag57
(g78
g59
NtRp3041
(dp3042
g62
(dp3043
g89
g90
ssg71
g3032
sg64
(lp3044
S':'
asbag57
(g78
g59
NtRp3045
(dp3046
g62
(dp3047
sg71
g3032
sg64
(lp3048
g57
(g58
g59
NtRp3049
(dp3050
g62
(dp3051
g70
I3
ssg71
g3045
sg64
(lp3052
S'1'
asbasbasbasbasbasbasbasbasbasbasbasbasbsS'frames'
p3053
(lp3054
(dp3055
S'file'
p3056
S'D:\\web2py\\source\\web2py\\gluon\\restricted.py'
p3057
sS'dump'
p3058
(dp3059
S'environment'
p3060
S"{'A': <class 'gluon.html.A'>, 'Auth': <class 'gluon.tools.Auth'>, 'B': <class 'gluon.html.B'>, 'BEAUTIFY': <class 'gluon.html.BEAUTIFY'>, 'BODY': <class 'gluon.html.BODY'>, 'BR': <class 'gluon.html.BR'>, 'BUTTON': <class 'gluon.html.BUTTON'>, 'CAT': <class 'gluon.html.CAT'>, 'CENTER': <class 'gluon.html.CENTER'>, 'CLEANUP': <class 'gluon.validators.CLEANUP'>, ...}"
p3061
sS'ccode'
p3062
S'<code object <module> at 062C92F0, file "D:\\web2...hart_dashboard\\controllers/dashboard.py", line 3>'
p3063
ssS'lnum'
p3064
I212
sS'lines'
p3065
(dp3066
I207
S'    try:'
p3067
sI208
S'        if isinstance(code, types.CodeType):'
p3068
sI209
S'            ccode = code'
p3069
sI210
S'        else:'
p3070
sI211
S'            ccode = compile2(code, layer)'
p3071
sI212
S'        exec ccode in environment'
p3072
sI213
S'    except HTTP:'
p3073
sI214
S'        raise'
p3074
sI215
S'    except RestrictedError:'
p3075
sI216
S'        # do not encapsulate (obfuscate) the original RestrictedError'
p3076
ssS'call'
p3077
S"(code='# coding: utf8\\n# try something like\\ndef componen...esponse._vars=response._caller(manage_dashboard)\\n', environment={'A': <class 'gluon.html.A'>, 'Auth': <class 'gluon.tools.Auth'>, 'B': <class 'gluon.html.B'>, 'BEAUTIFY': <class 'gluon.html.BEAUTIFY'>, 'BODY': <class 'gluon.html.BODY'>, 'BR': <class 'gluon.html.BR'>, 'BUTTON': <class 'gluon.html.BUTTON'>, 'CAT': <class 'gluon.html.CAT'>, 'CENTER': <class 'gluon.html.CENTER'>, 'CLEANUP': <class 'gluon.validators.CLEANUP'>, ...}, layer=r'D:\\web2py\\source\\web2py\\applications\\web2py_xlchart_dashboard\\controllers/dashboard.py')"
p3078
sS'func'
p3079
S'restricted'
p3080
sa(dp3081
g3056
S'D:\\web2py\\source\\web2py\\applications\\web2py_xlchart_dashboard\\controllers\\dashboard.py'
p3082
sg3058
(dp3083
S'auth.requires_https'
p3084
S'undefined'
p3085
sS'auth'
p3086
S'<gluon.tools.Auth object>'
p3087
ssg3064
I10
sg3065
(dp3088
I5
S''
sI6
S'def index():'
p3089
sI7
S'    return auth.wiki()'
p3090
sI8
S''
sI9
S'@auth.requires_login()'
p3091
sI10
S'@requires_https()'
p3092
sI11
S'def manage_dashboard():'
p3093
sI12
S'    dash_data = db(db.dashboard.id_user == auth.user_id).select(db.dashboard.ALL)'
p3094
sI13
S'    return dict(dash_data = dash_data)'
p3095
sI14
S''
ssg3077
S'()'
p3096
sg3079
S'<module>'
p3097
sasS'pyver'
p3098
S'Python 2.7: d:\\python27\\python.exe'
p3099
sS'session'
p3100
g57
(g58
g59
NtRp3101
(dp3102
g62
(dp3103
sg64
(lp3104
g57
(g66
g59
NtRp3105
(dp3106
g62
(dp3107
g70
I5
ssg71
Nsg64
(lp3108
g57
(g73
g59
NtRp3109
(dp3110
g62
(dp3111
sg71
g3105
sg64
(lp3112
g57
(g78
g59
NtRp3113
(dp3114
g62
(dp3115
g82
g83
ssg71
g3109
sg64
(lp3116
S'flash'
p3117
asbag57
(g78
g59
NtRp3118
(dp3119
g62
(dp3120
g89
g90
ssg71
g3109
sg64
(lp3121
S':'
asbag57
(g78
g59
NtRp3122
(dp3123
g62
(dp3124
sg71
g3109
sg64
(lp3125
g57
(g58
g59
NtRp3126
(dp3127
g62
(dp3128
g70
I5
ssg71
g3122
sg64
(lp3129
S'None'
p3130
asbasbasbag57
(g73
g59
NtRp3131
(dp3132
g62
(dp3133
sg71
g3105
sg64
(lp3134
g57
(g78
g59
NtRp3135
(dp3136
g62
(dp3137
g82
g83
ssg71
g3131
sg64
(lp3138
S'last_orderby'
p3139
asbag57
(g78
g59
NtRp3140
(dp3141
g62
(dp3142
g89
g90
ssg71
g3131
sg64
(lp3143
S':'
asbag57
(g78
g59
NtRp3144
(dp3145
g62
(dp3146
sg71
g3131
sg64
(lp3147
g57
(g58
g59
NtRp3148
(dp3149
g62
(dp3150
g70
I5
ssg71
g3144
sg64
(lp3151
S'None'
p3152
asbasbasbag57
(g73
g59
NtRp3153
(dp3154
g62
(dp3155
sg71
g3105
sg64
(lp3156
g57
(g78
g59
NtRp3157
(dp3158
g62
(dp3159
g82
g83
ssg71
g3153
sg64
(lp3160
S'last_query'
p3161
asbag57
(g78
g59
NtRp3162
(dp3163
g62
(dp3164
g89
g90
ssg71
g3153
sg64
(lp3165
S':'
asbag57
(g78
g59
NtRp3166
(dp3167
g62
(dp3168
sg71
g3153
sg64
(lp3169
g57
(g58
g59
NtRp3170
(dp3171
g62
(dp3172
g70
I5
ssg71
g3166
sg64
(lp3173
S'db.chart.id>0'
p3174
asbasbasbasbasbsS'etype'
p3175
S"<type 'exceptions.NameError'>"
p3176
sS'date'
p3177
S'Sun Nov 11 20:39:10 2012'
p3178
sS'response'
p3179
g57
(g58
g59
NtRp3180
(dp3181
g62
(dp3182
sg64
(lp3183
g57
(g66
g59
NtRp3184
(dp3185
g62
(dp3186
g70
I5
ssg71
Nsg64
(lp3187
g57
(g73
g59
NtRp3188
(dp3189
g62
(dp3190
sg71
g3184
sg64
(lp3191
g57
(g78
g59
NtRp3192
(dp3193
g62
(dp3194
g82
g83
ssg71
g3188
sg64
(lp3195
g155
asbag57
(g78
g59
NtRp3196
(dp3197
g62
(dp3198
g89
g90
ssg71
g3188
sg64
(lp3199
S':'
asbag57
(g78
g59
NtRp3200
(dp3201
g62
(dp3202
sg71
g3188
sg64
(lp3203
g57
(g58
g59
NtRp3204
(dp3205
g62
(dp3206
g70
I5
ssg71
g3200
sg64
(lp3207
S'<cStringIO.StringO object at 0x05393BA0>'
p3208
asbasbasbag57
(g73
g59
NtRp3209
(dp3210
g62
(dp3211
sg71
g3184
sg64
(lp3212
g57
(g78
g59
NtRp3213
(dp3214
g62
(dp3215
g82
g83
ssg71
g3209
sg64
(lp3216
g243
asbag57
(g78
g59
NtRp3217
(dp3218
g62
(dp3219
g89
g90
ssg71
g3209
sg64
(lp3220
S':'
asbag57
(g78
g59
NtRp3221
(dp3222
g62
(dp3223
sg71
g3209
sg64
(lp3224
g57
(g58
g59
NtRp3225
(dp3226
g62
(dp3227
g70
I5
ssg71
g3221
sg64
(lp3228
g57
(g66
g59
NtRp3229
(dp3230
g62
(dp3231
g70
I4
ssg71
Nsg64
(lp3232
g57
(g73
g59
NtRp3233
(dp3234
g62
(dp3235
sg71
g3229
sg64
(lp3236
g57
(g78
g59
NtRp3237
(dp3238
g62
(dp3239
g82
g83
ssg71
g3233
sg64
(lp3240
S'session_id_web2py_xlchart_dashboard'
p3241
asbag57
(g78
g59
NtRp3242
(dp3243
g62
(dp3244
g89
g90
ssg71
g3233
sg64
(lp3245
S':'
asbag57
(g78
g59
NtRp3246
(dp3247
g62
(dp3248
sg71
g3233
sg64
(lp3249
g57
(g58
g59
NtRp3250
(dp3251
g62
(dp3252
g70
I4
ssg71
g3246
sg64
(lp3253
g475
ag57
(g66
g59
NtRp3254
(dp3255
g62
(dp3256
g70
I3
ssg71
Nsg64
(lp3257
g57
(g73
g59
NtRp3258
(dp3259
g62
(dp3260
sg71
g3254
sg64
(lp3261
g57
(g78
g59
NtRp3262
(dp3263
g62
(dp3264
g82
g83
ssg71
g3258
sg64
(lp3265
g294
asbag57
(g78
g59
NtRp3266
(dp3267
g62
(dp3268
g89
g90
ssg71
g3258
sg64
(lp3269
S':'
asbag57
(g78
g59
NtRp3270
(dp3271
g62
(dp3272
sg71
g3258
sg64
(lp3273
g57
(g58
g59
NtRp3274
(dp3275
g62
(dp3276
g70
I3
ssg71
g3270
sg64
(lp3277
S''
asbasbasbag57
(g73
g59
NtRp3278
(dp3279
g62
(dp3280
sg71
g3254
sg64
(lp3281
g57
(g78
g59
NtRp3282
(dp3283
g62
(dp3284
g82
g83
ssg71
g3278
sg64
(lp3285
g315
asbag57
(g78
g59
NtRp3286
(dp3287
g62
(dp3288
g89
g90
ssg71
g3278
sg64
(lp3289
S':'
asbag57
(g78
g59
NtRp3290
(dp3291
g62
(dp3292
sg71
g3278
sg64
(lp3293
g57
(g58
g59
NtRp3294
(dp3295
g62
(dp3296
g70
I3
ssg71
g3290
sg64
(lp3297
S''
asbasbasbag57
(g73
g59
NtRp3298
(dp3299
g62
(dp3300
sg71
g3254
sg64
(lp3301
g57
(g78
g59
NtRp3302
(dp3303
g62
(dp3304
g82
g83
ssg71
g3298
sg64
(lp3305
g336
asbag57
(g78
g59
NtRp3306
(dp3307
g62
(dp3308
g89
g90
ssg71
g3298
sg64
(lp3309
S':'
asbag57
(g78
g59
NtRp3310
(dp3311
g62
(dp3312
sg71
g3298
sg64
(lp3313
g57
(g58
g59
NtRp3314
(dp3315
g62
(dp3316
g70
I3
ssg71
g3310
sg64
(lp3317
S''
asbasbasbag57
(g73
g59
NtRp3318
(dp3319
g62
(dp3320
sg71
g3254
sg64
(lp3321
g57
(g78
g59
NtRp3322
(dp3323
g62
(dp3324
g82
g83
ssg71
g3318
sg64
(lp3325
g357
asbag57
(g78
g59
NtRp3326
(dp3327
g62
(dp3328
g89
g90
ssg71
g3318
sg64
(lp3329
S':'
asbag57
(g78
g59
NtRp3330
(dp3331
g62
(dp3332
sg71
g3318
sg64
(lp3333
g57
(g58
g59
NtRp3334
(dp3335
g62
(dp3336
g70
I3
ssg71
g3330
sg64
(lp3337
S''
asbasbasbag57
(g73
g59
NtRp3338
(dp3339
g62
(dp3340
sg71
g3254
sg64
(lp3341
g57
(g78
g59
NtRp3342
(dp3343
g62
(dp3344
g82
g83
ssg71
g3338
sg64
(lp3345
g378
asbag57
(g78
g59
NtRp3346
(dp3347
g62
(dp3348
g89
g90
ssg71
g3338
sg64
(lp3349
S':'
asbag57
(g78
g59
NtRp3350
(dp3351
g62
(dp3352
sg71
g3338
sg64
(lp3353
g57
(g58
g59
NtRp3354
(dp3355
g62
(dp3356
g70
I3
ssg71
g3350
sg64
(lp3357
S''
asbasbasbag57
(g73
g59
NtRp3358
(dp3359
g62
(dp3360
sg71
g3254
sg64
(lp3361
g57
(g78
g59
NtRp3362
(dp3363
g62
(dp3364
g82
g83
ssg71
g3358
sg64
(lp3365
g399
asbag57
(g78
g59
NtRp3366
(dp3367
g62
(dp3368
g89
g90
ssg71
g3358
sg64
(lp3369
S':'
asbag57
(g78
g59
NtRp3370
(dp3371
g62
(dp3372
sg71
g3358
sg64
(lp3373
g57
(g58
g59
NtRp3374
(dp3375
g62
(dp3376
g70
I3
ssg71
g3370
sg64
(lp3377
S'/'
asbasbasbag57
(g73
g59
NtRp3378
(dp3379
g62
(dp3380
sg71
g3254
sg64
(lp3381
g57
(g78
g59
NtRp3382
(dp3383
g62
(dp3384
g82
g83
ssg71
g3378
sg64
(lp3385
g420
asbag57
(g78
g59
NtRp3386
(dp3387
g62
(dp3388
g89
g90
ssg71
g3378
sg64
(lp3389
S':'
asbag57
(g78
g59
NtRp3390
(dp3391
g62
(dp3392
sg71
g3378
sg64
(lp3393
g57
(g58
g59
NtRp3394
(dp3395
g62
(dp3396
g70
I3
ssg71
g3390
sg64
(lp3397
S''
asbasbasbag57
(g73
g59
NtRp3398
(dp3399
g62
(dp3400
sg71
g3254
sg64
(lp3401
g57
(g78
g59
NtRp3402
(dp3403
g62
(dp3404
g82
g83
ssg71
g3398
sg64
(lp3405
g441
asbag57
(g78
g59
NtRp3406
(dp3407
g62
(dp3408
g89
g90
ssg71
g3398
sg64
(lp3409
S':'
asbag57
(g78
g59
NtRp3410
(dp3411
g62
(dp3412
sg71
g3398
sg64
(lp3413
g57
(g58
g59
NtRp3414
(dp3415
g62
(dp3416
g70
I3
ssg71
g3410
sg64
(lp3417
S''
asbasbasbasbasbasbasbasbasbasbasbag57
(g73
g59
NtRp3418
(dp3419
g62
(dp3420
sg71
g3184
sg64
(lp3421
g57
(g78
g59
NtRp3422
(dp3423
g62
(dp3424
g82
g83
ssg71
g3418
sg64
(lp3425
S'delimiters'
p3426
asbag57
(g78
g59
NtRp3427
(dp3428
g62
(dp3429
g89
g90
ssg71
g3418
sg64
(lp3430
S':'
asbag57
(g78
g59
NtRp3431
(dp3432
g62
(dp3433
sg71
g3418
sg64
(lp3434
g57
(g58
g59
NtRp3435
(dp3436
g62
(dp3437
g70
I5
ssg71
g3431
sg64
(lp3438
g57
(g66
g59
NtRp3439
(dp3440
g62
(dp3441
g70
I4
ssg71
Nsg64
(lp3442
g57
(g73
g59
NtRp3443
(dp3444
g62
(dp3445
sg71
g3439
sg64
(lp3446
g57
(g78
g59
NtRp3447
(dp3448
g62
(dp3449
sg71
g3443
sg64
(lp3450
g57
(g58
g59
NtRp3451
(dp3452
g62
(dp3453
g70
I4
ssg71
g3447
sg64
(lp3454
S'{{'
p3455
asbasbasbag57
(g73
g59
NtRp3456
(dp3457
g62
(dp3458
sg71
g3439
sg64
(lp3459
g57
(g78
g59
NtRp3460
(dp3461
g62
(dp3462
sg71
g3456
sg64
(lp3463
g57
(g58
g59
NtRp3464
(dp3465
g62
(dp3466
g70
I4
ssg71
g3460
sg64
(lp3467
S'}}'
p3468
asbasbasbasbasbasbasbag57
(g73
g59
NtRp3469
(dp3470
g62
(dp3471
sg71
g3184
sg64
(lp3472
g57
(g78
g59
NtRp3473
(dp3474
g62
(dp3475
g82
g83
ssg71
g3469
sg64
(lp3476
S'files'
p3477
asbag57
(g78
g59
NtRp3478
(dp3479
g62
(dp3480
g89
g90
ssg71
g3469
sg64
(lp3481
S':'
asbag57
(g78
g59
NtRp3482
(dp3483
g62
(dp3484
sg71
g3469
sg64
(lp3485
g57
(g58
g59
NtRp3486
(dp3487
g62
(dp3488
g70
I5
ssg71
g3482
sg64
(lp3489
g57
(g66
g59
NtRp3490
(dp3491
g62
(dp3492
g70
I4
ssg71
Nsg64
(lp3493
sbasbasbasbag57
(g73
g59
NtRp3494
(dp3495
g62
(dp3496
sg71
g3184
sg64
(lp3497
g57
(g78
g59
NtRp3498
(dp3499
g62
(dp3500
g82
g83
ssg71
g3494
sg64
(lp3501
S'flash'
p3502
asbag57
(g78
g59
NtRp3503
(dp3504
g62
(dp3505
g89
g90
ssg71
g3494
sg64
(lp3506
S':'
asbag57
(g78
g59
NtRp3507
(dp3508
g62
(dp3509
sg71
g3494
sg64
(lp3510
g57
(g58
g59
NtRp3511
(dp3512
g62
(dp3513
g70
I5
ssg71
g3507
sg64
(lp3514
S''
asbasbasbag57
(g73
g59
NtRp3515
(dp3516
g62
(dp3517
sg71
g3184
sg64
(lp3518
g57
(g78
g59
NtRp3519
(dp3520
g62
(dp3521
g82
g83
ssg71
g3515
sg64
(lp3522
S'generic_patterns'
p3523
asbag57
(g78
g59
NtRp3524
(dp3525
g62
(dp3526
g89
g90
ssg71
g3515
sg64
(lp3527
S':'
asbag57
(g78
g59
NtRp3528
(dp3529
g62
(dp3530
sg71
g3515
sg64
(lp3531
g57
(g58
g59
NtRp3532
(dp3533
g62
(dp3534
g70
I5
ssg71
g3528
sg64
(lp3535
g57
(g66
g59
NtRp3536
(dp3537
g62
(dp3538
g70
I4
ssg71
Nsg64
(lp3539
g57
(g73
g59
NtRp3540
(dp3541
g62
(dp3542
sg71
g3536
sg64
(lp3543
g57
(g78
g59
NtRp3544
(dp3545
g62
(dp3546
sg71
g3540
sg64
(lp3547
g57
(g58
g59
NtRp3548
(dp3549
g62
(dp3550
g70
I4
ssg71
g3544
sg64
(lp3551
S'*'
asbasbasbasbasbasbasbag57
(g73
g59
NtRp3552
(dp3553
g62
(dp3554
sg71
g3184
sg64
(lp3555
g57
(g78
g59
NtRp3556
(dp3557
g62
(dp3558
g82
g83
ssg71
g3552
sg64
(lp3559
S'google_analytics_id'
p3560
asbag57
(g78
g59
NtRp3561
(dp3562
g62
(dp3563
g89
g90
ssg71
g3552
sg64
(lp3564
S':'
asbag57
(g78
g59
NtRp3565
(dp3566
g62
(dp3567
sg71
g3552
sg64
(lp3568
g57
(g58
g59
NtRp3569
(dp3570
g62
(dp3571
g70
I5
ssg71
g3565
sg64
(lp3572
S'None'
p3573
asbasbasbag57
(g73
g59
NtRp3574
(dp3575
g62
(dp3576
sg71
g3184
sg64
(lp3577
g57
(g78
g59
NtRp3578
(dp3579
g62
(dp3580
g82
g83
ssg71
g3574
sg64
(lp3581
S'headers'
p3582
asbag57
(g78
g59
NtRp3583
(dp3584
g62
(dp3585
g89
g90
ssg71
g3574
sg64
(lp3586
S':'
asbag57
(g78
g59
NtRp3587
(dp3588
g62
(dp3589
sg71
g3574
sg64
(lp3590
g57
(g58
g59
NtRp3591
(dp3592
g62
(dp3593
g70
I5
ssg71
g3587
sg64
(lp3594
g57
(g66
g59
NtRp3595
(dp3596
g62
(dp3597
g70
I4
ssg71
Nsg64
(lp3598
g57
(g73
g59
NtRp3599
(dp3600
g62
(dp3601
sg71
g3595
sg64
(lp3602
g57
(g78
g59
NtRp3603
(dp3604
g62
(dp3605
g82
g83
ssg71
g3599
sg64
(lp3606
S'X-Powered-By'
p3607
asbag57
(g78
g59
NtRp3608
(dp3609
g62
(dp3610
g89
g90
ssg71
g3599
sg64
(lp3611
S':'
asbag57
(g78
g59
NtRp3612
(dp3613
g62
(dp3614
sg71
g3599
sg64
(lp3615
g57
(g58
g59
NtRp3616
(dp3617
g62
(dp3618
g70
I4
ssg71
g3612
sg64
(lp3619
S'web2py'
p3620
asbasbasbasbasbasbasbag57
(g73
g59
NtRp3621
(dp3622
g62
(dp3623
sg71
g3184
sg64
(lp3624
g57
(g78
g59
NtRp3625
(dp3626
g62
(dp3627
g82
g83
ssg71
g3621
sg64
(lp3628
S'menu'
p3629
asbag57
(g78
g59
NtRp3630
(dp3631
g62
(dp3632
g89
g90
ssg71
g3621
sg64
(lp3633
S':'
asbag57
(g78
g59
NtRp3634
(dp3635
g62
(dp3636
sg71
g3621
sg64
(lp3637
g57
(g58
g59
NtRp3638
(dp3639
g62
(dp3640
g70
I5
ssg71
g3634
sg64
(lp3641
g57
(g66
g59
NtRp3642
(dp3643
g62
(dp3644
g70
I4
ssg71
Nsg64
(lp3645
g57
(g73
g59
NtRp3646
(dp3647
g62
(dp3648
sg71
g3642
sg64
(lp3649
g57
(g78
g59
NtRp3650
(dp3651
g62
(dp3652
sg71
g3646
sg64
(lp3653
g57
(g58
g59
NtRp3654
(dp3655
g62
(dp3656
g70
I4
ssg71
g3650
sg64
(lp3657
g57
(g66
g59
NtRp3658
(dp3659
g62
(dp3660
g70
I3
ssg71
Nsg64
(lp3661
g57
(g73
g59
NtRp3662
(dp3663
g62
(dp3664
sg71
g3658
sg64
(lp3665
g57
(g78
g59
NtRp3666
(dp3667
g62
(dp3668
sg71
g3662
sg64
(lp3669
g57
(g58
g59
NtRp3670
(dp3671
g62
(dp3672
g70
I3
ssg71
g3666
sg64
(lp3673
cgluon.languages
lazyT_unpickle
p3674
(S't\t\x00\x00\x00Dashboard'
tRp3675
asbasbasbag57
(g73
g59
NtRp3676
(dp3677
g62
(dp3678
sg71
g3658
sg64
(lp3679
g57
(g78
g59
NtRp3680
(dp3681
g62
(dp3682
sg71
g3676
sg64
(lp3683
g57
(g58
g59
NtRp3684
(dp3685
g62
(dp3686
g70
I3
ssg71
g3680
sg64
(lp3687
g100
asbasbasbag57
(g73
g59
NtRp3688
(dp3689
g62
(dp3690
sg71
g3658
sg64
(lp3691
g57
(g78
g59
NtRp3692
(dp3693
g62
(dp3694
sg71
g3688
sg64
(lp3695
g57
(g58
g59
NtRp3696
(dp3697
g62
(dp3698
g70
I3
ssg71
g3692
sg64
(lp3699
S'/web2py_xlchart_dashboard/default/index'
p3700
asbasbasbag57
(g73
g59
NtRp3701
(dp3702
g62
(dp3703
sg71
g3658
sg64
(lp3704
g57
(g78
g59
NtRp3705
(dp3706
g62
(dp3707
sg71
g3701
sg64
(lp3708
g57
(g58
g59
NtRp3709
(dp3710
g62
(dp3711
g70
I3
ssg71
g3705
sg64
(lp3712
g57
(g66
g59
NtRp3713
(dp3714
g62
(dp3715
g70
I2
ssg71
Nsg64
(lp3716
g57
(g73
g59
NtRp3717
(dp3718
g62
(dp3719
sg71
g3713
sg64
(lp3720
g57
(g78
g59
NtRp3721
(dp3722
g62
(dp3723
sg71
g3717
sg64
(lp3724
g57
(g58
g59
NtRp3725
(dp3726
g62
(dp3727
g70
I2
ssg71
g3721
sg64
(lp3728
g57
(g66
g59
NtRp3729
(dp3730
g62
(dp3731
g70
I1
ssg71
Nsg64
(lp3732
g57
(g73
g59
NtRp3733
(dp3734
g62
(dp3735
sg71
g3729
sg64
(lp3736
g57
(g78
g59
NtRp3737
(dp3738
g62
(dp3739
sg71
g3733
sg64
(lp3740
g57
(g58
g59
NtRp3741
(dp3742
g62
(dp3743
g70
I1
ssg71
g3737
sg64
(lp3744
g3674
(S's\x0c\x00\x00\x00My Dashboard'
tRp3745
asbasbasbag57
(g73
g59
NtRp3746
(dp3747
g62
(dp3748
sg71
g3729
sg64
(lp3749
g57
(g78
g59
NtRp3750
(dp3751
g62
(dp3752
sg71
g3746
sg64
(lp3753
g57
(g58
g59
NtRp3754
(dp3755
g62
(dp3756
g70
I1
ssg71
g3750
sg64
(lp3757
I00
asbasbasbag57
(g73
g59
NtRp3758
(dp3759
g62
(dp3760
sg71
g3729
sg64
(lp3761
g57
(g78
g59
NtRp3762
(dp3763
g62
(dp3764
sg71
g3758
sg64
(lp3765
g57
(g58
g59
NtRp3766
(dp3767
g62
(dp3768
g70
I1
ssg71
g3762
sg64
(lp3769
S'/web2py_xlchart_dashboard/default/index'
p3770
asbasbasbag57
(g73
g59
NtRp3771
(dp3772
g62
(dp3773
sg71
g3729
sg64
(lp3774
g57
(g78
g59
NtRp3775
(dp3776
g62
(dp3777
sg71
g3771
sg64
(lp3778
g57
(g58
g59
NtRp3779
(dp3780
g62
(dp3781
g70
I1
ssg71
g3775
sg64
(lp3782
(lp3783
(g3674
(S's\x11\x00\x00\x00Manage Dashboards'
tRp3784
I00
S'/web2py_xlchart_dashboard/dashboard/manage_dashboard'
tp3785
a(g3674
(S's\x0f\x00\x00\x00Manage Projects'
tRp3786
I00
S'/web2py_xlchart_dashboard/default/add_workbook'
tp3787
a(g3674
(S's\x0b\x00\x00\x00Add Project'
tRp3788
I00
S'/web2py_xlchart_dashboard/default/add_workbook'
tp3789
aasbasbasbasbasbasbasbag57
(g73
g59
NtRp3790
(dp3791
g62
(dp3792
sg71
g3713
sg64
(lp3793
g57
(g78
g59
NtRp3794
(dp3795
g62
(dp3796
sg71
g3790
sg64
(lp3797
g57
(g58
g59
NtRp3798
(dp3799
g62
(dp3800
g70
I2
ssg71
g3794
sg64
(lp3801
g57
(g66
g59
NtRp3802
(dp3803
g62
(dp3804
g70
I1
ssg71
Nsg64
(lp3805
g57
(g73
g59
NtRp3806
(dp3807
g62
(dp3808
sg71
g3802
sg64
(lp3809
g57
(g78
g59
NtRp3810
(dp3811
g62
(dp3812
sg71
g3806
sg64
(lp3813
g57
(g58
g59
NtRp3814
(dp3815
g62
(dp3816
g70
I1
ssg71
g3810
sg64
(lp3817
g3674
(S't\x06\x00\x00\x00Charts'
tRp3818
asbasbasbag57
(g73
g59
NtRp3819
(dp3820
g62
(dp3821
sg71
g3802
sg64
(lp3822
g57
(g78
g59
NtRp3823
(dp3824
g62
(dp3825
sg71
g3819
sg64
(lp3826
g57
(g58
g59
NtRp3827
(dp3828
g62
(dp3829
g70
I1
ssg71
g3823
sg64
(lp3830
I00
asbasbasbag57
(g73
g59
NtRp3831
(dp3832
g62
(dp3833
sg71
g3802
sg64
(lp3834
g57
(g78
g59
NtRp3835
(dp3836
g62
(dp3837
sg71
g3831
sg64
(lp3838
g57
(g58
g59
NtRp3839
(dp3840
g62
(dp3841
g70
I1
ssg71
g3835
sg64
(lp3842
S'/web2py_xlchart_dashboard/default/index'
p3843
asbasbasbag57
(g73
g59
NtRp3844
(dp3845
g62
(dp3846
sg71
g3802
sg64
(lp3847
g57
(g78
g59
NtRp3848
(dp3849
g62
(dp3850
sg71
g3844
sg64
(lp3851
g57
(g58
g59
NtRp3852
(dp3853
g62
(dp3854
g70
I1
ssg71
g3848
sg64
(lp3855
(lp3856
(g3674
(S's\x13\x00\x00\x00Subscribe to Charts'
tRp3857
I00
S'/web2py_xlchart_dashboard/charts/user_charts'
tp3858
aasbasbasbasbasbasbasbag57
(g73
g59
NtRp3859
(dp3860
g62
(dp3861
sg71
g3713
sg64
(lp3862
g57
(g78
g59
NtRp3863
(dp3864
g62
(dp3865
sg71
g3859
sg64
(lp3866
g57
(g58
g59
NtRp3867
(dp3868
g62
(dp3869
g70
I2
ssg71
g3863
sg64
(lp3870
g57
(g66
g59
NtRp3871
(dp3872
g62
(dp3873
g70
I1
ssg71
Nsg64
(lp3874
g57
(g73
g59
NtRp3875
(dp3876
g62
(dp3877
sg71
g3871
sg64
(lp3878
g57
(g78
g59
NtRp3879
(dp3880
g62
(dp3881
sg71
g3875
sg64
(lp3882
g57
(g58
g59
NtRp3883
(dp3884
g62
(dp3885
g70
I1
ssg71
g3879
sg64
(lp3886
g3674
(S't\t\x00\x00\x00Workbooks'
tRp3887
asbasbasbag57
(g73
g59
NtRp3888
(dp3889
g62
(dp3890
sg71
g3871
sg64
(lp3891
g57
(g78
g59
NtRp3892
(dp3893
g62
(dp3894
sg71
g3888
sg64
(lp3895
g57
(g58
g59
NtRp3896
(dp3897
g62
(dp3898
g70
I1
ssg71
g3892
sg64
(lp3899
I00
asbasbasbag57
(g73
g59
NtRp3900
(dp3901
g62
(dp3902
sg71
g3871
sg64
(lp3903
g57
(g78
g59
NtRp3904
(dp3905
g62
(dp3906
sg71
g3900
sg64
(lp3907
g57
(g58
g59
NtRp3908
(dp3909
g62
(dp3910
g70
I1
ssg71
g3904
sg64
(lp3911
S'/web2py_xlchart_dashboard/default/register_chart_part1'
p3912
asbasbasbag57
(g73
g59
NtRp3913
(dp3914
g62
(dp3915
sg71
g3871
sg64
(lp3916
g57
(g78
g59
NtRp3917
(dp3918
g62
(dp3919
sg71
g3913
sg64
(lp3920
g57
(g58
g59
NtRp3921
(dp3922
g62
(dp3923
g70
I1
ssg71
g3917
sg64
(lp3924
(lp3925
(g3674
(S's\x0c\x00\x00\x00Add Workbook'
tRp3926
I00
S'/web2py_xlchart_dashboard/default/register_chart_part1'
tp3927
aasbasbasbasbasbasbasbasbasbasbasbasbasbasbasbag57
(g73
g59
NtRp3928
(dp3929
g62
(dp3930
sg71
g3642
sg64
(lp3931
g57
(g78
g59
NtRp3932
(dp3933
g62
(dp3934
sg71
g3928
sg64
(lp3935
g57
(g58
g59
NtRp3936
(dp3937
g62
(dp3938
g70
I4
ssg71
g3932
sg64
(lp3939
g57
(g66
g59
NtRp3940
(dp3941
g62
(dp3942
g70
I3
ssg71
Nsg64
(lp3943
g57
(g73
g59
NtRp3944
(dp3945
g62
(dp3946
sg71
g3940
sg64
(lp3947
g57
(g78
g59
NtRp3948
(dp3949
g62
(dp3950
sg71
g3944
sg64
(lp3951
g57
(g58
g59
NtRp3952
(dp3953
g62
(dp3954
g70
I3
ssg71
g3948
sg64
(lp3955
g57
(cgluon.html
SPAN
p3956
g59
NtRp3957
(dp3958
g62
(dp3959
S'_class'
p3960
S'highlighted'
p3961
ssg71
Nsg64
(lp3962
g3620
asbasbasbasbag57
(g73
g59
NtRp3963
(dp3964
g62
(dp3965
sg71
g3940
sg64
(lp3966
g57
(g78
g59
NtRp3967
(dp3968
g62
(dp3969
sg71
g3963
sg64
(lp3970
g57
(g58
g59
NtRp3971
(dp3972
g62
(dp3973
g70
I3
ssg71
g3967
sg64
(lp3974
g100
asbasbasbag57
(g73
g59
NtRp3975
(dp3976
g62
(dp3977
sg71
g3940
sg64
(lp3978
g57
(g78
g59
NtRp3979
(dp3980
g62
(dp3981
sg71
g3975
sg64
(lp3982
g57
(g58
g59
NtRp3983
(dp3984
g62
(dp3985
g70
I3
ssg71
g3979
sg64
(lp3986
S'http://web2py.com'
p3987
asbasbasbag57
(g73
g59
NtRp3988
(dp3989
g62
(dp3990
sg71
g3940
sg64
(lp3991
g57
(g78
g59
NtRp3992
(dp3993
g62
(dp3994
sg71
g3988
sg64
(lp3995
g57
(g58
g59
NtRp3996
(dp3997
g62
(dp3998
g70
I3
ssg71
g3992
sg64
(lp3999
g57
(g66
g59
NtRp4000
(dp4001
g62
(dp4002
g70
I2
ssg71
Nsg64
(lp4003
g57
(g73
g59
NtRp4004
(dp4005
g62
(dp4006
sg71
g4000
sg64
(lp4007
g57
(g78
g59
NtRp4008
(dp4009
g62
(dp4010
sg71
g4004
sg64
(lp4011
g57
(g58
g59
NtRp4012
(dp4013
g62
(dp4014
g70
I2
ssg71
g4008
sg64
(lp4015
g57
(g66
g59
NtRp4016
(dp4017
g62
(dp4018
g70
I1
ssg71
Nsg64
(lp4019
g57
(g73
g59
NtRp4020
(dp4021
g62
(dp4022
sg71
g4016
sg64
(lp4023
g57
(g78
g59
NtRp4024
(dp4025
g62
(dp4026
sg71
g4020
sg64
(lp4027
g57
(g58
g59
NtRp4028
(dp4029
g62
(dp4030
g70
I1
ssg71
g4024
sg64
(lp4031
g3674
(S's\x08\x00\x00\x00My Sites'
tRp4032
asbasbasbag57
(g73
g59
NtRp4033
(dp4034
g62
(dp4035
sg71
g4016
sg64
(lp4036
g57
(g78
g59
NtRp4037
(dp4038
g62
(dp4039
sg71
g4033
sg64
(lp4040
g57
(g58
g59
NtRp4041
(dp4042
g62
(dp4043
g70
I1
ssg71
g4037
sg64
(lp4044
I00
asbasbasbag57
(g73
g59
NtRp4045
(dp4046
g62
(dp4047
sg71
g4016
sg64
(lp4048
g57
(g78
g59
NtRp4049
(dp4050
g62
(dp4051
sg71
g4045
sg64
(lp4052
g57
(g58
g59
NtRp4053
(dp4054
g62
(dp4055
g70
I1
ssg71
g4049
sg64
(lp4056
S'/admin/default/site'
p4057
asbasbasbasbasbasbasbag57
(g73
g59
NtRp4058
(dp4059
g62
(dp4060
sg71
g4000
sg64
(lp4061
g57
(g78
g59
NtRp4062
(dp4063
g62
(dp4064
sg71
g4058
sg64
(lp4065
g57
(g58
g59
NtRp4066
(dp4067
g62
(dp4068
g70
I2
ssg71
g4062
sg64
(lp4069
g57
(g66
g59
NtRp4070
(dp4071
g62
(dp4072
g70
I1
ssg71
Nsg64
(lp4073
g57
(g73
g59
NtRp4074
(dp4075
g62
(dp4076
sg71
g4070
sg64
(lp4077
g57
(g78
g59
NtRp4078
(dp4079
g62
(dp4080
sg71
g4074
sg64
(lp4081
g57
(g58
g59
NtRp4082
(dp4083
g62
(dp4084
g70
I1
ssg71
g4078
sg64
(lp4085
g3674
(S's\x08\x00\x00\x00This App'
tRp4086
asbasbasbag57
(g73
g59
NtRp4087
(dp4088
g62
(dp4089
sg71
g4070
sg64
(lp4090
g57
(g78
g59
NtRp4091
(dp4092
g62
(dp4093
sg71
g4087
sg64
(lp4094
g57
(g58
g59
NtRp4095
(dp4096
g62
(dp4097
g70
I1
ssg71
g4091
sg64
(lp4098
I00
asbasbasbag57
(g73
g59
NtRp4099
(dp4100
g62
(dp4101
sg71
g4070
sg64
(lp4102
g57
(g78
g59
NtRp4103
(dp4104
g62
(dp4105
sg71
g4099
sg64
(lp4106
g57
(g58
g59
NtRp4107
(dp4108
g62
(dp4109
g70
I1
ssg71
g4103
sg64
(lp4110
S'/admin/default/design/web2py_xlchart_dashboard'
p4111
asbasbasbag57
(g73
g59
NtRp4112
(dp4113
g62
(dp4114
sg71
g4070
sg64
(lp4115
g57
(g78
g59
NtRp4116
(dp4117
g62
(dp4118
sg71
g4112
sg64
(lp4119
g57
(g58
g59
NtRp4120
(dp4121
g62
(dp4122
g70
I1
ssg71
g4116
sg64
(lp4123
(lp4124
(g3674
(S's\n\x00\x00\x00Controller'
tRp4125
I00
S'/admin/default/edit/web2py_xlchart_dashboard/controllers/dashboard.py'
tp4126
a(g3674
(S's\x04\x00\x00\x00View'
tRp4127
I00
S'/admin/default/edit/web2py_xlchart_dashboard/views/dashboard/manage_dashboard.html'
tp4128
a(g3674
(S's\x06\x00\x00\x00Layout'
tRp4129
I00
S'/admin/default/edit/web2py_xlchart_dashboard/views/layout.html'
tp4130
a(g3674
(S's\n\x00\x00\x00Stylesheet'
tRp4131
I00
S'/admin/default/edit/web2py_xlchart_dashboard/static/css/web2py.css'
tp4132
a(g3674
(S's\x08\x00\x00\x00DB Model'
tRp4133
I00
S'/admin/default/edit/web2py_xlchart_dashboard/models/db.py'
tp4134
a(g3674
(S's\n\x00\x00\x00Menu Model'
tRp4135
I00
S'/admin/default/edit/web2py_xlchart_dashboard/models/menu.py'
tp4136
a(g3674
(S's\x08\x00\x00\x00Database'
tRp4137
I00
S'/web2py_xlchart_dashboard/appadmin/index'
tp4138
a(g3674
(S's\x06\x00\x00\x00Errors'
tRp4139
I00
S'/admin/default/errors/web2py_xlchart_dashboard'
tp4140
a(g3674
(S's\x05\x00\x00\x00About'
tRp4141
I00
S'/admin/default/about/web2py_xlchart_dashboard'
tp4142
aasbasbasbasbasbasbasbag57
(g73
g59
NtRp4143
(dp4144
g62
(dp4145
sg71
g4000
sg64
(lp4146
g57
(g78
g59
NtRp4147
(dp4148
g62
(dp4149
sg71
g4143
sg64
(lp4150
g57
(g58
g59
NtRp4151
(dp4152
g62
(dp4153
g70
I2
ssg71
g4147
sg64
(lp4154
g57
(g66
g59
NtRp4155
(dp4156
g62
(dp4157
g70
I1
ssg71
Nsg64
(lp4158
g57
(g73
g59
NtRp4159
(dp4160
g62
(dp4161
sg71
g4155
sg64
(lp4162
g57
(g78
g59
NtRp4163
(dp4164
g62
(dp4165
sg71
g4159
sg64
(lp4166
g57
(g58
g59
NtRp4167
(dp4168
g62
(dp4169
g70
I1
ssg71
g4163
sg64
(lp4170
S'web2py.com'
p4171
asbasbasbag57
(g73
g59
NtRp4172
(dp4173
g62
(dp4174
sg71
g4155
sg64
(lp4175
g57
(g78
g59
NtRp4176
(dp4177
g62
(dp4178
sg71
g4172
sg64
(lp4179
g57
(g58
g59
NtRp4180
(dp4181
g62
(dp4182
g70
I1
ssg71
g4176
sg64
(lp4183
I00
asbasbasbag57
(g73
g59
NtRp4184
(dp4185
g62
(dp4186
sg71
g4155
sg64
(lp4187
g57
(g78
g59
NtRp4188
(dp4189
g62
(dp4190
sg71
g4184
sg64
(lp4191
g57
(g58
g59
NtRp4192
(dp4193
g62
(dp4194
g70
I1
ssg71
g4188
sg64
(lp4195
S'http://www.web2py.com'
p4196
asbasbasbag57
(g73
g59
NtRp4197
(dp4198
g62
(dp4199
sg71
g4155
sg64
(lp4200
g57
(g78
g59
NtRp4201
(dp4202
g62
(dp4203
sg71
g4197
sg64
(lp4204
g57
(g58
g59
NtRp4205
(dp4206
g62
(dp4207
g70
I1
ssg71
g4201
sg64
(lp4208
(lp4209
(g3674
(S's\x08\x00\x00\x00Download'
tRp4210
I00
S'http://www.web2py.com/examples/default/download'
p4211
tp4212
a(g3674
(S's\x07\x00\x00\x00Support'
tRp4213
I00
S'http://www.web2py.com/examples/default/support'
p4214
tp4215
a(g3674
(S's\x04\x00\x00\x00Demo'
tRp4216
I00
S'http://web2py.com/demo_admin'
p4217
tp4218
a(g3674
(S's\x0e\x00\x00\x00Quick Examples'
tRp4219
I00
S'http://web2py.com/examples/default/examples'
p4220
tp4221
a(g3674
(S's\x03\x00\x00\x00FAQ'
tRp4222
I00
S'http://web2py.com/AlterEgo'
p4223
tp4224
a(g3674
(S's\x06\x00\x00\x00Videos'
tRp4225
I00
S'http://www.web2py.com/examples/default/videos/'
p4226
tp4227
a(g3674
(S's\x11\x00\x00\x00Free Applications'
tRp4228
I00
S'http://web2py.com/appliances'
p4229
tp4230
a(g3674
(S's\x07\x00\x00\x00Plugins'
tRp4231
I00
S'http://web2py.com/plugins'
p4232
tp4233
a(g3674
(S's\x07\x00\x00\x00Layouts'
tRp4234
I00
S'http://web2py.com/layouts'
p4235
tp4236
a(g3674
(S's\x07\x00\x00\x00Recipes'
tRp4237
I00
S'http://web2pyslices.com/'
p4238
tp4239
a(g3674
(S's\x08\x00\x00\x00Semantic'
tRp4240
I00
S'http://web2py.com/semantic'
p4241
tp4242
aasbasbasbasbasbasbasbag57
(g73
g59
NtRp4243
(dp4244
g62
(dp4245
sg71
g4000
sg64
(lp4246
g57
(g78
g59
NtRp4247
(dp4248
g62
(dp4249
sg71
g4243
sg64
(lp4250
g57
(g58
g59
NtRp4251
(dp4252
g62
(dp4253
g70
I2
ssg71
g4247
sg64
(lp4254
g57
(g66
g59
NtRp4255
(dp4256
g62
(dp4257
g70
I1
ssg71
Nsg64
(lp4258
g57
(g73
g59
NtRp4259
(dp4260
g62
(dp4261
sg71
g4255
sg64
(lp4262
g57
(g78
g59
NtRp4263
(dp4264
g62
(dp4265
sg71
g4259
sg64
(lp4266
g57
(g58
g59
NtRp4267
(dp4268
g62
(dp4269
g70
I1
ssg71
g4263
sg64
(lp4270
g3674
(S's\r\x00\x00\x00Documentation'
tRp4271
asbasbasbag57
(g73
g59
NtRp4272
(dp4273
g62
(dp4274
sg71
g4255
sg64
(lp4275
g57
(g78
g59
NtRp4276
(dp4277
g62
(dp4278
sg71
g4272
sg64
(lp4279
g57
(g58
g59
NtRp4280
(dp4281
g62
(dp4282
g70
I1
ssg71
g4276
sg64
(lp4283
I00
asbasbasbag57
(g73
g59
NtRp4284
(dp4285
g62
(dp4286
sg71
g4255
sg64
(lp4287
g57
(g78
g59
NtRp4288
(dp4289
g62
(dp4290
sg71
g4284
sg64
(lp4291
g57
(g58
g59
NtRp4292
(dp4293
g62
(dp4294
g70
I1
ssg71
g4288
sg64
(lp4295
S'http://www.web2py.com/book'
p4296
asbasbasbag57
(g73
g59
NtRp4297
(dp4298
g62
(dp4299
sg71
g4255
sg64
(lp4300
g57
(g78
g59
NtRp4301
(dp4302
g62
(dp4303
sg71
g4297
sg64
(lp4304
g57
(g58
g59
NtRp4305
(dp4306
g62
(dp4307
g70
I1
ssg71
g4301
sg64
(lp4308
(lp4309
(g3674
(S's\x07\x00\x00\x00Preface'
tRp4310
I00
S'http://www.web2py.com/book/default/chapter/00'
p4311
tp4312
a(g3674
(S's\x0c\x00\x00\x00Introduction'
tRp4313
I00
S'http://www.web2py.com/book/default/chapter/01'
p4314
tp4315
a(g3674
(S's\x06\x00\x00\x00Python'
tRp4316
I00
S'http://www.web2py.com/book/default/chapter/02'
p4317
tp4318
a(g3674
(S's\x08\x00\x00\x00Overview'
tRp4319
I00
S'http://www.web2py.com/book/default/chapter/03'
p4320
tp4321
a(g3674
(S's\x08\x00\x00\x00The Core'
tRp4322
I00
S'http://www.web2py.com/book/default/chapter/04'
p4323
tp4324
a(g3674
(S's\t\x00\x00\x00The Views'
tRp4325
I00
S'http://www.web2py.com/book/default/chapter/05'
p4326
tp4327
a(g3674
(S's\x08\x00\x00\x00Database'
tRp4328
I00
S'http://www.web2py.com/book/default/chapter/06'
p4329
tp4330
a(g3674
(S's\x14\x00\x00\x00Forms and Validators'
tRp4331
I00
S'http://www.web2py.com/book/default/chapter/07'
p4332
tp4333
a(g3674
(S's\r\x00\x00\x00Email and SMS'
tRp4334
I00
S'http://www.web2py.com/book/default/chapter/08'
p4335
tp4336
a(g3674
(S's\x0e\x00\x00\x00Access Control'
tRp4337
I00
S'http://www.web2py.com/book/default/chapter/09'
p4338
tp4339
a(g3674
(S's\x08\x00\x00\x00Services'
tRp4340
I00
S'http://www.web2py.com/book/default/chapter/10'
p4341
tp4342
a(g3674
(S's\x0c\x00\x00\x00Ajax Recipes'
tRp4343
I00
S'http://www.web2py.com/book/default/chapter/11'
p4344
tp4345
a(g3674
(S's\x16\x00\x00\x00Components and Plugins'
tRp4346
I00
S'http://www.web2py.com/book/default/chapter/12'
p4347
tp4348
a(g3674
(S's\x12\x00\x00\x00Deployment Recipes'
tRp4349
I00
S'http://www.web2py.com/book/default/chapter/13'
p4350
tp4351
a(g3674
(S's\r\x00\x00\x00Other Recipes'
tRp4352
I00
S'http://www.web2py.com/book/default/chapter/14'
p4353
tp4354
a(g3674
(S's\r\x00\x00\x00Buy this book'
tRp4355
I00
S'http://stores.lulu.com/web2py'
p4356
tp4357
aasbasbasbasbasbasbasbag57
(g73
g59
NtRp4358
(dp4359
g62
(dp4360
sg71
g4000
sg64
(lp4361
g57
(g78
g59
NtRp4362
(dp4363
g62
(dp4364
sg71
g4358
sg64
(lp4365
g57
(g58
g59
NtRp4366
(dp4367
g62
(dp4368
g70
I2
ssg71
g4362
sg64
(lp4369
g57
(g66
g59
NtRp4370
(dp4371
g62
(dp4372
g70
I1
ssg71
Nsg64
(lp4373
g57
(g73
g59
NtRp4374
(dp4375
g62
(dp4376
sg71
g4370
sg64
(lp4377
g57
(g78
g59
NtRp4378
(dp4379
g62
(dp4380
sg71
g4374
sg64
(lp4381
g57
(g58
g59
NtRp4382
(dp4383
g62
(dp4384
g70
I1
ssg71
g4378
sg64
(lp4385
g3674
(S's\t\x00\x00\x00Community'
tRp4386
asbasbasbag57
(g73
g59
NtRp4387
(dp4388
g62
(dp4389
sg71
g4370
sg64
(lp4390
g57
(g78
g59
NtRp4391
(dp4392
g62
(dp4393
sg71
g4387
sg64
(lp4394
g57
(g58
g59
NtRp4395
(dp4396
g62
(dp4397
g70
I1
ssg71
g4391
sg64
(lp4398
I00
asbasbasbag57
(g73
g59
NtRp4399
(dp4400
g62
(dp4401
sg71
g4370
sg64
(lp4402
g57
(g78
g59
NtRp4403
(dp4404
g62
(dp4405
sg71
g4399
sg64
(lp4406
g57
(g58
g59
NtRp4407
(dp4408
g62
(dp4409
g70
I1
ssg71
g4403
sg64
(lp4410
Nasbasbasbag57
(g73
g59
NtRp4411
(dp4412
g62
(dp4413
sg71
g4370
sg64
(lp4414
g57
(g78
g59
NtRp4415
(dp4416
g62
(dp4417
sg71
g4411
sg64
(lp4418
g57
(g58
g59
NtRp4419
(dp4420
g62
(dp4421
g70
I1
ssg71
g4415
sg64
(lp4422
(lp4423
(g3674
(S's\x06\x00\x00\x00Groups'
tRp4424
I00
S'http://www.web2py.com/examples/default/usergroups'
p4425
tp4426
a(g3674
(S's\x07\x00\x00\x00Twitter'
tRp4427
I00
S'http://twitter.com/web2py'
p4428
tp4429
a(g3674
(S's\t\x00\x00\x00Live Chat'
tRp4430
I00
S'http://webchat.freenode.net/?channels=web2py'
p4431
tp4432
aasbasbasbasbasbasbasbag57
(g73
g59
NtRp4433
(dp4434
g62
(dp4435
sg71
g4000
sg64
(lp4436
g57
(g78
g59
NtRp4437
(dp4438
g62
(dp4439
sg71
g4433
sg64
(lp4440
g57
(g58
g59
NtRp4441
(dp4442
g62
(dp4443
g70
I2
ssg71
g4437
sg64
(lp4444
g57
(g66
g59
NtRp4445
(dp4446
g62
(dp4447
g70
I1
ssg71
Nsg64
(lp4448
g57
(g73
g59
NtRp4449
(dp4450
g62
(dp4451
sg71
g4445
sg64
(lp4452
g57
(g78
g59
NtRp4453
(dp4454
g62
(dp4455
sg71
g4449
sg64
(lp4456
g57
(g58
g59
NtRp4457
(dp4458
g62
(dp4459
g70
I1
ssg71
g4453
sg64
(lp4460
g3674
(S's\x07\x00\x00\x00Plugins'
tRp4461
asbasbasbag57
(g73
g59
NtRp4462
(dp4463
g62
(dp4464
sg71
g4445
sg64
(lp4465
g57
(g78
g59
NtRp4466
(dp4467
g62
(dp4468
sg71
g4462
sg64
(lp4469
g57
(g58
g59
NtRp4470
(dp4471
g62
(dp4472
g70
I1
ssg71
g4466
sg64
(lp4473
I00
asbasbasbag57
(g73
g59
NtRp4474
(dp4475
g62
(dp4476
sg71
g4445
sg64
(lp4477
g57
(g78
g59
NtRp4478
(dp4479
g62
(dp4480
sg71
g4474
sg64
(lp4481
g57
(g58
g59
NtRp4482
(dp4483
g62
(dp4484
g70
I1
ssg71
g4478
sg64
(lp4485
Nasbasbasbag57
(g73
g59
NtRp4486
(dp4487
g62
(dp4488
sg71
g4445
sg64
(lp4489
g57
(g78
g59
NtRp4490
(dp4491
g62
(dp4492
sg71
g4486
sg64
(lp4493
g57
(g58
g59
NtRp4494
(dp4495
g62
(dp4496
g70
I1
ssg71
g4490
sg64
(lp4497
(lp4498
(S'plugin_wiki'
p4499
I00
S'http://web2py.com/examples/default/download'
p4500
tp4501
a(g3674
(S's\r\x00\x00\x00Other Plugins'
tRp4502
I00
g4232
tp4503
a(g3674
(S's\x0e\x00\x00\x00Layout Plugins'
tRp4504
I00
g4235
tp4505
aasbasbasbasbasbasbasbasbasbasbasbasbasbasbasbasbasbasbasbag57
(g73
g59
NtRp4506
(dp4507
g62
(dp4508
sg71
g3184
sg64
(lp4509
g57
(g78
g59
NtRp4510
(dp4511
g62
(dp4512
g82
g83
ssg71
g4506
sg64
(lp4513
S'meta'
p4514
asbag57
(g78
g59
NtRp4515
(dp4516
g62
(dp4517
g89
g90
ssg71
g4506
sg64
(lp4518
S':'
asbag57
(g78
g59
NtRp4519
(dp4520
g62
(dp4521
sg71
g4506
sg64
(lp4522
g57
(g58
g59
NtRp4523
(dp4524
g62
(dp4525
g70
I5
ssg71
g4519
sg64
(lp4526
g57
(g66
g59
NtRp4527
(dp4528
g62
(dp4529
g70
I4
ssg71
Nsg64
(lp4530
g57
(g73
g59
NtRp4531
(dp4532
g62
(dp4533
sg71
g4527
sg64
(lp4534
g57
(g78
g59
NtRp4535
(dp4536
g62
(dp4537
g82
g83
ssg71
g4531
sg64
(lp4538
S'author'
p4539
asbag57
(g78
g59
NtRp4540
(dp4541
g62
(dp4542
g89
g90
ssg71
g4531
sg64
(lp4543
S':'
asbag57
(g78
g59
NtRp4544
(dp4545
g62
(dp4546
sg71
g4531
sg64
(lp4547
g57
(g58
g59
NtRp4548
(dp4549
g62
(dp4550
g70
I4
ssg71
g4544
sg64
(lp4551
S'Your Name <you@example.com>'
p4552
asbasbasbag57
(g73
g59
NtRp4553
(dp4554
g62
(dp4555
sg71
g4527
sg64
(lp4556
g57
(g78
g59
NtRp4557
(dp4558
g62
(dp4559
g82
g83
ssg71
g4553
sg64
(lp4560
S'description'
p4561
asbag57
(g78
g59
NtRp4562
(dp4563
g62
(dp4564
g89
g90
ssg71
g4553
sg64
(lp4565
S':'
asbag57
(g78
g59
NtRp4566
(dp4567
g62
(dp4568
sg71
g4553
sg64
(lp4569
g57
(g58
g59
NtRp4570
(dp4571
g62
(dp4572
g70
I4
ssg71
g4566
sg64
(lp4573
S'a cool new app'
p4574
asbasbasbag57
(g73
g59
NtRp4575
(dp4576
g62
(dp4577
sg71
g4527
sg64
(lp4578
g57
(g78
g59
NtRp4579
(dp4580
g62
(dp4581
g82
g83
ssg71
g4575
sg64
(lp4582
S'generator'
p4583
asbag57
(g78
g59
NtRp4584
(dp4585
g62
(dp4586
g89
g90
ssg71
g4575
sg64
(lp4587
S':'
asbag57
(g78
g59
NtRp4588
(dp4589
g62
(dp4590
sg71
g4575
sg64
(lp4591
g57
(g58
g59
NtRp4592
(dp4593
g62
(dp4594
g70
I4
ssg71
g4588
sg64
(lp4595
S'Web2py Web Framework'
p4596
asbasbasbag57
(g73
g59
NtRp4597
(dp4598
g62
(dp4599
sg71
g4527
sg64
(lp4600
g57
(g78
g59
NtRp4601
(dp4602
g62
(dp4603
g82
g83
ssg71
g4597
sg64
(lp4604
S'keywords'
p4605
asbag57
(g78
g59
NtRp4606
(dp4607
g62
(dp4608
g89
g90
ssg71
g4597
sg64
(lp4609
S':'
asbag57
(g78
g59
NtRp4610
(dp4611
g62
(dp4612
sg71
g4597
sg64
(lp4613
g57
(g58
g59
NtRp4614
(dp4615
g62
(dp4616
g70
I4
ssg71
g4610
sg64
(lp4617
S'web2py, python, framework'
p4618
asbasbasbasbasbasbasbag57
(g73
g59
NtRp4619
(dp4620
g62
(dp4621
sg71
g3184
sg64
(lp4622
g57
(g78
g59
NtRp4623
(dp4624
g62
(dp4625
g82
g83
ssg71
g4619
sg64
(lp4626
S'models_to_run'
p4627
asbag57
(g78
g59
NtRp4628
(dp4629
g62
(dp4630
g89
g90
ssg71
g4619
sg64
(lp4631
S':'
asbag57
(g78
g59
NtRp4632
(dp4633
g62
(dp4634
sg71
g4619
sg64
(lp4635
g57
(g58
g59
NtRp4636
(dp4637
g62
(dp4638
g70
I5
ssg71
g4632
sg64
(lp4639
g57
(g66
g59
NtRp4640
(dp4641
g62
(dp4642
g70
I4
ssg71
Nsg64
(lp4643
g57
(g73
g59
NtRp4644
(dp4645
g62
(dp4646
sg71
g4640
sg64
(lp4647
g57
(g78
g59
NtRp4648
(dp4649
g62
(dp4650
sg71
g4644
sg64
(lp4651
g57
(g58
g59
NtRp4652
(dp4653
g62
(dp4654
g70
I4
ssg71
g4648
sg64
(lp4655
S'^\\w+\\.py$'
p4656
asbasbasbag57
(g73
g59
NtRp4657
(dp4658
g62
(dp4659
sg71
g4640
sg64
(lp4660
g57
(g78
g59
NtRp4661
(dp4662
g62
(dp4663
sg71
g4657
sg64
(lp4664
g57
(g58
g59
NtRp4665
(dp4666
g62
(dp4667
g70
I4
ssg71
g4661
sg64
(lp4668
S'^dashboard/\\w+\\.py$'
p4669
asbasbasbag57
(g73
g59
NtRp4670
(dp4671
g62
(dp4672
sg71
g4640
sg64
(lp4673
g57
(g78
g59
NtRp4674
(dp4675
g62
(dp4676
sg71
g4670
sg64
(lp4677
g57
(g58
g59
NtRp4678
(dp4679
g62
(dp4680
g70
I4
ssg71
g4674
sg64
(lp4681
S'^dashboard/manage_dashboard/\\w+\\.py$'
p4682
asbasbasbasbasbasbasbag57
(g73
g59
NtRp4683
(dp4684
g62
(dp4685
sg71
g3184
sg64
(lp4686
g57
(g78
g59
NtRp4687
(dp4688
g62
(dp4689
g82
g83
ssg71
g4683
sg64
(lp4690
S'postprocessing'
p4691
asbag57
(g78
g59
NtRp4692
(dp4693
g62
(dp4694
g89
g90
ssg71
g4683
sg64
(lp4695
S':'
asbag57
(g78
g59
NtRp4696
(dp4697
g62
(dp4698
sg71
g4683
sg64
(lp4699
g57
(g58
g59
NtRp4700
(dp4701
g62
(dp4702
g70
I5
ssg71
g4696
sg64
(lp4703
g57
(g66
g59
NtRp4704
(dp4705
g62
(dp4706
g70
I4
ssg71
Nsg64
(lp4707
sbasbasbasbag57
(g73
g59
NtRp4708
(dp4709
g62
(dp4710
sg71
g3184
sg64
(lp4711
g57
(g78
g59
NtRp4712
(dp4713
g62
(dp4714
g82
g83
ssg71
g4708
sg64
(lp4715
S'session_cookie_expires'
p4716
asbag57
(g78
g59
NtRp4717
(dp4718
g62
(dp4719
g89
g90
ssg71
g4708
sg64
(lp4720
S':'
asbag57
(g78
g59
NtRp4721
(dp4722
g62
(dp4723
sg71
g4708
sg64
(lp4724
g57
(g58
g59
NtRp4725
(dp4726
g62
(dp4727
g70
I5
ssg71
g4721
sg64
(lp4728
S'None'
p4729
asbasbasbag57
(g73
g59
NtRp4730
(dp4731
g62
(dp4732
sg71
g3184
sg64
(lp4733
g57
(g78
g59
NtRp4734
(dp4735
g62
(dp4736
g82
g83
ssg71
g4730
sg64
(lp4737
S'session_data_name'
p4738
asbag57
(g78
g59
NtRp4739
(dp4740
g62
(dp4741
g89
g90
ssg71
g4730
sg64
(lp4742
S':'
asbag57
(g78
g59
NtRp4743
(dp4744
g62
(dp4745
sg71
g4730
sg64
(lp4746
g57
(g58
g59
NtRp4747
(dp4748
g62
(dp4749
g70
I5
ssg71
g4743
sg64
(lp4750
S'session_data_web2py_xlchart_dashboard'
p4751
asbasbasbag57
(g73
g59
NtRp4752
(dp4753
g62
(dp4754
sg71
g3184
sg64
(lp4755
g57
(g78
g59
NtRp4756
(dp4757
g62
(dp4758
g82
g83
ssg71
g4752
sg64
(lp4759
S'session_file'
p4760
asbag57
(g78
g59
NtRp4761
(dp4762
g62
(dp4763
g89
g90
ssg71
g4752
sg64
(lp4764
S':'
asbag57
(g78
g59
NtRp4765
(dp4766
g62
(dp4767
sg71
g4752
sg64
(lp4768
g57
(g58
g59
NtRp4769
(dp4770
g62
(dp4771
g70
I5
ssg71
g4765
sg64
(lp4772
S"<open file 'D:\\web2py\\source\\web2py\\applications\\web2py_xlchart_dashboard\\sessions\\127.0.0.1-fd56ccaf-e933-4e68-a9a7-c4c9f1a23405', mode 'rb+' at 0x053E06A8>"
p4773
asbasbasbag57
(g73
g59
NtRp4774
(dp4775
g62
(dp4776
sg71
g3184
sg64
(lp4777
g57
(g78
g59
NtRp4778
(dp4779
g62
(dp4780
g82
g83
ssg71
g4774
sg64
(lp4781
S'session_filename'
p4782
asbag57
(g78
g59
NtRp4783
(dp4784
g62
(dp4785
g89
g90
ssg71
g4774
sg64
(lp4786
S':'
asbag57
(g78
g59
NtRp4787
(dp4788
g62
(dp4789
sg71
g4774
sg64
(lp4790
g57
(g58
g59
NtRp4791
(dp4792
g62
(dp4793
g70
I5
ssg71
g4787
sg64
(lp4794
S'D:\\web2py\\source\\web2py\\applications\\web2py_xlchart_dashboard\\sessions\\127.0.0.1-fd56ccaf-e933-4e68-a9a7-c4c9f1a23405'
p4795
asbasbasbag57
(g73
g59
NtRp4796
(dp4797
g62
(dp4798
sg71
g3184
sg64
(lp4799
g57
(g78
g59
NtRp4800
(dp4801
g62
(dp4802
g82
g83
ssg71
g4796
sg64
(lp4803
S'session_id'
p4804
asbag57
(g78
g59
NtRp4805
(dp4806
g62
(dp4807
g89
g90
ssg71
g4796
sg64
(lp4808
S':'
asbag57
(g78
g59
NtRp4809
(dp4810
g62
(dp4811
sg71
g4796
sg64
(lp4812
g57
(g58
g59
NtRp4813
(dp4814
g62
(dp4815
g70
I5
ssg71
g4809
sg64
(lp4816
g475
asbasbasbag57
(g73
g59
NtRp4817
(dp4818
g62
(dp4819
sg71
g3184
sg64
(lp4820
g57
(g78
g59
NtRp4821
(dp4822
g62
(dp4823
g82
g83
ssg71
g4817
sg64
(lp4824
S'session_id_name'
p4825
asbag57
(g78
g59
NtRp4826
(dp4827
g62
(dp4828
g89
g90
ssg71
g4817
sg64
(lp4829
S':'
asbag57
(g78
g59
NtRp4830
(dp4831
g62
(dp4832
sg71
g4817
sg64
(lp4833
g57
(g58
g59
NtRp4834
(dp4835
g62
(dp4836
g70
I5
ssg71
g4830
sg64
(lp4837
g3241
asbasbasbag57
(g73
g59
NtRp4838
(dp4839
g62
(dp4840
sg71
g3184
sg64
(lp4841
g57
(g78
g59
NtRp4842
(dp4843
g62
(dp4844
g82
g83
ssg71
g4838
sg64
(lp4845
S'session_locked'
p4846
asbag57
(g78
g59
NtRp4847
(dp4848
g62
(dp4849
g89
g90
ssg71
g4838
sg64
(lp4850
S':'
asbag57
(g78
g59
NtRp4851
(dp4852
g62
(dp4853
sg71
g4838
sg64
(lp4854
g57
(g58
g59
NtRp4855
(dp4856
g62
(dp4857
g70
I5
ssg71
g4851
sg64
(lp4858
g1604
asbasbasbag57
(g73
g59
NtRp4859
(dp4860
g62
(dp4861
sg71
g3184
sg64
(lp4862
g57
(g78
g59
NtRp4863
(dp4864
g62
(dp4865
g82
g83
ssg71
g4859
sg64
(lp4866
S'session_new'
p4867
asbag57
(g78
g59
NtRp4868
(dp4869
g62
(dp4870
g89
g90
ssg71
g4859
sg64
(lp4871
S':'
asbag57
(g78
g59
NtRp4872
(dp4873
g62
(dp4874
sg71
g4859
sg64
(lp4875
g57
(g58
g59
NtRp4876
(dp4877
g62
(dp4878
g70
I5
ssg71
g4872
sg64
(lp4879
g100
asbasbasbag57
(g73
g59
NtRp4880
(dp4881
g62
(dp4882
sg71
g3184
sg64
(lp4883
g57
(g78
g59
NtRp4884
(dp4885
g62
(dp4886
g82
g83
ssg71
g4880
sg64
(lp4887
S'session_storage_type'
p4888
asbag57
(g78
g59
NtRp4889
(dp4890
g62
(dp4891
g89
g90
ssg71
g4880
sg64
(lp4892
S':'
asbag57
(g78
g59
NtRp4893
(dp4894
g62
(dp4895
sg71
g4880
sg64
(lp4896
g57
(g58
g59
NtRp4897
(dp4898
g62
(dp4899
g70
I5
ssg71
g4893
sg64
(lp4900
g3056
asbasbasbag57
(g73
g59
NtRp4901
(dp4902
g62
(dp4903
sg71
g3184
sg64
(lp4904
g57
(g78
g59
NtRp4905
(dp4906
g62
(dp4907
g82
g83
ssg71
g4901
sg64
(lp4908
S'status'
p4909
asbag57
(g78
g59
NtRp4910
(dp4911
g62
(dp4912
g89
g90
ssg71
g4901
sg64
(lp4913
S':'
asbag57
(g78
g59
NtRp4914
(dp4915
g62
(dp4916
sg71
g4901
sg64
(lp4917
g57
(g58
g59
NtRp4918
(dp4919
g62
(dp4920
g70
I5
ssg71
g4914
sg64
(lp4921
S'200'
p4922
asbasbasbag57
(g73
g59
NtRp4923
(dp4924
g62
(dp4925
sg71
g3184
sg64
(lp4926
g57
(g78
g59
NtRp4927
(dp4928
g62
(dp4929
g82
g83
ssg71
g4923
sg64
(lp4930
S'subtitle'
p4931
asbag57
(g78
g59
NtRp4932
(dp4933
g62
(dp4934
g89
g90
ssg71
g4923
sg64
(lp4935
S':'
asbag57
(g78
g59
NtRp4936
(dp4937
g62
(dp4938
sg71
g4923
sg64
(lp4939
g57
(g58
g59
NtRp4940
(dp4941
g62
(dp4942
g70
I5
ssg71
g4936
sg64
(lp4943
g3674
(S's\r\x00\x00\x00customize me!'
tRp4944
asbasbasbag57
(g73
g59
NtRp4945
(dp4946
g62
(dp4947
sg71
g3184
sg64
(lp4948
g57
(g78
g59
NtRp4949
(dp4950
g62
(dp4951
g82
g83
ssg71
g4945
sg64
(lp4952
S'title'
p4953
asbag57
(g78
g59
NtRp4954
(dp4955
g62
(dp4956
g89
g90
ssg71
g4945
sg64
(lp4957
S':'
asbag57
(g78
g59
NtRp4958
(dp4959
g62
(dp4960
sg71
g4945
sg64
(lp4961
g57
(g58
g59
NtRp4962
(dp4963
g62
(dp4964
g70
I5
ssg71
g4958
sg64
(lp4965
S'Web2py Xlchart Dashboard'
p4966
asbasbasbag57
(g73
g59
NtRp4967
(dp4968
g62
(dp4969
sg71
g3184
sg64
(lp4970
g57
(g78
g59
NtRp4971
(dp4972
g62
(dp4973
g82
g83
ssg71
g4967
sg64
(lp4974
S'view'
p4975
asbag57
(g78
g59
NtRp4976
(dp4977
g62
(dp4978
g89
g90
ssg71
g4967
sg64
(lp4979
S':'
asbag57
(g78
g59
NtRp4980
(dp4981
g62
(dp4982
sg71
g4967
sg64
(lp4983
g57
(g58
g59
NtRp4984
(dp4985
g62
(dp4986
g70
I5
ssg71
g4980
sg64
(lp4987
S'dashboard/manage_dashboard.html'
p4988
asbasbasbasbasbsS'locals'
p4989
(dp4990
S'Service'
p4991
S"<class 'gluon.tools.Service'>"
p4992
sS'OBJECT'
p4993
S"<class 'gluon.html.OBJECT'>"
p4994
sS'SQLDB'
p4995
S"<class 'gluon.dal.DAL'>"
p4996
sg3100
S"<Storage {'last_query': 'db.chart.id>0', '_user_...rt/23]': 'fd19a597-7f89-4c69-955b-a906b7dd4aaa'}>"
p4997
sS'LINK'
p4998
S"<class 'gluon.html.LINK'>"
p4999
sS'BR'
p5000
S"<class 'gluon.html.BR'>"
p5001
sS'local_import'
p5002
S'<function <lambda>>'
p5003
sS'OPTGROUP'
p5004
S"<class 'gluon.html.OPTGROUP'>"
p5005
sS'__package__'
p5006
S'None'
p5007
sS'PRE'
p5008
S"<class 'gluon.html.PRE'>"
p5009
sS'IS_INT_IN_RANGE'
p5010
S"<class 'gluon.validators.IS_INT_IN_RANGE'>"
p5011
sS'IS_LOWER'
p5012
S"<class 'gluon.validators.IS_LOWER'>"
p5013
sS'IS_STRONG'
p5014
S"<class 'gluon.validators.IS_STRONG'>"
p5015
sS'cache'
p5016
S'<gluon.cache.Cache object>'
p5017
sS'IS_IN_DB'
p5018
S"<class 'gluon.validators.IS_IN_DB'>"
p5019
sS'TAG'
p5020
S'<gluon.html.__TAG__ object>'
p5021
sS'SQLField'
p5022
S"<class 'gluon.dal.Field'>"
p5023
sS'mail'
p5024
S'<gluon.tools.Mail object>'
p5025
sS'BODY'
p5026
S"<class 'gluon.html.BODY'>"
p5027
sS'IS_DATE_IN_RANGE'
p5028
S"<class 'gluon.validators.IS_DATE_IN_RANGE'>"
p5029
sS'TH'
p5030
S"<class 'gluon.html.TH'>"
p5031
sS'URL'
p5032
S'<function URL>'
p5033
sS'__file__'
p5034
S"r'D:\\web2py\\source\\web2py\\applications\\web2py_xlchart_dashboard\\controllers/dashboard.py'"
p5035
sS'db'
p5036
S'<DAL uri="sqlite://storage.sqlite">'
p5037
sS'auth'
p5038
S'<gluon.tools.Auth object>'
p5039
sS'P'
S"<class 'gluon.html.P'>"
p5040
sS'TFOOT'
p5041
S"<class 'gluon.html.TFOOT'>"
p5042
sS'XHTML'
p5043
S"<class 'gluon.html.XHTML'>"
p5044
sS'ON'
p5045
g1604
sS'OL'
p5046
S"<class 'gluon.html.OL'>"
p5047
sS'TEXTAREA'
p5048
S"<class 'gluon.html.TEXTAREA'>"
p5049
sS'MENU'
p5050
S"<class 'gluon.html.MENU'>"
p5051
sS'LOAD'
p5052
S'<function LOAD>'
p5053
sS'CODE'
p5054
S"<class 'gluon.html.CODE'>"
p5055
sS'HTTP'
p5056
S"<class 'gluon.http.HTTP'>"
p5057
sS'HR'
p5058
S"<class 'gluon.html.HR'>"
p5059
sS'IS_DATETIME'
p5060
S"<class 'gluon.validators.IS_DATETIME'>"
p5061
sS'HEAD'
p5062
S"<class 'gluon.html.HEAD'>"
p5063
sS'LABEL'
p5064
S"<class 'gluon.html.LABEL'>"
p5065
sS'CLEANUP'
p5066
S"<class 'gluon.validators.CLEANUP'>"
p5067
sS'plugins'
p5068
S'<gluon.tools.PluginManager object>'
p5069
sS'SELECT'
p5070
S"<class 'gluon.html.SELECT'>"
p5071
sS'index'
p5072
S'<function index>'
p5073
sS'use_janrain'
p5074
S'<function use_janrain>'
p5075
sS'CENTER'
p5076
S"<class 'gluon.html.CENTER'>"
p5077
sS'prettydate'
p5078
S'<function prettydate>'
p5079
sS'Crud'
p5080
S"<class 'gluon.tools.Crud'>"
p5081
sS'Auth'
p5082
S"<class 'gluon.tools.Auth'>"
p5083
sS'__builtins__'
p5084
S"{'ArithmeticError': <type 'exceptions.ArithmeticError'>, 'AssertionError': <type 'exceptions.AssertionError'>, 'AttributeError': <type 'exceptions.AttributeError'>, 'BaseException': <type 'exceptions.BaseException'>, 'BufferError': <type 'exceptions.BufferError'>, 'BytesWarning': <type 'exceptions.BytesWarning'>, 'DeprecationWarning': <type 'exceptions.DeprecationWarning'>, 'EOFError': <type 'exceptions.EOFError'>, 'Ellipsis': Ellipsis, 'EnvironmentError': <type 'exceptions.EnvironmentError'>, ...}"
p5085
sS'HTML'
p5086
S"<class 'gluon.html.HTML'>"
p5087
sS'SQLFORM'
p5088
S"<class 'gluon.sqlhtml.SQLFORM'>"
p5089
sS'EM'
p5090
S"<class 'gluon.html.EM'>"
p5091
sS'redirect'
p5092
S'<function redirect>'
p5093
sS'FIELDSET'
p5094
S"<class 'gluon.html.FIELDSET'>"
p5095
sS'IS_EQUAL_TO'
p5096
S"<class 'gluon.validators.IS_EQUAL_TO'>"
p5097
sS'component'
p5098
S'<function component>'
p5099
sS'embed64'
p5100
S'<function embed64>'
p5101
sS'IS_LIST_OF'
p5102
S"<class 'gluon.validators.IS_LIST_OF'>"
p5103
sS'__name__'
p5104
S"'__restricted__'"
p5105
sS'EMBED'
p5106
S"<class 'gluon.html.EMBED'>"
p5107
sS'_'
S'<function _>'
p5108
sS'FORM'
p5109
S"<class 'gluon.html.FORM'>"
p5110
sS'H2'
p5111
S"<class 'gluon.html.H2'>"
p5112
sS'H3'
p5113
S"<class 'gluon.html.H3'>"
p5114
sS'BUTTON'
p5115
S"<class 'gluon.html.BUTTON'>"
p5116
sS'H1'
p5117
S"<class 'gluon.html.H1'>"
p5118
sS'H6'
p5119
S"<class 'gluon.html.H6'>"
p5120
sS'H4'
p5121
S"<class 'gluon.html.H4'>"
p5122
sS'H5'
p5123
S"<class 'gluon.html.H5'>"
p5124
sS'UL'
p5125
S"<class 'gluon.html.UL'>"
p5126
sS'IS_UPPER'
p5127
S"<class 'gluon.validators.IS_UPPER'>"
p5128
sS'xmlescape'
p5129
S'<function xmlescape>'
p5130
sS'IS_TIME'
p5131
S"<class 'gluon.validators.IS_TIME'>"
p5132
sS'OPTION'
p5133
S"<class 'gluon.html.OPTION'>"
p5134
sS'TITLE'
p5135
S"<class 'gluon.html.TITLE'>"
p5136
sS'CRYPT'
p5137
S"<class 'gluon.validators.CRYPT'>"
p5138
sS'IS_EMPTY_OR'
p5139
S"<class 'gluon.validators.IS_EMPTY_OR'>"
p5140
sS'MARKMIN'
p5141
S"<class 'gluon.html.MARKMIN'>"
p5142
sS'INPUT'
p5143
S"<class 'gluon.html.INPUT'>"
p5144
sS'STRONG'
p5145
S"<class 'gluon.html.STRONG'>"
p5146
sS'COL'
p5147
S"<class 'gluon.html.COL'>"
p5148
sS'service'
p5149
S'<gluon.tools.Service object>'
p5150
sS'SCRIPT'
p5151
S"<class 'gluon.html.SCRIPT'>"
p5152
sS'TABLE'
p5153
S"<class 'gluon.html.TABLE'>"
p5154
sS'IS_IPV4'
p5155
S"<class 'gluon.validators.IS_IPV4'>"
p5156
sS'IS_LENGTH'
p5157
S"<class 'gluon.validators.IS_LENGTH'>"
p5158
sS'XML'
p5159
S"<class 'gluon.html.XML'>"
p5160
sS'B'
S"<class 'gluon.html.B'>"
p5161
sS'IMG'
p5162
S"<class 'gluon.html.IMG'>"
p5163
sS'SQLTABLE'
p5164
S"<class 'gluon.sqlhtml.SQLTABLE'>"
p5165
sS'IS_MATCH'
p5166
S"<class 'gluon.validators.IS_MATCH'>"
p5167
sS'IS_ALPHANUMERIC'
p5168
S"<class 'gluon.validators.IS_ALPHANUMERIC'>"
p5169
sS'is_my_chart'
p5170
S'<function is_my_chart>'
p5171
sS'SPAN'
p5172
S"<class 'gluon.html.SPAN'>"
p5173
sS'IS_SLUG'
p5174
S"<class 'gluon.validators.IS_SLUG'>"
p5175
sS'BEAUTIFY'
p5176
S"<class 'gluon.html.BEAUTIFY'>"
p5177
sS'META'
p5178
S"<class 'gluon.html.META'>"
p5179
sS'IS_DATE'
p5180
S"<class 'gluon.validators.IS_DATE'>"
p5181
sS'IS_EMAIL'
p5182
S"<class 'gluon.validators.IS_EMAIL'>"
p5183
sS'IS_NOT_EMPTY'
p5184
S"<class 'gluon.validators.IS_NOT_EMPTY'>"
p5185
sS'IS_FLOAT_IN_RANGE'
p5186
S"<class 'gluon.validators.IS_FLOAT_IN_RANGE'>"
p5187
sS'TBODY'
p5188
S"<class 'gluon.html.TBODY'>"
p5189
sS'CAT'
p5190
S"<class 'gluon.html.CAT'>"
p5191
sS'Field'
p5192
S"<class 'gluon.dal.Field'>"
p5193
sS'DIV'
p5194
S"<class 'gluon.html.DIV'>"
p5195
sS'LEGEND'
p5196
S"<class 'gluon.html.LEGEND'>"
p5197
sS'COLGROUP'
p5198
S"<class 'gluon.html.COLGROUP'>"
p5199
sS'DAL'
p5200
S"<class 'gluon.dal.DAL'>"
p5201
sS'TT'
p5202
S"<class 'gluon.html.TT'>"
p5203
sS'TR'
p5204
S"<class 'gluon.html.TR'>"
p5205
sS'LI'
p5206
S"<class 'gluon.html.LI'>"
p5207
sS'IFRAME'
p5208
S"<class 'gluon.html.IFRAME'>"
p5209
sS'TD'
p5210
S"<class 'gluon.html.TD'>"
p5211
sS'PluginManager'
p5212
S"<class 'gluon.tools.PluginManager'>"
p5213
sS'IS_URL'
p5214
S"<class 'gluon.validators.IS_URL'>"
p5215
sS'A'
S"<class 'gluon.html.A'>"
p5216
sS'STYLE'
p5217
S"<class 'gluon.html.STYLE'>"
p5218
sS'IS_DATETIME_IN_RANGE'
p5219
S"<class 'gluon.validators.IS_DATETIME_IN_RANGE'>"
p5220
sS'IS_IMAGE'
p5221
S"<class 'gluon.validators.IS_IMAGE'>"
p5222
sS'I'
S"<class 'gluon.html.I'>"
p5223
sS'crud'
p5224
S'<gluon.tools.Crud object>'
p5225
sS'IS_NOT_IN_DB'
p5226
S"<class 'gluon.validators.IS_NOT_IN_DB'>"
p5227
sg3179
S"<Storage {'body': <cStringIO.StringO object at 0...4F0>, 'view': 'dashboard/manage_dashboard.html'}>"
p5228
sS'THEAD'
p5229
S"<class 'gluon.html.THEAD'>"
p5230
sS'IS_NULL_OR'
p5231
S"<class 'gluon.validators.IS_EMPTY_OR'>"
p5232
sg56
S"<Storage {'function': 'manage_dashboard', 'body'...xlchart_dashboard\\\\', 'post_vars': <Storage {}>}>"
p5233
sS'IS_EXPR'
p5234
S"<class 'gluon.validators.IS_EXPR'>"
p5235
sS'IS_IN_SET'
p5236
S"<class 'gluon.validators.IS_IN_SET'>"
p5237
sS'IS_UPLOAD_FILENAME'
p5238
S"<class 'gluon.validators.IS_UPLOAD_FILENAME'>"
p5239
sS'IS_DECIMAL_IN_RANGE'
p5240
S"<class 'gluon.validators.IS_DECIMAL_IN_RANGE'>"
p5241
sS'checkchartindb'
p5242
S'<function checkchartindb>'
p5243
sS'T'
S'<gluon.languages.translator object>'
p5244
sssS'traceback'
p5245
S'Traceback (most recent call last):\n  File "D:\\web2py\\source\\web2py\\gluon\\restricted.py", line 212, in restricted\n    exec ccode in environment\n  File "D:\\web2py\\source\\web2py\\applications\\web2py_xlchart_dashboard\\controllers/dashboard.py", line 10, in <module>\n    @requires_https()\nNameError: name \'requires_https\' is not defined\n'
p5246
s.