(dp1
S'output'
p2
S"<type 'exceptions.AttributeError'> 'Field' object has no attribute 'chartName'"
p3
sS'layer'
p4
S'D:\\web2py\\source\\web2py\\applications\\web2py_xlchart_dashboard\\views\\charts/user_charts.html'
p5
sS'code'
p6
S'response.write(\'<style>\\r\\n    #usercharts{\\r\\n        float: left;\\r\\n    }\\r\\n    #allcharts{\\r\\n        margin-left: 50px;\\r\\n        float:left;\\r\\n    }\\r\\n    .chartholder{\\r\\n      vertical-align:middle;  \\r\\n    }\\r\\n    .chartimage{\\r\\n        float:left;\\r\\n        margin: 5px\\r\\n    }\\r\\n    .charttext{\\r\\n        float:left;\\r\\n        vertical-align:middle;\\r\\n        \\r\\n    }\\r\\n</style>\\r\\n\', escape=False)\nresponse.write(\'<!DOCTYPE html>\\n<!-- paulirish.com/2008/conditional-stylesheets-vs-css-hacks-answer-neither/ -->\\n<!--[if lt IE 7]><html class="ie ie6 ie-lte9 ie-lte8 ie-lte7 no-js" lang="\', escape=False)\nresponse.write(T.accepted_language or \'en\')\nresponse.write(\'"> <![endif]-->\\n<!--[if IE 7]><html class="ie ie7 ie-lte9 ie-lte8 ie-lte7 no-js" lang="\', escape=False)\nresponse.write(T.accepted_language or \'en\')\nresponse.write(\'"> <![endif]-->\\n<!--[if IE 8]><html class="ie ie8 ie-lte9 ie-lte8 no-js" lang="\', escape=False)\nresponse.write(T.accepted_language or \'en\')\nresponse.write(\'"> <![endif]-->\\n<!--[if IE 9]><html class="ie9 ie-lte9 no-js" lang="\', escape=False)\nresponse.write(T.accepted_language or \'en\')\nresponse.write(\'"> <![endif]-->\\n<!--[if (gt IE 9)|!(IE)]><!--> <html class="no-js" lang="\', escape=False)\nresponse.write(T.accepted_language or \'en\')\nresponse.write(\'"> <!--<![endif]-->\\n<head>\\n  <meta charset="utf-8" />\\n  <!-- www.phpied.com/conditional-comments-block-downloads/ -->\\n  <!-- Always force latest IE rendering engine\\n       (even in intranet) & Chrome Frame\\n       Remove this if you use the .htaccess -->\\n  <!--[if IE]>\\n      <meta http-equiv="X-UA-Compatible" content="IE=edge\', escape=False)\nresponse.write(not request.is_local and \',chrome=1\' or \'\')\nresponse.write(\'">\\n      <![endif]-->\\n\\n  <title>\', escape=False)\nresponse.write(response.title or request.application)\nresponse.write(\'</title>\\n\\n  <!-- http://dev.w3.org/html5/markup/meta.name.html -->\\n  <meta name="application-name" content="\', escape=False)\nresponse.write(request.application)\nresponse.write(\'" />\\n\\n  <!-- Speaking of Google, don\\\'t forget to set your site up:\\n       http://google.com/webmasters -->\\n  <meta name="google-site-verification" content="" />\\n\\n  <!--  Mobile Viewport Fix\\n        j.mp/mobileviewport & davidbcalhoun.com/2010/viewport-metatag\\n        device-width: Occupy full width of the screen in its current orientation\\n        initial-scale = 1.0 retains dimensions instead of zooming out if page height > device height\\n        user-scalable = yes allows the user to zoom in -->\\n  <meta name="viewport" content="width=device-width, initial-scale=1.0">\\n\\n  <link rel="shortcut icon" href="\', escape=False)\nresponse.write(URL(\'static\',\'images/favicon.ico\'))\nresponse.write(\'" type="image/x-icon">\\n  <link rel="apple-touch-icon" href="\', escape=False)\nresponse.write(URL(\'static\',\'images/favicon.png\'))\nresponse.write(\'">\\n\\n  <!-- All JavaScript at the bottom, except for Modernizr which enables\\n       HTML5 elements & feature detects -->\\n  <script src="\', escape=False)\nresponse.write(URL(\'static\',\'js/modernizr.custom.js\'))\nresponse.write(\'"></script>\\n\\n  <!-- include stylesheets -->\\n  \', escape=False)\nresponse.files.append(URL(\'static\',\'css/web2py.css\'))\nresponse.files.append(URL(\'static\',\'css/bootstrap.min.css\'))\nresponse.files.append(URL(\'static\',\'css/bootstrap-responsive.min.css\'))\nresponse.files.append(URL(\'static\',\'css/web2py_bootstrap.css\'))\nresponse.write(\'\\n\\n  \', escape=False)\nresponse.write(\'<script type="text/javascript"><!--\\n    // These variables are used by the web2py_ajax_init function in web2py_ajax.js (which is loaded below).\\n    var w2p_ajax_confirm_message = "\', escape=False)\nresponse.write(T(\'Are you sure you want to delete this object?\'))\nresponse.write(\'";\\n    var w2p_ajax_date_format = "\', escape=False)\nresponse.write(T(\'%Y-%m-%d\'))\nresponse.write(\'";\\n    var w2p_ajax_datetime_format = "\', escape=False)\nresponse.write(T(\'%Y-%m-%d %H:%M:%S\'))\nresponse.write(\'";\\n    //--></script>\\n\', escape=False)\nresponse.files.insert(0,URL(\'static\',\'js/jquery.js\'))\nresponse.files.insert(1,URL(\'static\',\'css/calendar.css\'))\nresponse.files.insert(2,URL(\'static\',\'js/calendar.js\'))\nresponse.files.insert(3,URL(\'static\',\'js/web2py.js\'))\nresponse.include_meta()\nresponse.include_files()\nresponse.write(\'\\n\', escape=False)\nresponse.write(\'\\n\\n  \', escape=False)\n# using sidebars need to know what sidebar you want to use\nleft_sidebar_enabled = globals().get(\'left_sidebar_enabled\',False)\nright_sidebar_enabled = globals().get(\'right_sidebar_enabled\',False)\nmiddle_columns = {0:\'span12\',1:\'span9\',2:\'span6\'}[\n(left_sidebar_enabled and 1 or 0)+(right_sidebar_enabled and 1 or 0)]\nresponse.write(\'\\n\\n  <!-- uncomment here to load jquery-ui\\n       <link rel="stylesheet" href="http://ajax.googleapis.com/ajax/libs/jqueryui/1.8.16/themes/base/jquery-ui.css" type="text/css" media="all" />\\n       <script src="http://ajax.googleapis.com/ajax/libs/jqueryui/1.8.16/jquery-ui.min.js" type="text/javascript"></script>\\n       uncomment to load jquery-ui //-->\\n  <noscript><link href="\', escape=False)\nresponse.write(URL(\'static\', \'css/web2py_bootstrap_nojs.css\'))\nresponse.write(\'" rel="stylesheet" type="text/css" /></noscript>\\n  \', escape=False)\nresponse.write(\'\\n</head>\\n\\n<body>\\n  <!-- Navbar ================================================== -->\\n  <div class="navbar navbar-inverse navbar-fixed-top">\\n    <div class="flash">\', escape=False)\nresponse.write(response.flash or \'\')\nresponse.write(\'</div>\\n    <div class="navbar-inner">\\n      <div class="container">\\n        <!-- the next tag is necessary for bootstrap menus, do not remove -->\\n        <button type="button" class="btn btn-navbar" data-toggle="collapse" data-target=".nav-collapse">\\n          <span class="icon-bar"></span>\\n          <span class="icon-bar"></span>\\n          <span class="icon-bar"></span>\\n        </button>\\n        <a class="brand" href="http://www.web2py.com/"><b>web<span>2</span>py</b>&trade;&nbsp;</a>\\n        <ul id="navbar" class="nav pull-right">\', escape=False)\nresponse.write(\'auth\' in globals() and auth.navbar(mode="dropdown") or \'\')\nresponse.write(\'</ul>\\n        <div class="nav-collapse">\\n          \', escape=False)\nis_mobile=request.user_agent().is_mobile\nresponse.write(\'\\n          \', escape=False)\nif response.menu:\n    response.write(\'\\n          \', escape=False)\n    response.write(MENU(response.menu, _class=\'mobile-menu nav\' if is_mobile else \'nav\',mobile=is_mobile,li_class=\'dropdown\',ul_class=\'dropdown-menu\'))\n    response.write(\'\\n          \', escape=False)\n    pass\nresponse.write(\'\\n        </div><!--/.nav-collapse -->\\n      </div>\\n    </div>\\n  </div><!--/top navbar -->\\n\\n  <div class="container">\\n    <!-- Masthead ================================================== -->\\n    <header class="mastheader row" id="header">\\n        <div class="span12">\\n            <div class="page-header">\\n                <h1>\\n                    \', escape=False)\nresponse.write(response.title or request.application)\nresponse.write(\'\\n                    <small>\', escape=False)\nresponse.write(response.subtitle or \'\')\nresponse.write(\'</small>\\n                </h1>\\n            </div>\\n        </div>\\n    </header>\\n\\n    <section id="main" class="main row">\\n        \', escape=False)\nif left_sidebar_enabled:\n    response.write(\'\\n        <div class="span3 left-sidebar">\\n            \', escape=False)\n    response.write(\'\\n            <h3>Left Sidebar</h3>\\n            <p></p>\\n            \', escape=False)\n    response.write(\'\\n        </div>\\n        \', escape=False)\n    pass\nresponse.write(\'\\n\\n        <div class="\', escape=False)\nresponse.write(middle_columns)\nresponse.write(\'">\\n            \', escape=False)\nresponse.write(\'\\n            \', escape=False)\nresponse.write(\'\\r\\n<h2>Manage my charts</h2>\\r\\n<div id="usercharts">\\r\\n    <h4>My Charts</h4>\\r\\n    \', escape=False)\nfor chart in mycharts:\n    response.write(\'\\r\\n    <div class="chartholder">\\r\\n    \\t<div class="chartimage">\\r\\n    \\t\\t\', escape=False)\n    response.write(IMG(_src=URL(\'download\',args=chart.file),_width=\'300px\'))\n    response.write(\'\\r\\n        </div>\\r\\n        <div class="charttext">\\r\\n            \\r\\n        </div>\\r\\n    </div>\\r\\n\\t\', escape=False)\n    pass\nresponse.write(\'\\r\\n</div>\\r\\n\\r\\n<div id="allcharts">\\r\\n    <h4>Available Charts</h4>\\r\\n    \', escape=False)\nfor chart in allcharts:\n    response.write(\'\\r\\n    <div class="chartholder">\\r\\n    \\t<div class="chartimage">\\r\\n    \\t\\t\', escape=False)\n    response.write(IMG(_src=URL(\'download\',args=chart.file),_width=\'300px\'))\n    response.write(\'\\r\\n        </div>\\r\\n        <div class="charttext">\\r\\n            Workbook: \', escape=False)\n    response.write(chart.id_workbook.title)\n    response.write(\'<BR>\\r\\n            Sheet: \', escape=False)\n    response.write(chart.worksheet)\n    response.write(\'<BR>\\r\\n            \', escape=False)\n    if is_my_chart(chart.chartName):\n        response.write(\'\\r\\n            \\tThis chart is already in your charts.\\r\\n            \', escape=False)\n    else:\n        response.write(\'\\r\\n            \\t\', escape=False)\n        response.write(A(\'Add to My Charts\',_href=URL(c=\'charts\',f=\'add_to_my_charts\',vars={\'chartname\':chart.chartName})))\n        response.write(\'<BR>\\r\\n            \', escape=False)\n        pass\n    response.write(\'\\r\\n        </div>\\r\\n    </div>\\r\\n\\t\', escape=False)\n    pass\nresponse.write(\'\\r\\n</div>\\r\\n\', escape=False)\nresponse.write(\'\\n            \', escape=False)\nresponse.write(\'\\n        </div>\\n\\n        \', escape=False)\nif right_sidebar_enabled:\n    response.write(\'\\n        <div class="span3">\\n            \', escape=False)\n    response.write(\'\\n            <h3>Right Sidebar</h3>\\n            <p></p>\\n            \', escape=False)\n    response.write(\'\\n        </div>\\n        \', escape=False)\n    pass\nresponse.write(\'\\n    </section><!--/main-->\\n\\n    <!-- Footer ================================================== -->\\n    <div class="row">\\n        <footer class="footer span12" id="footer">\\n            <div class="footer-content">\\n                \', escape=False)\nresponse.write(\' <!-- this is default footer -->\\n                <div class="copyright pull-left">\', escape=False)\nresponse.write(T(\'Copyright\'))\nresponse.write(\' &#169; \', escape=False)\nresponse.write(request.now.year)\nresponse.write(\'</div>\\n                <div id="poweredBy" class="pull-right">\\n                    \', escape=False)\nresponse.write(T(\'Powered by\'))\nresponse.write(\'\\n                    <a href="http://www.web2py.com/">web2py</a>\\n                </div>\\n                \', escape=False)\nresponse.write(\'\\n            </div>\\n        </footer>\\n    </div>\\n\\n  </div> <!-- /container -->\\n\\n  <!-- The javascript =============================================\\n       (Placed at the end of the document so the pages load faster) -->\\n  <script src="\', escape=False)\nresponse.write(URL(\'static\',\'js/bootstrap.min.js\'))\nresponse.write(\'"></script>\\n  <script src="\', escape=False)\nresponse.write(URL(\'static\',\'js/web2py_bootstrap.js\'))\nresponse.write(\'"></script>\\n  <!--[if lt IE 7 ]>\\n      <script src="\', escape=False)\nresponse.write(URL(\'static\',\'js/dd_belatedpng.js\'))\nresponse.write(\'"></script>\\n      <script> DD_belatedPNG.fix(\\\'img, .png_bg\\\'); //fix any <img> or .png_bg background-images </script>\\n      <![endif]-->\\n  \', escape=False)\nif response.google_analytics_id:\n    response.write(\'<script type="text/javascript"> var _gaq = _gaq || []; _gaq.push([\\\'_setAccount\\\', \\\'\', escape=False)\n    response.write(response.google_analytics_id)\n    response.write("\']); _gaq.push([\'_trackPageview\']); (function() { var ga = document.createElement(\'script\'); ga.type = \'text/javascript\'; ga.async = true; ga.src = (\'https:\' == document.location.protocol ? \'https://ssl\' : \'http://www\') + \'.google-analytics.com/ga.js\'; var s = document.getElementsByTagName(\'script\')[0]; s.parentNode.insertBefore(ga, s); })(); </script> ", escape=False)\n    pass\nresponse.write(\'\\n  <script src="\', escape=False)\nresponse.write(URL(\'static\',\'js/share.js\',vars=dict(static=URL(\'static\',\'images\'))))\nresponse.write(\'"></script>\\n</body>\\n</html>\\n\\n\', escape=False)'
p7
sS'snapshot'
p8
(dp9
S'exception'
p10
(dp11
S'__hash__'
p12
S"<method-wrapper '__hash__' of exceptions.AttributeError object>"
p13
sS'__setattr__'
p14
S"<method-wrapper '__setattr__' of exceptions.AttributeError object>"
p15
sS'__reduce_ex__'
p16
S'<built-in method __reduce_ex__ of exceptions.AttributeError object>'
p17
sS'__getslice__'
p18
S"<method-wrapper '__getslice__' of exceptions.AttributeError object>"
p19
sS'__getitem__'
p20
S"<method-wrapper '__getitem__' of exceptions.AttributeError object>"
p21
sS'__setstate__'
p22
S'<built-in method __setstate__ of exceptions.AttributeError object>'
p23
sS'__reduce__'
p24
S'<built-in method __reduce__ of exceptions.AttributeError object>'
p25
sS'__str__'
p26
S"<method-wrapper '__str__' of exceptions.AttributeError object>"
p27
sS'__format__'
p28
S'<built-in method __format__ of exceptions.AttributeError object>'
p29
sS'__getattribute__'
p30
S"<method-wrapper '__getattribute__' of exceptions.AttributeError object>"
p31
sS'__class__'
p32
S"<type 'exceptions.AttributeError'>"
p33
sS'__unicode__'
p34
S'<built-in method __unicode__ of exceptions.AttributeError object>'
p35
sS'__delattr__'
p36
S"<method-wrapper '__delattr__' of exceptions.AttributeError object>"
p37
sS'__subclasshook__'
p38
S'<built-in method __subclasshook__ of type object>'
p39
sS'__repr__'
p40
S"<method-wrapper '__repr__' of exceptions.AttributeError object>"
p41
sS'args'
p42
S'("\'Field\' object has no attribute \'chartName\'",)'
p43
sS'__dict__'
p44
S'{}'
p45
sS'__sizeof__'
p46
S'<built-in method __sizeof__ of exceptions.AttributeError object>'
p47
sS'__doc__'
p48
S"'Attribute not found.'"
p49
sS'__init__'
p50
S"<method-wrapper '__init__' of exceptions.AttributeError object>"
p51
sS'__new__'
p52
S'<built-in method __new__ of type object>'
p53
ssS'evalue'
p54
S"'Field' object has no attribute 'chartName'"
p55
sS'request'
p56
ccopy_reg
_reconstructor
p57
(cgluon.html
BEAUTIFY
p58
c__builtin__
object
p59
NtRp60
(dp61
S'attributes'
p62
(dp63
sS'components'
p64
(lp65
g57
(cgluon.html
TABLE
p66
g59
NtRp67
(dp68
g62
(dp69
S'level'
p70
I5
ssS'parent'
p71
Nsg64
(lp72
g57
(cgluon.html
TR
p73
g59
NtRp74
(dp75
g62
(dp76
sg71
g67
sg64
(lp77
g57
(cgluon.html
TD
p78
g59
NtRp79
(dp80
g62
(dp81
S'_style'
p82
S'font-weight:bold;vertical-align:top'
p83
ssg71
g74
sg64
(lp84
S'ajax'
p85
asbag57
(g78
g59
NtRp86
(dp87
g62
(dp88
S'_valign'
p89
S'top'
p90
ssg71
g74
sg64
(lp91
S':'
asbag57
(g78
g59
NtRp92
(dp93
g62
(dp94
sg71
g74
sg64
(lp95
g57
(g58
g59
NtRp96
(dp97
g62
(dp98
g70
I5
ssg71
g92
sg64
(lp99
S'False'
p100
asbasbasbag57
(g73
g59
NtRp101
(dp102
g62
(dp103
sg71
g67
sg64
(lp104
g57
(g78
g59
NtRp105
(dp106
g62
(dp107
g82
g83
ssg71
g101
sg64
(lp108
S'application'
p109
asbag57
(g78
g59
NtRp110
(dp111
g62
(dp112
g89
g90
ssg71
g101
sg64
(lp113
S':'
asbag57
(g78
g59
NtRp114
(dp115
g62
(dp116
sg71
g101
sg64
(lp117
g57
(g58
g59
NtRp118
(dp119
g62
(dp120
g70
I5
ssg71
g114
sg64
(lp121
S'web2py_xlchart_dashboard'
p122
asbasbasbag57
(g73
g59
NtRp123
(dp124
g62
(dp125
sg71
g67
sg64
(lp126
g57
(g78
g59
NtRp127
(dp128
g62
(dp129
g82
g83
ssg71
g123
sg64
(lp130
g42
asbag57
(g78
g59
NtRp131
(dp132
g62
(dp133
g89
g90
ssg71
g123
sg64
(lp134
S':'
asbag57
(g78
g59
NtRp135
(dp136
g62
(dp137
sg71
g123
sg64
(lp138
g57
(g58
g59
NtRp139
(dp140
g62
(dp141
g70
I5
ssg71
g135
sg64
(lp142
g57
(g66
g59
NtRp143
(dp144
g62
(dp145
g70
I4
ssg71
Nsg64
(lp146
sbasbasbasbag57
(g73
g59
NtRp147
(dp148
g62
(dp149
sg71
g67
sg64
(lp150
g57
(g78
g59
NtRp151
(dp152
g62
(dp153
g82
g83
ssg71
g147
sg64
(lp154
S'body'
p155
asbag57
(g78
g59
NtRp156
(dp157
g62
(dp158
g89
g90
ssg71
g147
sg64
(lp159
S':'
asbag57
(g78
g59
NtRp160
(dp161
g62
(dp162
sg71
g147
sg64
(lp163
g57
(g58
g59
NtRp164
(dp165
g62
(dp166
g70
I5
ssg71
g160
sg64
(lp167
S'<cStringIO.StringO object at 0x050C7400>'
p168
asbasbasbag57
(g73
g59
NtRp169
(dp170
g62
(dp171
sg71
g67
sg64
(lp172
g57
(g78
g59
NtRp173
(dp174
g62
(dp175
g82
g83
ssg71
g169
sg64
(lp176
S'cid'
p177
asbag57
(g78
g59
NtRp178
(dp179
g62
(dp180
g89
g90
ssg71
g169
sg64
(lp181
S':'
asbag57
(g78
g59
NtRp182
(dp183
g62
(dp184
sg71
g169
sg64
(lp185
g57
(g58
g59
NtRp186
(dp187
g62
(dp188
g70
I5
ssg71
g182
sg64
(lp189
S'None'
p190
asbasbasbag57
(g73
g59
NtRp191
(dp192
g62
(dp193
sg71
g67
sg64
(lp194
g57
(g78
g59
NtRp195
(dp196
g62
(dp197
g82
g83
ssg71
g191
sg64
(lp198
S'client'
p199
asbag57
(g78
g59
NtRp200
(dp201
g62
(dp202
g89
g90
ssg71
g191
sg64
(lp203
S':'
asbag57
(g78
g59
NtRp204
(dp205
g62
(dp206
sg71
g191
sg64
(lp207
g57
(g58
g59
NtRp208
(dp209
g62
(dp210
g70
I5
ssg71
g204
sg64
(lp211
S'127.0.0.1'
p212
asbasbasbag57
(g73
g59
NtRp213
(dp214
g62
(dp215
sg71
g67
sg64
(lp216
g57
(g78
g59
NtRp217
(dp218
g62
(dp219
g82
g83
ssg71
g213
sg64
(lp220
S'controller'
p221
asbag57
(g78
g59
NtRp222
(dp223
g62
(dp224
g89
g90
ssg71
g213
sg64
(lp225
S':'
asbag57
(g78
g59
NtRp226
(dp227
g62
(dp228
sg71
g213
sg64
(lp229
g57
(g58
g59
NtRp230
(dp231
g62
(dp232
g70
I5
ssg71
g226
sg64
(lp233
S'charts'
p234
asbasbasbag57
(g73
g59
NtRp235
(dp236
g62
(dp237
sg71
g67
sg64
(lp238
g57
(g78
g59
NtRp239
(dp240
g62
(dp241
g82
g83
ssg71
g235
sg64
(lp242
S'cookies'
p243
asbag57
(g78
g59
NtRp244
(dp245
g62
(dp246
g89
g90
ssg71
g235
sg64
(lp247
S':'
asbag57
(g78
g59
NtRp248
(dp249
g62
(dp250
sg71
g235
sg64
(lp251
g57
(g58
g59
NtRp252
(dp253
g62
(dp254
g70
I5
ssg71
g248
sg64
(lp255
g57
(g66
g59
NtRp256
(dp257
g62
(dp258
g70
I4
ssg71
Nsg64
(lp259
g57
(g73
g59
NtRp260
(dp261
g62
(dp262
sg71
g256
sg64
(lp263
g57
(g78
g59
NtRp264
(dp265
g62
(dp266
g82
g83
ssg71
g260
sg64
(lp267
S'session_id_admin'
p268
asbag57
(g78
g59
NtRp269
(dp270
g62
(dp271
g89
g90
ssg71
g260
sg64
(lp272
S':'
asbag57
(g78
g59
NtRp273
(dp274
g62
(dp275
sg71
g260
sg64
(lp276
g57
(g58
g59
NtRp277
(dp278
g62
(dp279
g70
I4
ssg71
g273
sg64
(lp280
S'127.0.0.1-480fa34f-5c98-43dd-a208-33fad76d92d0'
p281
ag57
(g66
g59
NtRp282
(dp283
g62
(dp284
g70
I3
ssg71
Nsg64
(lp285
g57
(g73
g59
NtRp286
(dp287
g62
(dp288
sg71
g282
sg64
(lp289
g57
(g78
g59
NtRp290
(dp291
g62
(dp292
g82
g83
ssg71
g286
sg64
(lp293
S'comment'
p294
asbag57
(g78
g59
NtRp295
(dp296
g62
(dp297
g89
g90
ssg71
g286
sg64
(lp298
S':'
asbag57
(g78
g59
NtRp299
(dp300
g62
(dp301
sg71
g286
sg64
(lp302
g57
(g58
g59
NtRp303
(dp304
g62
(dp305
g70
I3
ssg71
g299
sg64
(lp306
S''
asbasbasbag57
(g73
g59
NtRp307
(dp308
g62
(dp309
sg71
g282
sg64
(lp310
g57
(g78
g59
NtRp311
(dp312
g62
(dp313
g82
g83
ssg71
g307
sg64
(lp314
S'domain'
p315
asbag57
(g78
g59
NtRp316
(dp317
g62
(dp318
g89
g90
ssg71
g307
sg64
(lp319
S':'
asbag57
(g78
g59
NtRp320
(dp321
g62
(dp322
sg71
g307
sg64
(lp323
g57
(g58
g59
NtRp324
(dp325
g62
(dp326
g70
I3
ssg71
g320
sg64
(lp327
S''
asbasbasbag57
(g73
g59
NtRp328
(dp329
g62
(dp330
sg71
g282
sg64
(lp331
g57
(g78
g59
NtRp332
(dp333
g62
(dp334
g82
g83
ssg71
g328
sg64
(lp335
S'expires'
p336
asbag57
(g78
g59
NtRp337
(dp338
g62
(dp339
g89
g90
ssg71
g328
sg64
(lp340
S':'
asbag57
(g78
g59
NtRp341
(dp342
g62
(dp343
sg71
g328
sg64
(lp344
g57
(g58
g59
NtRp345
(dp346
g62
(dp347
g70
I3
ssg71
g341
sg64
(lp348
S''
asbasbasbag57
(g73
g59
NtRp349
(dp350
g62
(dp351
sg71
g282
sg64
(lp352
g57
(g78
g59
NtRp353
(dp354
g62
(dp355
g82
g83
ssg71
g349
sg64
(lp356
S'httponly'
p357
asbag57
(g78
g59
NtRp358
(dp359
g62
(dp360
g89
g90
ssg71
g349
sg64
(lp361
S':'
asbag57
(g78
g59
NtRp362
(dp363
g62
(dp364
sg71
g349
sg64
(lp365
g57
(g58
g59
NtRp366
(dp367
g62
(dp368
g70
I3
ssg71
g362
sg64
(lp369
S''
asbasbasbag57
(g73
g59
NtRp370
(dp371
g62
(dp372
sg71
g282
sg64
(lp373
g57
(g78
g59
NtRp374
(dp375
g62
(dp376
g82
g83
ssg71
g370
sg64
(lp377
S'max-age'
p378
asbag57
(g78
g59
NtRp379
(dp380
g62
(dp381
g89
g90
ssg71
g370
sg64
(lp382
S':'
asbag57
(g78
g59
NtRp383
(dp384
g62
(dp385
sg71
g370
sg64
(lp386
g57
(g58
g59
NtRp387
(dp388
g62
(dp389
g70
I3
ssg71
g383
sg64
(lp390
S''
asbasbasbag57
(g73
g59
NtRp391
(dp392
g62
(dp393
sg71
g282
sg64
(lp394
g57
(g78
g59
NtRp395
(dp396
g62
(dp397
g82
g83
ssg71
g391
sg64
(lp398
S'path'
p399
asbag57
(g78
g59
NtRp400
(dp401
g62
(dp402
g89
g90
ssg71
g391
sg64
(lp403
S':'
asbag57
(g78
g59
NtRp404
(dp405
g62
(dp406
sg71
g391
sg64
(lp407
g57
(g58
g59
NtRp408
(dp409
g62
(dp410
g70
I3
ssg71
g404
sg64
(lp411
S''
asbasbasbag57
(g73
g59
NtRp412
(dp413
g62
(dp414
sg71
g282
sg64
(lp415
g57
(g78
g59
NtRp416
(dp417
g62
(dp418
g82
g83
ssg71
g412
sg64
(lp419
S'secure'
p420
asbag57
(g78
g59
NtRp421
(dp422
g62
(dp423
g89
g90
ssg71
g412
sg64
(lp424
S':'
asbag57
(g78
g59
NtRp425
(dp426
g62
(dp427
sg71
g412
sg64
(lp428
g57
(g58
g59
NtRp429
(dp430
g62
(dp431
g70
I3
ssg71
g425
sg64
(lp432
S''
asbasbasbag57
(g73
g59
NtRp433
(dp434
g62
(dp435
sg71
g282
sg64
(lp436
g57
(g78
g59
NtRp437
(dp438
g62
(dp439
g82
g83
ssg71
g433
sg64
(lp440
S'version'
p441
asbag57
(g78
g59
NtRp442
(dp443
g62
(dp444
g89
g90
ssg71
g433
sg64
(lp445
S':'
asbag57
(g78
g59
NtRp446
(dp447
g62
(dp448
sg71
g433
sg64
(lp449
g57
(g58
g59
NtRp450
(dp451
g62
(dp452
g70
I3
ssg71
g446
sg64
(lp453
S''
asbasbasbasbasbasbasbag57
(g73
g59
NtRp454
(dp455
g62
(dp456
sg71
g256
sg64
(lp457
g57
(g78
g59
NtRp458
(dp459
g62
(dp460
g82
g83
ssg71
g454
sg64
(lp461
S'session_id_web2py_xlchart_dashboard'
p462
asbag57
(g78
g59
NtRp463
(dp464
g62
(dp465
g89
g90
ssg71
g454
sg64
(lp466
S':'
asbag57
(g78
g59
NtRp467
(dp468
g62
(dp469
sg71
g454
sg64
(lp470
g57
(g58
g59
NtRp471
(dp472
g62
(dp473
g70
I4
ssg71
g467
sg64
(lp474
S'127.0.0.1-c53b418b-4944-4d07-915c-a998b8630125'
p475
ag57
(g66
g59
NtRp476
(dp477
g62
(dp478
g70
I3
ssg71
Nsg64
(lp479
g57
(g73
g59
NtRp480
(dp481
g62
(dp482
sg71
g476
sg64
(lp483
g57
(g78
g59
NtRp484
(dp485
g62
(dp486
g82
g83
ssg71
g480
sg64
(lp487
g294
asbag57
(g78
g59
NtRp488
(dp489
g62
(dp490
g89
g90
ssg71
g480
sg64
(lp491
S':'
asbag57
(g78
g59
NtRp492
(dp493
g62
(dp494
sg71
g480
sg64
(lp495
g57
(g58
g59
NtRp496
(dp497
g62
(dp498
g70
I3
ssg71
g492
sg64
(lp499
S''
asbasbasbag57
(g73
g59
NtRp500
(dp501
g62
(dp502
sg71
g476
sg64
(lp503
g57
(g78
g59
NtRp504
(dp505
g62
(dp506
g82
g83
ssg71
g500
sg64
(lp507
g315
asbag57
(g78
g59
NtRp508
(dp509
g62
(dp510
g89
g90
ssg71
g500
sg64
(lp511
S':'
asbag57
(g78
g59
NtRp512
(dp513
g62
(dp514
sg71
g500
sg64
(lp515
g57
(g58
g59
NtRp516
(dp517
g62
(dp518
g70
I3
ssg71
g512
sg64
(lp519
S''
asbasbasbag57
(g73
g59
NtRp520
(dp521
g62
(dp522
sg71
g476
sg64
(lp523
g57
(g78
g59
NtRp524
(dp525
g62
(dp526
g82
g83
ssg71
g520
sg64
(lp527
g336
asbag57
(g78
g59
NtRp528
(dp529
g62
(dp530
g89
g90
ssg71
g520
sg64
(lp531
S':'
asbag57
(g78
g59
NtRp532
(dp533
g62
(dp534
sg71
g520
sg64
(lp535
g57
(g58
g59
NtRp536
(dp537
g62
(dp538
g70
I3
ssg71
g532
sg64
(lp539
S''
asbasbasbag57
(g73
g59
NtRp540
(dp541
g62
(dp542
sg71
g476
sg64
(lp543
g57
(g78
g59
NtRp544
(dp545
g62
(dp546
g82
g83
ssg71
g540
sg64
(lp547
g357
asbag57
(g78
g59
NtRp548
(dp549
g62
(dp550
g89
g90
ssg71
g540
sg64
(lp551
S':'
asbag57
(g78
g59
NtRp552
(dp553
g62
(dp554
sg71
g540
sg64
(lp555
g57
(g58
g59
NtRp556
(dp557
g62
(dp558
g70
I3
ssg71
g552
sg64
(lp559
S''
asbasbasbag57
(g73
g59
NtRp560
(dp561
g62
(dp562
sg71
g476
sg64
(lp563
g57
(g78
g59
NtRp564
(dp565
g62
(dp566
g82
g83
ssg71
g560
sg64
(lp567
g378
asbag57
(g78
g59
NtRp568
(dp569
g62
(dp570
g89
g90
ssg71
g560
sg64
(lp571
S':'
asbag57
(g78
g59
NtRp572
(dp573
g62
(dp574
sg71
g560
sg64
(lp575
g57
(g58
g59
NtRp576
(dp577
g62
(dp578
g70
I3
ssg71
g572
sg64
(lp579
S''
asbasbasbag57
(g73
g59
NtRp580
(dp581
g62
(dp582
sg71
g476
sg64
(lp583
g57
(g78
g59
NtRp584
(dp585
g62
(dp586
g82
g83
ssg71
g580
sg64
(lp587
g399
asbag57
(g78
g59
NtRp588
(dp589
g62
(dp590
g89
g90
ssg71
g580
sg64
(lp591
S':'
asbag57
(g78
g59
NtRp592
(dp593
g62
(dp594
sg71
g580
sg64
(lp595
g57
(g58
g59
NtRp596
(dp597
g62
(dp598
g70
I3
ssg71
g592
sg64
(lp599
S''
asbasbasbag57
(g73
g59
NtRp600
(dp601
g62
(dp602
sg71
g476
sg64
(lp603
g57
(g78
g59
NtRp604
(dp605
g62
(dp606
g82
g83
ssg71
g600
sg64
(lp607
g420
asbag57
(g78
g59
NtRp608
(dp609
g62
(dp610
g89
g90
ssg71
g600
sg64
(lp611
S':'
asbag57
(g78
g59
NtRp612
(dp613
g62
(dp614
sg71
g600
sg64
(lp615
g57
(g58
g59
NtRp616
(dp617
g62
(dp618
g70
I3
ssg71
g612
sg64
(lp619
S''
asbasbasbag57
(g73
g59
NtRp620
(dp621
g62
(dp622
sg71
g476
sg64
(lp623
g57
(g78
g59
NtRp624
(dp625
g62
(dp626
g82
g83
ssg71
g620
sg64
(lp627
g441
asbag57
(g78
g59
NtRp628
(dp629
g62
(dp630
g89
g90
ssg71
g620
sg64
(lp631
S':'
asbag57
(g78
g59
NtRp632
(dp633
g62
(dp634
sg71
g620
sg64
(lp635
g57
(g58
g59
NtRp636
(dp637
g62
(dp638
g70
I3
ssg71
g632
sg64
(lp639
S''
asbasbasbasbasbasbasbasbasbasbasbag57
(g73
g59
NtRp640
(dp641
g62
(dp642
sg71
g67
sg64
(lp643
g57
(g78
g59
NtRp644
(dp645
g62
(dp646
g82
g83
ssg71
g640
sg64
(lp647
S'env'
p648
asbag57
(g78
g59
NtRp649
(dp650
g62
(dp651
g89
g90
ssg71
g640
sg64
(lp652
S':'
asbag57
(g78
g59
NtRp653
(dp654
g62
(dp655
sg71
g640
sg64
(lp656
g57
(g58
g59
NtRp657
(dp658
g62
(dp659
g70
I5
ssg71
g653
sg64
(lp660
g57
(g66
g59
NtRp661
(dp662
g62
(dp663
g70
I4
ssg71
Nsg64
(lp664
g57
(g73
g59
NtRp665
(dp666
g62
(dp667
sg71
g661
sg64
(lp668
g57
(g78
g59
NtRp669
(dp670
g62
(dp671
g82
g83
ssg71
g665
sg64
(lp672
S'app_folders'
p673
asbag57
(g78
g59
NtRp674
(dp675
g62
(dp676
g89
g90
ssg71
g665
sg64
(lp677
S':'
asbag57
(g78
g59
NtRp678
(dp679
g62
(dp680
sg71
g665
sg64
(lp681
g57
(g58
g59
NtRp682
(dp683
g62
(dp684
g70
I4
ssg71
g678
sg64
(lp685
S"set(['D:\\\\web2py\\\\source\\\\web2py\\\\applications\\\\admin\\\\', 'D:\\\\web2py\\\\source\\\\web2py\\\\applications\\\\welcome\\\\', 'D:\\\\web2py\\\\source\\\\web2py\\\\applications\\\\web2py_xlchart_dashboard\\\\'])"
p686
asbasbasbag57
(g73
g59
NtRp687
(dp688
g62
(dp689
sg71
g661
sg64
(lp690
g57
(g78
g59
NtRp691
(dp692
g62
(dp693
g82
g83
ssg71
g687
sg64
(lp694
S'applications_parent'
p695
asbag57
(g78
g59
NtRp696
(dp697
g62
(dp698
g89
g90
ssg71
g687
sg64
(lp699
S':'
asbag57
(g78
g59
NtRp700
(dp701
g62
(dp702
sg71
g687
sg64
(lp703
g57
(g58
g59
NtRp704
(dp705
g62
(dp706
g70
I4
ssg71
g700
sg64
(lp707
S'D:\\web2py\\source\\web2py'
p708
asbasbasbag57
(g73
g59
NtRp709
(dp710
g62
(dp711
sg71
g661
sg64
(lp712
g57
(g78
g59
NtRp713
(dp714
g62
(dp715
g82
g83
ssg71
g709
sg64
(lp716
S'cmd_args'
p717
asbag57
(g78
g59
NtRp718
(dp719
g62
(dp720
g89
g90
ssg71
g709
sg64
(lp721
S':'
asbag57
(g78
g59
NtRp722
(dp723
g62
(dp724
sg71
g709
sg64
(lp725
g57
(g58
g59
NtRp726
(dp727
g62
(dp728
g70
I4
ssg71
g722
sg64
(lp729
g57
(g66
g59
NtRp730
(dp731
g62
(dp732
g70
I3
ssg71
Nsg64
(lp733
sbasbasbasbag57
(g73
g59
NtRp734
(dp735
g62
(dp736
sg71
g661
sg64
(lp737
g57
(g78
g59
NtRp738
(dp739
g62
(dp740
g82
g83
ssg71
g734
sg64
(lp741
S'cmd_options'
p742
asbag57
(g78
g59
NtRp743
(dp744
g62
(dp745
g89
g90
ssg71
g734
sg64
(lp746
S':'
asbag57
(g78
g59
NtRp747
(dp748
g62
(dp749
sg71
g734
sg64
(lp750
g57
(g58
g59
NtRp751
(dp752
g62
(dp753
g70
I4
ssg71
g747
sg64
(lp754
S"<Values at 0xc78f58: {'verbose': False, 'ip': '127.0.0.1', 'with_scheduler': False, 'ips': ['192.168.0.14'], 'shutdown_timeout': 5, 'taskbar': False, 'port': 8000, 'maxthreads': None, 'softcron': False, 'server_name': 'GLKLAG235327', 'bpython': False, 'nogui': False, 'pid_filename': 'httpserver.pid', 'extcron': False, 'runcron': False, 'run_system_tests': False, 'test': None, 'folder': 'D:\\\\web2py\\\\source\\\\web2py', 'config': '', 'import_models': False, 'winservice': '', 'shell': None, 'run': '', 'log_filename': 'httpserver.log', 'debuglevel': 30, 'args': [''], 'socket_timeout': 5, 'ssl_ca_certificate': None, 'scheduler': None, 'profiler_filename': None, 'ssl_private_key': '', 'scheduler_groups': None, 'password': '<ask>', 'request_queue_size': 5, 'ssl_certificate': '', 'cronjob': False, 'numthreads': None, 'quiet': False, 'interfaces': None, 'minthreads': None, 'timeout': 10, 'plain': False, 'nobanner': False}>"
p755
asbasbasbag57
(g73
g59
NtRp756
(dp757
g62
(dp758
sg71
g661
sg64
(lp759
g57
(g78
g59
NtRp760
(dp761
g62
(dp762
g82
g83
ssg71
g756
sg64
(lp763
S'db_sessions'
p764
asbag57
(g78
g59
NtRp765
(dp766
g62
(dp767
g89
g90
ssg71
g756
sg64
(lp768
S':'
asbag57
(g78
g59
NtRp769
(dp770
g62
(dp771
sg71
g756
sg64
(lp772
g57
(g58
g59
NtRp773
(dp774
g62
(dp775
g70
I4
ssg71
g769
sg64
(lp776
S'set([])'
p777
asbasbasbag57
(g73
g59
NtRp778
(dp779
g62
(dp780
sg71
g661
sg64
(lp781
g57
(g78
g59
NtRp782
(dp783
g62
(dp784
g82
g83
ssg71
g778
sg64
(lp785
S'debugging'
p786
asbag57
(g78
g59
NtRp787
(dp788
g62
(dp789
g89
g90
ssg71
g778
sg64
(lp790
S':'
asbag57
(g78
g59
NtRp791
(dp792
g62
(dp793
sg71
g778
sg64
(lp794
g57
(g58
g59
NtRp795
(dp796
g62
(dp797
g70
I4
ssg71
g791
sg64
(lp798
g100
asbasbasbag57
(g73
g59
NtRp799
(dp800
g62
(dp801
sg71
g661
sg64
(lp802
g57
(g78
g59
NtRp803
(dp804
g62
(dp805
g82
g83
ssg71
g799
sg64
(lp806
S'gluon_parent'
p807
asbag57
(g78
g59
NtRp808
(dp809
g62
(dp810
g89
g90
ssg71
g799
sg64
(lp811
S':'
asbag57
(g78
g59
NtRp812
(dp813
g62
(dp814
sg71
g799
sg64
(lp815
g57
(g58
g59
NtRp816
(dp817
g62
(dp818
g70
I4
ssg71
g812
sg64
(lp819
S'D:\\web2py\\source\\web2py'
p820
asbasbasbag57
(g73
g59
NtRp821
(dp822
g62
(dp823
sg71
g661
sg64
(lp824
g57
(g78
g59
NtRp825
(dp826
g62
(dp827
g82
g83
ssg71
g821
sg64
(lp828
S'http_accept'
p829
asbag57
(g78
g59
NtRp830
(dp831
g62
(dp832
g89
g90
ssg71
g821
sg64
(lp833
S':'
asbag57
(g78
g59
NtRp834
(dp835
g62
(dp836
sg71
g821
sg64
(lp837
g57
(g58
g59
NtRp838
(dp839
g62
(dp840
g70
I4
ssg71
g834
sg64
(lp841
S'text/html,application/xhtml+xml,application/xml;q=0.9,*/*;q=0.8'
p842
asbasbasbag57
(g73
g59
NtRp843
(dp844
g62
(dp845
sg71
g661
sg64
(lp846
g57
(g78
g59
NtRp847
(dp848
g62
(dp849
g82
g83
ssg71
g843
sg64
(lp850
S'http_accept_charset'
p851
asbag57
(g78
g59
NtRp852
(dp853
g62
(dp854
g89
g90
ssg71
g843
sg64
(lp855
S':'
asbag57
(g78
g59
NtRp856
(dp857
g62
(dp858
sg71
g843
sg64
(lp859
g57
(g58
g59
NtRp860
(dp861
g62
(dp862
g70
I4
ssg71
g856
sg64
(lp863
S'ISO-8859-1,utf-8;q=0.7,*;q=0.3'
p864
asbasbasbag57
(g73
g59
NtRp865
(dp866
g62
(dp867
sg71
g661
sg64
(lp868
g57
(g78
g59
NtRp869
(dp870
g62
(dp871
g82
g83
ssg71
g865
sg64
(lp872
S'http_accept_encoding'
p873
asbag57
(g78
g59
NtRp874
(dp875
g62
(dp876
g89
g90
ssg71
g865
sg64
(lp877
S':'
asbag57
(g78
g59
NtRp878
(dp879
g62
(dp880
sg71
g865
sg64
(lp881
g57
(g58
g59
NtRp882
(dp883
g62
(dp884
g70
I4
ssg71
g878
sg64
(lp885
S'gzip,deflate,sdch'
p886
asbasbasbag57
(g73
g59
NtRp887
(dp888
g62
(dp889
sg71
g661
sg64
(lp890
g57
(g78
g59
NtRp891
(dp892
g62
(dp893
g82
g83
ssg71
g887
sg64
(lp894
S'http_accept_language'
p895
asbag57
(g78
g59
NtRp896
(dp897
g62
(dp898
g89
g90
ssg71
g887
sg64
(lp899
S':'
asbag57
(g78
g59
NtRp900
(dp901
g62
(dp902
sg71
g887
sg64
(lp903
g57
(g58
g59
NtRp904
(dp905
g62
(dp906
g70
I4
ssg71
g900
sg64
(lp907
S'en-US,en;q=0.8'
p908
asbasbasbag57
(g73
g59
NtRp909
(dp910
g62
(dp911
sg71
g661
sg64
(lp912
g57
(g78
g59
NtRp913
(dp914
g62
(dp915
g82
g83
ssg71
g909
sg64
(lp916
S'http_cache_control'
p917
asbag57
(g78
g59
NtRp918
(dp919
g62
(dp920
g89
g90
ssg71
g909
sg64
(lp921
S':'
asbag57
(g78
g59
NtRp922
(dp923
g62
(dp924
sg71
g909
sg64
(lp925
g57
(g58
g59
NtRp926
(dp927
g62
(dp928
g70
I4
ssg71
g922
sg64
(lp929
S'max-age=0'
p930
asbasbasbag57
(g73
g59
NtRp931
(dp932
g62
(dp933
sg71
g661
sg64
(lp934
g57
(g78
g59
NtRp935
(dp936
g62
(dp937
g82
g83
ssg71
g931
sg64
(lp938
S'http_connection'
p939
asbag57
(g78
g59
NtRp940
(dp941
g62
(dp942
g89
g90
ssg71
g931
sg64
(lp943
S':'
asbag57
(g78
g59
NtRp944
(dp945
g62
(dp946
sg71
g931
sg64
(lp947
g57
(g58
g59
NtRp948
(dp949
g62
(dp950
g70
I4
ssg71
g944
sg64
(lp951
S'keep-alive'
p952
asbasbasbag57
(g73
g59
NtRp953
(dp954
g62
(dp955
sg71
g661
sg64
(lp956
g57
(g78
g59
NtRp957
(dp958
g62
(dp959
g82
g83
ssg71
g953
sg64
(lp960
S'http_cookie'
p961
asbag57
(g78
g59
NtRp962
(dp963
g62
(dp964
g89
g90
ssg71
g953
sg64
(lp965
S':'
asbag57
(g78
g59
NtRp966
(dp967
g62
(dp968
sg71
g953
sg64
(lp969
g57
(g58
g59
NtRp970
(dp971
g62
(dp972
g70
I4
ssg71
g966
sg64
(lp973
S'session_id_web2py_xlchart_dashboard=127.0.0.1-c53b418b-4944-4d07-915c-a998b8630125; session_id_admin=127.0.0.1-480fa34f-5c98-43dd-a208-33fad76d92d0'
p974
asbasbasbag57
(g73
g59
NtRp975
(dp976
g62
(dp977
sg71
g661
sg64
(lp978
g57
(g78
g59
NtRp979
(dp980
g62
(dp981
g82
g83
ssg71
g975
sg64
(lp982
S'http_host'
p983
asbag57
(g78
g59
NtRp984
(dp985
g62
(dp986
g89
g90
ssg71
g975
sg64
(lp987
S':'
asbag57
(g78
g59
NtRp988
(dp989
g62
(dp990
sg71
g975
sg64
(lp991
g57
(g58
g59
NtRp992
(dp993
g62
(dp994
g70
I4
ssg71
g988
sg64
(lp995
S'localhost:8000'
p996
asbasbasbag57
(g73
g59
NtRp997
(dp998
g62
(dp999
sg71
g661
sg64
(lp1000
g57
(g78
g59
NtRp1001
(dp1002
g62
(dp1003
g82
g83
ssg71
g997
sg64
(lp1004
S'http_user_agent'
p1005
asbag57
(g78
g59
NtRp1006
(dp1007
g62
(dp1008
g89
g90
ssg71
g997
sg64
(lp1009
S':'
asbag57
(g78
g59
NtRp1010
(dp1011
g62
(dp1012
sg71
g997
sg64
(lp1013
g57
(g58
g59
NtRp1014
(dp1015
g62
(dp1016
g70
I4
ssg71
g1010
sg64
(lp1017
S'Mozilla/5.0 (Windows NT 5.1) AppleWebKit/537.4 (KHTML, like Gecko) Chrome/22.0.1229.94 Safari/537.4'
p1018
asbasbasbag57
(g73
g59
NtRp1019
(dp1020
g62
(dp1021
sg71
g661
sg64
(lp1022
g57
(g78
g59
NtRp1023
(dp1024
g62
(dp1025
g82
g83
ssg71
g1019
sg64
(lp1026
S'is_jython'
p1027
asbag57
(g78
g59
NtRp1028
(dp1029
g62
(dp1030
g89
g90
ssg71
g1019
sg64
(lp1031
S':'
asbag57
(g78
g59
NtRp1032
(dp1033
g62
(dp1034
sg71
g1019
sg64
(lp1035
g57
(g58
g59
NtRp1036
(dp1037
g62
(dp1038
g70
I4
ssg71
g1032
sg64
(lp1039
g100
asbasbasbag57
(g73
g59
NtRp1040
(dp1041
g62
(dp1042
sg71
g661
sg64
(lp1043
g57
(g78
g59
NtRp1044
(dp1045
g62
(dp1046
g82
g83
ssg71
g1040
sg64
(lp1047
S'is_pypy'
p1048
asbag57
(g78
g59
NtRp1049
(dp1050
g62
(dp1051
g89
g90
ssg71
g1040
sg64
(lp1052
S':'
asbag57
(g78
g59
NtRp1053
(dp1054
g62
(dp1055
sg71
g1040
sg64
(lp1056
g57
(g58
g59
NtRp1057
(dp1058
g62
(dp1059
g70
I4
ssg71
g1053
sg64
(lp1060
g100
asbasbasbag57
(g73
g59
NtRp1061
(dp1062
g62
(dp1063
sg71
g661
sg64
(lp1064
g57
(g78
g59
NtRp1065
(dp1066
g62
(dp1067
g82
g83
ssg71
g1061
sg64
(lp1068
S'local_hosts'
p1069
asbag57
(g78
g59
NtRp1070
(dp1071
g62
(dp1072
g89
g90
ssg71
g1061
sg64
(lp1073
S':'
asbag57
(g78
g59
NtRp1074
(dp1075
g62
(dp1076
sg71
g1061
sg64
(lp1077
g57
(g58
g59
NtRp1078
(dp1079
g62
(dp1080
g70
I4
ssg71
g1074
sg64
(lp1081
g57
(g66
g59
NtRp1082
(dp1083
g62
(dp1084
g70
I3
ssg71
Nsg64
(lp1085
g57
(g73
g59
NtRp1086
(dp1087
g62
(dp1088
sg71
g1082
sg64
(lp1089
g57
(g78
g59
NtRp1090
(dp1091
g62
(dp1092
sg71
g1086
sg64
(lp1093
g57
(g58
g59
NtRp1094
(dp1095
g62
(dp1096
g70
I3
ssg71
g1090
sg64
(lp1097
S'127.0.0.1'
p1098
asbasbasbag57
(g73
g59
NtRp1099
(dp1100
g62
(dp1101
sg71
g1082
sg64
(lp1102
g57
(g78
g59
NtRp1103
(dp1104
g62
(dp1105
sg71
g1099
sg64
(lp1106
g57
(g58
g59
NtRp1107
(dp1108
g62
(dp1109
g70
I3
ssg71
g1103
sg64
(lp1110
S'::ffff:127.0.0.1'
p1111
asbasbasbag57
(g73
g59
NtRp1112
(dp1113
g62
(dp1114
sg71
g1082
sg64
(lp1115
g57
(g78
g59
NtRp1116
(dp1117
g62
(dp1118
sg71
g1112
sg64
(lp1119
g57
(g58
g59
NtRp1120
(dp1121
g62
(dp1122
g70
I3
ssg71
g1116
sg64
(lp1123
S'GLKLAG235327'
p1124
asbasbasbag57
(g73
g59
NtRp1125
(dp1126
g62
(dp1127
sg71
g1082
sg64
(lp1128
g57
(g78
g59
NtRp1129
(dp1130
g62
(dp1131
sg71
g1125
sg64
(lp1132
g57
(g58
g59
NtRp1133
(dp1134
g62
(dp1135
g70
I3
ssg71
g1129
sg64
(lp1136
S'GLKLAG235327'
p1137
asbasbasbag57
(g73
g59
NtRp1138
(dp1139
g62
(dp1140
sg71
g1082
sg64
(lp1141
g57
(g78
g59
NtRp1142
(dp1143
g62
(dp1144
sg71
g1138
sg64
(lp1145
g57
(g58
g59
NtRp1146
(dp1147
g62
(dp1148
g70
I3
ssg71
g1142
sg64
(lp1149
S'192.168.0.14'
p1150
asbasbasbasbasbasbasbag57
(g73
g59
NtRp1151
(dp1152
g62
(dp1153
sg71
g661
sg64
(lp1154
g57
(g78
g59
NtRp1155
(dp1156
g62
(dp1157
g82
g83
ssg71
g1151
sg64
(lp1158
S'path_info'
p1159
asbag57
(g78
g59
NtRp1160
(dp1161
g62
(dp1162
g89
g90
ssg71
g1151
sg64
(lp1163
S':'
asbag57
(g78
g59
NtRp1164
(dp1165
g62
(dp1166
sg71
g1151
sg64
(lp1167
g57
(g58
g59
NtRp1168
(dp1169
g62
(dp1170
g70
I4
ssg71
g1164
sg64
(lp1171
S'/web2py_xlchart_dashboard/charts/user_charts'
p1172
asbasbasbag57
(g73
g59
NtRp1173
(dp1174
g62
(dp1175
sg71
g661
sg64
(lp1176
g57
(g78
g59
NtRp1177
(dp1178
g62
(dp1179
g82
g83
ssg71
g1173
sg64
(lp1180
S'query_string'
p1181
asbag57
(g78
g59
NtRp1182
(dp1183
g62
(dp1184
g89
g90
ssg71
g1173
sg64
(lp1185
S':'
asbag57
(g78
g59
NtRp1186
(dp1187
g62
(dp1188
sg71
g1173
sg64
(lp1189
g57
(g58
g59
NtRp1190
(dp1191
g62
(dp1192
g70
I4
ssg71
g1186
sg64
(lp1193
S''
asbasbasbag57
(g73
g59
NtRp1194
(dp1195
g62
(dp1196
sg71
g661
sg64
(lp1197
g57
(g78
g59
NtRp1198
(dp1199
g62
(dp1200
g82
g83
ssg71
g1194
sg64
(lp1201
S'remote_addr'
p1202
asbag57
(g78
g59
NtRp1203
(dp1204
g62
(dp1205
g89
g90
ssg71
g1194
sg64
(lp1206
S':'
asbag57
(g78
g59
NtRp1207
(dp1208
g62
(dp1209
sg71
g1194
sg64
(lp1210
g57
(g58
g59
NtRp1211
(dp1212
g62
(dp1213
g70
I4
ssg71
g1207
sg64
(lp1214
g212
asbasbasbag57
(g73
g59
NtRp1215
(dp1216
g62
(dp1217
sg71
g661
sg64
(lp1218
g57
(g78
g59
NtRp1219
(dp1220
g62
(dp1221
g82
g83
ssg71
g1215
sg64
(lp1222
S'remote_port'
p1223
asbag57
(g78
g59
NtRp1224
(dp1225
g62
(dp1226
g89
g90
ssg71
g1215
sg64
(lp1227
S':'
asbag57
(g78
g59
NtRp1228
(dp1229
g62
(dp1230
sg71
g1215
sg64
(lp1231
g57
(g58
g59
NtRp1232
(dp1233
g62
(dp1234
g70
I4
ssg71
g1228
sg64
(lp1235
S'1951'
p1236
asbasbasbag57
(g73
g59
NtRp1237
(dp1238
g62
(dp1239
sg71
g661
sg64
(lp1240
g57
(g78
g59
NtRp1241
(dp1242
g62
(dp1243
g82
g83
ssg71
g1237
sg64
(lp1244
S'request_method'
p1245
asbag57
(g78
g59
NtRp1246
(dp1247
g62
(dp1248
g89
g90
ssg71
g1237
sg64
(lp1249
S':'
asbag57
(g78
g59
NtRp1250
(dp1251
g62
(dp1252
sg71
g1237
sg64
(lp1253
g57
(g58
g59
NtRp1254
(dp1255
g62
(dp1256
g70
I4
ssg71
g1250
sg64
(lp1257
S'GET'
p1258
asbasbasbag57
(g73
g59
NtRp1259
(dp1260
g62
(dp1261
sg71
g661
sg64
(lp1262
g57
(g78
g59
NtRp1263
(dp1264
g62
(dp1265
g82
g83
ssg71
g1259
sg64
(lp1266
S'request_uri'
p1267
asbag57
(g78
g59
NtRp1268
(dp1269
g62
(dp1270
g89
g90
ssg71
g1259
sg64
(lp1271
S':'
asbag57
(g78
g59
NtRp1272
(dp1273
g62
(dp1274
sg71
g1259
sg64
(lp1275
g57
(g58
g59
NtRp1276
(dp1277
g62
(dp1278
g70
I4
ssg71
g1272
sg64
(lp1279
g1172
asbasbasbag57
(g73
g59
NtRp1280
(dp1281
g62
(dp1282
sg71
g661
sg64
(lp1283
g57
(g78
g59
NtRp1284
(dp1285
g62
(dp1286
g82
g83
ssg71
g1280
sg64
(lp1287
S'script_name'
p1288
asbag57
(g78
g59
NtRp1289
(dp1290
g62
(dp1291
g89
g90
ssg71
g1280
sg64
(lp1292
S':'
asbag57
(g78
g59
NtRp1293
(dp1294
g62
(dp1295
sg71
g1280
sg64
(lp1296
g57
(g58
g59
NtRp1297
(dp1298
g62
(dp1299
g70
I4
ssg71
g1293
sg64
(lp1300
S''
asbasbasbag57
(g73
g59
NtRp1301
(dp1302
g62
(dp1303
sg71
g661
sg64
(lp1304
g57
(g78
g59
NtRp1305
(dp1306
g62
(dp1307
g82
g83
ssg71
g1301
sg64
(lp1308
S'server_name'
p1309
asbag57
(g78
g59
NtRp1310
(dp1311
g62
(dp1312
g89
g90
ssg71
g1301
sg64
(lp1313
S':'
asbag57
(g78
g59
NtRp1314
(dp1315
g62
(dp1316
sg71
g1301
sg64
(lp1317
g57
(g58
g59
NtRp1318
(dp1319
g62
(dp1320
g70
I4
ssg71
g1314
sg64
(lp1321
g1137
asbasbasbag57
(g73
g59
NtRp1322
(dp1323
g62
(dp1324
sg71
g661
sg64
(lp1325
g57
(g78
g59
NtRp1326
(dp1327
g62
(dp1328
g82
g83
ssg71
g1322
sg64
(lp1329
S'server_port'
p1330
asbag57
(g78
g59
NtRp1331
(dp1332
g62
(dp1333
g89
g90
ssg71
g1322
sg64
(lp1334
S':'
asbag57
(g78
g59
NtRp1335
(dp1336
g62
(dp1337
sg71
g1322
sg64
(lp1338
g57
(g58
g59
NtRp1339
(dp1340
g62
(dp1341
g70
I4
ssg71
g1335
sg64
(lp1342
S'8000'
p1343
asbasbasbag57
(g73
g59
NtRp1344
(dp1345
g62
(dp1346
sg71
g661
sg64
(lp1347
g57
(g78
g59
NtRp1348
(dp1349
g62
(dp1350
g82
g83
ssg71
g1344
sg64
(lp1351
S'server_protocol'
p1352
asbag57
(g78
g59
NtRp1353
(dp1354
g62
(dp1355
g89
g90
ssg71
g1344
sg64
(lp1356
S':'
asbag57
(g78
g59
NtRp1357
(dp1358
g62
(dp1359
sg71
g1344
sg64
(lp1360
g57
(g58
g59
NtRp1361
(dp1362
g62
(dp1363
g70
I4
ssg71
g1357
sg64
(lp1364
S'HTTP/1.1'
p1365
asbasbasbag57
(g73
g59
NtRp1366
(dp1367
g62
(dp1368
sg71
g661
sg64
(lp1369
g57
(g78
g59
NtRp1370
(dp1371
g62
(dp1372
g82
g83
ssg71
g1366
sg64
(lp1373
S'server_software'
p1374
asbag57
(g78
g59
NtRp1375
(dp1376
g62
(dp1377
g89
g90
ssg71
g1366
sg64
(lp1378
S':'
asbag57
(g78
g59
NtRp1379
(dp1380
g62
(dp1381
sg71
g1366
sg64
(lp1382
g57
(g58
g59
NtRp1383
(dp1384
g62
(dp1385
g70
I4
ssg71
g1379
sg64
(lp1386
S'Rocket 1.2.5'
p1387
asbasbasbag57
(g73
g59
NtRp1388
(dp1389
g62
(dp1390
sg71
g661
sg64
(lp1391
g57
(g78
g59
NtRp1392
(dp1393
g62
(dp1394
g82
g83
ssg71
g1388
sg64
(lp1395
S'web2py_path'
p1396
asbag57
(g78
g59
NtRp1397
(dp1398
g62
(dp1399
g89
g90
ssg71
g1388
sg64
(lp1400
S':'
asbag57
(g78
g59
NtRp1401
(dp1402
g62
(dp1403
sg71
g1388
sg64
(lp1404
g57
(g58
g59
NtRp1405
(dp1406
g62
(dp1407
g70
I4
ssg71
g1401
sg64
(lp1408
g708
asbasbasbag57
(g73
g59
NtRp1409
(dp1410
g62
(dp1411
sg71
g661
sg64
(lp1412
g57
(g78
g59
NtRp1413
(dp1414
g62
(dp1415
g82
g83
ssg71
g1409
sg64
(lp1416
S'web2py_version'
p1417
asbag57
(g78
g59
NtRp1418
(dp1419
g62
(dp1420
g89
g90
ssg71
g1409
sg64
(lp1421
S':'
asbag57
(g78
g59
NtRp1422
(dp1423
g62
(dp1424
sg71
g1409
sg64
(lp1425
g57
(g58
g59
NtRp1426
(dp1427
g62
(dp1428
g70
I4
ssg71
g1422
sg64
(lp1429
g57
(g66
g59
NtRp1430
(dp1431
g62
(dp1432
g70
I3
ssg71
Nsg64
(lp1433
g57
(g73
g59
NtRp1434
(dp1435
g62
(dp1436
sg71
g1430
sg64
(lp1437
g57
(g78
g59
NtRp1438
(dp1439
g62
(dp1440
sg71
g1434
sg64
(lp1441
g57
(g58
g59
NtRp1442
(dp1443
g62
(dp1444
g70
I3
ssg71
g1438
sg64
(lp1445
S'2'
asbasbasbag57
(g73
g59
NtRp1446
(dp1447
g62
(dp1448
sg71
g1430
sg64
(lp1449
g57
(g78
g59
NtRp1450
(dp1451
g62
(dp1452
sg71
g1446
sg64
(lp1453
g57
(g58
g59
NtRp1454
(dp1455
g62
(dp1456
g70
I3
ssg71
g1450
sg64
(lp1457
S'2'
asbasbasbag57
(g73
g59
NtRp1458
(dp1459
g62
(dp1460
sg71
g1430
sg64
(lp1461
g57
(g78
g59
NtRp1462
(dp1463
g62
(dp1464
sg71
g1458
sg64
(lp1465
g57
(g58
g59
NtRp1466
(dp1467
g62
(dp1468
g70
I3
ssg71
g1462
sg64
(lp1469
S'1'
asbasbasbag57
(g73
g59
NtRp1470
(dp1471
g62
(dp1472
sg71
g1430
sg64
(lp1473
g57
(g78
g59
NtRp1474
(dp1475
g62
(dp1476
sg71
g1470
sg64
(lp1477
g57
(g58
g59
NtRp1478
(dp1479
g62
(dp1480
g70
I3
ssg71
g1474
sg64
(lp1481
S'datetime.datetime(2012, 10, 21, 16, 57, 4)'
p1482
asbasbasbag57
(g73
g59
NtRp1483
(dp1484
g62
(dp1485
sg71
g1430
sg64
(lp1486
g57
(g78
g59
NtRp1487
(dp1488
g62
(dp1489
sg71
g1483
sg64
(lp1490
g57
(g58
g59
NtRp1491
(dp1492
g62
(dp1493
g70
I3
ssg71
g1487
sg64
(lp1494
S'stable'
p1495
asbasbasbasbasbasbasbag57
(g73
g59
NtRp1496
(dp1497
g62
(dp1498
sg71
g661
sg64
(lp1499
g57
(g78
g59
NtRp1500
(dp1501
g62
(dp1502
g82
g83
ssg71
g1496
sg64
(lp1503
S'wsgi_errors'
p1504
asbag57
(g78
g59
NtRp1505
(dp1506
g62
(dp1507
g89
g90
ssg71
g1496
sg64
(lp1508
S':'
asbag57
(g78
g59
NtRp1509
(dp1510
g62
(dp1511
sg71
g1496
sg64
(lp1512
g57
(g58
g59
NtRp1513
(dp1514
g62
(dp1515
g70
I4
ssg71
g1509
sg64
(lp1516
S"<open file '<stderr>', mode 'w' at 0x00A850D0>"
p1517
asbasbasbag57
(g73
g59
NtRp1518
(dp1519
g62
(dp1520
sg71
g661
sg64
(lp1521
g57
(g78
g59
NtRp1522
(dp1523
g62
(dp1524
g82
g83
ssg71
g1518
sg64
(lp1525
S'wsgi_file_wrapper'
p1526
asbag57
(g78
g59
NtRp1527
(dp1528
g62
(dp1529
g89
g90
ssg71
g1518
sg64
(lp1530
S':'
asbag57
(g78
g59
NtRp1531
(dp1532
g62
(dp1533
sg71
g1518
sg64
(lp1534
g57
(g58
g59
NtRp1535
(dp1536
g62
(dp1537
g70
I4
ssg71
g1531
sg64
(lp1538
S'<class wsgiref.util.FileWrapper at 0x0172EE68>'
p1539
asbasbasbag57
(g73
g59
NtRp1540
(dp1541
g62
(dp1542
sg71
g661
sg64
(lp1543
g57
(g78
g59
NtRp1544
(dp1545
g62
(dp1546
g82
g83
ssg71
g1540
sg64
(lp1547
S'wsgi_input'
p1548
asbag57
(g78
g59
NtRp1549
(dp1550
g62
(dp1551
g89
g90
ssg71
g1540
sg64
(lp1552
S':'
asbag57
(g78
g59
NtRp1553
(dp1554
g62
(dp1555
sg71
g1540
sg64
(lp1556
g57
(g58
g59
NtRp1557
(dp1558
g62
(dp1559
g70
I4
ssg71
g1553
sg64
(lp1560
S'<socket._fileobject object at 0x056808F0>'
p1561
asbasbasbag57
(g73
g59
NtRp1562
(dp1563
g62
(dp1564
sg71
g661
sg64
(lp1565
g57
(g78
g59
NtRp1566
(dp1567
g62
(dp1568
g82
g83
ssg71
g1562
sg64
(lp1569
S'wsgi_multiprocess'
p1570
asbag57
(g78
g59
NtRp1571
(dp1572
g62
(dp1573
g89
g90
ssg71
g1562
sg64
(lp1574
S':'
asbag57
(g78
g59
NtRp1575
(dp1576
g62
(dp1577
sg71
g1562
sg64
(lp1578
g57
(g58
g59
NtRp1579
(dp1580
g62
(dp1581
g70
I4
ssg71
g1575
sg64
(lp1582
g100
asbasbasbag57
(g73
g59
NtRp1583
(dp1584
g62
(dp1585
sg71
g661
sg64
(lp1586
g57
(g78
g59
NtRp1587
(dp1588
g62
(dp1589
g82
g83
ssg71
g1583
sg64
(lp1590
S'wsgi_multithread'
p1591
asbag57
(g78
g59
NtRp1592
(dp1593
g62
(dp1594
g89
g90
ssg71
g1583
sg64
(lp1595
S':'
asbag57
(g78
g59
NtRp1596
(dp1597
g62
(dp1598
sg71
g1583
sg64
(lp1599
g57
(g58
g59
NtRp1600
(dp1601
g62
(dp1602
g70
I4
ssg71
g1596
sg64
(lp1603
S'True'
p1604
asbasbasbag57
(g73
g59
NtRp1605
(dp1606
g62
(dp1607
sg71
g661
sg64
(lp1608
g57
(g78
g59
NtRp1609
(dp1610
g62
(dp1611
g82
g83
ssg71
g1605
sg64
(lp1612
S'wsgi_run_once'
p1613
asbag57
(g78
g59
NtRp1614
(dp1615
g62
(dp1616
g89
g90
ssg71
g1605
sg64
(lp1617
S':'
asbag57
(g78
g59
NtRp1618
(dp1619
g62
(dp1620
sg71
g1605
sg64
(lp1621
g57
(g58
g59
NtRp1622
(dp1623
g62
(dp1624
g70
I4
ssg71
g1618
sg64
(lp1625
g100
asbasbasbag57
(g73
g59
NtRp1626
(dp1627
g62
(dp1628
sg71
g661
sg64
(lp1629
g57
(g78
g59
NtRp1630
(dp1631
g62
(dp1632
g82
g83
ssg71
g1626
sg64
(lp1633
S'wsgi_url_scheme'
p1634
asbag57
(g78
g59
NtRp1635
(dp1636
g62
(dp1637
g89
g90
ssg71
g1626
sg64
(lp1638
S':'
asbag57
(g78
g59
NtRp1639
(dp1640
g62
(dp1641
sg71
g1626
sg64
(lp1642
g57
(g58
g59
NtRp1643
(dp1644
g62
(dp1645
g70
I4
ssg71
g1639
sg64
(lp1646
S'http'
p1647
asbasbasbag57
(g73
g59
NtRp1648
(dp1649
g62
(dp1650
sg71
g661
sg64
(lp1651
g57
(g78
g59
NtRp1652
(dp1653
g62
(dp1654
g82
g83
ssg71
g1648
sg64
(lp1655
S'wsgi_version'
p1656
asbag57
(g78
g59
NtRp1657
(dp1658
g62
(dp1659
g89
g90
ssg71
g1648
sg64
(lp1660
S':'
asbag57
(g78
g59
NtRp1661
(dp1662
g62
(dp1663
sg71
g1648
sg64
(lp1664
g57
(g58
g59
NtRp1665
(dp1666
g62
(dp1667
g70
I4
ssg71
g1661
sg64
(lp1668
g57
(g66
g59
NtRp1669
(dp1670
g62
(dp1671
g70
I3
ssg71
Nsg64
(lp1672
g57
(g73
g59
NtRp1673
(dp1674
g62
(dp1675
sg71
g1669
sg64
(lp1676
g57
(g78
g59
NtRp1677
(dp1678
g62
(dp1679
sg71
g1673
sg64
(lp1680
g57
(g58
g59
NtRp1681
(dp1682
g62
(dp1683
g70
I3
ssg71
g1677
sg64
(lp1684
S'1'
asbasbasbag57
(g73
g59
NtRp1685
(dp1686
g62
(dp1687
sg71
g1669
sg64
(lp1688
g57
(g78
g59
NtRp1689
(dp1690
g62
(dp1691
sg71
g1685
sg64
(lp1692
g57
(g58
g59
NtRp1693
(dp1694
g62
(dp1695
g70
I3
ssg71
g1689
sg64
(lp1696
S'0'
asbasbasbasbasbasbasbasbasbasbasbag57
(g73
g59
NtRp1697
(dp1698
g62
(dp1699
sg71
g67
sg64
(lp1700
g57
(g78
g59
NtRp1701
(dp1702
g62
(dp1703
g82
g83
ssg71
g1697
sg64
(lp1704
S'extension'
p1705
asbag57
(g78
g59
NtRp1706
(dp1707
g62
(dp1708
g89
g90
ssg71
g1697
sg64
(lp1709
S':'
asbag57
(g78
g59
NtRp1710
(dp1711
g62
(dp1712
sg71
g1697
sg64
(lp1713
g57
(g58
g59
NtRp1714
(dp1715
g62
(dp1716
g70
I5
ssg71
g1710
sg64
(lp1717
S'html'
p1718
asbasbasbag57
(g73
g59
NtRp1719
(dp1720
g62
(dp1721
sg71
g67
sg64
(lp1722
g57
(g78
g59
NtRp1723
(dp1724
g62
(dp1725
g82
g83
ssg71
g1719
sg64
(lp1726
S'folder'
p1727
asbag57
(g78
g59
NtRp1728
(dp1729
g62
(dp1730
g89
g90
ssg71
g1719
sg64
(lp1731
S':'
asbag57
(g78
g59
NtRp1732
(dp1733
g62
(dp1734
sg71
g1719
sg64
(lp1735
g57
(g58
g59
NtRp1736
(dp1737
g62
(dp1738
g70
I5
ssg71
g1732
sg64
(lp1739
S'D:\\web2py\\source\\web2py\\applications\\web2py_xlchart_dashboard\\'
p1740
asbasbasbag57
(g73
g59
NtRp1741
(dp1742
g62
(dp1743
sg71
g67
sg64
(lp1744
g57
(g78
g59
NtRp1745
(dp1746
g62
(dp1747
g82
g83
ssg71
g1741
sg64
(lp1748
S'function'
p1749
asbag57
(g78
g59
NtRp1750
(dp1751
g62
(dp1752
g89
g90
ssg71
g1741
sg64
(lp1753
S':'
asbag57
(g78
g59
NtRp1754
(dp1755
g62
(dp1756
sg71
g1741
sg64
(lp1757
g57
(g58
g59
NtRp1758
(dp1759
g62
(dp1760
g70
I5
ssg71
g1754
sg64
(lp1761
S'user_charts'
p1762
asbasbasbag57
(g73
g59
NtRp1763
(dp1764
g62
(dp1765
sg71
g67
sg64
(lp1766
g57
(g78
g59
NtRp1767
(dp1768
g62
(dp1769
g82
g83
ssg71
g1763
sg64
(lp1770
S'get_vars'
p1771
asbag57
(g78
g59
NtRp1772
(dp1773
g62
(dp1774
g89
g90
ssg71
g1763
sg64
(lp1775
S':'
asbag57
(g78
g59
NtRp1776
(dp1777
g62
(dp1778
sg71
g1763
sg64
(lp1779
g57
(g58
g59
NtRp1780
(dp1781
g62
(dp1782
g70
I5
ssg71
g1776
sg64
(lp1783
g57
(g66
g59
NtRp1784
(dp1785
g62
(dp1786
g70
I4
ssg71
Nsg64
(lp1787
sbasbasbasbag57
(g73
g59
NtRp1788
(dp1789
g62
(dp1790
sg71
g67
sg64
(lp1791
g57
(g78
g59
NtRp1792
(dp1793
g62
(dp1794
g82
g83
ssg71
g1788
sg64
(lp1795
S'global_settings'
p1796
asbag57
(g78
g59
NtRp1797
(dp1798
g62
(dp1799
g89
g90
ssg71
g1788
sg64
(lp1800
S':'
asbag57
(g78
g59
NtRp1801
(dp1802
g62
(dp1803
sg71
g1788
sg64
(lp1804
g57
(g58
g59
NtRp1805
(dp1806
g62
(dp1807
g70
I5
ssg71
g1801
sg64
(lp1808
g57
(g66
g59
NtRp1809
(dp1810
g62
(dp1811
g70
I4
ssg71
Nsg64
(lp1812
g57
(g73
g59
NtRp1813
(dp1814
g62
(dp1815
sg71
g1809
sg64
(lp1816
g57
(g78
g59
NtRp1817
(dp1818
g62
(dp1819
g82
g83
ssg71
g1813
sg64
(lp1820
g673
asbag57
(g78
g59
NtRp1821
(dp1822
g62
(dp1823
g89
g90
ssg71
g1813
sg64
(lp1824
S':'
asbag57
(g78
g59
NtRp1825
(dp1826
g62
(dp1827
sg71
g1813
sg64
(lp1828
g57
(g58
g59
NtRp1829
(dp1830
g62
(dp1831
g70
I4
ssg71
g1825
sg64
(lp1832
S"set(['D:\\\\web2py\\\\source\\\\web2py\\\\applications\\\\admin\\\\', 'D:\\\\web2py\\\\source\\\\web2py\\\\applications\\\\welcome\\\\', 'D:\\\\web2py\\\\source\\\\web2py\\\\applications\\\\web2py_xlchart_dashboard\\\\'])"
p1833
asbasbasbag57
(g73
g59
NtRp1834
(dp1835
g62
(dp1836
sg71
g1809
sg64
(lp1837
g57
(g78
g59
NtRp1838
(dp1839
g62
(dp1840
g82
g83
ssg71
g1834
sg64
(lp1841
g695
asbag57
(g78
g59
NtRp1842
(dp1843
g62
(dp1844
g89
g90
ssg71
g1834
sg64
(lp1845
S':'
asbag57
(g78
g59
NtRp1846
(dp1847
g62
(dp1848
sg71
g1834
sg64
(lp1849
g57
(g58
g59
NtRp1850
(dp1851
g62
(dp1852
g70
I4
ssg71
g1846
sg64
(lp1853
g708
asbasbasbag57
(g73
g59
NtRp1854
(dp1855
g62
(dp1856
sg71
g1809
sg64
(lp1857
g57
(g78
g59
NtRp1858
(dp1859
g62
(dp1860
g82
g83
ssg71
g1854
sg64
(lp1861
g717
asbag57
(g78
g59
NtRp1862
(dp1863
g62
(dp1864
g89
g90
ssg71
g1854
sg64
(lp1865
S':'
asbag57
(g78
g59
NtRp1866
(dp1867
g62
(dp1868
sg71
g1854
sg64
(lp1869
g57
(g58
g59
NtRp1870
(dp1871
g62
(dp1872
g70
I4
ssg71
g1866
sg64
(lp1873
g57
(g66
g59
NtRp1874
(dp1875
g62
(dp1876
g70
I3
ssg71
Nsg64
(lp1877
sbasbasbasbag57
(g73
g59
NtRp1878
(dp1879
g62
(dp1880
sg71
g1809
sg64
(lp1881
g57
(g78
g59
NtRp1882
(dp1883
g62
(dp1884
g82
g83
ssg71
g1878
sg64
(lp1885
g742
asbag57
(g78
g59
NtRp1886
(dp1887
g62
(dp1888
g89
g90
ssg71
g1878
sg64
(lp1889
S':'
asbag57
(g78
g59
NtRp1890
(dp1891
g62
(dp1892
sg71
g1878
sg64
(lp1893
g57
(g58
g59
NtRp1894
(dp1895
g62
(dp1896
g70
I4
ssg71
g1890
sg64
(lp1897
S"<Values at 0xc78f58: {'verbose': False, 'ip': '127.0.0.1', 'with_scheduler': False, 'ips': ['192.168.0.14'], 'shutdown_timeout': 5, 'taskbar': False, 'port': 8000, 'maxthreads': None, 'softcron': False, 'server_name': 'GLKLAG235327', 'bpython': False, 'nogui': False, 'pid_filename': 'httpserver.pid', 'extcron': False, 'runcron': False, 'run_system_tests': False, 'test': None, 'folder': 'D:\\\\web2py\\\\source\\\\web2py', 'config': '', 'import_models': False, 'winservice': '', 'shell': None, 'run': '', 'log_filename': 'httpserver.log', 'debuglevel': 30, 'args': [''], 'socket_timeout': 5, 'ssl_ca_certificate': None, 'scheduler': None, 'profiler_filename': None, 'ssl_private_key': '', 'scheduler_groups': None, 'password': '<ask>', 'request_queue_size': 5, 'ssl_certificate': '', 'cronjob': False, 'numthreads': None, 'quiet': False, 'interfaces': None, 'minthreads': None, 'timeout': 10, 'plain': False, 'nobanner': False}>"
p1898
asbasbasbag57
(g73
g59
NtRp1899
(dp1900
g62
(dp1901
sg71
g1809
sg64
(lp1902
g57
(g78
g59
NtRp1903
(dp1904
g62
(dp1905
g82
g83
ssg71
g1899
sg64
(lp1906
g764
asbag57
(g78
g59
NtRp1907
(dp1908
g62
(dp1909
g89
g90
ssg71
g1899
sg64
(lp1910
S':'
asbag57
(g78
g59
NtRp1911
(dp1912
g62
(dp1913
sg71
g1899
sg64
(lp1914
g57
(g58
g59
NtRp1915
(dp1916
g62
(dp1917
g70
I4
ssg71
g1911
sg64
(lp1918
S'set([])'
p1919
asbasbasbag57
(g73
g59
NtRp1920
(dp1921
g62
(dp1922
sg71
g1809
sg64
(lp1923
g57
(g78
g59
NtRp1924
(dp1925
g62
(dp1926
g82
g83
ssg71
g1920
sg64
(lp1927
g786
asbag57
(g78
g59
NtRp1928
(dp1929
g62
(dp1930
g89
g90
ssg71
g1920
sg64
(lp1931
S':'
asbag57
(g78
g59
NtRp1932
(dp1933
g62
(dp1934
sg71
g1920
sg64
(lp1935
g57
(g58
g59
NtRp1936
(dp1937
g62
(dp1938
g70
I4
ssg71
g1932
sg64
(lp1939
g100
asbasbasbag57
(g73
g59
NtRp1940
(dp1941
g62
(dp1942
sg71
g1809
sg64
(lp1943
g57
(g78
g59
NtRp1944
(dp1945
g62
(dp1946
g82
g83
ssg71
g1940
sg64
(lp1947
g807
asbag57
(g78
g59
NtRp1948
(dp1949
g62
(dp1950
g89
g90
ssg71
g1940
sg64
(lp1951
S':'
asbag57
(g78
g59
NtRp1952
(dp1953
g62
(dp1954
sg71
g1940
sg64
(lp1955
g57
(g58
g59
NtRp1956
(dp1957
g62
(dp1958
g70
I4
ssg71
g1952
sg64
(lp1959
g820
asbasbasbag57
(g73
g59
NtRp1960
(dp1961
g62
(dp1962
sg71
g1809
sg64
(lp1963
g57
(g78
g59
NtRp1964
(dp1965
g62
(dp1966
g82
g83
ssg71
g1960
sg64
(lp1967
g1027
asbag57
(g78
g59
NtRp1968
(dp1969
g62
(dp1970
g89
g90
ssg71
g1960
sg64
(lp1971
S':'
asbag57
(g78
g59
NtRp1972
(dp1973
g62
(dp1974
sg71
g1960
sg64
(lp1975
g57
(g58
g59
NtRp1976
(dp1977
g62
(dp1978
g70
I4
ssg71
g1972
sg64
(lp1979
g100
asbasbasbag57
(g73
g59
NtRp1980
(dp1981
g62
(dp1982
sg71
g1809
sg64
(lp1983
g57
(g78
g59
NtRp1984
(dp1985
g62
(dp1986
g82
g83
ssg71
g1980
sg64
(lp1987
g1048
asbag57
(g78
g59
NtRp1988
(dp1989
g62
(dp1990
g89
g90
ssg71
g1980
sg64
(lp1991
S':'
asbag57
(g78
g59
NtRp1992
(dp1993
g62
(dp1994
sg71
g1980
sg64
(lp1995
g57
(g58
g59
NtRp1996
(dp1997
g62
(dp1998
g70
I4
ssg71
g1992
sg64
(lp1999
g100
asbasbasbag57
(g73
g59
NtRp2000
(dp2001
g62
(dp2002
sg71
g1809
sg64
(lp2003
g57
(g78
g59
NtRp2004
(dp2005
g62
(dp2006
g82
g83
ssg71
g2000
sg64
(lp2007
g1069
asbag57
(g78
g59
NtRp2008
(dp2009
g62
(dp2010
g89
g90
ssg71
g2000
sg64
(lp2011
S':'
asbag57
(g78
g59
NtRp2012
(dp2013
g62
(dp2014
sg71
g2000
sg64
(lp2015
g57
(g58
g59
NtRp2016
(dp2017
g62
(dp2018
g70
I4
ssg71
g2012
sg64
(lp2019
g57
(g66
g59
NtRp2020
(dp2021
g62
(dp2022
g70
I3
ssg71
Nsg64
(lp2023
g57
(g73
g59
NtRp2024
(dp2025
g62
(dp2026
sg71
g2020
sg64
(lp2027
g57
(g78
g59
NtRp2028
(dp2029
g62
(dp2030
sg71
g2024
sg64
(lp2031
g57
(g58
g59
NtRp2032
(dp2033
g62
(dp2034
g70
I3
ssg71
g2028
sg64
(lp2035
g1098
asbasbasbag57
(g73
g59
NtRp2036
(dp2037
g62
(dp2038
sg71
g2020
sg64
(lp2039
g57
(g78
g59
NtRp2040
(dp2041
g62
(dp2042
sg71
g2036
sg64
(lp2043
g57
(g58
g59
NtRp2044
(dp2045
g62
(dp2046
g70
I3
ssg71
g2040
sg64
(lp2047
g1111
asbasbasbag57
(g73
g59
NtRp2048
(dp2049
g62
(dp2050
sg71
g2020
sg64
(lp2051
g57
(g78
g59
NtRp2052
(dp2053
g62
(dp2054
sg71
g2048
sg64
(lp2055
g57
(g58
g59
NtRp2056
(dp2057
g62
(dp2058
g70
I3
ssg71
g2052
sg64
(lp2059
g1124
asbasbasbag57
(g73
g59
NtRp2060
(dp2061
g62
(dp2062
sg71
g2020
sg64
(lp2063
g57
(g78
g59
NtRp2064
(dp2065
g62
(dp2066
sg71
g2060
sg64
(lp2067
g57
(g58
g59
NtRp2068
(dp2069
g62
(dp2070
g70
I3
ssg71
g2064
sg64
(lp2071
g1137
asbasbasbag57
(g73
g59
NtRp2072
(dp2073
g62
(dp2074
sg71
g2020
sg64
(lp2075
g57
(g78
g59
NtRp2076
(dp2077
g62
(dp2078
sg71
g2072
sg64
(lp2079
g57
(g58
g59
NtRp2080
(dp2081
g62
(dp2082
g70
I3
ssg71
g2076
sg64
(lp2083
g1150
asbasbasbasbasbasbasbag57
(g73
g59
NtRp2084
(dp2085
g62
(dp2086
sg71
g1809
sg64
(lp2087
g57
(g78
g59
NtRp2088
(dp2089
g62
(dp2090
g82
g83
ssg71
g2084
sg64
(lp2091
g1417
asbag57
(g78
g59
NtRp2092
(dp2093
g62
(dp2094
g89
g90
ssg71
g2084
sg64
(lp2095
S':'
asbag57
(g78
g59
NtRp2096
(dp2097
g62
(dp2098
sg71
g2084
sg64
(lp2099
g57
(g58
g59
NtRp2100
(dp2101
g62
(dp2102
g70
I4
ssg71
g2096
sg64
(lp2103
g57
(g66
g59
NtRp2104
(dp2105
g62
(dp2106
g70
I3
ssg71
Nsg64
(lp2107
g57
(g73
g59
NtRp2108
(dp2109
g62
(dp2110
sg71
g2104
sg64
(lp2111
g57
(g78
g59
NtRp2112
(dp2113
g62
(dp2114
sg71
g2108
sg64
(lp2115
g57
(g58
g59
NtRp2116
(dp2117
g62
(dp2118
g70
I3
ssg71
g2112
sg64
(lp2119
S'2'
asbasbasbag57
(g73
g59
NtRp2120
(dp2121
g62
(dp2122
sg71
g2104
sg64
(lp2123
g57
(g78
g59
NtRp2124
(dp2125
g62
(dp2126
sg71
g2120
sg64
(lp2127
g57
(g58
g59
NtRp2128
(dp2129
g62
(dp2130
g70
I3
ssg71
g2124
sg64
(lp2131
S'2'
asbasbasbag57
(g73
g59
NtRp2132
(dp2133
g62
(dp2134
sg71
g2104
sg64
(lp2135
g57
(g78
g59
NtRp2136
(dp2137
g62
(dp2138
sg71
g2132
sg64
(lp2139
g57
(g58
g59
NtRp2140
(dp2141
g62
(dp2142
g70
I3
ssg71
g2136
sg64
(lp2143
S'1'
asbasbasbag57
(g73
g59
NtRp2144
(dp2145
g62
(dp2146
sg71
g2104
sg64
(lp2147
g57
(g78
g59
NtRp2148
(dp2149
g62
(dp2150
sg71
g2144
sg64
(lp2151
g57
(g58
g59
NtRp2152
(dp2153
g62
(dp2154
g70
I3
ssg71
g2148
sg64
(lp2155
S'datetime.datetime(2012, 10, 21, 16, 57, 4)'
p2156
asbasbasbag57
(g73
g59
NtRp2157
(dp2158
g62
(dp2159
sg71
g2104
sg64
(lp2160
g57
(g78
g59
NtRp2161
(dp2162
g62
(dp2163
sg71
g2157
sg64
(lp2164
g57
(g58
g59
NtRp2165
(dp2166
g62
(dp2167
g70
I3
ssg71
g2161
sg64
(lp2168
g1495
asbasbasbasbasbasbasbasbasbasbasbag57
(g73
g59
NtRp2169
(dp2170
g62
(dp2171
sg71
g67
sg64
(lp2172
g57
(g78
g59
NtRp2173
(dp2174
g62
(dp2175
g82
g83
ssg71
g2169
sg64
(lp2176
S'is_https'
p2177
asbag57
(g78
g59
NtRp2178
(dp2179
g62
(dp2180
g89
g90
ssg71
g2169
sg64
(lp2181
S':'
asbag57
(g78
g59
NtRp2182
(dp2183
g62
(dp2184
sg71
g2169
sg64
(lp2185
g57
(g58
g59
NtRp2186
(dp2187
g62
(dp2188
g70
I5
ssg71
g2182
sg64
(lp2189
g100
asbasbasbag57
(g73
g59
NtRp2190
(dp2191
g62
(dp2192
sg71
g67
sg64
(lp2193
g57
(g78
g59
NtRp2194
(dp2195
g62
(dp2196
g82
g83
ssg71
g2190
sg64
(lp2197
S'is_local'
p2198
asbag57
(g78
g59
NtRp2199
(dp2200
g62
(dp2201
g89
g90
ssg71
g2190
sg64
(lp2202
S':'
asbag57
(g78
g59
NtRp2203
(dp2204
g62
(dp2205
sg71
g2190
sg64
(lp2206
g57
(g58
g59
NtRp2207
(dp2208
g62
(dp2209
g70
I5
ssg71
g2203
sg64
(lp2210
g1604
asbasbasbag57
(g73
g59
NtRp2211
(dp2212
g62
(dp2213
sg71
g67
sg64
(lp2214
g57
(g78
g59
NtRp2215
(dp2216
g62
(dp2217
g82
g83
ssg71
g2211
sg64
(lp2218
S'is_restful'
p2219
asbag57
(g78
g59
NtRp2220
(dp2221
g62
(dp2222
g89
g90
ssg71
g2211
sg64
(lp2223
S':'
asbag57
(g78
g59
NtRp2224
(dp2225
g62
(dp2226
sg71
g2211
sg64
(lp2227
g57
(g58
g59
NtRp2228
(dp2229
g62
(dp2230
g70
I5
ssg71
g2224
sg64
(lp2231
g100
asbasbasbag57
(g73
g59
NtRp2232
(dp2233
g62
(dp2234
sg71
g67
sg64
(lp2235
g57
(g78
g59
NtRp2236
(dp2237
g62
(dp2238
g82
g83
ssg71
g2232
sg64
(lp2239
S'now'
p2240
asbag57
(g78
g59
NtRp2241
(dp2242
g62
(dp2243
g89
g90
ssg71
g2232
sg64
(lp2244
S':'
asbag57
(g78
g59
NtRp2245
(dp2246
g62
(dp2247
sg71
g2232
sg64
(lp2248
g57
(g58
g59
NtRp2249
(dp2250
g62
(dp2251
g70
I5
ssg71
g2245
sg64
(lp2252
S'datetime.datetime(2012, 11, 7, 16, 34, 19, 625000)'
p2253
asbasbasbag57
(g73
g59
NtRp2254
(dp2255
g62
(dp2256
sg71
g67
sg64
(lp2257
g57
(g78
g59
NtRp2258
(dp2259
g62
(dp2260
g82
g83
ssg71
g2254
sg64
(lp2261
S'post_vars'
p2262
asbag57
(g78
g59
NtRp2263
(dp2264
g62
(dp2265
g89
g90
ssg71
g2254
sg64
(lp2266
S':'
asbag57
(g78
g59
NtRp2267
(dp2268
g62
(dp2269
sg71
g2254
sg64
(lp2270
g57
(g58
g59
NtRp2271
(dp2272
g62
(dp2273
g70
I5
ssg71
g2267
sg64
(lp2274
g57
(g66
g59
NtRp2275
(dp2276
g62
(dp2277
g70
I4
ssg71
Nsg64
(lp2278
sbasbasbasbag57
(g73
g59
NtRp2279
(dp2280
g62
(dp2281
sg71
g67
sg64
(lp2282
g57
(g78
g59
NtRp2283
(dp2284
g62
(dp2285
g82
g83
ssg71
g2279
sg64
(lp2286
S'raw_args'
p2287
asbag57
(g78
g59
NtRp2288
(dp2289
g62
(dp2290
g89
g90
ssg71
g2279
sg64
(lp2291
S':'
asbag57
(g78
g59
NtRp2292
(dp2293
g62
(dp2294
sg71
g2279
sg64
(lp2295
g57
(g58
g59
NtRp2296
(dp2297
g62
(dp2298
g70
I5
ssg71
g2292
sg64
(lp2299
S''
asbasbasbag57
(g73
g59
NtRp2300
(dp2301
g62
(dp2302
sg71
g67
sg64
(lp2303
g57
(g78
g59
NtRp2304
(dp2305
g62
(dp2306
g82
g83
ssg71
g2300
sg64
(lp2307
S'raw_extension'
p2308
asbag57
(g78
g59
NtRp2309
(dp2310
g62
(dp2311
g89
g90
ssg71
g2300
sg64
(lp2312
S':'
asbag57
(g78
g59
NtRp2313
(dp2314
g62
(dp2315
sg71
g2300
sg64
(lp2316
g57
(g58
g59
NtRp2317
(dp2318
g62
(dp2319
g70
I5
ssg71
g2313
sg64
(lp2320
S'None'
p2321
asbasbasbag57
(g73
g59
NtRp2322
(dp2323
g62
(dp2324
sg71
g67
sg64
(lp2325
g57
(g78
g59
NtRp2326
(dp2327
g62
(dp2328
g82
g83
ssg71
g2322
sg64
(lp2329
S'url'
p2330
asbag57
(g78
g59
NtRp2331
(dp2332
g62
(dp2333
g89
g90
ssg71
g2322
sg64
(lp2334
S':'
asbag57
(g78
g59
NtRp2335
(dp2336
g62
(dp2337
sg71
g2322
sg64
(lp2338
g57
(g58
g59
NtRp2339
(dp2340
g62
(dp2341
g70
I5
ssg71
g2335
sg64
(lp2342
g1172
asbasbasbag57
(g73
g59
NtRp2343
(dp2344
g62
(dp2345
sg71
g67
sg64
(lp2346
g57
(g78
g59
NtRp2347
(dp2348
g62
(dp2349
g82
g83
ssg71
g2343
sg64
(lp2350
S'utcnow'
p2351
asbag57
(g78
g59
NtRp2352
(dp2353
g62
(dp2354
g89
g90
ssg71
g2343
sg64
(lp2355
S':'
asbag57
(g78
g59
NtRp2356
(dp2357
g62
(dp2358
sg71
g2343
sg64
(lp2359
g57
(g58
g59
NtRp2360
(dp2361
g62
(dp2362
g70
I5
ssg71
g2356
sg64
(lp2363
S'datetime.datetime(2012, 11, 7, 16, 34, 19, 625000)'
p2364
asbasbasbag57
(g73
g59
NtRp2365
(dp2366
g62
(dp2367
sg71
g67
sg64
(lp2368
g57
(g78
g59
NtRp2369
(dp2370
g62
(dp2371
g82
g83
ssg71
g2365
sg64
(lp2372
S'uuid'
p2373
asbag57
(g78
g59
NtRp2374
(dp2375
g62
(dp2376
g89
g90
ssg71
g2365
sg64
(lp2377
S':'
asbag57
(g78
g59
NtRp2378
(dp2379
g62
(dp2380
sg71
g2365
sg64
(lp2381
g57
(g58
g59
NtRp2382
(dp2383
g62
(dp2384
g70
I5
ssg71
g2378
sg64
(lp2385
S'web2py_xlchart_dashboard/127.0.0.1.2012-11-07.16-34-19.a42dced5-12f6-4fe6-81fd-db041e3b72d9'
p2386
asbasbasbag57
(g73
g59
NtRp2387
(dp2388
g62
(dp2389
sg71
g67
sg64
(lp2390
g57
(g78
g59
NtRp2391
(dp2392
g62
(dp2393
g82
g83
ssg71
g2387
sg64
(lp2394
S'vars'
p2395
asbag57
(g78
g59
NtRp2396
(dp2397
g62
(dp2398
g89
g90
ssg71
g2387
sg64
(lp2399
S':'
asbag57
(g78
g59
NtRp2400
(dp2401
g62
(dp2402
sg71
g2387
sg64
(lp2403
g57
(g58
g59
NtRp2404
(dp2405
g62
(dp2406
g70
I5
ssg71
g2400
sg64
(lp2407
g57
(g66
g59
NtRp2408
(dp2409
g62
(dp2410
g70
I4
ssg71
Nsg64
(lp2411
sbasbasbasbag57
(g73
g59
NtRp2412
(dp2413
g62
(dp2414
sg71
g67
sg64
(lp2415
g57
(g78
g59
NtRp2416
(dp2417
g62
(dp2418
g82
g83
ssg71
g2412
sg64
(lp2419
S'wsgi'
p2420
asbag57
(g78
g59
NtRp2421
(dp2422
g62
(dp2423
g89
g90
ssg71
g2412
sg64
(lp2424
S':'
asbag57
(g78
g59
NtRp2425
(dp2426
g62
(dp2427
sg71
g2412
sg64
(lp2428
g57
(g58
g59
NtRp2429
(dp2430
g62
(dp2431
g70
I5
ssg71
g2425
sg64
(lp2432
g57
(g66
g59
NtRp2433
(dp2434
g62
(dp2435
g70
I4
ssg71
Nsg64
(lp2436
g57
(g73
g59
NtRp2437
(dp2438
g62
(dp2439
sg71
g2433
sg64
(lp2440
g57
(g78
g59
NtRp2441
(dp2442
g62
(dp2443
g82
g83
ssg71
g2437
sg64
(lp2444
S'environ'
p2445
asbag57
(g78
g59
NtRp2446
(dp2447
g62
(dp2448
g89
g90
ssg71
g2437
sg64
(lp2449
S':'
asbag57
(g78
g59
NtRp2450
(dp2451
g62
(dp2452
sg71
g2437
sg64
(lp2453
g57
(g58
g59
NtRp2454
(dp2455
g62
(dp2456
g70
I4
ssg71
g2450
sg64
(lp2457
g57
(g66
g59
NtRp2458
(dp2459
g62
(dp2460
g70
I3
ssg71
Nsg64
(lp2461
g57
(g73
g59
NtRp2462
(dp2463
g62
(dp2464
sg71
g2458
sg64
(lp2465
g57
(g78
g59
NtRp2466
(dp2467
g62
(dp2468
g82
g83
ssg71
g2462
sg64
(lp2469
S'HTTP_ACCEPT'
p2470
asbag57
(g78
g59
NtRp2471
(dp2472
g62
(dp2473
g89
g90
ssg71
g2462
sg64
(lp2474
S':'
asbag57
(g78
g59
NtRp2475
(dp2476
g62
(dp2477
sg71
g2462
sg64
(lp2478
g57
(g58
g59
NtRp2479
(dp2480
g62
(dp2481
g70
I3
ssg71
g2475
sg64
(lp2482
g842
asbasbasbag57
(g73
g59
NtRp2483
(dp2484
g62
(dp2485
sg71
g2458
sg64
(lp2486
g57
(g78
g59
NtRp2487
(dp2488
g62
(dp2489
g82
g83
ssg71
g2483
sg64
(lp2490
S'HTTP_ACCEPT_CHARSET'
p2491
asbag57
(g78
g59
NtRp2492
(dp2493
g62
(dp2494
g89
g90
ssg71
g2483
sg64
(lp2495
S':'
asbag57
(g78
g59
NtRp2496
(dp2497
g62
(dp2498
sg71
g2483
sg64
(lp2499
g57
(g58
g59
NtRp2500
(dp2501
g62
(dp2502
g70
I3
ssg71
g2496
sg64
(lp2503
g864
asbasbasbag57
(g73
g59
NtRp2504
(dp2505
g62
(dp2506
sg71
g2458
sg64
(lp2507
g57
(g78
g59
NtRp2508
(dp2509
g62
(dp2510
g82
g83
ssg71
g2504
sg64
(lp2511
S'HTTP_ACCEPT_ENCODING'
p2512
asbag57
(g78
g59
NtRp2513
(dp2514
g62
(dp2515
g89
g90
ssg71
g2504
sg64
(lp2516
S':'
asbag57
(g78
g59
NtRp2517
(dp2518
g62
(dp2519
sg71
g2504
sg64
(lp2520
g57
(g58
g59
NtRp2521
(dp2522
g62
(dp2523
g70
I3
ssg71
g2517
sg64
(lp2524
g886
asbasbasbag57
(g73
g59
NtRp2525
(dp2526
g62
(dp2527
sg71
g2458
sg64
(lp2528
g57
(g78
g59
NtRp2529
(dp2530
g62
(dp2531
g82
g83
ssg71
g2525
sg64
(lp2532
S'HTTP_ACCEPT_LANGUAGE'
p2533
asbag57
(g78
g59
NtRp2534
(dp2535
g62
(dp2536
g89
g90
ssg71
g2525
sg64
(lp2537
S':'
asbag57
(g78
g59
NtRp2538
(dp2539
g62
(dp2540
sg71
g2525
sg64
(lp2541
g57
(g58
g59
NtRp2542
(dp2543
g62
(dp2544
g70
I3
ssg71
g2538
sg64
(lp2545
g908
asbasbasbag57
(g73
g59
NtRp2546
(dp2547
g62
(dp2548
sg71
g2458
sg64
(lp2549
g57
(g78
g59
NtRp2550
(dp2551
g62
(dp2552
g82
g83
ssg71
g2546
sg64
(lp2553
S'HTTP_CACHE_CONTROL'
p2554
asbag57
(g78
g59
NtRp2555
(dp2556
g62
(dp2557
g89
g90
ssg71
g2546
sg64
(lp2558
S':'
asbag57
(g78
g59
NtRp2559
(dp2560
g62
(dp2561
sg71
g2546
sg64
(lp2562
g57
(g58
g59
NtRp2563
(dp2564
g62
(dp2565
g70
I3
ssg71
g2559
sg64
(lp2566
g930
asbasbasbag57
(g73
g59
NtRp2567
(dp2568
g62
(dp2569
sg71
g2458
sg64
(lp2570
g57
(g78
g59
NtRp2571
(dp2572
g62
(dp2573
g82
g83
ssg71
g2567
sg64
(lp2574
S'HTTP_CONNECTION'
p2575
asbag57
(g78
g59
NtRp2576
(dp2577
g62
(dp2578
g89
g90
ssg71
g2567
sg64
(lp2579
S':'
asbag57
(g78
g59
NtRp2580
(dp2581
g62
(dp2582
sg71
g2567
sg64
(lp2583
g57
(g58
g59
NtRp2584
(dp2585
g62
(dp2586
g70
I3
ssg71
g2580
sg64
(lp2587
g952
asbasbasbag57
(g73
g59
NtRp2588
(dp2589
g62
(dp2590
sg71
g2458
sg64
(lp2591
g57
(g78
g59
NtRp2592
(dp2593
g62
(dp2594
g82
g83
ssg71
g2588
sg64
(lp2595
S'HTTP_COOKIE'
p2596
asbag57
(g78
g59
NtRp2597
(dp2598
g62
(dp2599
g89
g90
ssg71
g2588
sg64
(lp2600
S':'
asbag57
(g78
g59
NtRp2601
(dp2602
g62
(dp2603
sg71
g2588
sg64
(lp2604
g57
(g58
g59
NtRp2605
(dp2606
g62
(dp2607
g70
I3
ssg71
g2601
sg64
(lp2608
g974
asbasbasbag57
(g73
g59
NtRp2609
(dp2610
g62
(dp2611
sg71
g2458
sg64
(lp2612
g57
(g78
g59
NtRp2613
(dp2614
g62
(dp2615
g82
g83
ssg71
g2609
sg64
(lp2616
S'HTTP_HOST'
p2617
asbag57
(g78
g59
NtRp2618
(dp2619
g62
(dp2620
g89
g90
ssg71
g2609
sg64
(lp2621
S':'
asbag57
(g78
g59
NtRp2622
(dp2623
g62
(dp2624
sg71
g2609
sg64
(lp2625
g57
(g58
g59
NtRp2626
(dp2627
g62
(dp2628
g70
I3
ssg71
g2622
sg64
(lp2629
g996
asbasbasbag57
(g73
g59
NtRp2630
(dp2631
g62
(dp2632
sg71
g2458
sg64
(lp2633
g57
(g78
g59
NtRp2634
(dp2635
g62
(dp2636
g82
g83
ssg71
g2630
sg64
(lp2637
S'HTTP_USER_AGENT'
p2638
asbag57
(g78
g59
NtRp2639
(dp2640
g62
(dp2641
g89
g90
ssg71
g2630
sg64
(lp2642
S':'
asbag57
(g78
g59
NtRp2643
(dp2644
g62
(dp2645
sg71
g2630
sg64
(lp2646
g57
(g58
g59
NtRp2647
(dp2648
g62
(dp2649
g70
I3
ssg71
g2643
sg64
(lp2650
g1018
asbasbasbag57
(g73
g59
NtRp2651
(dp2652
g62
(dp2653
sg71
g2458
sg64
(lp2654
g57
(g78
g59
NtRp2655
(dp2656
g62
(dp2657
g82
g83
ssg71
g2651
sg64
(lp2658
S'PATH_INFO'
p2659
asbag57
(g78
g59
NtRp2660
(dp2661
g62
(dp2662
g89
g90
ssg71
g2651
sg64
(lp2663
S':'
asbag57
(g78
g59
NtRp2664
(dp2665
g62
(dp2666
sg71
g2651
sg64
(lp2667
g57
(g58
g59
NtRp2668
(dp2669
g62
(dp2670
g70
I3
ssg71
g2664
sg64
(lp2671
g1172
asbasbasbag57
(g73
g59
NtRp2672
(dp2673
g62
(dp2674
sg71
g2458
sg64
(lp2675
g57
(g78
g59
NtRp2676
(dp2677
g62
(dp2678
g82
g83
ssg71
g2672
sg64
(lp2679
S'QUERY_STRING'
p2680
asbag57
(g78
g59
NtRp2681
(dp2682
g62
(dp2683
g89
g90
ssg71
g2672
sg64
(lp2684
S':'
asbag57
(g78
g59
NtRp2685
(dp2686
g62
(dp2687
sg71
g2672
sg64
(lp2688
g57
(g58
g59
NtRp2689
(dp2690
g62
(dp2691
g70
I3
ssg71
g2685
sg64
(lp2692
S''
asbasbasbag57
(g73
g59
NtRp2693
(dp2694
g62
(dp2695
sg71
g2458
sg64
(lp2696
g57
(g78
g59
NtRp2697
(dp2698
g62
(dp2699
g82
g83
ssg71
g2693
sg64
(lp2700
S'REMOTE_ADDR'
p2701
asbag57
(g78
g59
NtRp2702
(dp2703
g62
(dp2704
g89
g90
ssg71
g2693
sg64
(lp2705
S':'
asbag57
(g78
g59
NtRp2706
(dp2707
g62
(dp2708
sg71
g2693
sg64
(lp2709
g57
(g58
g59
NtRp2710
(dp2711
g62
(dp2712
g70
I3
ssg71
g2706
sg64
(lp2713
g212
asbasbasbag57
(g73
g59
NtRp2714
(dp2715
g62
(dp2716
sg71
g2458
sg64
(lp2717
g57
(g78
g59
NtRp2718
(dp2719
g62
(dp2720
g82
g83
ssg71
g2714
sg64
(lp2721
S'REMOTE_PORT'
p2722
asbag57
(g78
g59
NtRp2723
(dp2724
g62
(dp2725
g89
g90
ssg71
g2714
sg64
(lp2726
S':'
asbag57
(g78
g59
NtRp2727
(dp2728
g62
(dp2729
sg71
g2714
sg64
(lp2730
g57
(g58
g59
NtRp2731
(dp2732
g62
(dp2733
g70
I3
ssg71
g2727
sg64
(lp2734
g1236
asbasbasbag57
(g73
g59
NtRp2735
(dp2736
g62
(dp2737
sg71
g2458
sg64
(lp2738
g57
(g78
g59
NtRp2739
(dp2740
g62
(dp2741
g82
g83
ssg71
g2735
sg64
(lp2742
S'REQUEST_METHOD'
p2743
asbag57
(g78
g59
NtRp2744
(dp2745
g62
(dp2746
g89
g90
ssg71
g2735
sg64
(lp2747
S':'
asbag57
(g78
g59
NtRp2748
(dp2749
g62
(dp2750
sg71
g2735
sg64
(lp2751
g57
(g58
g59
NtRp2752
(dp2753
g62
(dp2754
g70
I3
ssg71
g2748
sg64
(lp2755
g1258
asbasbasbag57
(g73
g59
NtRp2756
(dp2757
g62
(dp2758
sg71
g2458
sg64
(lp2759
g57
(g78
g59
NtRp2760
(dp2761
g62
(dp2762
g82
g83
ssg71
g2756
sg64
(lp2763
S'REQUEST_URI'
p2764
asbag57
(g78
g59
NtRp2765
(dp2766
g62
(dp2767
g89
g90
ssg71
g2756
sg64
(lp2768
S':'
asbag57
(g78
g59
NtRp2769
(dp2770
g62
(dp2771
sg71
g2756
sg64
(lp2772
g57
(g58
g59
NtRp2773
(dp2774
g62
(dp2775
g70
I3
ssg71
g2769
sg64
(lp2776
g1172
asbasbasbag57
(g73
g59
NtRp2777
(dp2778
g62
(dp2779
sg71
g2458
sg64
(lp2780
g57
(g78
g59
NtRp2781
(dp2782
g62
(dp2783
g82
g83
ssg71
g2777
sg64
(lp2784
S'SCRIPT_NAME'
p2785
asbag57
(g78
g59
NtRp2786
(dp2787
g62
(dp2788
g89
g90
ssg71
g2777
sg64
(lp2789
S':'
asbag57
(g78
g59
NtRp2790
(dp2791
g62
(dp2792
sg71
g2777
sg64
(lp2793
g57
(g58
g59
NtRp2794
(dp2795
g62
(dp2796
g70
I3
ssg71
g2790
sg64
(lp2797
S''
asbasbasbag57
(g73
g59
NtRp2798
(dp2799
g62
(dp2800
sg71
g2458
sg64
(lp2801
g57
(g78
g59
NtRp2802
(dp2803
g62
(dp2804
g82
g83
ssg71
g2798
sg64
(lp2805
S'SERVER_NAME'
p2806
asbag57
(g78
g59
NtRp2807
(dp2808
g62
(dp2809
g89
g90
ssg71
g2798
sg64
(lp2810
S':'
asbag57
(g78
g59
NtRp2811
(dp2812
g62
(dp2813
sg71
g2798
sg64
(lp2814
g57
(g58
g59
NtRp2815
(dp2816
g62
(dp2817
g70
I3
ssg71
g2811
sg64
(lp2818
g1137
asbasbasbag57
(g73
g59
NtRp2819
(dp2820
g62
(dp2821
sg71
g2458
sg64
(lp2822
g57
(g78
g59
NtRp2823
(dp2824
g62
(dp2825
g82
g83
ssg71
g2819
sg64
(lp2826
S'SERVER_PORT'
p2827
asbag57
(g78
g59
NtRp2828
(dp2829
g62
(dp2830
g89
g90
ssg71
g2819
sg64
(lp2831
S':'
asbag57
(g78
g59
NtRp2832
(dp2833
g62
(dp2834
sg71
g2819
sg64
(lp2835
g57
(g58
g59
NtRp2836
(dp2837
g62
(dp2838
g70
I3
ssg71
g2832
sg64
(lp2839
g1343
asbasbasbag57
(g73
g59
NtRp2840
(dp2841
g62
(dp2842
sg71
g2458
sg64
(lp2843
g57
(g78
g59
NtRp2844
(dp2845
g62
(dp2846
g82
g83
ssg71
g2840
sg64
(lp2847
S'SERVER_PROTOCOL'
p2848
asbag57
(g78
g59
NtRp2849
(dp2850
g62
(dp2851
g89
g90
ssg71
g2840
sg64
(lp2852
S':'
asbag57
(g78
g59
NtRp2853
(dp2854
g62
(dp2855
sg71
g2840
sg64
(lp2856
g57
(g58
g59
NtRp2857
(dp2858
g62
(dp2859
g70
I3
ssg71
g2853
sg64
(lp2860
g1365
asbasbasbag57
(g73
g59
NtRp2861
(dp2862
g62
(dp2863
sg71
g2458
sg64
(lp2864
g57
(g78
g59
NtRp2865
(dp2866
g62
(dp2867
g82
g83
ssg71
g2861
sg64
(lp2868
S'SERVER_SOFTWARE'
p2869
asbag57
(g78
g59
NtRp2870
(dp2871
g62
(dp2872
g89
g90
ssg71
g2861
sg64
(lp2873
S':'
asbag57
(g78
g59
NtRp2874
(dp2875
g62
(dp2876
sg71
g2861
sg64
(lp2877
g57
(g58
g59
NtRp2878
(dp2879
g62
(dp2880
g70
I3
ssg71
g2874
sg64
(lp2881
g1387
asbasbasbag57
(g73
g59
NtRp2882
(dp2883
g62
(dp2884
sg71
g2458
sg64
(lp2885
g57
(g78
g59
NtRp2886
(dp2887
g62
(dp2888
g82
g83
ssg71
g2882
sg64
(lp2889
S'wsgi.errors'
p2890
asbag57
(g78
g59
NtRp2891
(dp2892
g62
(dp2893
g89
g90
ssg71
g2882
sg64
(lp2894
S':'
asbag57
(g78
g59
NtRp2895
(dp2896
g62
(dp2897
sg71
g2882
sg64
(lp2898
g57
(g58
g59
NtRp2899
(dp2900
g62
(dp2901
g70
I3
ssg71
g2895
sg64
(lp2902
S"<open file '<stderr>', mode 'w' at 0x00A850D0>"
p2903
asbasbasbag57
(g73
g59
NtRp2904
(dp2905
g62
(dp2906
sg71
g2458
sg64
(lp2907
g57
(g78
g59
NtRp2908
(dp2909
g62
(dp2910
g82
g83
ssg71
g2904
sg64
(lp2911
S'wsgi.file_wrapper'
p2912
asbag57
(g78
g59
NtRp2913
(dp2914
g62
(dp2915
g89
g90
ssg71
g2904
sg64
(lp2916
S':'
asbag57
(g78
g59
NtRp2917
(dp2918
g62
(dp2919
sg71
g2904
sg64
(lp2920
g57
(g58
g59
NtRp2921
(dp2922
g62
(dp2923
g70
I3
ssg71
g2917
sg64
(lp2924
S'<class wsgiref.util.FileWrapper at 0x0172EE68>'
p2925
asbasbasbag57
(g73
g59
NtRp2926
(dp2927
g62
(dp2928
sg71
g2458
sg64
(lp2929
g57
(g78
g59
NtRp2930
(dp2931
g62
(dp2932
g82
g83
ssg71
g2926
sg64
(lp2933
S'wsgi.input'
p2934
asbag57
(g78
g59
NtRp2935
(dp2936
g62
(dp2937
g89
g90
ssg71
g2926
sg64
(lp2938
S':'
asbag57
(g78
g59
NtRp2939
(dp2940
g62
(dp2941
sg71
g2926
sg64
(lp2942
g57
(g58
g59
NtRp2943
(dp2944
g62
(dp2945
g70
I3
ssg71
g2939
sg64
(lp2946
S'<cStringIO.StringO object at 0x050C7400>'
p2947
asbasbasbag57
(g73
g59
NtRp2948
(dp2949
g62
(dp2950
sg71
g2458
sg64
(lp2951
g57
(g78
g59
NtRp2952
(dp2953
g62
(dp2954
g82
g83
ssg71
g2948
sg64
(lp2955
S'wsgi.multiprocess'
p2956
asbag57
(g78
g59
NtRp2957
(dp2958
g62
(dp2959
g89
g90
ssg71
g2948
sg64
(lp2960
S':'
asbag57
(g78
g59
NtRp2961
(dp2962
g62
(dp2963
sg71
g2948
sg64
(lp2964
g57
(g58
g59
NtRp2965
(dp2966
g62
(dp2967
g70
I3
ssg71
g2961
sg64
(lp2968
g100
asbasbasbag57
(g73
g59
NtRp2969
(dp2970
g62
(dp2971
sg71
g2458
sg64
(lp2972
g57
(g78
g59
NtRp2973
(dp2974
g62
(dp2975
g82
g83
ssg71
g2969
sg64
(lp2976
S'wsgi.multithread'
p2977
asbag57
(g78
g59
NtRp2978
(dp2979
g62
(dp2980
g89
g90
ssg71
g2969
sg64
(lp2981
S':'
asbag57
(g78
g59
NtRp2982
(dp2983
g62
(dp2984
sg71
g2969
sg64
(lp2985
g57
(g58
g59
NtRp2986
(dp2987
g62
(dp2988
g70
I3
ssg71
g2982
sg64
(lp2989
g1604
asbasbasbag57
(g73
g59
NtRp2990
(dp2991
g62
(dp2992
sg71
g2458
sg64
(lp2993
g57
(g78
g59
NtRp2994
(dp2995
g62
(dp2996
g82
g83
ssg71
g2990
sg64
(lp2997
S'wsgi.run_once'
p2998
asbag57
(g78
g59
NtRp2999
(dp3000
g62
(dp3001
g89
g90
ssg71
g2990
sg64
(lp3002
S':'
asbag57
(g78
g59
NtRp3003
(dp3004
g62
(dp3005
sg71
g2990
sg64
(lp3006
g57
(g58
g59
NtRp3007
(dp3008
g62
(dp3009
g70
I3
ssg71
g3003
sg64
(lp3010
g100
asbasbasbag57
(g73
g59
NtRp3011
(dp3012
g62
(dp3013
sg71
g2458
sg64
(lp3014
g57
(g78
g59
NtRp3015
(dp3016
g62
(dp3017
g82
g83
ssg71
g3011
sg64
(lp3018
S'wsgi.url_scheme'
p3019
asbag57
(g78
g59
NtRp3020
(dp3021
g62
(dp3022
g89
g90
ssg71
g3011
sg64
(lp3023
S':'
asbag57
(g78
g59
NtRp3024
(dp3025
g62
(dp3026
sg71
g3011
sg64
(lp3027
g57
(g58
g59
NtRp3028
(dp3029
g62
(dp3030
g70
I3
ssg71
g3024
sg64
(lp3031
g1647
asbasbasbag57
(g73
g59
NtRp3032
(dp3033
g62
(dp3034
sg71
g2458
sg64
(lp3035
g57
(g78
g59
NtRp3036
(dp3037
g62
(dp3038
g82
g83
ssg71
g3032
sg64
(lp3039
S'wsgi.version'
p3040
asbag57
(g78
g59
NtRp3041
(dp3042
g62
(dp3043
g89
g90
ssg71
g3032
sg64
(lp3044
S':'
asbag57
(g78
g59
NtRp3045
(dp3046
g62
(dp3047
sg71
g3032
sg64
(lp3048
g57
(g58
g59
NtRp3049
(dp3050
g62
(dp3051
g70
I3
ssg71
g3045
sg64
(lp3052
S'1'
asbasbasbasbasbasbasbasbasbasbasbasbasbsS'frames'
p3053
(lp3054
(dp3055
S'file'
p3056
S'D:\\web2py\\source\\web2py\\gluon\\restricted.py'
p3057
sS'dump'
p3058
(dp3059
S'environment'
p3060
S"{'A': <class 'gluon.html.A'>, 'Auth': <class 'gluon.tools.Auth'>, 'B': <class 'gluon.html.B'>, 'BEAUTIFY': <class 'gluon.html.BEAUTIFY'>, 'BODY': <class 'gluon.html.BODY'>, 'BR': <class 'gluon.html.BR'>, 'BUTTON': <class 'gluon.html.BUTTON'>, 'CAT': <class 'gluon.html.CAT'>, 'CENTER': <class 'gluon.html.CENTER'>, 'CLEANUP': <class 'gluon.validators.CLEANUP'>, ...}"
p3061
sS'ccode'
p3062
S'<code object <module> at 04E4A0B0, file "D:\\web2...dashboard\\views\\charts/user_charts.html", line 1>'
p3063
ssS'lnum'
p3064
I212
sS'lines'
p3065
(dp3066
I207
S'    try:'
p3067
sI208
S'        if isinstance(code, types.CodeType):'
p3068
sI209
S'            ccode = code'
p3069
sI210
S'        else:'
p3070
sI211
S'            ccode = compile2(code, layer)'
p3071
sI212
S'        exec ccode in environment'
p3072
sI213
S'    except HTTP:'
p3073
sI214
S'        raise'
p3074
sI215
S'    except RestrictedError:'
p3075
sI216
S'        # do not encapsulate (obfuscate) the original RestrictedError'
p3076
ssS'call'
p3077
S'(code=\'response.write(\\\'<style>\\\\r\\\\n    #usercharts{\\\\r\\\\n ..."></script>\\\\n</body>\\\\n</html>\\\\n\\\\n\\\', escape=False)\', environment={\'A\': <class \'gluon.html.A\'>, \'Auth\': <class \'gluon.tools.Auth\'>, \'B\': <class \'gluon.html.B\'>, \'BEAUTIFY\': <class \'gluon.html.BEAUTIFY\'>, \'BODY\': <class \'gluon.html.BODY\'>, \'BR\': <class \'gluon.html.BR\'>, \'BUTTON\': <class \'gluon.html.BUTTON\'>, \'CAT\': <class \'gluon.html.CAT\'>, \'CENTER\': <class \'gluon.html.CENTER\'>, \'CLEANUP\': <class \'gluon.validators.CLEANUP\'>, ...}, layer=r\'D:\\web2py\\source\\web2py\\applications\\web2py_xlchart_dashboard\\views\\charts/user_charts.html\')'
p3078
sS'func'
p3079
S'restricted'
p3080
sa(dp3081
g3056
S'D:\\web2py\\source\\web2py\\applications\\web2py_xlchart_dashboard\\views\\charts\\user_charts.html'
p3082
sg3058
(dp3083
sg3064
I94
sg3065
(dp3084
I96
S'    else:'
p3085
sI97
S"        response.write('\\r\\n            \\t', escape=False)"
p3086
sI98
S"        response.write(A('Add to My Charts',_href=URL(c='charts',f='add_to_my_charts',vars={'chartname':chart.chartName})))"
p3087
sI99
S"        response.write('<BR>\\r\\n            ', escape=False)"
p3088
sI100
S'        pass'
p3089
sI101
S"    response.write('\\r\\n        </div>\\r\\n    </div>\\r\\n\\t', escape=False)"
p3090
sI102
S'    pass'
p3091
sI103
S"response.write('\\r\\n</div>\\r\\n', escape=False)"
p3092
sI104
S"response.write('\\n            ', escape=False)"
p3093
sI85
S'response.write(\'\\r\\n</div>\\r\\n\\r\\n<div id="allcharts">\\r\\n    <h4>Available Charts</h4>\\r\\n    \', escape=False)'
p3094
sI86
S'for chart in allcharts:'
p3095
sI87
S'    response.write(\'\\r\\n    <div class="chartholder">\\r\\n    \\t<div class="chartimage">\\r\\n    \\t\\t\', escape=False)'
p3096
sI88
S"    response.write(IMG(_src=URL('download',args=chart.file),_width='300px'))"
p3097
sI89
S'    response.write(\'\\r\\n        </div>\\r\\n        <div class="charttext">\\r\\n            Workbook: \', escape=False)'
p3098
sI90
S'    response.write(chart.id_workbook.title)'
p3099
sI91
S"    response.write('<BR>\\r\\n            Sheet: ', escape=False)"
p3100
sI92
S'    response.write(chart.worksheet)'
p3101
sI93
S"    response.write('<BR>\\r\\n            ', escape=False)"
p3102
sI94
S'    if is_my_chart(chart.chartName):'
p3103
sI95
S"        response.write('\\r\\n            \\tThis chart is already in your charts.\\r\\n            ', escape=False)"
p3104
ssg3077
S'()'
p3105
sg3079
S'<module>'
p3106
sa(dp3107
g3056
S'D:\\web2py\\source\\web2py\\applications\\web2py_xlchart_dashboard\\models\\db.py'
p3108
sg3058
(dp3109
S'chartname'
p3110
S"'pyxl1352146819.09'"
p3111
sS').count'
p3112
S'<built-in method count of str object>'
p3113
sS'db.user_chart'
p3114
S'<Table user_chart (id,id_user,id_chart,title,description)>'
p3115
sS'db.user_chart.id_chart.chartName'
p3116
S'undefined'
p3117
sS'db.user_chart.id_chart'
p3118
S'<gluon.dal.Field object>'
p3119
sS'db.user_chart.id_user'
p3120
S'<gluon.dal.Field object>'
p3121
sS'global auth'
p3122
S'<gluon.tools.Auth object>'
p3123
sS'global db'
p3124
S'<DAL uri="sqlite://storage.sqlite">'
p3125
sS'auth.user_id'
p3126
S'None'
p3127
ssg3064
I145
sg3065
(dp3128
I139
S'    if db(db.chart.chartName == chartname).count() > 0:'
p3129
sI140
S'        return True'
p3130
sI141
S'    else:'
p3131
sI142
S'        return False'
p3132
sI143
S''
sI144
S'def is_my_chart(chartname):'
p3133
sI145
S'    if db((db.user_chart.id_user == auth.user_id) & (db.user_chart.id_chart.chartName == chartname)).count() > 0:'
p3134
sI146
S'        return True'
p3135
sI147
S'    else:'
p3136
sI148
S'        return False'
p3137
ssg3077
S"(chartname='pyxl1352146819.09')"
p3138
sg3079
S'is_my_chart'
p3139
sasS'pyver'
p3140
S'Python 2.7: d:\\python27\\python.exe'
p3141
sS'session'
p3142
g57
(g58
g59
NtRp3143
(dp3144
g62
(dp3145
sg64
(lp3146
g57
(g66
g59
NtRp3147
(dp3148
g62
(dp3149
g70
I5
ssg71
Nsg64
(lp3150
g57
(g73
g59
NtRp3151
(dp3152
g62
(dp3153
sg71
g3147
sg64
(lp3154
g57
(g78
g59
NtRp3155
(dp3156
g62
(dp3157
g82
g83
ssg71
g3151
sg64
(lp3158
S'flash'
p3159
asbag57
(g78
g59
NtRp3160
(dp3161
g62
(dp3162
g89
g90
ssg71
g3151
sg64
(lp3163
S':'
asbag57
(g78
g59
NtRp3164
(dp3165
g62
(dp3166
sg71
g3151
sg64
(lp3167
g57
(g58
g59
NtRp3168
(dp3169
g62
(dp3170
g70
I5
ssg71
g3164
sg64
(lp3171
S'None'
p3172
asbasbasbasbasbsS'etype'
p3173
S"<type 'exceptions.AttributeError'>"
p3174
sS'date'
p3175
S'Wed Nov 07 16:34:19 2012'
p3176
sS'response'
p3177
g57
(g58
g59
NtRp3178
(dp3179
g62
(dp3180
sg64
(lp3181
g57
(g66
g59
NtRp3182
(dp3183
g62
(dp3184
g70
I5
ssg71
Nsg64
(lp3185
g57
(g73
g59
NtRp3186
(dp3187
g62
(dp3188
sg71
g3182
sg64
(lp3189
g57
(g78
g59
NtRp3190
(dp3191
g62
(dp3192
g82
g83
ssg71
g3186
sg64
(lp3193
g155
asbag57
(g78
g59
NtRp3194
(dp3195
g62
(dp3196
g89
g90
ssg71
g3186
sg64
(lp3197
S':'
asbag57
(g78
g59
NtRp3198
(dp3199
g62
(dp3200
sg71
g3186
sg64
(lp3201
g57
(g58
g59
NtRp3202
(dp3203
g62
(dp3204
g70
I5
ssg71
g3198
sg64
(lp3205
S'<cStringIO.StringO object at 0x01A7AC40>'
p3206
asbasbasbag57
(g73
g59
NtRp3207
(dp3208
g62
(dp3209
sg71
g3182
sg64
(lp3210
g57
(g78
g59
NtRp3211
(dp3212
g62
(dp3213
g82
g83
ssg71
g3207
sg64
(lp3214
g243
asbag57
(g78
g59
NtRp3215
(dp3216
g62
(dp3217
g89
g90
ssg71
g3207
sg64
(lp3218
S':'
asbag57
(g78
g59
NtRp3219
(dp3220
g62
(dp3221
sg71
g3207
sg64
(lp3222
g57
(g58
g59
NtRp3223
(dp3224
g62
(dp3225
g70
I5
ssg71
g3219
sg64
(lp3226
g57
(g66
g59
NtRp3227
(dp3228
g62
(dp3229
g70
I4
ssg71
Nsg64
(lp3230
g57
(g73
g59
NtRp3231
(dp3232
g62
(dp3233
sg71
g3227
sg64
(lp3234
g57
(g78
g59
NtRp3235
(dp3236
g62
(dp3237
g82
g83
ssg71
g3231
sg64
(lp3238
S'session_id_web2py_xlchart_dashboard'
p3239
asbag57
(g78
g59
NtRp3240
(dp3241
g62
(dp3242
g89
g90
ssg71
g3231
sg64
(lp3243
S':'
asbag57
(g78
g59
NtRp3244
(dp3245
g62
(dp3246
sg71
g3231
sg64
(lp3247
g57
(g58
g59
NtRp3248
(dp3249
g62
(dp3250
g70
I4
ssg71
g3244
sg64
(lp3251
g475
ag57
(g66
g59
NtRp3252
(dp3253
g62
(dp3254
g70
I3
ssg71
Nsg64
(lp3255
g57
(g73
g59
NtRp3256
(dp3257
g62
(dp3258
sg71
g3252
sg64
(lp3259
g57
(g78
g59
NtRp3260
(dp3261
g62
(dp3262
g82
g83
ssg71
g3256
sg64
(lp3263
g294
asbag57
(g78
g59
NtRp3264
(dp3265
g62
(dp3266
g89
g90
ssg71
g3256
sg64
(lp3267
S':'
asbag57
(g78
g59
NtRp3268
(dp3269
g62
(dp3270
sg71
g3256
sg64
(lp3271
g57
(g58
g59
NtRp3272
(dp3273
g62
(dp3274
g70
I3
ssg71
g3268
sg64
(lp3275
S''
asbasbasbag57
(g73
g59
NtRp3276
(dp3277
g62
(dp3278
sg71
g3252
sg64
(lp3279
g57
(g78
g59
NtRp3280
(dp3281
g62
(dp3282
g82
g83
ssg71
g3276
sg64
(lp3283
g315
asbag57
(g78
g59
NtRp3284
(dp3285
g62
(dp3286
g89
g90
ssg71
g3276
sg64
(lp3287
S':'
asbag57
(g78
g59
NtRp3288
(dp3289
g62
(dp3290
sg71
g3276
sg64
(lp3291
g57
(g58
g59
NtRp3292
(dp3293
g62
(dp3294
g70
I3
ssg71
g3288
sg64
(lp3295
S''
asbasbasbag57
(g73
g59
NtRp3296
(dp3297
g62
(dp3298
sg71
g3252
sg64
(lp3299
g57
(g78
g59
NtRp3300
(dp3301
g62
(dp3302
g82
g83
ssg71
g3296
sg64
(lp3303
g336
asbag57
(g78
g59
NtRp3304
(dp3305
g62
(dp3306
g89
g90
ssg71
g3296
sg64
(lp3307
S':'
asbag57
(g78
g59
NtRp3308
(dp3309
g62
(dp3310
sg71
g3296
sg64
(lp3311
g57
(g58
g59
NtRp3312
(dp3313
g62
(dp3314
g70
I3
ssg71
g3308
sg64
(lp3315
S''
asbasbasbag57
(g73
g59
NtRp3316
(dp3317
g62
(dp3318
sg71
g3252
sg64
(lp3319
g57
(g78
g59
NtRp3320
(dp3321
g62
(dp3322
g82
g83
ssg71
g3316
sg64
(lp3323
g357
asbag57
(g78
g59
NtRp3324
(dp3325
g62
(dp3326
g89
g90
ssg71
g3316
sg64
(lp3327
S':'
asbag57
(g78
g59
NtRp3328
(dp3329
g62
(dp3330
sg71
g3316
sg64
(lp3331
g57
(g58
g59
NtRp3332
(dp3333
g62
(dp3334
g70
I3
ssg71
g3328
sg64
(lp3335
S''
asbasbasbag57
(g73
g59
NtRp3336
(dp3337
g62
(dp3338
sg71
g3252
sg64
(lp3339
g57
(g78
g59
NtRp3340
(dp3341
g62
(dp3342
g82
g83
ssg71
g3336
sg64
(lp3343
g378
asbag57
(g78
g59
NtRp3344
(dp3345
g62
(dp3346
g89
g90
ssg71
g3336
sg64
(lp3347
S':'
asbag57
(g78
g59
NtRp3348
(dp3349
g62
(dp3350
sg71
g3336
sg64
(lp3351
g57
(g58
g59
NtRp3352
(dp3353
g62
(dp3354
g70
I3
ssg71
g3348
sg64
(lp3355
S''
asbasbasbag57
(g73
g59
NtRp3356
(dp3357
g62
(dp3358
sg71
g3252
sg64
(lp3359
g57
(g78
g59
NtRp3360
(dp3361
g62
(dp3362
g82
g83
ssg71
g3356
sg64
(lp3363
g399
asbag57
(g78
g59
NtRp3364
(dp3365
g62
(dp3366
g89
g90
ssg71
g3356
sg64
(lp3367
S':'
asbag57
(g78
g59
NtRp3368
(dp3369
g62
(dp3370
sg71
g3356
sg64
(lp3371
g57
(g58
g59
NtRp3372
(dp3373
g62
(dp3374
g70
I3
ssg71
g3368
sg64
(lp3375
S'/'
asbasbasbag57
(g73
g59
NtRp3376
(dp3377
g62
(dp3378
sg71
g3252
sg64
(lp3379
g57
(g78
g59
NtRp3380
(dp3381
g62
(dp3382
g82
g83
ssg71
g3376
sg64
(lp3383
g420
asbag57
(g78
g59
NtRp3384
(dp3385
g62
(dp3386
g89
g90
ssg71
g3376
sg64
(lp3387
S':'
asbag57
(g78
g59
NtRp3388
(dp3389
g62
(dp3390
sg71
g3376
sg64
(lp3391
g57
(g58
g59
NtRp3392
(dp3393
g62
(dp3394
g70
I3
ssg71
g3388
sg64
(lp3395
S''
asbasbasbag57
(g73
g59
NtRp3396
(dp3397
g62
(dp3398
sg71
g3252
sg64
(lp3399
g57
(g78
g59
NtRp3400
(dp3401
g62
(dp3402
g82
g83
ssg71
g3396
sg64
(lp3403
g441
asbag57
(g78
g59
NtRp3404
(dp3405
g62
(dp3406
g89
g90
ssg71
g3396
sg64
(lp3407
S':'
asbag57
(g78
g59
NtRp3408
(dp3409
g62
(dp3410
sg71
g3396
sg64
(lp3411
g57
(g58
g59
NtRp3412
(dp3413
g62
(dp3414
g70
I3
ssg71
g3408
sg64
(lp3415
S''
asbasbasbasbasbasbasbasbasbasbasbag57
(g73
g59
NtRp3416
(dp3417
g62
(dp3418
sg71
g3182
sg64
(lp3419
g57
(g78
g59
NtRp3420
(dp3421
g62
(dp3422
g82
g83
ssg71
g3416
sg64
(lp3423
S'delimiters'
p3424
asbag57
(g78
g59
NtRp3425
(dp3426
g62
(dp3427
g89
g90
ssg71
g3416
sg64
(lp3428
S':'
asbag57
(g78
g59
NtRp3429
(dp3430
g62
(dp3431
sg71
g3416
sg64
(lp3432
g57
(g58
g59
NtRp3433
(dp3434
g62
(dp3435
g70
I5
ssg71
g3429
sg64
(lp3436
g57
(g66
g59
NtRp3437
(dp3438
g62
(dp3439
g70
I4
ssg71
Nsg64
(lp3440
g57
(g73
g59
NtRp3441
(dp3442
g62
(dp3443
sg71
g3437
sg64
(lp3444
g57
(g78
g59
NtRp3445
(dp3446
g62
(dp3447
sg71
g3441
sg64
(lp3448
g57
(g58
g59
NtRp3449
(dp3450
g62
(dp3451
g70
I4
ssg71
g3445
sg64
(lp3452
S'{{'
p3453
asbasbasbag57
(g73
g59
NtRp3454
(dp3455
g62
(dp3456
sg71
g3437
sg64
(lp3457
g57
(g78
g59
NtRp3458
(dp3459
g62
(dp3460
sg71
g3454
sg64
(lp3461
g57
(g58
g59
NtRp3462
(dp3463
g62
(dp3464
g70
I4
ssg71
g3458
sg64
(lp3465
S'}}'
p3466
asbasbasbasbasbasbasbag57
(g73
g59
NtRp3467
(dp3468
g62
(dp3469
sg71
g3182
sg64
(lp3470
g57
(g78
g59
NtRp3471
(dp3472
g62
(dp3473
g82
g83
ssg71
g3467
sg64
(lp3474
S'files'
p3475
asbag57
(g78
g59
NtRp3476
(dp3477
g62
(dp3478
g89
g90
ssg71
g3467
sg64
(lp3479
S':'
asbag57
(g78
g59
NtRp3480
(dp3481
g62
(dp3482
sg71
g3467
sg64
(lp3483
g57
(g58
g59
NtRp3484
(dp3485
g62
(dp3486
g70
I5
ssg71
g3480
sg64
(lp3487
g57
(g66
g59
NtRp3488
(dp3489
g62
(dp3490
g70
I4
ssg71
Nsg64
(lp3491
g57
(g73
g59
NtRp3492
(dp3493
g62
(dp3494
sg71
g3488
sg64
(lp3495
g57
(g78
g59
NtRp3496
(dp3497
g62
(dp3498
sg71
g3492
sg64
(lp3499
g57
(g58
g59
NtRp3500
(dp3501
g62
(dp3502
g70
I4
ssg71
g3496
sg64
(lp3503
S'/web2py_xlchart_dashboard/static/js/jquery.js'
p3504
asbasbasbag57
(g73
g59
NtRp3505
(dp3506
g62
(dp3507
sg71
g3488
sg64
(lp3508
g57
(g78
g59
NtRp3509
(dp3510
g62
(dp3511
sg71
g3505
sg64
(lp3512
g57
(g58
g59
NtRp3513
(dp3514
g62
(dp3515
g70
I4
ssg71
g3509
sg64
(lp3516
S'/web2py_xlchart_dashboard/static/css/calendar.css'
p3517
asbasbasbag57
(g73
g59
NtRp3518
(dp3519
g62
(dp3520
sg71
g3488
sg64
(lp3521
g57
(g78
g59
NtRp3522
(dp3523
g62
(dp3524
sg71
g3518
sg64
(lp3525
g57
(g58
g59
NtRp3526
(dp3527
g62
(dp3528
g70
I4
ssg71
g3522
sg64
(lp3529
S'/web2py_xlchart_dashboard/static/js/calendar.js'
p3530
asbasbasbag57
(g73
g59
NtRp3531
(dp3532
g62
(dp3533
sg71
g3488
sg64
(lp3534
g57
(g78
g59
NtRp3535
(dp3536
g62
(dp3537
sg71
g3531
sg64
(lp3538
g57
(g58
g59
NtRp3539
(dp3540
g62
(dp3541
g70
I4
ssg71
g3535
sg64
(lp3542
S'/web2py_xlchart_dashboard/static/js/web2py.js'
p3543
asbasbasbag57
(g73
g59
NtRp3544
(dp3545
g62
(dp3546
sg71
g3488
sg64
(lp3547
g57
(g78
g59
NtRp3548
(dp3549
g62
(dp3550
sg71
g3544
sg64
(lp3551
g57
(g58
g59
NtRp3552
(dp3553
g62
(dp3554
g70
I4
ssg71
g3548
sg64
(lp3555
S'/web2py_xlchart_dashboard/static/css/web2py.css'
p3556
asbasbasbag57
(g73
g59
NtRp3557
(dp3558
g62
(dp3559
sg71
g3488
sg64
(lp3560
g57
(g78
g59
NtRp3561
(dp3562
g62
(dp3563
sg71
g3557
sg64
(lp3564
g57
(g58
g59
NtRp3565
(dp3566
g62
(dp3567
g70
I4
ssg71
g3561
sg64
(lp3568
S'/web2py_xlchart_dashboard/static/css/bootstrap.min.css'
p3569
asbasbasbag57
(g73
g59
NtRp3570
(dp3571
g62
(dp3572
sg71
g3488
sg64
(lp3573
g57
(g78
g59
NtRp3574
(dp3575
g62
(dp3576
sg71
g3570
sg64
(lp3577
g57
(g58
g59
NtRp3578
(dp3579
g62
(dp3580
g70
I4
ssg71
g3574
sg64
(lp3581
S'/web2py_xlchart_dashboard/static/css/bootstrap-responsive.min.css'
p3582
asbasbasbag57
(g73
g59
NtRp3583
(dp3584
g62
(dp3585
sg71
g3488
sg64
(lp3586
g57
(g78
g59
NtRp3587
(dp3588
g62
(dp3589
sg71
g3583
sg64
(lp3590
g57
(g58
g59
NtRp3591
(dp3592
g62
(dp3593
g70
I4
ssg71
g3587
sg64
(lp3594
S'/web2py_xlchart_dashboard/static/css/web2py_bootstrap.css'
p3595
asbasbasbasbasbasbasbag57
(g73
g59
NtRp3596
(dp3597
g62
(dp3598
sg71
g3182
sg64
(lp3599
g57
(g78
g59
NtRp3600
(dp3601
g62
(dp3602
g82
g83
ssg71
g3596
sg64
(lp3603
S'flash'
p3604
asbag57
(g78
g59
NtRp3605
(dp3606
g62
(dp3607
g89
g90
ssg71
g3596
sg64
(lp3608
S':'
asbag57
(g78
g59
NtRp3609
(dp3610
g62
(dp3611
sg71
g3596
sg64
(lp3612
g57
(g58
g59
NtRp3613
(dp3614
g62
(dp3615
g70
I5
ssg71
g3609
sg64
(lp3616
S''
asbasbasbag57
(g73
g59
NtRp3617
(dp3618
g62
(dp3619
sg71
g3182
sg64
(lp3620
g57
(g78
g59
NtRp3621
(dp3622
g62
(dp3623
g82
g83
ssg71
g3617
sg64
(lp3624
S'generic_patterns'
p3625
asbag57
(g78
g59
NtRp3626
(dp3627
g62
(dp3628
g89
g90
ssg71
g3617
sg64
(lp3629
S':'
asbag57
(g78
g59
NtRp3630
(dp3631
g62
(dp3632
sg71
g3617
sg64
(lp3633
g57
(g58
g59
NtRp3634
(dp3635
g62
(dp3636
g70
I5
ssg71
g3630
sg64
(lp3637
g57
(g66
g59
NtRp3638
(dp3639
g62
(dp3640
g70
I4
ssg71
Nsg64
(lp3641
g57
(g73
g59
NtRp3642
(dp3643
g62
(dp3644
sg71
g3638
sg64
(lp3645
g57
(g78
g59
NtRp3646
(dp3647
g62
(dp3648
sg71
g3642
sg64
(lp3649
g57
(g58
g59
NtRp3650
(dp3651
g62
(dp3652
g70
I4
ssg71
g3646
sg64
(lp3653
S'*'
asbasbasbasbasbasbasbag57
(g73
g59
NtRp3654
(dp3655
g62
(dp3656
sg71
g3182
sg64
(lp3657
g57
(g78
g59
NtRp3658
(dp3659
g62
(dp3660
g82
g83
ssg71
g3654
sg64
(lp3661
S'google_analytics_id'
p3662
asbag57
(g78
g59
NtRp3663
(dp3664
g62
(dp3665
g89
g90
ssg71
g3654
sg64
(lp3666
S':'
asbag57
(g78
g59
NtRp3667
(dp3668
g62
(dp3669
sg71
g3654
sg64
(lp3670
g57
(g58
g59
NtRp3671
(dp3672
g62
(dp3673
g70
I5
ssg71
g3667
sg64
(lp3674
S'None'
p3675
asbasbasbag57
(g73
g59
NtRp3676
(dp3677
g62
(dp3678
sg71
g3182
sg64
(lp3679
g57
(g78
g59
NtRp3680
(dp3681
g62
(dp3682
g82
g83
ssg71
g3676
sg64
(lp3683
S'headers'
p3684
asbag57
(g78
g59
NtRp3685
(dp3686
g62
(dp3687
g89
g90
ssg71
g3676
sg64
(lp3688
S':'
asbag57
(g78
g59
NtRp3689
(dp3690
g62
(dp3691
sg71
g3676
sg64
(lp3692
g57
(g58
g59
NtRp3693
(dp3694
g62
(dp3695
g70
I5
ssg71
g3689
sg64
(lp3696
g57
(g66
g59
NtRp3697
(dp3698
g62
(dp3699
g70
I4
ssg71
Nsg64
(lp3700
g57
(g73
g59
NtRp3701
(dp3702
g62
(dp3703
sg71
g3697
sg64
(lp3704
g57
(g78
g59
NtRp3705
(dp3706
g62
(dp3707
g82
g83
ssg71
g3701
sg64
(lp3708
S'X-Powered-By'
p3709
asbag57
(g78
g59
NtRp3710
(dp3711
g62
(dp3712
g89
g90
ssg71
g3701
sg64
(lp3713
S':'
asbag57
(g78
g59
NtRp3714
(dp3715
g62
(dp3716
sg71
g3701
sg64
(lp3717
g57
(g58
g59
NtRp3718
(dp3719
g62
(dp3720
g70
I4
ssg71
g3714
sg64
(lp3721
S'web2py'
p3722
asbasbasbasbasbasbasbag57
(g73
g59
NtRp3723
(dp3724
g62
(dp3725
sg71
g3182
sg64
(lp3726
g57
(g78
g59
NtRp3727
(dp3728
g62
(dp3729
g82
g83
ssg71
g3723
sg64
(lp3730
S'menu'
p3731
asbag57
(g78
g59
NtRp3732
(dp3733
g62
(dp3734
g89
g90
ssg71
g3723
sg64
(lp3735
S':'
asbag57
(g78
g59
NtRp3736
(dp3737
g62
(dp3738
sg71
g3723
sg64
(lp3739
g57
(g58
g59
NtRp3740
(dp3741
g62
(dp3742
g70
I5
ssg71
g3736
sg64
(lp3743
g57
(g66
g59
NtRp3744
(dp3745
g62
(dp3746
g70
I4
ssg71
Nsg64
(lp3747
g57
(g73
g59
NtRp3748
(dp3749
g62
(dp3750
sg71
g3744
sg64
(lp3751
g57
(g78
g59
NtRp3752
(dp3753
g62
(dp3754
sg71
g3748
sg64
(lp3755
g57
(g58
g59
NtRp3756
(dp3757
g62
(dp3758
g70
I4
ssg71
g3752
sg64
(lp3759
g57
(g66
g59
NtRp3760
(dp3761
g62
(dp3762
g70
I3
ssg71
Nsg64
(lp3763
g57
(g73
g59
NtRp3764
(dp3765
g62
(dp3766
sg71
g3760
sg64
(lp3767
g57
(g78
g59
NtRp3768
(dp3769
g62
(dp3770
sg71
g3764
sg64
(lp3771
g57
(g58
g59
NtRp3772
(dp3773
g62
(dp3774
g70
I3
ssg71
g3768
sg64
(lp3775
cgluon.languages
lazyT_unpickle
p3776
(S't\t\x00\x00\x00Dashboard'
tRp3777
asbasbasbag57
(g73
g59
NtRp3778
(dp3779
g62
(dp3780
sg71
g3760
sg64
(lp3781
g57
(g78
g59
NtRp3782
(dp3783
g62
(dp3784
sg71
g3778
sg64
(lp3785
g57
(g58
g59
NtRp3786
(dp3787
g62
(dp3788
g70
I3
ssg71
g3782
sg64
(lp3789
g100
asbasbasbag57
(g73
g59
NtRp3790
(dp3791
g62
(dp3792
sg71
g3760
sg64
(lp3793
g57
(g78
g59
NtRp3794
(dp3795
g62
(dp3796
sg71
g3790
sg64
(lp3797
g57
(g58
g59
NtRp3798
(dp3799
g62
(dp3800
g70
I3
ssg71
g3794
sg64
(lp3801
S'/web2py_xlchart_dashboard/default/index'
p3802
asbasbasbag57
(g73
g59
NtRp3803
(dp3804
g62
(dp3805
sg71
g3760
sg64
(lp3806
g57
(g78
g59
NtRp3807
(dp3808
g62
(dp3809
sg71
g3803
sg64
(lp3810
g57
(g58
g59
NtRp3811
(dp3812
g62
(dp3813
g70
I3
ssg71
g3807
sg64
(lp3814
g57
(g66
g59
NtRp3815
(dp3816
g62
(dp3817
g70
I2
ssg71
Nsg64
(lp3818
g57
(g73
g59
NtRp3819
(dp3820
g62
(dp3821
sg71
g3815
sg64
(lp3822
g57
(g78
g59
NtRp3823
(dp3824
g62
(dp3825
sg71
g3819
sg64
(lp3826
g57
(g58
g59
NtRp3827
(dp3828
g62
(dp3829
g70
I2
ssg71
g3823
sg64
(lp3830
g57
(g66
g59
NtRp3831
(dp3832
g62
(dp3833
g70
I1
ssg71
Nsg64
(lp3834
g57
(g73
g59
NtRp3835
(dp3836
g62
(dp3837
sg71
g3831
sg64
(lp3838
g57
(g78
g59
NtRp3839
(dp3840
g62
(dp3841
sg71
g3835
sg64
(lp3842
g57
(g58
g59
NtRp3843
(dp3844
g62
(dp3845
g70
I1
ssg71
g3839
sg64
(lp3846
g3776
(S's\x0c\x00\x00\x00My Dashboard'
tRp3847
asbasbasbag57
(g73
g59
NtRp3848
(dp3849
g62
(dp3850
sg71
g3831
sg64
(lp3851
g57
(g78
g59
NtRp3852
(dp3853
g62
(dp3854
sg71
g3848
sg64
(lp3855
g57
(g58
g59
NtRp3856
(dp3857
g62
(dp3858
g70
I1
ssg71
g3852
sg64
(lp3859
I00
asbasbasbag57
(g73
g59
NtRp3860
(dp3861
g62
(dp3862
sg71
g3831
sg64
(lp3863
g57
(g78
g59
NtRp3864
(dp3865
g62
(dp3866
sg71
g3860
sg64
(lp3867
g57
(g58
g59
NtRp3868
(dp3869
g62
(dp3870
g70
I1
ssg71
g3864
sg64
(lp3871
S'/web2py_xlchart_dashboard/default/index'
p3872
asbasbasbag57
(g73
g59
NtRp3873
(dp3874
g62
(dp3875
sg71
g3831
sg64
(lp3876
g57
(g78
g59
NtRp3877
(dp3878
g62
(dp3879
sg71
g3873
sg64
(lp3880
g57
(g58
g59
NtRp3881
(dp3882
g62
(dp3883
g70
I1
ssg71
g3877
sg64
(lp3884
(lp3885
(g3776
(S's\x11\x00\x00\x00Manage Dashboards'
tRp3886
I00
S'/web2py_xlchart_dashboard/dashboard/manage_dashboard'
p3887
tp3888
a(g3776
(S's\r\x00\x00\x00Add Dashboard'
tRp3889
I00
S'/web2py_xlchart_dashboard/default/add_workbook'
p3890
tp3891
a(g3776
(S's\x0f\x00\x00\x00Manage Projects'
tRp3892
I00
S'/web2py_xlchart_dashboard/default/add_workbook'
p3893
tp3894
a(g3776
(S's\x0b\x00\x00\x00Add Project'
tRp3895
I00
S'/web2py_xlchart_dashboard/default/add_workbook'
p3896
tp3897
aasbasbasbasbasbasbasbag57
(g73
g59
NtRp3898
(dp3899
g62
(dp3900
sg71
g3815
sg64
(lp3901
g57
(g78
g59
NtRp3902
(dp3903
g62
(dp3904
sg71
g3898
sg64
(lp3905
g57
(g58
g59
NtRp3906
(dp3907
g62
(dp3908
g70
I2
ssg71
g3902
sg64
(lp3909
g57
(g66
g59
NtRp3910
(dp3911
g62
(dp3912
g70
I1
ssg71
Nsg64
(lp3913
g57
(g73
g59
NtRp3914
(dp3915
g62
(dp3916
sg71
g3910
sg64
(lp3917
g57
(g78
g59
NtRp3918
(dp3919
g62
(dp3920
sg71
g3914
sg64
(lp3921
g57
(g58
g59
NtRp3922
(dp3923
g62
(dp3924
g70
I1
ssg71
g3918
sg64
(lp3925
g3776
(S't\t\x00\x00\x00Workbooks'
tRp3926
asbasbasbag57
(g73
g59
NtRp3927
(dp3928
g62
(dp3929
sg71
g3910
sg64
(lp3930
g57
(g78
g59
NtRp3931
(dp3932
g62
(dp3933
sg71
g3927
sg64
(lp3934
g57
(g58
g59
NtRp3935
(dp3936
g62
(dp3937
g70
I1
ssg71
g3931
sg64
(lp3938
I00
asbasbasbag57
(g73
g59
NtRp3939
(dp3940
g62
(dp3941
sg71
g3910
sg64
(lp3942
g57
(g78
g59
NtRp3943
(dp3944
g62
(dp3945
sg71
g3939
sg64
(lp3946
g57
(g58
g59
NtRp3947
(dp3948
g62
(dp3949
g70
I1
ssg71
g3943
sg64
(lp3950
S'/web2py_xlchart_dashboard/default/index'
p3951
asbasbasbag57
(g73
g59
NtRp3952
(dp3953
g62
(dp3954
sg71
g3910
sg64
(lp3955
g57
(g78
g59
NtRp3956
(dp3957
g62
(dp3958
sg71
g3952
sg64
(lp3959
g57
(g58
g59
NtRp3960
(dp3961
g62
(dp3962
g70
I1
ssg71
g3956
sg64
(lp3963
(lp3964
(g3776
(S's\x0c\x00\x00\x00Add Workbook'
tRp3965
I00
S'/web2py_xlchart_dashboard/default/add_workbook'
p3966
tp3967
aasbasbasbasbasbasbasbasbasbasbasbasbasbasbasbag57
(g73
g59
NtRp3968
(dp3969
g62
(dp3970
sg71
g3744
sg64
(lp3971
g57
(g78
g59
NtRp3972
(dp3973
g62
(dp3974
sg71
g3968
sg64
(lp3975
g57
(g58
g59
NtRp3976
(dp3977
g62
(dp3978
g70
I4
ssg71
g3972
sg64
(lp3979
g57
(g66
g59
NtRp3980
(dp3981
g62
(dp3982
g70
I3
ssg71
Nsg64
(lp3983
g57
(g73
g59
NtRp3984
(dp3985
g62
(dp3986
sg71
g3980
sg64
(lp3987
g57
(g78
g59
NtRp3988
(dp3989
g62
(dp3990
sg71
g3984
sg64
(lp3991
g57
(g58
g59
NtRp3992
(dp3993
g62
(dp3994
g70
I3
ssg71
g3988
sg64
(lp3995
g57
(cgluon.html
SPAN
p3996
g59
NtRp3997
(dp3998
g62
(dp3999
S'_class'
p4000
S'highlighted'
p4001
ssg71
g57
(cgluon.html
A
p4002
g59
NtRp4003
(dp4004
g62
(dp4005
S'_href'
p4006
S'http://web2py.com'
p4007
ssg71
g57
(cgluon.html
LI
p4008
g59
NtRp4009
(dp4010
g62
(dp4011
g4000
S'dropdown'
p4012
ssg71
g57
(cgluon.html
UL
p4013
g59
NtRp4014
(dp4015
g62
(dp4016
S'li_class'
p4017
g4012
sS'mobile'
p4018
I00
sg4000
S'nav'
p4019
sS'ul_class'
p4020
S'dropdown-menu'
p4021
sS'li_active'
p4022
S'web2py-menu-active'
p4023
ssg71
Nsg64
(lp4024
g57
(g4008
g59
NtRp4025
(dp4026
g62
(dp4027
g4000
g4012
ssg71
g4014
sg64
(lp4028
g57
(g4002
g59
NtRp4029
(dp4030
g62
(dp4031
g4006
g3802
ssg71
g4025
sg64
(lp4032
g3777
asbag57
(g4013
g59
NtRp4033
(dp4034
g62
(dp4035
g4000
g4021
ssg71
g4025
sg64
(lp4036
g57
(g4008
g59
NtRp4037
(dp4038
g62
(dp4039
g4000
g4012
ssg71
g4033
sg64
(lp4040
g57
(g4002
g59
NtRp4041
(dp4042
g62
(dp4043
g4006
g3872
ssg71
g4037
sg64
(lp4044
g3847
asbag57
(g4013
g59
NtRp4045
(dp4046
g62
(dp4047
g4000
g4021
ssg71
g4037
sg64
(lp4048
g57
(g4008
g59
NtRp4049
(dp4050
g62
(dp4051
sg71
g4045
sg64
(lp4052
g57
(g4002
g59
NtRp4053
(dp4054
g62
(dp4055
g4006
g3887
ssg71
g4049
sg64
(lp4056
g3886
asbasbag57
(g4008
g59
NtRp4057
(dp4058
g62
(dp4059
sg71
g4045
sg64
(lp4060
g57
(g4002
g59
NtRp4061
(dp4062
g62
(dp4063
g4006
g3890
ssg71
g4057
sg64
(lp4064
g3889
asbasbag57
(g4008
g59
NtRp4065
(dp4066
g62
(dp4067
sg71
g4045
sg64
(lp4068
g57
(g4002
g59
NtRp4069
(dp4070
g62
(dp4071
g4006
g3893
ssg71
g4065
sg64
(lp4072
g3892
asbasbag57
(g4008
g59
NtRp4073
(dp4074
g62
(dp4075
sg71
g4045
sg64
(lp4076
g57
(g4002
g59
NtRp4077
(dp4078
g62
(dp4079
g4006
g3896
ssg71
g4073
sg64
(lp4080
g3895
asbasbasbasbag57
(g4008
g59
NtRp4081
(dp4082
g62
(dp4083
g4000
g4012
ssg71
g4033
sg64
(lp4084
g57
(g4002
g59
NtRp4085
(dp4086
g62
(dp4087
g4006
g3951
ssg71
g4081
sg64
(lp4088
g3926
asbag57
(g4013
g59
NtRp4089
(dp4090
g62
(dp4091
g4000
g4021
ssg71
g4081
sg64
(lp4092
g57
(g4008
g59
NtRp4093
(dp4094
g62
(dp4095
sg71
g4089
sg64
(lp4096
g57
(g4002
g59
NtRp4097
(dp4098
g62
(dp4099
g4006
g3966
ssg71
g4093
sg64
(lp4100
g3965
asbasbasbasbasbasbag4009
asbsg64
(lp4101
g4003
ag57
(g4013
g59
NtRp4102
(dp4103
g62
(dp4104
g4000
g4021
ssg71
g4009
sg64
(lp4105
g57
(g4008
g59
NtRp4106
(dp4107
g62
(dp4108
sg71
g4102
sg64
(lp4109
g57
(g4002
g59
NtRp4110
(dp4111
g62
(dp4112
g4006
S'/admin/default/site'
p4113
ssg71
g4106
sg64
(lp4114
g3776
(S's\x08\x00\x00\x00My Sites'
tRp4115
asbasbag57
(g4008
g59
NtRp4116
(dp4117
g62
(dp4118
g4000
g4012
ssg71
g4102
sg64
(lp4119
g57
(g4002
g59
NtRp4120
(dp4121
g62
(dp4122
g4006
S'/admin/default/design/web2py_xlchart_dashboard'
p4123
ssg71
g4116
sg64
(lp4124
g3776
(S's\x08\x00\x00\x00This App'
tRp4125
asbag57
(g4013
g59
NtRp4126
(dp4127
g62
(dp4128
g4000
g4021
ssg71
g4116
sg64
(lp4129
g57
(g4008
g59
NtRp4130
(dp4131
g62
(dp4132
sg71
g4126
sg64
(lp4133
g57
(g4002
g59
NtRp4134
(dp4135
g62
(dp4136
g4006
S'/admin/default/edit/web2py_xlchart_dashboard/controllers/charts.py'
p4137
ssg71
g4130
sg64
(lp4138
g3776
(S's\n\x00\x00\x00Controller'
tRp4139
asbasbag57
(g4008
g59
NtRp4140
(dp4141
g62
(dp4142
sg71
g4126
sg64
(lp4143
g57
(g4002
g59
NtRp4144
(dp4145
g62
(dp4146
g4006
S'/admin/default/edit/web2py_xlchart_dashboard/views/charts/user_charts.html'
p4147
ssg71
g4140
sg64
(lp4148
g3776
(S's\x04\x00\x00\x00View'
tRp4149
asbasbag57
(g4008
g59
NtRp4150
(dp4151
g62
(dp4152
sg71
g4126
sg64
(lp4153
g57
(g4002
g59
NtRp4154
(dp4155
g62
(dp4156
g4006
S'/admin/default/edit/web2py_xlchart_dashboard/views/layout.html'
p4157
ssg71
g4150
sg64
(lp4158
g3776
(S's\x06\x00\x00\x00Layout'
tRp4159
asbasbag57
(g4008
g59
NtRp4160
(dp4161
g62
(dp4162
sg71
g4126
sg64
(lp4163
g57
(g4002
g59
NtRp4164
(dp4165
g62
(dp4166
g4006
S'/admin/default/edit/web2py_xlchart_dashboard/static/css/web2py.css'
p4167
ssg71
g4160
sg64
(lp4168
g3776
(S's\n\x00\x00\x00Stylesheet'
tRp4169
asbasbag57
(g4008
g59
NtRp4170
(dp4171
g62
(dp4172
sg71
g4126
sg64
(lp4173
g57
(g4002
g59
NtRp4174
(dp4175
g62
(dp4176
g4006
S'/admin/default/edit/web2py_xlchart_dashboard/models/db.py'
p4177
ssg71
g4170
sg64
(lp4178
g3776
(S's\x08\x00\x00\x00DB Model'
tRp4179
asbasbag57
(g4008
g59
NtRp4180
(dp4181
g62
(dp4182
sg71
g4126
sg64
(lp4183
g57
(g4002
g59
NtRp4184
(dp4185
g62
(dp4186
g4006
S'/admin/default/edit/web2py_xlchart_dashboard/models/menu.py'
p4187
ssg71
g4180
sg64
(lp4188
g3776
(S's\n\x00\x00\x00Menu Model'
tRp4189
asbasbag57
(g4008
g59
NtRp4190
(dp4191
g62
(dp4192
sg71
g4126
sg64
(lp4193
g57
(g4002
g59
NtRp4194
(dp4195
g62
(dp4196
g4006
S'/web2py_xlchart_dashboard/appadmin/index'
p4197
ssg71
g4190
sg64
(lp4198
g3776
(S's\x08\x00\x00\x00Database'
tRp4199
asbasbag57
(g4008
g59
NtRp4200
(dp4201
g62
(dp4202
sg71
g4126
sg64
(lp4203
g57
(g4002
g59
NtRp4204
(dp4205
g62
(dp4206
g4006
S'/admin/default/errors/web2py_xlchart_dashboard'
p4207
ssg71
g4200
sg64
(lp4208
g3776
(S's\x06\x00\x00\x00Errors'
tRp4209
asbasbag57
(g4008
g59
NtRp4210
(dp4211
g62
(dp4212
sg71
g4126
sg64
(lp4213
g57
(g4002
g59
NtRp4214
(dp4215
g62
(dp4216
g4006
S'/admin/default/about/web2py_xlchart_dashboard'
p4217
ssg71
g4210
sg64
(lp4218
g3776
(S's\x05\x00\x00\x00About'
tRp4219
asbasbasbasbag57
(g4008
g59
NtRp4220
(dp4221
g62
(dp4222
g4000
g4012
ssg71
g4102
sg64
(lp4223
g57
(g4002
g59
NtRp4224
(dp4225
g62
(dp4226
g4006
S'http://www.web2py.com'
p4227
ssg71
g4220
sg64
(lp4228
S'web2py.com'
p4229
asbag57
(g4013
g59
NtRp4230
(dp4231
g62
(dp4232
g4000
g4021
ssg71
g4220
sg64
(lp4233
g57
(g4008
g59
NtRp4234
(dp4235
g62
(dp4236
sg71
g4230
sg64
(lp4237
g57
(g4002
g59
NtRp4238
(dp4239
g62
(dp4240
g4006
S'http://www.web2py.com/examples/default/download'
p4241
ssg71
g4234
sg64
(lp4242
g3776
(S's\x08\x00\x00\x00Download'
tRp4243
asbasbag57
(g4008
g59
NtRp4244
(dp4245
g62
(dp4246
sg71
g4230
sg64
(lp4247
g57
(g4002
g59
NtRp4248
(dp4249
g62
(dp4250
g4006
S'http://www.web2py.com/examples/default/support'
p4251
ssg71
g4244
sg64
(lp4252
g3776
(S's\x07\x00\x00\x00Support'
tRp4253
asbasbag57
(g4008
g59
NtRp4254
(dp4255
g62
(dp4256
sg71
g4230
sg64
(lp4257
g57
(g4002
g59
NtRp4258
(dp4259
g62
(dp4260
g4006
S'http://web2py.com/demo_admin'
p4261
ssg71
g4254
sg64
(lp4262
g3776
(S's\x04\x00\x00\x00Demo'
tRp4263
asbasbag57
(g4008
g59
NtRp4264
(dp4265
g62
(dp4266
sg71
g4230
sg64
(lp4267
g57
(g4002
g59
NtRp4268
(dp4269
g62
(dp4270
g4006
S'http://web2py.com/examples/default/examples'
p4271
ssg71
g4264
sg64
(lp4272
g3776
(S's\x0e\x00\x00\x00Quick Examples'
tRp4273
asbasbag57
(g4008
g59
NtRp4274
(dp4275
g62
(dp4276
sg71
g4230
sg64
(lp4277
g57
(g4002
g59
NtRp4278
(dp4279
g62
(dp4280
g4006
S'http://web2py.com/AlterEgo'
p4281
ssg71
g4274
sg64
(lp4282
g3776
(S's\x03\x00\x00\x00FAQ'
tRp4283
asbasbag57
(g4008
g59
NtRp4284
(dp4285
g62
(dp4286
sg71
g4230
sg64
(lp4287
g57
(g4002
g59
NtRp4288
(dp4289
g62
(dp4290
g4006
S'http://www.web2py.com/examples/default/videos/'
p4291
ssg71
g4284
sg64
(lp4292
g3776
(S's\x06\x00\x00\x00Videos'
tRp4293
asbasbag57
(g4008
g59
NtRp4294
(dp4295
g62
(dp4296
sg71
g4230
sg64
(lp4297
g57
(g4002
g59
NtRp4298
(dp4299
g62
(dp4300
g4006
S'http://web2py.com/appliances'
p4301
ssg71
g4294
sg64
(lp4302
g3776
(S's\x11\x00\x00\x00Free Applications'
tRp4303
asbasbag57
(g4008
g59
NtRp4304
(dp4305
g62
(dp4306
sg71
g4230
sg64
(lp4307
g57
(g4002
g59
NtRp4308
(dp4309
g62
(dp4310
g4006
S'http://web2py.com/plugins'
p4311
ssg71
g4304
sg64
(lp4312
g3776
(S's\x07\x00\x00\x00Plugins'
tRp4313
asbasbag57
(g4008
g59
NtRp4314
(dp4315
g62
(dp4316
sg71
g4230
sg64
(lp4317
g57
(g4002
g59
NtRp4318
(dp4319
g62
(dp4320
g4006
S'http://web2py.com/layouts'
p4321
ssg71
g4314
sg64
(lp4322
g3776
(S's\x07\x00\x00\x00Layouts'
tRp4323
asbasbag57
(g4008
g59
NtRp4324
(dp4325
g62
(dp4326
sg71
g4230
sg64
(lp4327
g57
(g4002
g59
NtRp4328
(dp4329
g62
(dp4330
g4006
S'http://web2pyslices.com/'
p4331
ssg71
g4324
sg64
(lp4332
g3776
(S's\x07\x00\x00\x00Recipes'
tRp4333
asbasbag57
(g4008
g59
NtRp4334
(dp4335
g62
(dp4336
sg71
g4230
sg64
(lp4337
g57
(g4002
g59
NtRp4338
(dp4339
g62
(dp4340
g4006
S'http://web2py.com/semantic'
p4341
ssg71
g4334
sg64
(lp4342
g3776
(S's\x08\x00\x00\x00Semantic'
tRp4343
asbasbasbasbag57
(g4008
g59
NtRp4344
(dp4345
g62
(dp4346
g4000
g4012
ssg71
g4102
sg64
(lp4347
g57
(g4002
g59
NtRp4348
(dp4349
g62
(dp4350
g4006
S'http://www.web2py.com/book'
p4351
ssg71
g4344
sg64
(lp4352
g3776
(S's\r\x00\x00\x00Documentation'
tRp4353
asbag57
(g4013
g59
NtRp4354
(dp4355
g62
(dp4356
g4000
g4021
ssg71
g4344
sg64
(lp4357
g57
(g4008
g59
NtRp4358
(dp4359
g62
(dp4360
sg71
g4354
sg64
(lp4361
g57
(g4002
g59
NtRp4362
(dp4363
g62
(dp4364
g4006
S'http://www.web2py.com/book/default/chapter/00'
p4365
ssg71
g4358
sg64
(lp4366
g3776
(S's\x07\x00\x00\x00Preface'
tRp4367
asbasbag57
(g4008
g59
NtRp4368
(dp4369
g62
(dp4370
sg71
g4354
sg64
(lp4371
g57
(g4002
g59
NtRp4372
(dp4373
g62
(dp4374
g4006
S'http://www.web2py.com/book/default/chapter/01'
p4375
ssg71
g4368
sg64
(lp4376
g3776
(S's\x0c\x00\x00\x00Introduction'
tRp4377
asbasbag57
(g4008
g59
NtRp4378
(dp4379
g62
(dp4380
sg71
g4354
sg64
(lp4381
g57
(g4002
g59
NtRp4382
(dp4383
g62
(dp4384
g4006
S'http://www.web2py.com/book/default/chapter/02'
p4385
ssg71
g4378
sg64
(lp4386
g3776
(S's\x06\x00\x00\x00Python'
tRp4387
asbasbag57
(g4008
g59
NtRp4388
(dp4389
g62
(dp4390
sg71
g4354
sg64
(lp4391
g57
(g4002
g59
NtRp4392
(dp4393
g62
(dp4394
g4006
S'http://www.web2py.com/book/default/chapter/03'
p4395
ssg71
g4388
sg64
(lp4396
g3776
(S's\x08\x00\x00\x00Overview'
tRp4397
asbasbag57
(g4008
g59
NtRp4398
(dp4399
g62
(dp4400
sg71
g4354
sg64
(lp4401
g57
(g4002
g59
NtRp4402
(dp4403
g62
(dp4404
g4006
S'http://www.web2py.com/book/default/chapter/04'
p4405
ssg71
g4398
sg64
(lp4406
g3776
(S's\x08\x00\x00\x00The Core'
tRp4407
asbasbag57
(g4008
g59
NtRp4408
(dp4409
g62
(dp4410
sg71
g4354
sg64
(lp4411
g57
(g4002
g59
NtRp4412
(dp4413
g62
(dp4414
g4006
S'http://www.web2py.com/book/default/chapter/05'
p4415
ssg71
g4408
sg64
(lp4416
g3776
(S's\t\x00\x00\x00The Views'
tRp4417
asbasbag57
(g4008
g59
NtRp4418
(dp4419
g62
(dp4420
sg71
g4354
sg64
(lp4421
g57
(g4002
g59
NtRp4422
(dp4423
g62
(dp4424
g4006
S'http://www.web2py.com/book/default/chapter/06'
p4425
ssg71
g4418
sg64
(lp4426
g3776
(S's\x08\x00\x00\x00Database'
tRp4427
asbasbag57
(g4008
g59
NtRp4428
(dp4429
g62
(dp4430
sg71
g4354
sg64
(lp4431
g57
(g4002
g59
NtRp4432
(dp4433
g62
(dp4434
g4006
S'http://www.web2py.com/book/default/chapter/07'
p4435
ssg71
g4428
sg64
(lp4436
g3776
(S's\x14\x00\x00\x00Forms and Validators'
tRp4437
asbasbag57
(g4008
g59
NtRp4438
(dp4439
g62
(dp4440
sg71
g4354
sg64
(lp4441
g57
(g4002
g59
NtRp4442
(dp4443
g62
(dp4444
g4006
S'http://www.web2py.com/book/default/chapter/08'
p4445
ssg71
g4438
sg64
(lp4446
g3776
(S's\r\x00\x00\x00Email and SMS'
tRp4447
asbasbag57
(g4008
g59
NtRp4448
(dp4449
g62
(dp4450
sg71
g4354
sg64
(lp4451
g57
(g4002
g59
NtRp4452
(dp4453
g62
(dp4454
g4006
S'http://www.web2py.com/book/default/chapter/09'
p4455
ssg71
g4448
sg64
(lp4456
g3776
(S's\x0e\x00\x00\x00Access Control'
tRp4457
asbasbag57
(g4008
g59
NtRp4458
(dp4459
g62
(dp4460
sg71
g4354
sg64
(lp4461
g57
(g4002
g59
NtRp4462
(dp4463
g62
(dp4464
g4006
S'http://www.web2py.com/book/default/chapter/10'
p4465
ssg71
g4458
sg64
(lp4466
g3776
(S's\x08\x00\x00\x00Services'
tRp4467
asbasbag57
(g4008
g59
NtRp4468
(dp4469
g62
(dp4470
sg71
g4354
sg64
(lp4471
g57
(g4002
g59
NtRp4472
(dp4473
g62
(dp4474
g4006
S'http://www.web2py.com/book/default/chapter/11'
p4475
ssg71
g4468
sg64
(lp4476
g3776
(S's\x0c\x00\x00\x00Ajax Recipes'
tRp4477
asbasbag57
(g4008
g59
NtRp4478
(dp4479
g62
(dp4480
sg71
g4354
sg64
(lp4481
g57
(g4002
g59
NtRp4482
(dp4483
g62
(dp4484
g4006
S'http://www.web2py.com/book/default/chapter/12'
p4485
ssg71
g4478
sg64
(lp4486
g3776
(S's\x16\x00\x00\x00Components and Plugins'
tRp4487
asbasbag57
(g4008
g59
NtRp4488
(dp4489
g62
(dp4490
sg71
g4354
sg64
(lp4491
g57
(g4002
g59
NtRp4492
(dp4493
g62
(dp4494
g4006
S'http://www.web2py.com/book/default/chapter/13'
p4495
ssg71
g4488
sg64
(lp4496
g3776
(S's\x12\x00\x00\x00Deployment Recipes'
tRp4497
asbasbag57
(g4008
g59
NtRp4498
(dp4499
g62
(dp4500
sg71
g4354
sg64
(lp4501
g57
(g4002
g59
NtRp4502
(dp4503
g62
(dp4504
g4006
S'http://www.web2py.com/book/default/chapter/14'
p4505
ssg71
g4498
sg64
(lp4506
g3776
(S's\r\x00\x00\x00Other Recipes'
tRp4507
asbasbag57
(g4008
g59
NtRp4508
(dp4509
g62
(dp4510
sg71
g4354
sg64
(lp4511
g57
(g4002
g59
NtRp4512
(dp4513
g62
(dp4514
g4006
S'http://stores.lulu.com/web2py'
p4515
ssg71
g4508
sg64
(lp4516
g3776
(S's\r\x00\x00\x00Buy this book'
tRp4517
asbasbasbasbag57
(g4008
g59
NtRp4518
(dp4519
g62
(dp4520
g4000
g4012
ssg71
g4102
sg64
(lp4521
g57
(g4002
g59
NtRp4522
(dp4523
g62
(dp4524
S'_onclick'
p4525
S'javascript:void(0);return false;'
p4526
sg4006
S'#'
ssg71
g4518
sg64
(lp4527
g3776
(S's\t\x00\x00\x00Community'
tRp4528
asbag57
(g4013
g59
NtRp4529
(dp4530
g62
(dp4531
g4000
g4021
ssg71
g4518
sg64
(lp4532
g57
(g4008
g59
NtRp4533
(dp4534
g62
(dp4535
sg71
g4529
sg64
(lp4536
g57
(g4002
g59
NtRp4537
(dp4538
g62
(dp4539
g4006
S'http://www.web2py.com/examples/default/usergroups'
p4540
ssg71
g4533
sg64
(lp4541
g3776
(S's\x06\x00\x00\x00Groups'
tRp4542
asbasbag57
(g4008
g59
NtRp4543
(dp4544
g62
(dp4545
sg71
g4529
sg64
(lp4546
g57
(g4002
g59
NtRp4547
(dp4548
g62
(dp4549
g4006
S'http://twitter.com/web2py'
p4550
ssg71
g4543
sg64
(lp4551
g3776
(S's\x07\x00\x00\x00Twitter'
tRp4552
asbasbag57
(g4008
g59
NtRp4553
(dp4554
g62
(dp4555
sg71
g4529
sg64
(lp4556
g57
(g4002
g59
NtRp4557
(dp4558
g62
(dp4559
g4006
S'http://webchat.freenode.net/?channels=web2py'
p4560
ssg71
g4553
sg64
(lp4561
g3776
(S's\t\x00\x00\x00Live Chat'
tRp4562
asbasbasbasbag57
(g4008
g59
NtRp4563
(dp4564
g62
(dp4565
g4000
g4012
ssg71
g4102
sg64
(lp4566
g57
(g4002
g59
NtRp4567
(dp4568
g62
(dp4569
g4525
g4526
sg4006
S'#'
ssg71
g4563
sg64
(lp4570
g3776
(S's\x07\x00\x00\x00Plugins'
tRp4571
asbag57
(g4013
g59
NtRp4572
(dp4573
g62
(dp4574
g4000
g4021
ssg71
g4563
sg64
(lp4575
g57
(g4008
g59
NtRp4576
(dp4577
g62
(dp4578
sg71
g4572
sg64
(lp4579
g57
(g4002
g59
NtRp4580
(dp4581
g62
(dp4582
g4006
S'http://web2py.com/examples/default/download'
p4583
ssg71
g4576
sg64
(lp4584
S'plugin_wiki'
p4585
asbasbag57
(g4008
g59
NtRp4586
(dp4587
g62
(dp4588
sg71
g4572
sg64
(lp4589
g57
(g4002
g59
NtRp4590
(dp4591
g62
(dp4592
g4006
g4311
ssg71
g4586
sg64
(lp4593
g3776
(S's\r\x00\x00\x00Other Plugins'
tRp4594
asbasbag57
(g4008
g59
NtRp4595
(dp4596
g62
(dp4597
sg71
g4572
sg64
(lp4598
g57
(g4002
g59
NtRp4599
(dp4600
g62
(dp4601
g4006
g4321
ssg71
g4595
sg64
(lp4602
g3776
(S's\x0e\x00\x00\x00Layout Plugins'
tRp4603
asbasbasbasbasbasbsg64
(lp4604
g3997
asbsg64
(lp4605
g3722
asbasbasbasbag57
(g73
g59
NtRp4606
(dp4607
g62
(dp4608
sg71
g3980
sg64
(lp4609
g57
(g78
g59
NtRp4610
(dp4611
g62
(dp4612
sg71
g4606
sg64
(lp4613
g57
(g58
g59
NtRp4614
(dp4615
g62
(dp4616
g70
I3
ssg71
g4610
sg64
(lp4617
g100
asbasbasbag57
(g73
g59
NtRp4618
(dp4619
g62
(dp4620
sg71
g3980
sg64
(lp4621
g57
(g78
g59
NtRp4622
(dp4623
g62
(dp4624
sg71
g4618
sg64
(lp4625
g57
(g58
g59
NtRp4626
(dp4627
g62
(dp4628
g70
I3
ssg71
g4622
sg64
(lp4629
g4007
asbasbasbag57
(g73
g59
NtRp4630
(dp4631
g62
(dp4632
sg71
g3980
sg64
(lp4633
g57
(g78
g59
NtRp4634
(dp4635
g62
(dp4636
sg71
g4630
sg64
(lp4637
g57
(g58
g59
NtRp4638
(dp4639
g62
(dp4640
g70
I3
ssg71
g4634
sg64
(lp4641
g57
(g66
g59
NtRp4642
(dp4643
g62
(dp4644
g70
I2
ssg71
Nsg64
(lp4645
g57
(g73
g59
NtRp4646
(dp4647
g62
(dp4648
sg71
g4642
sg64
(lp4649
g57
(g78
g59
NtRp4650
(dp4651
g62
(dp4652
sg71
g4646
sg64
(lp4653
g57
(g58
g59
NtRp4654
(dp4655
g62
(dp4656
g70
I2
ssg71
g4650
sg64
(lp4657
g57
(g66
g59
NtRp4658
(dp4659
g62
(dp4660
g70
I1
ssg71
Nsg64
(lp4661
g57
(g73
g59
NtRp4662
(dp4663
g62
(dp4664
sg71
g4658
sg64
(lp4665
g57
(g78
g59
NtRp4666
(dp4667
g62
(dp4668
sg71
g4662
sg64
(lp4669
g57
(g58
g59
NtRp4670
(dp4671
g62
(dp4672
g70
I1
ssg71
g4666
sg64
(lp4673
g4115
asbasbasbag57
(g73
g59
NtRp4674
(dp4675
g62
(dp4676
sg71
g4658
sg64
(lp4677
g57
(g78
g59
NtRp4678
(dp4679
g62
(dp4680
sg71
g4674
sg64
(lp4681
g57
(g58
g59
NtRp4682
(dp4683
g62
(dp4684
g70
I1
ssg71
g4678
sg64
(lp4685
I00
asbasbasbag57
(g73
g59
NtRp4686
(dp4687
g62
(dp4688
sg71
g4658
sg64
(lp4689
g57
(g78
g59
NtRp4690
(dp4691
g62
(dp4692
sg71
g4686
sg64
(lp4693
g57
(g58
g59
NtRp4694
(dp4695
g62
(dp4696
g70
I1
ssg71
g4690
sg64
(lp4697
g4113
asbasbasbasbasbasbasbag57
(g73
g59
NtRp4698
(dp4699
g62
(dp4700
sg71
g4642
sg64
(lp4701
g57
(g78
g59
NtRp4702
(dp4703
g62
(dp4704
sg71
g4698
sg64
(lp4705
g57
(g58
g59
NtRp4706
(dp4707
g62
(dp4708
g70
I2
ssg71
g4702
sg64
(lp4709
g57
(g66
g59
NtRp4710
(dp4711
g62
(dp4712
g70
I1
ssg71
Nsg64
(lp4713
g57
(g73
g59
NtRp4714
(dp4715
g62
(dp4716
sg71
g4710
sg64
(lp4717
g57
(g78
g59
NtRp4718
(dp4719
g62
(dp4720
sg71
g4714
sg64
(lp4721
g57
(g58
g59
NtRp4722
(dp4723
g62
(dp4724
g70
I1
ssg71
g4718
sg64
(lp4725
g4125
asbasbasbag57
(g73
g59
NtRp4726
(dp4727
g62
(dp4728
sg71
g4710
sg64
(lp4729
g57
(g78
g59
NtRp4730
(dp4731
g62
(dp4732
sg71
g4726
sg64
(lp4733
g57
(g58
g59
NtRp4734
(dp4735
g62
(dp4736
g70
I1
ssg71
g4730
sg64
(lp4737
I00
asbasbasbag57
(g73
g59
NtRp4738
(dp4739
g62
(dp4740
sg71
g4710
sg64
(lp4741
g57
(g78
g59
NtRp4742
(dp4743
g62
(dp4744
sg71
g4738
sg64
(lp4745
g57
(g58
g59
NtRp4746
(dp4747
g62
(dp4748
g70
I1
ssg71
g4742
sg64
(lp4749
g4123
asbasbasbag57
(g73
g59
NtRp4750
(dp4751
g62
(dp4752
sg71
g4710
sg64
(lp4753
g57
(g78
g59
NtRp4754
(dp4755
g62
(dp4756
sg71
g4750
sg64
(lp4757
g57
(g58
g59
NtRp4758
(dp4759
g62
(dp4760
g70
I1
ssg71
g4754
sg64
(lp4761
(lp4762
(g4139
I00
g4137
tp4763
a(g4149
I00
g4147
tp4764
a(g4159
I00
g4157
tp4765
a(g4169
I00
g4167
tp4766
a(g4179
I00
g4177
tp4767
a(g4189
I00
g4187
tp4768
a(g4199
I00
g4197
tp4769
a(g4209
I00
g4207
tp4770
a(g4219
I00
g4217
tp4771
aasbasbasbasbasbasbasbag57
(g73
g59
NtRp4772
(dp4773
g62
(dp4774
sg71
g4642
sg64
(lp4775
g57
(g78
g59
NtRp4776
(dp4777
g62
(dp4778
sg71
g4772
sg64
(lp4779
g57
(g58
g59
NtRp4780
(dp4781
g62
(dp4782
g70
I2
ssg71
g4776
sg64
(lp4783
g57
(g66
g59
NtRp4784
(dp4785
g62
(dp4786
g70
I1
ssg71
Nsg64
(lp4787
g57
(g73
g59
NtRp4788
(dp4789
g62
(dp4790
sg71
g4784
sg64
(lp4791
g57
(g78
g59
NtRp4792
(dp4793
g62
(dp4794
sg71
g4788
sg64
(lp4795
g57
(g58
g59
NtRp4796
(dp4797
g62
(dp4798
g70
I1
ssg71
g4792
sg64
(lp4799
g4229
asbasbasbag57
(g73
g59
NtRp4800
(dp4801
g62
(dp4802
sg71
g4784
sg64
(lp4803
g57
(g78
g59
NtRp4804
(dp4805
g62
(dp4806
sg71
g4800
sg64
(lp4807
g57
(g58
g59
NtRp4808
(dp4809
g62
(dp4810
g70
I1
ssg71
g4804
sg64
(lp4811
I00
asbasbasbag57
(g73
g59
NtRp4812
(dp4813
g62
(dp4814
sg71
g4784
sg64
(lp4815
g57
(g78
g59
NtRp4816
(dp4817
g62
(dp4818
sg71
g4812
sg64
(lp4819
g57
(g58
g59
NtRp4820
(dp4821
g62
(dp4822
g70
I1
ssg71
g4816
sg64
(lp4823
g4227
asbasbasbag57
(g73
g59
NtRp4824
(dp4825
g62
(dp4826
sg71
g4784
sg64
(lp4827
g57
(g78
g59
NtRp4828
(dp4829
g62
(dp4830
sg71
g4824
sg64
(lp4831
g57
(g58
g59
NtRp4832
(dp4833
g62
(dp4834
g70
I1
ssg71
g4828
sg64
(lp4835
(lp4836
(g4243
I00
g4241
tp4837
a(g4253
I00
g4251
tp4838
a(g4263
I00
g4261
tp4839
a(g4273
I00
g4271
tp4840
a(g4283
I00
g4281
tp4841
a(g4293
I00
g4291
tp4842
a(g4303
I00
g4301
tp4843
a(g4313
I00
g4311
tp4844
a(g4323
I00
g4321
tp4845
a(g4333
I00
g4331
tp4846
a(g4343
I00
g4341
tp4847
aasbasbasbasbasbasbasbag57
(g73
g59
NtRp4848
(dp4849
g62
(dp4850
sg71
g4642
sg64
(lp4851
g57
(g78
g59
NtRp4852
(dp4853
g62
(dp4854
sg71
g4848
sg64
(lp4855
g57
(g58
g59
NtRp4856
(dp4857
g62
(dp4858
g70
I2
ssg71
g4852
sg64
(lp4859
g57
(g66
g59
NtRp4860
(dp4861
g62
(dp4862
g70
I1
ssg71
Nsg64
(lp4863
g57
(g73
g59
NtRp4864
(dp4865
g62
(dp4866
sg71
g4860
sg64
(lp4867
g57
(g78
g59
NtRp4868
(dp4869
g62
(dp4870
sg71
g4864
sg64
(lp4871
g57
(g58
g59
NtRp4872
(dp4873
g62
(dp4874
g70
I1
ssg71
g4868
sg64
(lp4875
g4353
asbasbasbag57
(g73
g59
NtRp4876
(dp4877
g62
(dp4878
sg71
g4860
sg64
(lp4879
g57
(g78
g59
NtRp4880
(dp4881
g62
(dp4882
sg71
g4876
sg64
(lp4883
g57
(g58
g59
NtRp4884
(dp4885
g62
(dp4886
g70
I1
ssg71
g4880
sg64
(lp4887
I00
asbasbasbag57
(g73
g59
NtRp4888
(dp4889
g62
(dp4890
sg71
g4860
sg64
(lp4891
g57
(g78
g59
NtRp4892
(dp4893
g62
(dp4894
sg71
g4888
sg64
(lp4895
g57
(g58
g59
NtRp4896
(dp4897
g62
(dp4898
g70
I1
ssg71
g4892
sg64
(lp4899
g4351
asbasbasbag57
(g73
g59
NtRp4900
(dp4901
g62
(dp4902
sg71
g4860
sg64
(lp4903
g57
(g78
g59
NtRp4904
(dp4905
g62
(dp4906
sg71
g4900
sg64
(lp4907
g57
(g58
g59
NtRp4908
(dp4909
g62
(dp4910
g70
I1
ssg71
g4904
sg64
(lp4911
(lp4912
(g4367
I00
g4365
tp4913
a(g4377
I00
g4375
tp4914
a(g4387
I00
g4385
tp4915
a(g4397
I00
g4395
tp4916
a(g4407
I00
g4405
tp4917
a(g4417
I00
g4415
tp4918
a(g4427
I00
g4425
tp4919
a(g4437
I00
g4435
tp4920
a(g4447
I00
g4445
tp4921
a(g4457
I00
g4455
tp4922
a(g4467
I00
g4465
tp4923
a(g4477
I00
g4475
tp4924
a(g4487
I00
g4485
tp4925
a(g4497
I00
g4495
tp4926
a(g4507
I00
g4505
tp4927
a(g4517
I00
g4515
tp4928
aasbasbasbasbasbasbasbag57
(g73
g59
NtRp4929
(dp4930
g62
(dp4931
sg71
g4642
sg64
(lp4932
g57
(g78
g59
NtRp4933
(dp4934
g62
(dp4935
sg71
g4929
sg64
(lp4936
g57
(g58
g59
NtRp4937
(dp4938
g62
(dp4939
g70
I2
ssg71
g4933
sg64
(lp4940
g57
(g66
g59
NtRp4941
(dp4942
g62
(dp4943
g70
I1
ssg71
Nsg64
(lp4944
g57
(g73
g59
NtRp4945
(dp4946
g62
(dp4947
sg71
g4941
sg64
(lp4948
g57
(g78
g59
NtRp4949
(dp4950
g62
(dp4951
sg71
g4945
sg64
(lp4952
g57
(g58
g59
NtRp4953
(dp4954
g62
(dp4955
g70
I1
ssg71
g4949
sg64
(lp4956
g4528
asbasbasbag57
(g73
g59
NtRp4957
(dp4958
g62
(dp4959
sg71
g4941
sg64
(lp4960
g57
(g78
g59
NtRp4961
(dp4962
g62
(dp4963
sg71
g4957
sg64
(lp4964
g57
(g58
g59
NtRp4965
(dp4966
g62
(dp4967
g70
I1
ssg71
g4961
sg64
(lp4968
I00
asbasbasbag57
(g73
g59
NtRp4969
(dp4970
g62
(dp4971
sg71
g4941
sg64
(lp4972
g57
(g78
g59
NtRp4973
(dp4974
g62
(dp4975
sg71
g4969
sg64
(lp4976
g57
(g58
g59
NtRp4977
(dp4978
g62
(dp4979
g70
I1
ssg71
g4973
sg64
(lp4980
Nasbasbasbag57
(g73
g59
NtRp4981
(dp4982
g62
(dp4983
sg71
g4941
sg64
(lp4984
g57
(g78
g59
NtRp4985
(dp4986
g62
(dp4987
sg71
g4981
sg64
(lp4988
g57
(g58
g59
NtRp4989
(dp4990
g62
(dp4991
g70
I1
ssg71
g4985
sg64
(lp4992
(lp4993
(g4542
I00
g4540
tp4994
a(g4552
I00
g4550
tp4995
a(g4562
I00
g4560
tp4996
aasbasbasbasbasbasbasbag57
(g73
g59
NtRp4997
(dp4998
g62
(dp4999
sg71
g4642
sg64
(lp5000
g57
(g78
g59
NtRp5001
(dp5002
g62
(dp5003
sg71
g4997
sg64
(lp5004
g57
(g58
g59
NtRp5005
(dp5006
g62
(dp5007
g70
I2
ssg71
g5001
sg64
(lp5008
g57
(g66
g59
NtRp5009
(dp5010
g62
(dp5011
g70
I1
ssg71
Nsg64
(lp5012
g57
(g73
g59
NtRp5013
(dp5014
g62
(dp5015
sg71
g5009
sg64
(lp5016
g57
(g78
g59
NtRp5017
(dp5018
g62
(dp5019
sg71
g5013
sg64
(lp5020
g57
(g58
g59
NtRp5021
(dp5022
g62
(dp5023
g70
I1
ssg71
g5017
sg64
(lp5024
g4571
asbasbasbag57
(g73
g59
NtRp5025
(dp5026
g62
(dp5027
sg71
g5009
sg64
(lp5028
g57
(g78
g59
NtRp5029
(dp5030
g62
(dp5031
sg71
g5025
sg64
(lp5032
g57
(g58
g59
NtRp5033
(dp5034
g62
(dp5035
g70
I1
ssg71
g5029
sg64
(lp5036
I00
asbasbasbag57
(g73
g59
NtRp5037
(dp5038
g62
(dp5039
sg71
g5009
sg64
(lp5040
g57
(g78
g59
NtRp5041
(dp5042
g62
(dp5043
sg71
g5037
sg64
(lp5044
g57
(g58
g59
NtRp5045
(dp5046
g62
(dp5047
g70
I1
ssg71
g5041
sg64
(lp5048
Nasbasbasbag57
(g73
g59
NtRp5049
(dp5050
g62
(dp5051
sg71
g5009
sg64
(lp5052
g57
(g78
g59
NtRp5053
(dp5054
g62
(dp5055
sg71
g5049
sg64
(lp5056
g57
(g58
g59
NtRp5057
(dp5058
g62
(dp5059
g70
I1
ssg71
g5053
sg64
(lp5060
(lp5061
(g4585
I00
g4583
tp5062
a(g4594
I00
g4311
tp5063
a(g4603
I00
g4321
tp5064
aasbasbasbasbasbasbasbasbasbasbasbasbasbasbasbasbasbasbasbag57
(g73
g59
NtRp5065
(dp5066
g62
(dp5067
sg71
g3182
sg64
(lp5068
g57
(g78
g59
NtRp5069
(dp5070
g62
(dp5071
g82
g83
ssg71
g5065
sg64
(lp5072
S'meta'
p5073
asbag57
(g78
g59
NtRp5074
(dp5075
g62
(dp5076
g89
g90
ssg71
g5065
sg64
(lp5077
S':'
asbag57
(g78
g59
NtRp5078
(dp5079
g62
(dp5080
sg71
g5065
sg64
(lp5081
g57
(g58
g59
NtRp5082
(dp5083
g62
(dp5084
g70
I5
ssg71
g5078
sg64
(lp5085
g57
(g66
g59
NtRp5086
(dp5087
g62
(dp5088
g70
I4
ssg71
Nsg64
(lp5089
g57
(g73
g59
NtRp5090
(dp5091
g62
(dp5092
sg71
g5086
sg64
(lp5093
g57
(g78
g59
NtRp5094
(dp5095
g62
(dp5096
g82
g83
ssg71
g5090
sg64
(lp5097
S'author'
p5098
asbag57
(g78
g59
NtRp5099
(dp5100
g62
(dp5101
g89
g90
ssg71
g5090
sg64
(lp5102
S':'
asbag57
(g78
g59
NtRp5103
(dp5104
g62
(dp5105
sg71
g5090
sg64
(lp5106
g57
(g58
g59
NtRp5107
(dp5108
g62
(dp5109
g70
I4
ssg71
g5103
sg64
(lp5110
S'Your Name <you@example.com>'
p5111
asbasbasbag57
(g73
g59
NtRp5112
(dp5113
g62
(dp5114
sg71
g5086
sg64
(lp5115
g57
(g78
g59
NtRp5116
(dp5117
g62
(dp5118
g82
g83
ssg71
g5112
sg64
(lp5119
S'description'
p5120
asbag57
(g78
g59
NtRp5121
(dp5122
g62
(dp5123
g89
g90
ssg71
g5112
sg64
(lp5124
S':'
asbag57
(g78
g59
NtRp5125
(dp5126
g62
(dp5127
sg71
g5112
sg64
(lp5128
g57
(g58
g59
NtRp5129
(dp5130
g62
(dp5131
g70
I4
ssg71
g5125
sg64
(lp5132
S'a cool new app'
p5133
asbasbasbag57
(g73
g59
NtRp5134
(dp5135
g62
(dp5136
sg71
g5086
sg64
(lp5137
g57
(g78
g59
NtRp5138
(dp5139
g62
(dp5140
g82
g83
ssg71
g5134
sg64
(lp5141
S'generator'
p5142
asbag57
(g78
g59
NtRp5143
(dp5144
g62
(dp5145
g89
g90
ssg71
g5134
sg64
(lp5146
S':'
asbag57
(g78
g59
NtRp5147
(dp5148
g62
(dp5149
sg71
g5134
sg64
(lp5150
g57
(g58
g59
NtRp5151
(dp5152
g62
(dp5153
g70
I4
ssg71
g5147
sg64
(lp5154
S'Web2py Web Framework'
p5155
asbasbasbag57
(g73
g59
NtRp5156
(dp5157
g62
(dp5158
sg71
g5086
sg64
(lp5159
g57
(g78
g59
NtRp5160
(dp5161
g62
(dp5162
g82
g83
ssg71
g5156
sg64
(lp5163
S'keywords'
p5164
asbag57
(g78
g59
NtRp5165
(dp5166
g62
(dp5167
g89
g90
ssg71
g5156
sg64
(lp5168
S':'
asbag57
(g78
g59
NtRp5169
(dp5170
g62
(dp5171
sg71
g5156
sg64
(lp5172
g57
(g58
g59
NtRp5173
(dp5174
g62
(dp5175
g70
I4
ssg71
g5169
sg64
(lp5176
S'web2py, python, framework'
p5177
asbasbasbasbasbasbasbag57
(g73
g59
NtRp5178
(dp5179
g62
(dp5180
sg71
g3182
sg64
(lp5181
g57
(g78
g59
NtRp5182
(dp5183
g62
(dp5184
g82
g83
ssg71
g5178
sg64
(lp5185
S'models_to_run'
p5186
asbag57
(g78
g59
NtRp5187
(dp5188
g62
(dp5189
g89
g90
ssg71
g5178
sg64
(lp5190
S':'
asbag57
(g78
g59
NtRp5191
(dp5192
g62
(dp5193
sg71
g5178
sg64
(lp5194
g57
(g58
g59
NtRp5195
(dp5196
g62
(dp5197
g70
I5
ssg71
g5191
sg64
(lp5198
g57
(g66
g59
NtRp5199
(dp5200
g62
(dp5201
g70
I4
ssg71
Nsg64
(lp5202
g57
(g73
g59
NtRp5203
(dp5204
g62
(dp5205
sg71
g5199
sg64
(lp5206
g57
(g78
g59
NtRp5207
(dp5208
g62
(dp5209
sg71
g5203
sg64
(lp5210
g57
(g58
g59
NtRp5211
(dp5212
g62
(dp5213
g70
I4
ssg71
g5207
sg64
(lp5214
S'^\\w+\\.py$'
p5215
asbasbasbag57
(g73
g59
NtRp5216
(dp5217
g62
(dp5218
sg71
g5199
sg64
(lp5219
g57
(g78
g59
NtRp5220
(dp5221
g62
(dp5222
sg71
g5216
sg64
(lp5223
g57
(g58
g59
NtRp5224
(dp5225
g62
(dp5226
g70
I4
ssg71
g5220
sg64
(lp5227
S'^charts/\\w+\\.py$'
p5228
asbasbasbag57
(g73
g59
NtRp5229
(dp5230
g62
(dp5231
sg71
g5199
sg64
(lp5232
g57
(g78
g59
NtRp5233
(dp5234
g62
(dp5235
sg71
g5229
sg64
(lp5236
g57
(g58
g59
NtRp5237
(dp5238
g62
(dp5239
g70
I4
ssg71
g5233
sg64
(lp5240
S'^charts/user_charts/\\w+\\.py$'
p5241
asbasbasbasbasbasbasbag57
(g73
g59
NtRp5242
(dp5243
g62
(dp5244
sg71
g3182
sg64
(lp5245
g57
(g78
g59
NtRp5246
(dp5247
g62
(dp5248
g82
g83
ssg71
g5242
sg64
(lp5249
S'postprocessing'
p5250
asbag57
(g78
g59
NtRp5251
(dp5252
g62
(dp5253
g89
g90
ssg71
g5242
sg64
(lp5254
S':'
asbag57
(g78
g59
NtRp5255
(dp5256
g62
(dp5257
sg71
g5242
sg64
(lp5258
g57
(g58
g59
NtRp5259
(dp5260
g62
(dp5261
g70
I5
ssg71
g5255
sg64
(lp5262
g57
(g66
g59
NtRp5263
(dp5264
g62
(dp5265
g70
I4
ssg71
Nsg64
(lp5266
sbasbasbasbag57
(g73
g59
NtRp5267
(dp5268
g62
(dp5269
sg71
g3182
sg64
(lp5270
g57
(g78
g59
NtRp5271
(dp5272
g62
(dp5273
g82
g83
ssg71
g5267
sg64
(lp5274
S'session_cookie_expires'
p5275
asbag57
(g78
g59
NtRp5276
(dp5277
g62
(dp5278
g89
g90
ssg71
g5267
sg64
(lp5279
S':'
asbag57
(g78
g59
NtRp5280
(dp5281
g62
(dp5282
sg71
g5267
sg64
(lp5283
g57
(g58
g59
NtRp5284
(dp5285
g62
(dp5286
g70
I5
ssg71
g5280
sg64
(lp5287
S'None'
p5288
asbasbasbag57
(g73
g59
NtRp5289
(dp5290
g62
(dp5291
sg71
g3182
sg64
(lp5292
g57
(g78
g59
NtRp5293
(dp5294
g62
(dp5295
g82
g83
ssg71
g5289
sg64
(lp5296
S'session_data_name'
p5297
asbag57
(g78
g59
NtRp5298
(dp5299
g62
(dp5300
g89
g90
ssg71
g5289
sg64
(lp5301
S':'
asbag57
(g78
g59
NtRp5302
(dp5303
g62
(dp5304
sg71
g5289
sg64
(lp5305
g57
(g58
g59
NtRp5306
(dp5307
g62
(dp5308
g70
I5
ssg71
g5302
sg64
(lp5309
S'session_data_web2py_xlchart_dashboard'
p5310
asbasbasbag57
(g73
g59
NtRp5311
(dp5312
g62
(dp5313
sg71
g3182
sg64
(lp5314
g57
(g78
g59
NtRp5315
(dp5316
g62
(dp5317
g82
g83
ssg71
g5311
sg64
(lp5318
S'session_file'
p5319
asbag57
(g78
g59
NtRp5320
(dp5321
g62
(dp5322
g89
g90
ssg71
g5311
sg64
(lp5323
S':'
asbag57
(g78
g59
NtRp5324
(dp5325
g62
(dp5326
sg71
g5311
sg64
(lp5327
g57
(g58
g59
NtRp5328
(dp5329
g62
(dp5330
g70
I5
ssg71
g5324
sg64
(lp5331
S"<open file 'D:\\web2py\\source\\web2py\\applications\\web2py_xlchart_dashboard\\sessions\\127.0.0.1-c53b418b-4944-4d07-915c-a998b8630125', mode 'rb+' at 0x0587B5A0>"
p5332
asbasbasbag57
(g73
g59
NtRp5333
(dp5334
g62
(dp5335
sg71
g3182
sg64
(lp5336
g57
(g78
g59
NtRp5337
(dp5338
g62
(dp5339
g82
g83
ssg71
g5333
sg64
(lp5340
S'session_filename'
p5341
asbag57
(g78
g59
NtRp5342
(dp5343
g62
(dp5344
g89
g90
ssg71
g5333
sg64
(lp5345
S':'
asbag57
(g78
g59
NtRp5346
(dp5347
g62
(dp5348
sg71
g5333
sg64
(lp5349
g57
(g58
g59
NtRp5350
(dp5351
g62
(dp5352
g70
I5
ssg71
g5346
sg64
(lp5353
S'D:\\web2py\\source\\web2py\\applications\\web2py_xlchart_dashboard\\sessions\\127.0.0.1-c53b418b-4944-4d07-915c-a998b8630125'
p5354
asbasbasbag57
(g73
g59
NtRp5355
(dp5356
g62
(dp5357
sg71
g3182
sg64
(lp5358
g57
(g78
g59
NtRp5359
(dp5360
g62
(dp5361
g82
g83
ssg71
g5355
sg64
(lp5362
S'session_id'
p5363
asbag57
(g78
g59
NtRp5364
(dp5365
g62
(dp5366
g89
g90
ssg71
g5355
sg64
(lp5367
S':'
asbag57
(g78
g59
NtRp5368
(dp5369
g62
(dp5370
sg71
g5355
sg64
(lp5371
g57
(g58
g59
NtRp5372
(dp5373
g62
(dp5374
g70
I5
ssg71
g5368
sg64
(lp5375
g475
asbasbasbag57
(g73
g59
NtRp5376
(dp5377
g62
(dp5378
sg71
g3182
sg64
(lp5379
g57
(g78
g59
NtRp5380
(dp5381
g62
(dp5382
g82
g83
ssg71
g5376
sg64
(lp5383
S'session_id_name'
p5384
asbag57
(g78
g59
NtRp5385
(dp5386
g62
(dp5387
g89
g90
ssg71
g5376
sg64
(lp5388
S':'
asbag57
(g78
g59
NtRp5389
(dp5390
g62
(dp5391
sg71
g5376
sg64
(lp5392
g57
(g58
g59
NtRp5393
(dp5394
g62
(dp5395
g70
I5
ssg71
g5389
sg64
(lp5396
g3239
asbasbasbag57
(g73
g59
NtRp5397
(dp5398
g62
(dp5399
sg71
g3182
sg64
(lp5400
g57
(g78
g59
NtRp5401
(dp5402
g62
(dp5403
g82
g83
ssg71
g5397
sg64
(lp5404
S'session_locked'
p5405
asbag57
(g78
g59
NtRp5406
(dp5407
g62
(dp5408
g89
g90
ssg71
g5397
sg64
(lp5409
S':'
asbag57
(g78
g59
NtRp5410
(dp5411
g62
(dp5412
sg71
g5397
sg64
(lp5413
g57
(g58
g59
NtRp5414
(dp5415
g62
(dp5416
g70
I5
ssg71
g5410
sg64
(lp5417
g1604
asbasbasbag57
(g73
g59
NtRp5418
(dp5419
g62
(dp5420
sg71
g3182
sg64
(lp5421
g57
(g78
g59
NtRp5422
(dp5423
g62
(dp5424
g82
g83
ssg71
g5418
sg64
(lp5425
S'session_new'
p5426
asbag57
(g78
g59
NtRp5427
(dp5428
g62
(dp5429
g89
g90
ssg71
g5418
sg64
(lp5430
S':'
asbag57
(g78
g59
NtRp5431
(dp5432
g62
(dp5433
sg71
g5418
sg64
(lp5434
g57
(g58
g59
NtRp5435
(dp5436
g62
(dp5437
g70
I5
ssg71
g5431
sg64
(lp5438
g100
asbasbasbag57
(g73
g59
NtRp5439
(dp5440
g62
(dp5441
sg71
g3182
sg64
(lp5442
g57
(g78
g59
NtRp5443
(dp5444
g62
(dp5445
g82
g83
ssg71
g5439
sg64
(lp5446
S'session_storage_type'
p5447
asbag57
(g78
g59
NtRp5448
(dp5449
g62
(dp5450
g89
g90
ssg71
g5439
sg64
(lp5451
S':'
asbag57
(g78
g59
NtRp5452
(dp5453
g62
(dp5454
sg71
g5439
sg64
(lp5455
g57
(g58
g59
NtRp5456
(dp5457
g62
(dp5458
g70
I5
ssg71
g5452
sg64
(lp5459
g3056
asbasbasbag57
(g73
g59
NtRp5460
(dp5461
g62
(dp5462
sg71
g3182
sg64
(lp5463
g57
(g78
g59
NtRp5464
(dp5465
g62
(dp5466
g82
g83
ssg71
g5460
sg64
(lp5467
S'status'
p5468
asbag57
(g78
g59
NtRp5469
(dp5470
g62
(dp5471
g89
g90
ssg71
g5460
sg64
(lp5472
S':'
asbag57
(g78
g59
NtRp5473
(dp5474
g62
(dp5475
sg71
g5460
sg64
(lp5476
g57
(g58
g59
NtRp5477
(dp5478
g62
(dp5479
g70
I5
ssg71
g5473
sg64
(lp5480
S'200'
p5481
asbasbasbag57
(g73
g59
NtRp5482
(dp5483
g62
(dp5484
sg71
g3182
sg64
(lp5485
g57
(g78
g59
NtRp5486
(dp5487
g62
(dp5488
g82
g83
ssg71
g5482
sg64
(lp5489
S'subtitle'
p5490
asbag57
(g78
g59
NtRp5491
(dp5492
g62
(dp5493
g89
g90
ssg71
g5482
sg64
(lp5494
S':'
asbag57
(g78
g59
NtRp5495
(dp5496
g62
(dp5497
sg71
g5482
sg64
(lp5498
g57
(g58
g59
NtRp5499
(dp5500
g62
(dp5501
g70
I5
ssg71
g5495
sg64
(lp5502
g3776
(S's\r\x00\x00\x00customize me!'
tRp5503
asbasbasbag57
(g73
g59
NtRp5504
(dp5505
g62
(dp5506
sg71
g3182
sg64
(lp5507
g57
(g78
g59
NtRp5508
(dp5509
g62
(dp5510
g82
g83
ssg71
g5504
sg64
(lp5511
S'title'
p5512
asbag57
(g78
g59
NtRp5513
(dp5514
g62
(dp5515
g89
g90
ssg71
g5504
sg64
(lp5516
S':'
asbag57
(g78
g59
NtRp5517
(dp5518
g62
(dp5519
sg71
g5504
sg64
(lp5520
g57
(g58
g59
NtRp5521
(dp5522
g62
(dp5523
g70
I5
ssg71
g5517
sg64
(lp5524
S'Web2py Xlchart Dashboard'
p5525
asbasbasbag57
(g73
g59
NtRp5526
(dp5527
g62
(dp5528
sg71
g3182
sg64
(lp5529
g57
(g78
g59
NtRp5530
(dp5531
g62
(dp5532
g82
g83
ssg71
g5526
sg64
(lp5533
S'view'
p5534
asbag57
(g78
g59
NtRp5535
(dp5536
g62
(dp5537
g89
g90
ssg71
g5526
sg64
(lp5538
S':'
asbag57
(g78
g59
NtRp5539
(dp5540
g62
(dp5541
sg71
g5526
sg64
(lp5542
g57
(g58
g59
NtRp5543
(dp5544
g62
(dp5545
g70
I5
ssg71
g5539
sg64
(lp5546
S'charts/user_charts.html'
p5547
asbasbasbasbasbsS'locals'
p5548
(dp5549
S'chartname'
p5550
S"'pyxl1352146819.09'"
p5551
sssS'traceback'
p5552
S'Traceback (most recent call last):\n  File "D:\\web2py\\source\\web2py\\gluon\\restricted.py", line 212, in restricted\n    exec ccode in environment\n  File "D:\\web2py\\source\\web2py\\applications\\web2py_xlchart_dashboard\\views\\charts/user_charts.html", line 94, in <module>\n  File "D:\\web2py\\source\\web2py\\applications\\web2py_xlchart_dashboard\\models\\db.py", line 145, in is_my_chart\n    if db((db.user_chart.id_user == auth.user_id) & (db.user_chart.id_chart.chartName == chartname)).count() > 0:\nAttributeError: \'Field\' object has no attribute \'chartName\'\n'
p5553
s.