(dp1
S'output'
p2
S"<class 'pywintypes.com_error'> (-2147221008, 'CoInitialize has not been called.', None, None)"
p3
sS'layer'
p4
S'X:\\procurement\\MATERIEL\\Raw Material\\Data Management\\Custom Applications\\Development\\web2py\\applications\\welcome\\controllers/default.py'
p5
sS'code'
p6
S'# -*- coding: utf-8 -*-\n# this file is released under public domain and you can use without limitations\n\n#########################################################################\n## This is a samples controller\n## - index is the default action of any application\n## - user is required for authentication and authorization\n## - download is for downloading files uploaded in the db (does streaming)\n## - call exposes all registered services (none by default)\n#########################################################################\n\n\ndef index():\n    """\n    example action using the internationalization operator T and flash\n    rendered by views/default/index.html or views/generic.html\n\n    if you need a simple wiki simple replace the two lines below with:\n    return auth.wiki()\n    """\n    from win32com.client import Dispatch\n    from win32com.client import Dispatch\n    import os\n    import pythoncom\n    pythoncom.CoInitialize\n    from pyxlchart import Pyxlchart\n    ChartObj = Pyxlchart()\n    ChartObj.WorkbookDirectory = "\\\\\\\\maawtns01\\\\discipline\\\\procurement\\\\MATERIEL\\\\Raw Material\\\\Data Management\\\\Hawk"\n    ChartObj.WorkbookFilename = "Hawk Workability KPI.xlsm"\n    ChartObj.ImageFilename = "MyChart1"\n    ChartObj.ExportPath = "d:\\\\pycharts"\n    ChartObj.start_export()\n    \n    response.flash = T("Welcome to web2py!")\n    return dict(message=T(\'Hello World\'))\n\n\ndef user():\n    """\n    exposes:\n    http://..../[app]/default/user/login\n    http://..../[app]/default/user/logout\n    http://..../[app]/default/user/register\n    http://..../[app]/default/user/profile\n    http://..../[app]/default/user/retrieve_password\n    http://..../[app]/default/user/change_password\n    use @auth.requires_login()\n        @auth.requires_membership(\'group name\')\n        @auth.requires_permission(\'read\',\'table name\',record_id)\n    to decorate functions that need access control\n    """\n    return dict(form=auth())\n\n\ndef download():\n    """\n    allows downloading of uploaded files\n    http://..../[app]/default/download/[filename]\n    """\n    return response.download(request, db)\n\n\ndef call():\n    """\n    exposes services. for example:\n    http://..../[app]/default/call/jsonrpc\n    decorate with @services.jsonrpc the functions to expose\n    supports xml, json, xmlrpc, jsonrpc, amfrpc, rss, csv\n    """\n    return service()\n\n\n@auth.requires_signature()\ndef data():\n    """\n    http://..../[app]/default/data/tables\n    http://..../[app]/default/data/create/[table]\n    http://..../[app]/default/data/read/[table]/[id]\n    http://..../[app]/default/data/update/[table]/[id]\n    http://..../[app]/default/data/delete/[table]/[id]\n    http://..../[app]/default/data/select/[table]\n    http://..../[app]/default/data/search/[table]\n    but URLs must be signed, i.e. linked with\n      A(\'table\',_href=URL(\'data/tables\',user_signature=True))\n    or with the signed load operator\n      LOAD(\'default\',\'data.load\',args=\'tables\',ajax=True,user_signature=True)\n    """\n    return dict(form=crud())\n\nresponse._vars=response._caller(index)\n'
p7
sS'snapshot'
p8
(dp9
S'exception'
p10
(dp11
S'__module__'
p12
S"'pywintypes'"
p13
sS'__getslice__'
p14
S"<method-wrapper '__getslice__' of com_error object>"
p15
sS'__str__'
p16
S"<method-wrapper '__str__' of com_error object>"
p17
sS'__reduce__'
p18
S'<built-in method __reduce__ of com_error object>'
p19
sS'__dict__'
p20
S"{'argerror': None, 'excepinfo': None, 'hresult': -2147221008, 'strerror': 'CoInitialize has not been called.'}"
p21
sS'__sizeof__'
p22
S'<built-in method __sizeof__ of com_error object>'
p23
sS'__weakref__'
p24
S'None'
p25
sS'__init__'
p26
S"<bound method com_error.__init__ of com_error(-2...'CoInitialize has not been called.', None, None)>"
p27
sS'__setattr__'
p28
S"<method-wrapper '__setattr__' of com_error object>"
p29
sS'__reduce_ex__'
p30
S'<built-in method __reduce_ex__ of com_error object>'
p31
sS'__new__'
p32
S'<built-in method __new__ of type object>'
p33
sS'__format__'
p34
S'<built-in method __format__ of com_error object>'
p35
sS'__class__'
p36
S"<class 'pywintypes.com_error'>"
p37
sS'__doc__'
p38
S'None'
p39
sS'__getitem__'
p40
S"<method-wrapper '__getitem__' of com_error object>"
p41
sS'__setstate__'
p42
S'<built-in method __setstate__ of com_error object>'
p43
sS'__getattribute__'
p44
S"<method-wrapper '__getattribute__' of com_error object>"
p45
sS'args'
p46
S"(-2147221008, 'CoInitialize has not been called.', None, None)"
p47
sS'__subclasshook__'
p48
S'<built-in method __subclasshook__ of type object>'
p49
sS'argerror'
p50
S'None'
p51
sS'__unicode__'
p52
S'<built-in method __unicode__ of com_error object>'
p53
sS'excepinfo'
p54
S'None'
p55
sS'hresult'
p56
S'-2147221008'
p57
sS'strerror'
p58
S"'CoInitialize has not been called.'"
p59
sS'__delattr__'
p60
S"<method-wrapper '__delattr__' of com_error object>"
p61
sS'__repr__'
p62
S"<method-wrapper '__repr__' of com_error object>"
p63
sS'__hash__'
p64
S"<method-wrapper '__hash__' of com_error object>"
p65
ssS'evalue'
p66
S"(-2147221008, 'CoInitialize has not been called.', None, None)"
p67
sS'request'
p68
ccopy_reg
_reconstructor
p69
(cgluon.html
BEAUTIFY
p70
c__builtin__
object
p71
NtRp72
(dp73
S'attributes'
p74
(dp75
sS'components'
p76
(lp77
g69
(cgluon.html
TABLE
p78
g71
NtRp79
(dp80
g74
(dp81
S'level'
p82
I5
ssS'parent'
p83
Nsg76
(lp84
g69
(cgluon.html
TR
p85
g71
NtRp86
(dp87
g74
(dp88
sg83
g79
sg76
(lp89
g69
(cgluon.html
TD
p90
g71
NtRp91
(dp92
g74
(dp93
S'_style'
p94
S'font-weight:bold;vertical-align:top'
p95
ssg83
g86
sg76
(lp96
S'ajax'
p97
asbag69
(g90
g71
NtRp98
(dp99
g74
(dp100
S'_valign'
p101
S'top'
p102
ssg83
g86
sg76
(lp103
S':'
asbag69
(g90
g71
NtRp104
(dp105
g74
(dp106
sg83
g86
sg76
(lp107
g69
(g70
g71
NtRp108
(dp109
g74
(dp110
g82
I5
ssg83
g104
sg76
(lp111
S'False'
p112
asbasbasbag69
(g85
g71
NtRp113
(dp114
g74
(dp115
sg83
g79
sg76
(lp116
g69
(g90
g71
NtRp117
(dp118
g74
(dp119
g94
g95
ssg83
g113
sg76
(lp120
S'application'
p121
asbag69
(g90
g71
NtRp122
(dp123
g74
(dp124
g101
g102
ssg83
g113
sg76
(lp125
S':'
asbag69
(g90
g71
NtRp126
(dp127
g74
(dp128
sg83
g113
sg76
(lp129
g69
(g70
g71
NtRp130
(dp131
g74
(dp132
g82
I5
ssg83
g126
sg76
(lp133
S'welcome'
p134
asbasbasbag69
(g85
g71
NtRp135
(dp136
g74
(dp137
sg83
g79
sg76
(lp138
g69
(g90
g71
NtRp139
(dp140
g74
(dp141
g94
g95
ssg83
g135
sg76
(lp142
g46
asbag69
(g90
g71
NtRp143
(dp144
g74
(dp145
g101
g102
ssg83
g135
sg76
(lp146
S':'
asbag69
(g90
g71
NtRp147
(dp148
g74
(dp149
sg83
g135
sg76
(lp150
g69
(g70
g71
NtRp151
(dp152
g74
(dp153
g82
I5
ssg83
g147
sg76
(lp154
g69
(g78
g71
NtRp155
(dp156
g74
(dp157
g82
I4
ssg83
Nsg76
(lp158
sbasbasbasbag69
(g85
g71
NtRp159
(dp160
g74
(dp161
sg83
g79
sg76
(lp162
g69
(g90
g71
NtRp163
(dp164
g74
(dp165
g94
g95
ssg83
g159
sg76
(lp166
S'body'
p167
asbag69
(g90
g71
NtRp168
(dp169
g74
(dp170
g101
g102
ssg83
g159
sg76
(lp171
S':'
asbag69
(g90
g71
NtRp172
(dp173
g74
(dp174
sg83
g159
sg76
(lp175
g69
(g70
g71
NtRp176
(dp177
g74
(dp178
g82
I5
ssg83
g172
sg76
(lp179
S'<cStringIO.StringO object at 0x057690E0>'
p180
asbasbasbag69
(g85
g71
NtRp181
(dp182
g74
(dp183
sg83
g79
sg76
(lp184
g69
(g90
g71
NtRp185
(dp186
g74
(dp187
g94
g95
ssg83
g181
sg76
(lp188
S'cid'
p189
asbag69
(g90
g71
NtRp190
(dp191
g74
(dp192
g101
g102
ssg83
g181
sg76
(lp193
S':'
asbag69
(g90
g71
NtRp194
(dp195
g74
(dp196
sg83
g181
sg76
(lp197
g69
(g70
g71
NtRp198
(dp199
g74
(dp200
g82
I5
ssg83
g194
sg76
(lp201
S'None'
p202
asbasbasbag69
(g85
g71
NtRp203
(dp204
g74
(dp205
sg83
g79
sg76
(lp206
g69
(g90
g71
NtRp207
(dp208
g74
(dp209
g94
g95
ssg83
g203
sg76
(lp210
S'client'
p211
asbag69
(g90
g71
NtRp212
(dp213
g74
(dp214
g101
g102
ssg83
g203
sg76
(lp215
S':'
asbag69
(g90
g71
NtRp216
(dp217
g74
(dp218
sg83
g203
sg76
(lp219
g69
(g70
g71
NtRp220
(dp221
g74
(dp222
g82
I5
ssg83
g216
sg76
(lp223
S'127.0.0.1'
p224
asbasbasbag69
(g85
g71
NtRp225
(dp226
g74
(dp227
sg83
g79
sg76
(lp228
g69
(g90
g71
NtRp229
(dp230
g74
(dp231
g94
g95
ssg83
g225
sg76
(lp232
S'controller'
p233
asbag69
(g90
g71
NtRp234
(dp235
g74
(dp236
g101
g102
ssg83
g225
sg76
(lp237
S':'
asbag69
(g90
g71
NtRp238
(dp239
g74
(dp240
sg83
g225
sg76
(lp241
g69
(g70
g71
NtRp242
(dp243
g74
(dp244
g82
I5
ssg83
g238
sg76
(lp245
S'default'
p246
asbasbasbag69
(g85
g71
NtRp247
(dp248
g74
(dp249
sg83
g79
sg76
(lp250
g69
(g90
g71
NtRp251
(dp252
g74
(dp253
g94
g95
ssg83
g247
sg76
(lp254
S'cookies'
p255
asbag69
(g90
g71
NtRp256
(dp257
g74
(dp258
g101
g102
ssg83
g247
sg76
(lp259
S':'
asbag69
(g90
g71
NtRp260
(dp261
g74
(dp262
sg83
g247
sg76
(lp263
g69
(g70
g71
NtRp264
(dp265
g74
(dp266
g82
I5
ssg83
g260
sg76
(lp267
g69
(g78
g71
NtRp268
(dp269
g74
(dp270
g82
I4
ssg83
Nsg76
(lp271
g69
(g85
g71
NtRp272
(dp273
g74
(dp274
sg83
g268
sg76
(lp275
g69
(g90
g71
NtRp276
(dp277
g74
(dp278
g94
g95
ssg83
g272
sg76
(lp279
S'session_id_admin'
p280
asbag69
(g90
g71
NtRp281
(dp282
g74
(dp283
g101
g102
ssg83
g272
sg76
(lp284
S':'
asbag69
(g90
g71
NtRp285
(dp286
g74
(dp287
sg83
g272
sg76
(lp288
g69
(g70
g71
NtRp289
(dp290
g74
(dp291
g82
I4
ssg83
g285
sg76
(lp292
S'127.0.0.1-866e404e-c149-4b90-9d68-503003d488cc'
p293
ag69
(g78
g71
NtRp294
(dp295
g74
(dp296
g82
I3
ssg83
Nsg76
(lp297
g69
(g85
g71
NtRp298
(dp299
g74
(dp300
sg83
g294
sg76
(lp301
g69
(g90
g71
NtRp302
(dp303
g74
(dp304
g94
g95
ssg83
g298
sg76
(lp305
S'comment'
p306
asbag69
(g90
g71
NtRp307
(dp308
g74
(dp309
g101
g102
ssg83
g298
sg76
(lp310
S':'
asbag69
(g90
g71
NtRp311
(dp312
g74
(dp313
sg83
g298
sg76
(lp314
g69
(g70
g71
NtRp315
(dp316
g74
(dp317
g82
I3
ssg83
g311
sg76
(lp318
S''
asbasbasbag69
(g85
g71
NtRp319
(dp320
g74
(dp321
sg83
g294
sg76
(lp322
g69
(g90
g71
NtRp323
(dp324
g74
(dp325
g94
g95
ssg83
g319
sg76
(lp326
S'domain'
p327
asbag69
(g90
g71
NtRp328
(dp329
g74
(dp330
g101
g102
ssg83
g319
sg76
(lp331
S':'
asbag69
(g90
g71
NtRp332
(dp333
g74
(dp334
sg83
g319
sg76
(lp335
g69
(g70
g71
NtRp336
(dp337
g74
(dp338
g82
I3
ssg83
g332
sg76
(lp339
S''
asbasbasbag69
(g85
g71
NtRp340
(dp341
g74
(dp342
sg83
g294
sg76
(lp343
g69
(g90
g71
NtRp344
(dp345
g74
(dp346
g94
g95
ssg83
g340
sg76
(lp347
S'expires'
p348
asbag69
(g90
g71
NtRp349
(dp350
g74
(dp351
g101
g102
ssg83
g340
sg76
(lp352
S':'
asbag69
(g90
g71
NtRp353
(dp354
g74
(dp355
sg83
g340
sg76
(lp356
g69
(g70
g71
NtRp357
(dp358
g74
(dp359
g82
I3
ssg83
g353
sg76
(lp360
S''
asbasbasbag69
(g85
g71
NtRp361
(dp362
g74
(dp363
sg83
g294
sg76
(lp364
g69
(g90
g71
NtRp365
(dp366
g74
(dp367
g94
g95
ssg83
g361
sg76
(lp368
S'httponly'
p369
asbag69
(g90
g71
NtRp370
(dp371
g74
(dp372
g101
g102
ssg83
g361
sg76
(lp373
S':'
asbag69
(g90
g71
NtRp374
(dp375
g74
(dp376
sg83
g361
sg76
(lp377
g69
(g70
g71
NtRp378
(dp379
g74
(dp380
g82
I3
ssg83
g374
sg76
(lp381
S''
asbasbasbag69
(g85
g71
NtRp382
(dp383
g74
(dp384
sg83
g294
sg76
(lp385
g69
(g90
g71
NtRp386
(dp387
g74
(dp388
g94
g95
ssg83
g382
sg76
(lp389
S'max-age'
p390
asbag69
(g90
g71
NtRp391
(dp392
g74
(dp393
g101
g102
ssg83
g382
sg76
(lp394
S':'
asbag69
(g90
g71
NtRp395
(dp396
g74
(dp397
sg83
g382
sg76
(lp398
g69
(g70
g71
NtRp399
(dp400
g74
(dp401
g82
I3
ssg83
g395
sg76
(lp402
S''
asbasbasbag69
(g85
g71
NtRp403
(dp404
g74
(dp405
sg83
g294
sg76
(lp406
g69
(g90
g71
NtRp407
(dp408
g74
(dp409
g94
g95
ssg83
g403
sg76
(lp410
S'path'
p411
asbag69
(g90
g71
NtRp412
(dp413
g74
(dp414
g101
g102
ssg83
g403
sg76
(lp415
S':'
asbag69
(g90
g71
NtRp416
(dp417
g74
(dp418
sg83
g403
sg76
(lp419
g69
(g70
g71
NtRp420
(dp421
g74
(dp422
g82
I3
ssg83
g416
sg76
(lp423
S''
asbasbasbag69
(g85
g71
NtRp424
(dp425
g74
(dp426
sg83
g294
sg76
(lp427
g69
(g90
g71
NtRp428
(dp429
g74
(dp430
g94
g95
ssg83
g424
sg76
(lp431
S'secure'
p432
asbag69
(g90
g71
NtRp433
(dp434
g74
(dp435
g101
g102
ssg83
g424
sg76
(lp436
S':'
asbag69
(g90
g71
NtRp437
(dp438
g74
(dp439
sg83
g424
sg76
(lp440
g69
(g70
g71
NtRp441
(dp442
g74
(dp443
g82
I3
ssg83
g437
sg76
(lp444
S''
asbasbasbag69
(g85
g71
NtRp445
(dp446
g74
(dp447
sg83
g294
sg76
(lp448
g69
(g90
g71
NtRp449
(dp450
g74
(dp451
g94
g95
ssg83
g445
sg76
(lp452
S'version'
p453
asbag69
(g90
g71
NtRp454
(dp455
g74
(dp456
g101
g102
ssg83
g445
sg76
(lp457
S':'
asbag69
(g90
g71
NtRp458
(dp459
g74
(dp460
sg83
g445
sg76
(lp461
g69
(g70
g71
NtRp462
(dp463
g74
(dp464
g82
I3
ssg83
g458
sg76
(lp465
S''
asbasbasbasbasbasbasbag69
(g85
g71
NtRp466
(dp467
g74
(dp468
sg83
g268
sg76
(lp469
g69
(g90
g71
NtRp470
(dp471
g74
(dp472
g94
g95
ssg83
g466
sg76
(lp473
S'session_id_welcome'
p474
asbag69
(g90
g71
NtRp475
(dp476
g74
(dp477
g101
g102
ssg83
g466
sg76
(lp478
S':'
asbag69
(g90
g71
NtRp479
(dp480
g74
(dp481
sg83
g466
sg76
(lp482
g69
(g70
g71
NtRp483
(dp484
g74
(dp485
g82
I4
ssg83
g479
sg76
(lp486
S'127.0.0.1-8079cbc1-ab0d-461a-80e3-9893e558a27f'
p487
ag69
(g78
g71
NtRp488
(dp489
g74
(dp490
g82
I3
ssg83
Nsg76
(lp491
g69
(g85
g71
NtRp492
(dp493
g74
(dp494
sg83
g488
sg76
(lp495
g69
(g90
g71
NtRp496
(dp497
g74
(dp498
g94
g95
ssg83
g492
sg76
(lp499
g306
asbag69
(g90
g71
NtRp500
(dp501
g74
(dp502
g101
g102
ssg83
g492
sg76
(lp503
S':'
asbag69
(g90
g71
NtRp504
(dp505
g74
(dp506
sg83
g492
sg76
(lp507
g69
(g70
g71
NtRp508
(dp509
g74
(dp510
g82
I3
ssg83
g504
sg76
(lp511
S''
asbasbasbag69
(g85
g71
NtRp512
(dp513
g74
(dp514
sg83
g488
sg76
(lp515
g69
(g90
g71
NtRp516
(dp517
g74
(dp518
g94
g95
ssg83
g512
sg76
(lp519
g327
asbag69
(g90
g71
NtRp520
(dp521
g74
(dp522
g101
g102
ssg83
g512
sg76
(lp523
S':'
asbag69
(g90
g71
NtRp524
(dp525
g74
(dp526
sg83
g512
sg76
(lp527
g69
(g70
g71
NtRp528
(dp529
g74
(dp530
g82
I3
ssg83
g524
sg76
(lp531
S''
asbasbasbag69
(g85
g71
NtRp532
(dp533
g74
(dp534
sg83
g488
sg76
(lp535
g69
(g90
g71
NtRp536
(dp537
g74
(dp538
g94
g95
ssg83
g532
sg76
(lp539
g348
asbag69
(g90
g71
NtRp540
(dp541
g74
(dp542
g101
g102
ssg83
g532
sg76
(lp543
S':'
asbag69
(g90
g71
NtRp544
(dp545
g74
(dp546
sg83
g532
sg76
(lp547
g69
(g70
g71
NtRp548
(dp549
g74
(dp550
g82
I3
ssg83
g544
sg76
(lp551
S''
asbasbasbag69
(g85
g71
NtRp552
(dp553
g74
(dp554
sg83
g488
sg76
(lp555
g69
(g90
g71
NtRp556
(dp557
g74
(dp558
g94
g95
ssg83
g552
sg76
(lp559
g369
asbag69
(g90
g71
NtRp560
(dp561
g74
(dp562
g101
g102
ssg83
g552
sg76
(lp563
S':'
asbag69
(g90
g71
NtRp564
(dp565
g74
(dp566
sg83
g552
sg76
(lp567
g69
(g70
g71
NtRp568
(dp569
g74
(dp570
g82
I3
ssg83
g564
sg76
(lp571
S''
asbasbasbag69
(g85
g71
NtRp572
(dp573
g74
(dp574
sg83
g488
sg76
(lp575
g69
(g90
g71
NtRp576
(dp577
g74
(dp578
g94
g95
ssg83
g572
sg76
(lp579
g390
asbag69
(g90
g71
NtRp580
(dp581
g74
(dp582
g101
g102
ssg83
g572
sg76
(lp583
S':'
asbag69
(g90
g71
NtRp584
(dp585
g74
(dp586
sg83
g572
sg76
(lp587
g69
(g70
g71
NtRp588
(dp589
g74
(dp590
g82
I3
ssg83
g584
sg76
(lp591
S''
asbasbasbag69
(g85
g71
NtRp592
(dp593
g74
(dp594
sg83
g488
sg76
(lp595
g69
(g90
g71
NtRp596
(dp597
g74
(dp598
g94
g95
ssg83
g592
sg76
(lp599
g411
asbag69
(g90
g71
NtRp600
(dp601
g74
(dp602
g101
g102
ssg83
g592
sg76
(lp603
S':'
asbag69
(g90
g71
NtRp604
(dp605
g74
(dp606
sg83
g592
sg76
(lp607
g69
(g70
g71
NtRp608
(dp609
g74
(dp610
g82
I3
ssg83
g604
sg76
(lp611
S''
asbasbasbag69
(g85
g71
NtRp612
(dp613
g74
(dp614
sg83
g488
sg76
(lp615
g69
(g90
g71
NtRp616
(dp617
g74
(dp618
g94
g95
ssg83
g612
sg76
(lp619
g432
asbag69
(g90
g71
NtRp620
(dp621
g74
(dp622
g101
g102
ssg83
g612
sg76
(lp623
S':'
asbag69
(g90
g71
NtRp624
(dp625
g74
(dp626
sg83
g612
sg76
(lp627
g69
(g70
g71
NtRp628
(dp629
g74
(dp630
g82
I3
ssg83
g624
sg76
(lp631
S''
asbasbasbag69
(g85
g71
NtRp632
(dp633
g74
(dp634
sg83
g488
sg76
(lp635
g69
(g90
g71
NtRp636
(dp637
g74
(dp638
g94
g95
ssg83
g632
sg76
(lp639
g453
asbag69
(g90
g71
NtRp640
(dp641
g74
(dp642
g101
g102
ssg83
g632
sg76
(lp643
S':'
asbag69
(g90
g71
NtRp644
(dp645
g74
(dp646
sg83
g632
sg76
(lp647
g69
(g70
g71
NtRp648
(dp649
g74
(dp650
g82
I3
ssg83
g644
sg76
(lp651
S''
asbasbasbasbasbasbasbasbasbasbasbag69
(g85
g71
NtRp652
(dp653
g74
(dp654
sg83
g79
sg76
(lp655
g69
(g90
g71
NtRp656
(dp657
g74
(dp658
g94
g95
ssg83
g652
sg76
(lp659
S'env'
p660
asbag69
(g90
g71
NtRp661
(dp662
g74
(dp663
g101
g102
ssg83
g652
sg76
(lp664
S':'
asbag69
(g90
g71
NtRp665
(dp666
g74
(dp667
sg83
g652
sg76
(lp668
g69
(g70
g71
NtRp669
(dp670
g74
(dp671
g82
I5
ssg83
g665
sg76
(lp672
g69
(g78
g71
NtRp673
(dp674
g74
(dp675
g82
I4
ssg83
Nsg76
(lp676
g69
(g85
g71
NtRp677
(dp678
g74
(dp679
sg83
g673
sg76
(lp680
g69
(g90
g71
NtRp681
(dp682
g74
(dp683
g94
g95
ssg83
g677
sg76
(lp684
S'app_folders'
p685
asbag69
(g90
g71
NtRp686
(dp687
g74
(dp688
g101
g102
ssg83
g677
sg76
(lp689
S':'
asbag69
(g90
g71
NtRp690
(dp691
g74
(dp692
sg83
g677
sg76
(lp693
g69
(g70
g71
NtRp694
(dp695
g74
(dp696
g82
I4
ssg83
g690
sg76
(lp697
S"set(['X:\\\\procurement\\\\MATERIEL\\\\Raw Material\\\\Data Management\\\\Custom Applications\\\\Development\\\\web2py\\\\applications\\\\admin\\\\', 'X:\\\\procurement\\\\MATERIEL\\\\Raw Material\\\\Data Management\\\\Custom Applications\\\\Development\\\\web2py\\\\applications\\\\welcome\\\\'])"
p698
asbasbasbag69
(g85
g71
NtRp699
(dp700
g74
(dp701
sg83
g673
sg76
(lp702
g69
(g90
g71
NtRp703
(dp704
g74
(dp705
g94
g95
ssg83
g699
sg76
(lp706
S'applications_parent'
p707
asbag69
(g90
g71
NtRp708
(dp709
g74
(dp710
g101
g102
ssg83
g699
sg76
(lp711
S':'
asbag69
(g90
g71
NtRp712
(dp713
g74
(dp714
sg83
g699
sg76
(lp715
g69
(g70
g71
NtRp716
(dp717
g74
(dp718
g82
I4
ssg83
g712
sg76
(lp719
S'X:\\procurement\\MATERIEL\\Raw Material\\Data Management\\Custom Applications\\Development\\web2py'
p720
asbasbasbag69
(g85
g71
NtRp721
(dp722
g74
(dp723
sg83
g673
sg76
(lp724
g69
(g90
g71
NtRp725
(dp726
g74
(dp727
g94
g95
ssg83
g721
sg76
(lp728
S'cmd_args'
p729
asbag69
(g90
g71
NtRp730
(dp731
g74
(dp732
g101
g102
ssg83
g721
sg76
(lp733
S':'
asbag69
(g90
g71
NtRp734
(dp735
g74
(dp736
sg83
g721
sg76
(lp737
g69
(g70
g71
NtRp738
(dp739
g74
(dp740
g82
I4
ssg83
g734
sg76
(lp741
g69
(g78
g71
NtRp742
(dp743
g74
(dp744
g82
I3
ssg83
Nsg76
(lp745
sbasbasbasbag69
(g85
g71
NtRp746
(dp747
g74
(dp748
sg83
g673
sg76
(lp749
g69
(g90
g71
NtRp750
(dp751
g74
(dp752
g94
g95
ssg83
g746
sg76
(lp753
S'cmd_options'
p754
asbag69
(g90
g71
NtRp755
(dp756
g74
(dp757
g101
g102
ssg83
g746
sg76
(lp758
S':'
asbag69
(g90
g71
NtRp759
(dp760
g74
(dp761
sg83
g746
sg76
(lp762
g69
(g70
g71
NtRp763
(dp764
g74
(dp765
g82
I4
ssg83
g759
sg76
(lp766
S"<Values at 0x17def80: {'verbose': False, 'ip': '127.0.0.1', 'with_scheduler': False, 'ips': ['172.31.249.32'], 'shutdown_timeout': 5, 'taskbar': False, 'port': 8000, 'maxthreads': None, 'softcron': False, 'server_name': 'GLKLAG235327', 'bpython': False, 'nogui': False, 'pid_filename': 'httpserver.pid', 'extcron': False, 'runcron': False, 'run_system_tests': False, 'test': None, 'folder': 'X:\\\\procurement\\\\MATERIEL\\\\Raw Material\\\\Data Management\\\\Custom Applications\\\\Development\\\\web2py', 'config': '', 'import_models': False, 'winservice': '', 'shell': None, 'run': '', 'log_filename': 'httpserver.log', 'debuglevel': 30, 'args': [''], 'socket_timeout': 5, 'ssl_ca_certificate': None, 'scheduler': None, 'profiler_filename': None, 'ssl_private_key': '', 'scheduler_groups': None, 'password': '<ask>', 'request_queue_size': 5, 'ssl_certificate': '', 'cronjob': False, 'numthreads': None, 'quiet': False, 'interfaces': None, 'minthreads': None, 'timeout': 10, 'plain': False, 'nobanner': False}>"
p767
asbasbasbag69
(g85
g71
NtRp768
(dp769
g74
(dp770
sg83
g673
sg76
(lp771
g69
(g90
g71
NtRp772
(dp773
g74
(dp774
g94
g95
ssg83
g768
sg76
(lp775
S'db_sessions'
p776
asbag69
(g90
g71
NtRp777
(dp778
g74
(dp779
g101
g102
ssg83
g768
sg76
(lp780
S':'
asbag69
(g90
g71
NtRp781
(dp782
g74
(dp783
sg83
g768
sg76
(lp784
g69
(g70
g71
NtRp785
(dp786
g74
(dp787
g82
I4
ssg83
g781
sg76
(lp788
S'set([])'
p789
asbasbasbag69
(g85
g71
NtRp790
(dp791
g74
(dp792
sg83
g673
sg76
(lp793
g69
(g90
g71
NtRp794
(dp795
g74
(dp796
g94
g95
ssg83
g790
sg76
(lp797
S'debugging'
p798
asbag69
(g90
g71
NtRp799
(dp800
g74
(dp801
g101
g102
ssg83
g790
sg76
(lp802
S':'
asbag69
(g90
g71
NtRp803
(dp804
g74
(dp805
sg83
g790
sg76
(lp806
g69
(g70
g71
NtRp807
(dp808
g74
(dp809
g82
I4
ssg83
g803
sg76
(lp810
g112
asbasbasbag69
(g85
g71
NtRp811
(dp812
g74
(dp813
sg83
g673
sg76
(lp814
g69
(g90
g71
NtRp815
(dp816
g74
(dp817
g94
g95
ssg83
g811
sg76
(lp818
S'gluon_parent'
p819
asbag69
(g90
g71
NtRp820
(dp821
g74
(dp822
g101
g102
ssg83
g811
sg76
(lp823
S':'
asbag69
(g90
g71
NtRp824
(dp825
g74
(dp826
sg83
g811
sg76
(lp827
g69
(g70
g71
NtRp828
(dp829
g74
(dp830
g82
I4
ssg83
g824
sg76
(lp831
S'X:\\procurement\\MATERIEL\\Raw Material\\Data Management\\Custom Applications\\Development\\web2py'
p832
asbasbasbag69
(g85
g71
NtRp833
(dp834
g74
(dp835
sg83
g673
sg76
(lp836
g69
(g90
g71
NtRp837
(dp838
g74
(dp839
g94
g95
ssg83
g833
sg76
(lp840
S'http_accept'
p841
asbag69
(g90
g71
NtRp842
(dp843
g74
(dp844
g101
g102
ssg83
g833
sg76
(lp845
S':'
asbag69
(g90
g71
NtRp846
(dp847
g74
(dp848
sg83
g833
sg76
(lp849
g69
(g70
g71
NtRp850
(dp851
g74
(dp852
g82
I4
ssg83
g846
sg76
(lp853
S'image/gif, image/jpeg, image/pjpeg, image/pjpeg, application/x-shockwave-flash, application/x-ms-application, application/x-ms-xbap, application/vnd.ms-xpsdocument, application/xaml+xml, application/vnd.ms-excel, application/vnd.ms-powerpoint, application/msword, */*'
p854
asbasbasbag69
(g85
g71
NtRp855
(dp856
g74
(dp857
sg83
g673
sg76
(lp858
g69
(g90
g71
NtRp859
(dp860
g74
(dp861
g94
g95
ssg83
g855
sg76
(lp862
S'http_accept_encoding'
p863
asbag69
(g90
g71
NtRp864
(dp865
g74
(dp866
g101
g102
ssg83
g855
sg76
(lp867
S':'
asbag69
(g90
g71
NtRp868
(dp869
g74
(dp870
sg83
g855
sg76
(lp871
g69
(g70
g71
NtRp872
(dp873
g74
(dp874
g82
I4
ssg83
g868
sg76
(lp875
S'gzip, deflate'
p876
asbasbasbag69
(g85
g71
NtRp877
(dp878
g74
(dp879
sg83
g673
sg76
(lp880
g69
(g90
g71
NtRp881
(dp882
g74
(dp883
g94
g95
ssg83
g877
sg76
(lp884
S'http_accept_language'
p885
asbag69
(g90
g71
NtRp886
(dp887
g74
(dp888
g101
g102
ssg83
g877
sg76
(lp889
S':'
asbag69
(g90
g71
NtRp890
(dp891
g74
(dp892
sg83
g877
sg76
(lp893
g69
(g70
g71
NtRp894
(dp895
g74
(dp896
g82
I4
ssg83
g890
sg76
(lp897
S'en-gb'
p898
asbasbasbag69
(g85
g71
NtRp899
(dp900
g74
(dp901
sg83
g673
sg76
(lp902
g69
(g90
g71
NtRp903
(dp904
g74
(dp905
g94
g95
ssg83
g899
sg76
(lp906
S'http_connection'
p907
asbag69
(g90
g71
NtRp908
(dp909
g74
(dp910
g101
g102
ssg83
g899
sg76
(lp911
S':'
asbag69
(g90
g71
NtRp912
(dp913
g74
(dp914
sg83
g899
sg76
(lp915
g69
(g70
g71
NtRp916
(dp917
g74
(dp918
g82
I4
ssg83
g912
sg76
(lp919
S'Keep-Alive'
p920
asbasbasbag69
(g85
g71
NtRp921
(dp922
g74
(dp923
sg83
g673
sg76
(lp924
g69
(g90
g71
NtRp925
(dp926
g74
(dp927
g94
g95
ssg83
g921
sg76
(lp928
S'http_cookie'
p929
asbag69
(g90
g71
NtRp930
(dp931
g74
(dp932
g101
g102
ssg83
g921
sg76
(lp933
S':'
asbag69
(g90
g71
NtRp934
(dp935
g74
(dp936
sg83
g921
sg76
(lp937
g69
(g70
g71
NtRp938
(dp939
g74
(dp940
g82
I4
ssg83
g934
sg76
(lp941
S'session_id_welcome=127.0.0.1-8079cbc1-ab0d-461a-80e3-9893e558a27f; session_id_admin=127.0.0.1-866e404e-c149-4b90-9d68-503003d488cc'
p942
asbasbasbag69
(g85
g71
NtRp943
(dp944
g74
(dp945
sg83
g673
sg76
(lp946
g69
(g90
g71
NtRp947
(dp948
g74
(dp949
g94
g95
ssg83
g943
sg76
(lp950
S'http_host'
p951
asbag69
(g90
g71
NtRp952
(dp953
g74
(dp954
g101
g102
ssg83
g943
sg76
(lp955
S':'
asbag69
(g90
g71
NtRp956
(dp957
g74
(dp958
sg83
g943
sg76
(lp959
g69
(g70
g71
NtRp960
(dp961
g74
(dp962
g82
I4
ssg83
g956
sg76
(lp963
S'127.0.0.1:8000'
p964
asbasbasbag69
(g85
g71
NtRp965
(dp966
g74
(dp967
sg83
g673
sg76
(lp968
g69
(g90
g71
NtRp969
(dp970
g74
(dp971
g94
g95
ssg83
g965
sg76
(lp972
S'http_referer'
p973
asbag69
(g90
g71
NtRp974
(dp975
g74
(dp976
g101
g102
ssg83
g965
sg76
(lp977
S':'
asbag69
(g90
g71
NtRp978
(dp979
g74
(dp980
sg83
g965
sg76
(lp981
g69
(g70
g71
NtRp982
(dp983
g74
(dp984
g82
I4
ssg83
g978
sg76
(lp985
S'http://127.0.0.1:8000/admin/default/edit/welcome/controllers/default.py'
p986
asbasbasbag69
(g85
g71
NtRp987
(dp988
g74
(dp989
sg83
g673
sg76
(lp990
g69
(g90
g71
NtRp991
(dp992
g74
(dp993
g94
g95
ssg83
g987
sg76
(lp994
S'http_user_agent'
p995
asbag69
(g90
g71
NtRp996
(dp997
g74
(dp998
g101
g102
ssg83
g987
sg76
(lp999
S':'
asbag69
(g90
g71
NtRp1000
(dp1001
g74
(dp1002
sg83
g987
sg76
(lp1003
g69
(g70
g71
NtRp1004
(dp1005
g74
(dp1006
g82
I4
ssg83
g1000
sg76
(lp1007
S'Mozilla/4.0 (compatible; MSIE 8.0; Windows NT 5.1; Trident/4.0; .NET CLR 1.1.4322; .NET CLR 2.0.50727; .NET CLR 3.0.4506.2152; .NET CLR 3.5.30729; .NET4.0C; .NET4.0E; InfoPath.3)'
p1008
asbasbasbag69
(g85
g71
NtRp1009
(dp1010
g74
(dp1011
sg83
g673
sg76
(lp1012
g69
(g90
g71
NtRp1013
(dp1014
g74
(dp1015
g94
g95
ssg83
g1009
sg76
(lp1016
S'is_jython'
p1017
asbag69
(g90
g71
NtRp1018
(dp1019
g74
(dp1020
g101
g102
ssg83
g1009
sg76
(lp1021
S':'
asbag69
(g90
g71
NtRp1022
(dp1023
g74
(dp1024
sg83
g1009
sg76
(lp1025
g69
(g70
g71
NtRp1026
(dp1027
g74
(dp1028
g82
I4
ssg83
g1022
sg76
(lp1029
g112
asbasbasbag69
(g85
g71
NtRp1030
(dp1031
g74
(dp1032
sg83
g673
sg76
(lp1033
g69
(g90
g71
NtRp1034
(dp1035
g74
(dp1036
g94
g95
ssg83
g1030
sg76
(lp1037
S'is_pypy'
p1038
asbag69
(g90
g71
NtRp1039
(dp1040
g74
(dp1041
g101
g102
ssg83
g1030
sg76
(lp1042
S':'
asbag69
(g90
g71
NtRp1043
(dp1044
g74
(dp1045
sg83
g1030
sg76
(lp1046
g69
(g70
g71
NtRp1047
(dp1048
g74
(dp1049
g82
I4
ssg83
g1043
sg76
(lp1050
g112
asbasbasbag69
(g85
g71
NtRp1051
(dp1052
g74
(dp1053
sg83
g673
sg76
(lp1054
g69
(g90
g71
NtRp1055
(dp1056
g74
(dp1057
g94
g95
ssg83
g1051
sg76
(lp1058
S'local_hosts'
p1059
asbag69
(g90
g71
NtRp1060
(dp1061
g74
(dp1062
g101
g102
ssg83
g1051
sg76
(lp1063
S':'
asbag69
(g90
g71
NtRp1064
(dp1065
g74
(dp1066
sg83
g1051
sg76
(lp1067
g69
(g70
g71
NtRp1068
(dp1069
g74
(dp1070
g82
I4
ssg83
g1064
sg76
(lp1071
g69
(g78
g71
NtRp1072
(dp1073
g74
(dp1074
g82
I3
ssg83
Nsg76
(lp1075
g69
(g85
g71
NtRp1076
(dp1077
g74
(dp1078
sg83
g1072
sg76
(lp1079
g69
(g90
g71
NtRp1080
(dp1081
g74
(dp1082
sg83
g1076
sg76
(lp1083
g69
(g70
g71
NtRp1084
(dp1085
g74
(dp1086
g82
I3
ssg83
g1080
sg76
(lp1087
S'127.0.0.1'
p1088
asbasbasbag69
(g85
g71
NtRp1089
(dp1090
g74
(dp1091
sg83
g1072
sg76
(lp1092
g69
(g90
g71
NtRp1093
(dp1094
g74
(dp1095
sg83
g1089
sg76
(lp1096
g69
(g70
g71
NtRp1097
(dp1098
g74
(dp1099
g82
I3
ssg83
g1093
sg76
(lp1100
S'::ffff:127.0.0.1'
p1101
asbasbasbag69
(g85
g71
NtRp1102
(dp1103
g74
(dp1104
sg83
g1072
sg76
(lp1105
g69
(g90
g71
NtRp1106
(dp1107
g74
(dp1108
sg83
g1102
sg76
(lp1109
g69
(g70
g71
NtRp1110
(dp1111
g74
(dp1112
g82
I3
ssg83
g1106
sg76
(lp1113
S'GLKLAG235327'
p1114
asbasbasbag69
(g85
g71
NtRp1115
(dp1116
g74
(dp1117
sg83
g1072
sg76
(lp1118
g69
(g90
g71
NtRp1119
(dp1120
g74
(dp1121
sg83
g1115
sg76
(lp1122
g69
(g70
g71
NtRp1123
(dp1124
g74
(dp1125
g82
I3
ssg83
g1119
sg76
(lp1126
S'GLKLAG235327'
p1127
asbasbasbag69
(g85
g71
NtRp1128
(dp1129
g74
(dp1130
sg83
g1072
sg76
(lp1131
g69
(g90
g71
NtRp1132
(dp1133
g74
(dp1134
sg83
g1128
sg76
(lp1135
g69
(g70
g71
NtRp1136
(dp1137
g74
(dp1138
g82
I3
ssg83
g1132
sg76
(lp1139
S'172.31.249.32'
p1140
asbasbasbasbasbasbasbag69
(g85
g71
NtRp1141
(dp1142
g74
(dp1143
sg83
g673
sg76
(lp1144
g69
(g90
g71
NtRp1145
(dp1146
g74
(dp1147
g94
g95
ssg83
g1141
sg76
(lp1148
S'path_info'
p1149
asbag69
(g90
g71
NtRp1150
(dp1151
g74
(dp1152
g101
g102
ssg83
g1141
sg76
(lp1153
S':'
asbag69
(g90
g71
NtRp1154
(dp1155
g74
(dp1156
sg83
g1141
sg76
(lp1157
g69
(g70
g71
NtRp1158
(dp1159
g74
(dp1160
g82
I4
ssg83
g1154
sg76
(lp1161
S'/welcome/default/index'
p1162
asbasbasbag69
(g85
g71
NtRp1163
(dp1164
g74
(dp1165
sg83
g673
sg76
(lp1166
g69
(g90
g71
NtRp1167
(dp1168
g74
(dp1169
g94
g95
ssg83
g1163
sg76
(lp1170
S'query_string'
p1171
asbag69
(g90
g71
NtRp1172
(dp1173
g74
(dp1174
g101
g102
ssg83
g1163
sg76
(lp1175
S':'
asbag69
(g90
g71
NtRp1176
(dp1177
g74
(dp1178
sg83
g1163
sg76
(lp1179
g69
(g70
g71
NtRp1180
(dp1181
g74
(dp1182
g82
I4
ssg83
g1176
sg76
(lp1183
S''
asbasbasbag69
(g85
g71
NtRp1184
(dp1185
g74
(dp1186
sg83
g673
sg76
(lp1187
g69
(g90
g71
NtRp1188
(dp1189
g74
(dp1190
g94
g95
ssg83
g1184
sg76
(lp1191
S'remote_addr'
p1192
asbag69
(g90
g71
NtRp1193
(dp1194
g74
(dp1195
g101
g102
ssg83
g1184
sg76
(lp1196
S':'
asbag69
(g90
g71
NtRp1197
(dp1198
g74
(dp1199
sg83
g1184
sg76
(lp1200
g69
(g70
g71
NtRp1201
(dp1202
g74
(dp1203
g82
I4
ssg83
g1197
sg76
(lp1204
g224
asbasbasbag69
(g85
g71
NtRp1205
(dp1206
g74
(dp1207
sg83
g673
sg76
(lp1208
g69
(g90
g71
NtRp1209
(dp1210
g74
(dp1211
g94
g95
ssg83
g1205
sg76
(lp1212
S'remote_port'
p1213
asbag69
(g90
g71
NtRp1214
(dp1215
g74
(dp1216
g101
g102
ssg83
g1205
sg76
(lp1217
S':'
asbag69
(g90
g71
NtRp1218
(dp1219
g74
(dp1220
sg83
g1205
sg76
(lp1221
g69
(g70
g71
NtRp1222
(dp1223
g74
(dp1224
g82
I4
ssg83
g1218
sg76
(lp1225
S'1800'
p1226
asbasbasbag69
(g85
g71
NtRp1227
(dp1228
g74
(dp1229
sg83
g673
sg76
(lp1230
g69
(g90
g71
NtRp1231
(dp1232
g74
(dp1233
g94
g95
ssg83
g1227
sg76
(lp1234
S'request_method'
p1235
asbag69
(g90
g71
NtRp1236
(dp1237
g74
(dp1238
g101
g102
ssg83
g1227
sg76
(lp1239
S':'
asbag69
(g90
g71
NtRp1240
(dp1241
g74
(dp1242
sg83
g1227
sg76
(lp1243
g69
(g70
g71
NtRp1244
(dp1245
g74
(dp1246
g82
I4
ssg83
g1240
sg76
(lp1247
S'GET'
p1248
asbasbasbag69
(g85
g71
NtRp1249
(dp1250
g74
(dp1251
sg83
g673
sg76
(lp1252
g69
(g90
g71
NtRp1253
(dp1254
g74
(dp1255
g94
g95
ssg83
g1249
sg76
(lp1256
S'request_uri'
p1257
asbag69
(g90
g71
NtRp1258
(dp1259
g74
(dp1260
g101
g102
ssg83
g1249
sg76
(lp1261
S':'
asbag69
(g90
g71
NtRp1262
(dp1263
g74
(dp1264
sg83
g1249
sg76
(lp1265
g69
(g70
g71
NtRp1266
(dp1267
g74
(dp1268
g82
I4
ssg83
g1262
sg76
(lp1269
g1162
asbasbasbag69
(g85
g71
NtRp1270
(dp1271
g74
(dp1272
sg83
g673
sg76
(lp1273
g69
(g90
g71
NtRp1274
(dp1275
g74
(dp1276
g94
g95
ssg83
g1270
sg76
(lp1277
S'script_name'
p1278
asbag69
(g90
g71
NtRp1279
(dp1280
g74
(dp1281
g101
g102
ssg83
g1270
sg76
(lp1282
S':'
asbag69
(g90
g71
NtRp1283
(dp1284
g74
(dp1285
sg83
g1270
sg76
(lp1286
g69
(g70
g71
NtRp1287
(dp1288
g74
(dp1289
g82
I4
ssg83
g1283
sg76
(lp1290
S''
asbasbasbag69
(g85
g71
NtRp1291
(dp1292
g74
(dp1293
sg83
g673
sg76
(lp1294
g69
(g90
g71
NtRp1295
(dp1296
g74
(dp1297
g94
g95
ssg83
g1291
sg76
(lp1298
S'server_name'
p1299
asbag69
(g90
g71
NtRp1300
(dp1301
g74
(dp1302
g101
g102
ssg83
g1291
sg76
(lp1303
S':'
asbag69
(g90
g71
NtRp1304
(dp1305
g74
(dp1306
sg83
g1291
sg76
(lp1307
g69
(g70
g71
NtRp1308
(dp1309
g74
(dp1310
g82
I4
ssg83
g1304
sg76
(lp1311
g1127
asbasbasbag69
(g85
g71
NtRp1312
(dp1313
g74
(dp1314
sg83
g673
sg76
(lp1315
g69
(g90
g71
NtRp1316
(dp1317
g74
(dp1318
g94
g95
ssg83
g1312
sg76
(lp1319
S'server_port'
p1320
asbag69
(g90
g71
NtRp1321
(dp1322
g74
(dp1323
g101
g102
ssg83
g1312
sg76
(lp1324
S':'
asbag69
(g90
g71
NtRp1325
(dp1326
g74
(dp1327
sg83
g1312
sg76
(lp1328
g69
(g70
g71
NtRp1329
(dp1330
g74
(dp1331
g82
I4
ssg83
g1325
sg76
(lp1332
S'8000'
p1333
asbasbasbag69
(g85
g71
NtRp1334
(dp1335
g74
(dp1336
sg83
g673
sg76
(lp1337
g69
(g90
g71
NtRp1338
(dp1339
g74
(dp1340
g94
g95
ssg83
g1334
sg76
(lp1341
S'server_protocol'
p1342
asbag69
(g90
g71
NtRp1343
(dp1344
g74
(dp1345
g101
g102
ssg83
g1334
sg76
(lp1346
S':'
asbag69
(g90
g71
NtRp1347
(dp1348
g74
(dp1349
sg83
g1334
sg76
(lp1350
g69
(g70
g71
NtRp1351
(dp1352
g74
(dp1353
g82
I4
ssg83
g1347
sg76
(lp1354
S'HTTP/1.1'
p1355
asbasbasbag69
(g85
g71
NtRp1356
(dp1357
g74
(dp1358
sg83
g673
sg76
(lp1359
g69
(g90
g71
NtRp1360
(dp1361
g74
(dp1362
g94
g95
ssg83
g1356
sg76
(lp1363
S'server_software'
p1364
asbag69
(g90
g71
NtRp1365
(dp1366
g74
(dp1367
g101
g102
ssg83
g1356
sg76
(lp1368
S':'
asbag69
(g90
g71
NtRp1369
(dp1370
g74
(dp1371
sg83
g1356
sg76
(lp1372
g69
(g70
g71
NtRp1373
(dp1374
g74
(dp1375
g82
I4
ssg83
g1369
sg76
(lp1376
S'Rocket 1.2.5'
p1377
asbasbasbag69
(g85
g71
NtRp1378
(dp1379
g74
(dp1380
sg83
g673
sg76
(lp1381
g69
(g90
g71
NtRp1382
(dp1383
g74
(dp1384
g94
g95
ssg83
g1378
sg76
(lp1385
S'web2py_path'
p1386
asbag69
(g90
g71
NtRp1387
(dp1388
g74
(dp1389
g101
g102
ssg83
g1378
sg76
(lp1390
S':'
asbag69
(g90
g71
NtRp1391
(dp1392
g74
(dp1393
sg83
g1378
sg76
(lp1394
g69
(g70
g71
NtRp1395
(dp1396
g74
(dp1397
g82
I4
ssg83
g1391
sg76
(lp1398
g720
asbasbasbag69
(g85
g71
NtRp1399
(dp1400
g74
(dp1401
sg83
g673
sg76
(lp1402
g69
(g90
g71
NtRp1403
(dp1404
g74
(dp1405
g94
g95
ssg83
g1399
sg76
(lp1406
S'web2py_version'
p1407
asbag69
(g90
g71
NtRp1408
(dp1409
g74
(dp1410
g101
g102
ssg83
g1399
sg76
(lp1411
S':'
asbag69
(g90
g71
NtRp1412
(dp1413
g74
(dp1414
sg83
g1399
sg76
(lp1415
g69
(g70
g71
NtRp1416
(dp1417
g74
(dp1418
g82
I4
ssg83
g1412
sg76
(lp1419
g69
(g78
g71
NtRp1420
(dp1421
g74
(dp1422
g82
I3
ssg83
Nsg76
(lp1423
g69
(g85
g71
NtRp1424
(dp1425
g74
(dp1426
sg83
g1420
sg76
(lp1427
g69
(g90
g71
NtRp1428
(dp1429
g74
(dp1430
sg83
g1424
sg76
(lp1431
g69
(g70
g71
NtRp1432
(dp1433
g74
(dp1434
g82
I3
ssg83
g1428
sg76
(lp1435
S'2'
asbasbasbag69
(g85
g71
NtRp1436
(dp1437
g74
(dp1438
sg83
g1420
sg76
(lp1439
g69
(g90
g71
NtRp1440
(dp1441
g74
(dp1442
sg83
g1436
sg76
(lp1443
g69
(g70
g71
NtRp1444
(dp1445
g74
(dp1446
g82
I3
ssg83
g1440
sg76
(lp1447
S'2'
asbasbasbag69
(g85
g71
NtRp1448
(dp1449
g74
(dp1450
sg83
g1420
sg76
(lp1451
g69
(g90
g71
NtRp1452
(dp1453
g74
(dp1454
sg83
g1448
sg76
(lp1455
g69
(g70
g71
NtRp1456
(dp1457
g74
(dp1458
g82
I3
ssg83
g1452
sg76
(lp1459
S'1'
asbasbasbag69
(g85
g71
NtRp1460
(dp1461
g74
(dp1462
sg83
g1420
sg76
(lp1463
g69
(g90
g71
NtRp1464
(dp1465
g74
(dp1466
sg83
g1460
sg76
(lp1467
g69
(g70
g71
NtRp1468
(dp1469
g74
(dp1470
g82
I3
ssg83
g1464
sg76
(lp1471
S'datetime.datetime(2012, 10, 21, 16, 57, 4)'
p1472
asbasbasbag69
(g85
g71
NtRp1473
(dp1474
g74
(dp1475
sg83
g1420
sg76
(lp1476
g69
(g90
g71
NtRp1477
(dp1478
g74
(dp1479
sg83
g1473
sg76
(lp1480
g69
(g70
g71
NtRp1481
(dp1482
g74
(dp1483
g82
I3
ssg83
g1477
sg76
(lp1484
S'stable'
p1485
asbasbasbasbasbasbasbag69
(g85
g71
NtRp1486
(dp1487
g74
(dp1488
sg83
g673
sg76
(lp1489
g69
(g90
g71
NtRp1490
(dp1491
g74
(dp1492
g94
g95
ssg83
g1486
sg76
(lp1493
S'wsgi_errors'
p1494
asbag69
(g90
g71
NtRp1495
(dp1496
g74
(dp1497
g101
g102
ssg83
g1486
sg76
(lp1498
S':'
asbag69
(g90
g71
NtRp1499
(dp1500
g74
(dp1501
sg83
g1486
sg76
(lp1502
g69
(g70
g71
NtRp1503
(dp1504
g74
(dp1505
g82
I4
ssg83
g1499
sg76
(lp1506
S"<open file '<stderr>', mode 'w' at 0x00A850D0>"
p1507
asbasbasbag69
(g85
g71
NtRp1508
(dp1509
g74
(dp1510
sg83
g673
sg76
(lp1511
g69
(g90
g71
NtRp1512
(dp1513
g74
(dp1514
g94
g95
ssg83
g1508
sg76
(lp1515
S'wsgi_file_wrapper'
p1516
asbag69
(g90
g71
NtRp1517
(dp1518
g74
(dp1519
g101
g102
ssg83
g1508
sg76
(lp1520
S':'
asbag69
(g90
g71
NtRp1521
(dp1522
g74
(dp1523
sg83
g1508
sg76
(lp1524
g69
(g70
g71
NtRp1525
(dp1526
g74
(dp1527
g82
I4
ssg83
g1521
sg76
(lp1528
S'<class wsgiref.util.FileWrapper at 0x016B7068>'
p1529
asbasbasbag69
(g85
g71
NtRp1530
(dp1531
g74
(dp1532
sg83
g673
sg76
(lp1533
g69
(g90
g71
NtRp1534
(dp1535
g74
(dp1536
g94
g95
ssg83
g1530
sg76
(lp1537
S'wsgi_input'
p1538
asbag69
(g90
g71
NtRp1539
(dp1540
g74
(dp1541
g101
g102
ssg83
g1530
sg76
(lp1542
S':'
asbag69
(g90
g71
NtRp1543
(dp1544
g74
(dp1545
sg83
g1530
sg76
(lp1546
g69
(g70
g71
NtRp1547
(dp1548
g74
(dp1549
g82
I4
ssg83
g1543
sg76
(lp1550
S'<socket._fileobject object at 0x053BA1B0>'
p1551
asbasbasbag69
(g85
g71
NtRp1552
(dp1553
g74
(dp1554
sg83
g673
sg76
(lp1555
g69
(g90
g71
NtRp1556
(dp1557
g74
(dp1558
g94
g95
ssg83
g1552
sg76
(lp1559
S'wsgi_multiprocess'
p1560
asbag69
(g90
g71
NtRp1561
(dp1562
g74
(dp1563
g101
g102
ssg83
g1552
sg76
(lp1564
S':'
asbag69
(g90
g71
NtRp1565
(dp1566
g74
(dp1567
sg83
g1552
sg76
(lp1568
g69
(g70
g71
NtRp1569
(dp1570
g74
(dp1571
g82
I4
ssg83
g1565
sg76
(lp1572
g112
asbasbasbag69
(g85
g71
NtRp1573
(dp1574
g74
(dp1575
sg83
g673
sg76
(lp1576
g69
(g90
g71
NtRp1577
(dp1578
g74
(dp1579
g94
g95
ssg83
g1573
sg76
(lp1580
S'wsgi_multithread'
p1581
asbag69
(g90
g71
NtRp1582
(dp1583
g74
(dp1584
g101
g102
ssg83
g1573
sg76
(lp1585
S':'
asbag69
(g90
g71
NtRp1586
(dp1587
g74
(dp1588
sg83
g1573
sg76
(lp1589
g69
(g70
g71
NtRp1590
(dp1591
g74
(dp1592
g82
I4
ssg83
g1586
sg76
(lp1593
S'True'
p1594
asbasbasbag69
(g85
g71
NtRp1595
(dp1596
g74
(dp1597
sg83
g673
sg76
(lp1598
g69
(g90
g71
NtRp1599
(dp1600
g74
(dp1601
g94
g95
ssg83
g1595
sg76
(lp1602
S'wsgi_run_once'
p1603
asbag69
(g90
g71
NtRp1604
(dp1605
g74
(dp1606
g101
g102
ssg83
g1595
sg76
(lp1607
S':'
asbag69
(g90
g71
NtRp1608
(dp1609
g74
(dp1610
sg83
g1595
sg76
(lp1611
g69
(g70
g71
NtRp1612
(dp1613
g74
(dp1614
g82
I4
ssg83
g1608
sg76
(lp1615
g112
asbasbasbag69
(g85
g71
NtRp1616
(dp1617
g74
(dp1618
sg83
g673
sg76
(lp1619
g69
(g90
g71
NtRp1620
(dp1621
g74
(dp1622
g94
g95
ssg83
g1616
sg76
(lp1623
S'wsgi_url_scheme'
p1624
asbag69
(g90
g71
NtRp1625
(dp1626
g74
(dp1627
g101
g102
ssg83
g1616
sg76
(lp1628
S':'
asbag69
(g90
g71
NtRp1629
(dp1630
g74
(dp1631
sg83
g1616
sg76
(lp1632
g69
(g70
g71
NtRp1633
(dp1634
g74
(dp1635
g82
I4
ssg83
g1629
sg76
(lp1636
S'http'
p1637
asbasbasbag69
(g85
g71
NtRp1638
(dp1639
g74
(dp1640
sg83
g673
sg76
(lp1641
g69
(g90
g71
NtRp1642
(dp1643
g74
(dp1644
g94
g95
ssg83
g1638
sg76
(lp1645
S'wsgi_version'
p1646
asbag69
(g90
g71
NtRp1647
(dp1648
g74
(dp1649
g101
g102
ssg83
g1638
sg76
(lp1650
S':'
asbag69
(g90
g71
NtRp1651
(dp1652
g74
(dp1653
sg83
g1638
sg76
(lp1654
g69
(g70
g71
NtRp1655
(dp1656
g74
(dp1657
g82
I4
ssg83
g1651
sg76
(lp1658
g69
(g78
g71
NtRp1659
(dp1660
g74
(dp1661
g82
I3
ssg83
Nsg76
(lp1662
g69
(g85
g71
NtRp1663
(dp1664
g74
(dp1665
sg83
g1659
sg76
(lp1666
g69
(g90
g71
NtRp1667
(dp1668
g74
(dp1669
sg83
g1663
sg76
(lp1670
g69
(g70
g71
NtRp1671
(dp1672
g74
(dp1673
g82
I3
ssg83
g1667
sg76
(lp1674
S'1'
asbasbasbag69
(g85
g71
NtRp1675
(dp1676
g74
(dp1677
sg83
g1659
sg76
(lp1678
g69
(g90
g71
NtRp1679
(dp1680
g74
(dp1681
sg83
g1675
sg76
(lp1682
g69
(g70
g71
NtRp1683
(dp1684
g74
(dp1685
g82
I3
ssg83
g1679
sg76
(lp1686
S'0'
asbasbasbasbasbasbasbasbasbasbasbag69
(g85
g71
NtRp1687
(dp1688
g74
(dp1689
sg83
g79
sg76
(lp1690
g69
(g90
g71
NtRp1691
(dp1692
g74
(dp1693
g94
g95
ssg83
g1687
sg76
(lp1694
S'extension'
p1695
asbag69
(g90
g71
NtRp1696
(dp1697
g74
(dp1698
g101
g102
ssg83
g1687
sg76
(lp1699
S':'
asbag69
(g90
g71
NtRp1700
(dp1701
g74
(dp1702
sg83
g1687
sg76
(lp1703
g69
(g70
g71
NtRp1704
(dp1705
g74
(dp1706
g82
I5
ssg83
g1700
sg76
(lp1707
S'html'
p1708
asbasbasbag69
(g85
g71
NtRp1709
(dp1710
g74
(dp1711
sg83
g79
sg76
(lp1712
g69
(g90
g71
NtRp1713
(dp1714
g74
(dp1715
g94
g95
ssg83
g1709
sg76
(lp1716
S'folder'
p1717
asbag69
(g90
g71
NtRp1718
(dp1719
g74
(dp1720
g101
g102
ssg83
g1709
sg76
(lp1721
S':'
asbag69
(g90
g71
NtRp1722
(dp1723
g74
(dp1724
sg83
g1709
sg76
(lp1725
g69
(g70
g71
NtRp1726
(dp1727
g74
(dp1728
g82
I5
ssg83
g1722
sg76
(lp1729
S'X:\\procurement\\MATERIEL\\Raw Material\\Data Management\\Custom Applications\\Development\\web2py\\applications\\welcome\\'
p1730
asbasbasbag69
(g85
g71
NtRp1731
(dp1732
g74
(dp1733
sg83
g79
sg76
(lp1734
g69
(g90
g71
NtRp1735
(dp1736
g74
(dp1737
g94
g95
ssg83
g1731
sg76
(lp1738
S'function'
p1739
asbag69
(g90
g71
NtRp1740
(dp1741
g74
(dp1742
g101
g102
ssg83
g1731
sg76
(lp1743
S':'
asbag69
(g90
g71
NtRp1744
(dp1745
g74
(dp1746
sg83
g1731
sg76
(lp1747
g69
(g70
g71
NtRp1748
(dp1749
g74
(dp1750
g82
I5
ssg83
g1744
sg76
(lp1751
S'index'
p1752
asbasbasbag69
(g85
g71
NtRp1753
(dp1754
g74
(dp1755
sg83
g79
sg76
(lp1756
g69
(g90
g71
NtRp1757
(dp1758
g74
(dp1759
g94
g95
ssg83
g1753
sg76
(lp1760
S'get_vars'
p1761
asbag69
(g90
g71
NtRp1762
(dp1763
g74
(dp1764
g101
g102
ssg83
g1753
sg76
(lp1765
S':'
asbag69
(g90
g71
NtRp1766
(dp1767
g74
(dp1768
sg83
g1753
sg76
(lp1769
g69
(g70
g71
NtRp1770
(dp1771
g74
(dp1772
g82
I5
ssg83
g1766
sg76
(lp1773
g69
(g78
g71
NtRp1774
(dp1775
g74
(dp1776
g82
I4
ssg83
Nsg76
(lp1777
sbasbasbasbag69
(g85
g71
NtRp1778
(dp1779
g74
(dp1780
sg83
g79
sg76
(lp1781
g69
(g90
g71
NtRp1782
(dp1783
g74
(dp1784
g94
g95
ssg83
g1778
sg76
(lp1785
S'global_settings'
p1786
asbag69
(g90
g71
NtRp1787
(dp1788
g74
(dp1789
g101
g102
ssg83
g1778
sg76
(lp1790
S':'
asbag69
(g90
g71
NtRp1791
(dp1792
g74
(dp1793
sg83
g1778
sg76
(lp1794
g69
(g70
g71
NtRp1795
(dp1796
g74
(dp1797
g82
I5
ssg83
g1791
sg76
(lp1798
g69
(g78
g71
NtRp1799
(dp1800
g74
(dp1801
g82
I4
ssg83
Nsg76
(lp1802
g69
(g85
g71
NtRp1803
(dp1804
g74
(dp1805
sg83
g1799
sg76
(lp1806
g69
(g90
g71
NtRp1807
(dp1808
g74
(dp1809
g94
g95
ssg83
g1803
sg76
(lp1810
g685
asbag69
(g90
g71
NtRp1811
(dp1812
g74
(dp1813
g101
g102
ssg83
g1803
sg76
(lp1814
S':'
asbag69
(g90
g71
NtRp1815
(dp1816
g74
(dp1817
sg83
g1803
sg76
(lp1818
g69
(g70
g71
NtRp1819
(dp1820
g74
(dp1821
g82
I4
ssg83
g1815
sg76
(lp1822
S"set(['X:\\\\procurement\\\\MATERIEL\\\\Raw Material\\\\Data Management\\\\Custom Applications\\\\Development\\\\web2py\\\\applications\\\\admin\\\\', 'X:\\\\procurement\\\\MATERIEL\\\\Raw Material\\\\Data Management\\\\Custom Applications\\\\Development\\\\web2py\\\\applications\\\\welcome\\\\'])"
p1823
asbasbasbag69
(g85
g71
NtRp1824
(dp1825
g74
(dp1826
sg83
g1799
sg76
(lp1827
g69
(g90
g71
NtRp1828
(dp1829
g74
(dp1830
g94
g95
ssg83
g1824
sg76
(lp1831
g707
asbag69
(g90
g71
NtRp1832
(dp1833
g74
(dp1834
g101
g102
ssg83
g1824
sg76
(lp1835
S':'
asbag69
(g90
g71
NtRp1836
(dp1837
g74
(dp1838
sg83
g1824
sg76
(lp1839
g69
(g70
g71
NtRp1840
(dp1841
g74
(dp1842
g82
I4
ssg83
g1836
sg76
(lp1843
g720
asbasbasbag69
(g85
g71
NtRp1844
(dp1845
g74
(dp1846
sg83
g1799
sg76
(lp1847
g69
(g90
g71
NtRp1848
(dp1849
g74
(dp1850
g94
g95
ssg83
g1844
sg76
(lp1851
g729
asbag69
(g90
g71
NtRp1852
(dp1853
g74
(dp1854
g101
g102
ssg83
g1844
sg76
(lp1855
S':'
asbag69
(g90
g71
NtRp1856
(dp1857
g74
(dp1858
sg83
g1844
sg76
(lp1859
g69
(g70
g71
NtRp1860
(dp1861
g74
(dp1862
g82
I4
ssg83
g1856
sg76
(lp1863
g69
(g78
g71
NtRp1864
(dp1865
g74
(dp1866
g82
I3
ssg83
Nsg76
(lp1867
sbasbasbasbag69
(g85
g71
NtRp1868
(dp1869
g74
(dp1870
sg83
g1799
sg76
(lp1871
g69
(g90
g71
NtRp1872
(dp1873
g74
(dp1874
g94
g95
ssg83
g1868
sg76
(lp1875
g754
asbag69
(g90
g71
NtRp1876
(dp1877
g74
(dp1878
g101
g102
ssg83
g1868
sg76
(lp1879
S':'
asbag69
(g90
g71
NtRp1880
(dp1881
g74
(dp1882
sg83
g1868
sg76
(lp1883
g69
(g70
g71
NtRp1884
(dp1885
g74
(dp1886
g82
I4
ssg83
g1880
sg76
(lp1887
S"<Values at 0x17def80: {'verbose': False, 'ip': '127.0.0.1', 'with_scheduler': False, 'ips': ['172.31.249.32'], 'shutdown_timeout': 5, 'taskbar': False, 'port': 8000, 'maxthreads': None, 'softcron': False, 'server_name': 'GLKLAG235327', 'bpython': False, 'nogui': False, 'pid_filename': 'httpserver.pid', 'extcron': False, 'runcron': False, 'run_system_tests': False, 'test': None, 'folder': 'X:\\\\procurement\\\\MATERIEL\\\\Raw Material\\\\Data Management\\\\Custom Applications\\\\Development\\\\web2py', 'config': '', 'import_models': False, 'winservice': '', 'shell': None, 'run': '', 'log_filename': 'httpserver.log', 'debuglevel': 30, 'args': [''], 'socket_timeout': 5, 'ssl_ca_certificate': None, 'scheduler': None, 'profiler_filename': None, 'ssl_private_key': '', 'scheduler_groups': None, 'password': '<ask>', 'request_queue_size': 5, 'ssl_certificate': '', 'cronjob': False, 'numthreads': None, 'quiet': False, 'interfaces': None, 'minthreads': None, 'timeout': 10, 'plain': False, 'nobanner': False}>"
p1888
asbasbasbag69
(g85
g71
NtRp1889
(dp1890
g74
(dp1891
sg83
g1799
sg76
(lp1892
g69
(g90
g71
NtRp1893
(dp1894
g74
(dp1895
g94
g95
ssg83
g1889
sg76
(lp1896
g776
asbag69
(g90
g71
NtRp1897
(dp1898
g74
(dp1899
g101
g102
ssg83
g1889
sg76
(lp1900
S':'
asbag69
(g90
g71
NtRp1901
(dp1902
g74
(dp1903
sg83
g1889
sg76
(lp1904
g69
(g70
g71
NtRp1905
(dp1906
g74
(dp1907
g82
I4
ssg83
g1901
sg76
(lp1908
S'set([])'
p1909
asbasbasbag69
(g85
g71
NtRp1910
(dp1911
g74
(dp1912
sg83
g1799
sg76
(lp1913
g69
(g90
g71
NtRp1914
(dp1915
g74
(dp1916
g94
g95
ssg83
g1910
sg76
(lp1917
g798
asbag69
(g90
g71
NtRp1918
(dp1919
g74
(dp1920
g101
g102
ssg83
g1910
sg76
(lp1921
S':'
asbag69
(g90
g71
NtRp1922
(dp1923
g74
(dp1924
sg83
g1910
sg76
(lp1925
g69
(g70
g71
NtRp1926
(dp1927
g74
(dp1928
g82
I4
ssg83
g1922
sg76
(lp1929
g112
asbasbasbag69
(g85
g71
NtRp1930
(dp1931
g74
(dp1932
sg83
g1799
sg76
(lp1933
g69
(g90
g71
NtRp1934
(dp1935
g74
(dp1936
g94
g95
ssg83
g1930
sg76
(lp1937
g819
asbag69
(g90
g71
NtRp1938
(dp1939
g74
(dp1940
g101
g102
ssg83
g1930
sg76
(lp1941
S':'
asbag69
(g90
g71
NtRp1942
(dp1943
g74
(dp1944
sg83
g1930
sg76
(lp1945
g69
(g70
g71
NtRp1946
(dp1947
g74
(dp1948
g82
I4
ssg83
g1942
sg76
(lp1949
g832
asbasbasbag69
(g85
g71
NtRp1950
(dp1951
g74
(dp1952
sg83
g1799
sg76
(lp1953
g69
(g90
g71
NtRp1954
(dp1955
g74
(dp1956
g94
g95
ssg83
g1950
sg76
(lp1957
g1017
asbag69
(g90
g71
NtRp1958
(dp1959
g74
(dp1960
g101
g102
ssg83
g1950
sg76
(lp1961
S':'
asbag69
(g90
g71
NtRp1962
(dp1963
g74
(dp1964
sg83
g1950
sg76
(lp1965
g69
(g70
g71
NtRp1966
(dp1967
g74
(dp1968
g82
I4
ssg83
g1962
sg76
(lp1969
g112
asbasbasbag69
(g85
g71
NtRp1970
(dp1971
g74
(dp1972
sg83
g1799
sg76
(lp1973
g69
(g90
g71
NtRp1974
(dp1975
g74
(dp1976
g94
g95
ssg83
g1970
sg76
(lp1977
g1038
asbag69
(g90
g71
NtRp1978
(dp1979
g74
(dp1980
g101
g102
ssg83
g1970
sg76
(lp1981
S':'
asbag69
(g90
g71
NtRp1982
(dp1983
g74
(dp1984
sg83
g1970
sg76
(lp1985
g69
(g70
g71
NtRp1986
(dp1987
g74
(dp1988
g82
I4
ssg83
g1982
sg76
(lp1989
g112
asbasbasbag69
(g85
g71
NtRp1990
(dp1991
g74
(dp1992
sg83
g1799
sg76
(lp1993
g69
(g90
g71
NtRp1994
(dp1995
g74
(dp1996
g94
g95
ssg83
g1990
sg76
(lp1997
g1059
asbag69
(g90
g71
NtRp1998
(dp1999
g74
(dp2000
g101
g102
ssg83
g1990
sg76
(lp2001
S':'
asbag69
(g90
g71
NtRp2002
(dp2003
g74
(dp2004
sg83
g1990
sg76
(lp2005
g69
(g70
g71
NtRp2006
(dp2007
g74
(dp2008
g82
I4
ssg83
g2002
sg76
(lp2009
g69
(g78
g71
NtRp2010
(dp2011
g74
(dp2012
g82
I3
ssg83
Nsg76
(lp2013
g69
(g85
g71
NtRp2014
(dp2015
g74
(dp2016
sg83
g2010
sg76
(lp2017
g69
(g90
g71
NtRp2018
(dp2019
g74
(dp2020
sg83
g2014
sg76
(lp2021
g69
(g70
g71
NtRp2022
(dp2023
g74
(dp2024
g82
I3
ssg83
g2018
sg76
(lp2025
g1088
asbasbasbag69
(g85
g71
NtRp2026
(dp2027
g74
(dp2028
sg83
g2010
sg76
(lp2029
g69
(g90
g71
NtRp2030
(dp2031
g74
(dp2032
sg83
g2026
sg76
(lp2033
g69
(g70
g71
NtRp2034
(dp2035
g74
(dp2036
g82
I3
ssg83
g2030
sg76
(lp2037
g1101
asbasbasbag69
(g85
g71
NtRp2038
(dp2039
g74
(dp2040
sg83
g2010
sg76
(lp2041
g69
(g90
g71
NtRp2042
(dp2043
g74
(dp2044
sg83
g2038
sg76
(lp2045
g69
(g70
g71
NtRp2046
(dp2047
g74
(dp2048
g82
I3
ssg83
g2042
sg76
(lp2049
g1114
asbasbasbag69
(g85
g71
NtRp2050
(dp2051
g74
(dp2052
sg83
g2010
sg76
(lp2053
g69
(g90
g71
NtRp2054
(dp2055
g74
(dp2056
sg83
g2050
sg76
(lp2057
g69
(g70
g71
NtRp2058
(dp2059
g74
(dp2060
g82
I3
ssg83
g2054
sg76
(lp2061
g1127
asbasbasbag69
(g85
g71
NtRp2062
(dp2063
g74
(dp2064
sg83
g2010
sg76
(lp2065
g69
(g90
g71
NtRp2066
(dp2067
g74
(dp2068
sg83
g2062
sg76
(lp2069
g69
(g70
g71
NtRp2070
(dp2071
g74
(dp2072
g82
I3
ssg83
g2066
sg76
(lp2073
g1140
asbasbasbasbasbasbasbag69
(g85
g71
NtRp2074
(dp2075
g74
(dp2076
sg83
g1799
sg76
(lp2077
g69
(g90
g71
NtRp2078
(dp2079
g74
(dp2080
g94
g95
ssg83
g2074
sg76
(lp2081
g1407
asbag69
(g90
g71
NtRp2082
(dp2083
g74
(dp2084
g101
g102
ssg83
g2074
sg76
(lp2085
S':'
asbag69
(g90
g71
NtRp2086
(dp2087
g74
(dp2088
sg83
g2074
sg76
(lp2089
g69
(g70
g71
NtRp2090
(dp2091
g74
(dp2092
g82
I4
ssg83
g2086
sg76
(lp2093
g69
(g78
g71
NtRp2094
(dp2095
g74
(dp2096
g82
I3
ssg83
Nsg76
(lp2097
g69
(g85
g71
NtRp2098
(dp2099
g74
(dp2100
sg83
g2094
sg76
(lp2101
g69
(g90
g71
NtRp2102
(dp2103
g74
(dp2104
sg83
g2098
sg76
(lp2105
g69
(g70
g71
NtRp2106
(dp2107
g74
(dp2108
g82
I3
ssg83
g2102
sg76
(lp2109
S'2'
asbasbasbag69
(g85
g71
NtRp2110
(dp2111
g74
(dp2112
sg83
g2094
sg76
(lp2113
g69
(g90
g71
NtRp2114
(dp2115
g74
(dp2116
sg83
g2110
sg76
(lp2117
g69
(g70
g71
NtRp2118
(dp2119
g74
(dp2120
g82
I3
ssg83
g2114
sg76
(lp2121
S'2'
asbasbasbag69
(g85
g71
NtRp2122
(dp2123
g74
(dp2124
sg83
g2094
sg76
(lp2125
g69
(g90
g71
NtRp2126
(dp2127
g74
(dp2128
sg83
g2122
sg76
(lp2129
g69
(g70
g71
NtRp2130
(dp2131
g74
(dp2132
g82
I3
ssg83
g2126
sg76
(lp2133
S'1'
asbasbasbag69
(g85
g71
NtRp2134
(dp2135
g74
(dp2136
sg83
g2094
sg76
(lp2137
g69
(g90
g71
NtRp2138
(dp2139
g74
(dp2140
sg83
g2134
sg76
(lp2141
g69
(g70
g71
NtRp2142
(dp2143
g74
(dp2144
g82
I3
ssg83
g2138
sg76
(lp2145
S'datetime.datetime(2012, 10, 21, 16, 57, 4)'
p2146
asbasbasbag69
(g85
g71
NtRp2147
(dp2148
g74
(dp2149
sg83
g2094
sg76
(lp2150
g69
(g90
g71
NtRp2151
(dp2152
g74
(dp2153
sg83
g2147
sg76
(lp2154
g69
(g70
g71
NtRp2155
(dp2156
g74
(dp2157
g82
I3
ssg83
g2151
sg76
(lp2158
g1485
asbasbasbasbasbasbasbasbasbasbasbag69
(g85
g71
NtRp2159
(dp2160
g74
(dp2161
sg83
g79
sg76
(lp2162
g69
(g90
g71
NtRp2163
(dp2164
g74
(dp2165
g94
g95
ssg83
g2159
sg76
(lp2166
S'is_https'
p2167
asbag69
(g90
g71
NtRp2168
(dp2169
g74
(dp2170
g101
g102
ssg83
g2159
sg76
(lp2171
S':'
asbag69
(g90
g71
NtRp2172
(dp2173
g74
(dp2174
sg83
g2159
sg76
(lp2175
g69
(g70
g71
NtRp2176
(dp2177
g74
(dp2178
g82
I5
ssg83
g2172
sg76
(lp2179
g112
asbasbasbag69
(g85
g71
NtRp2180
(dp2181
g74
(dp2182
sg83
g79
sg76
(lp2183
g69
(g90
g71
NtRp2184
(dp2185
g74
(dp2186
g94
g95
ssg83
g2180
sg76
(lp2187
S'is_local'
p2188
asbag69
(g90
g71
NtRp2189
(dp2190
g74
(dp2191
g101
g102
ssg83
g2180
sg76
(lp2192
S':'
asbag69
(g90
g71
NtRp2193
(dp2194
g74
(dp2195
sg83
g2180
sg76
(lp2196
g69
(g70
g71
NtRp2197
(dp2198
g74
(dp2199
g82
I5
ssg83
g2193
sg76
(lp2200
g1594
asbasbasbag69
(g85
g71
NtRp2201
(dp2202
g74
(dp2203
sg83
g79
sg76
(lp2204
g69
(g90
g71
NtRp2205
(dp2206
g74
(dp2207
g94
g95
ssg83
g2201
sg76
(lp2208
S'is_restful'
p2209
asbag69
(g90
g71
NtRp2210
(dp2211
g74
(dp2212
g101
g102
ssg83
g2201
sg76
(lp2213
S':'
asbag69
(g90
g71
NtRp2214
(dp2215
g74
(dp2216
sg83
g2201
sg76
(lp2217
g69
(g70
g71
NtRp2218
(dp2219
g74
(dp2220
g82
I5
ssg83
g2214
sg76
(lp2221
g112
asbasbasbag69
(g85
g71
NtRp2222
(dp2223
g74
(dp2224
sg83
g79
sg76
(lp2225
g69
(g90
g71
NtRp2226
(dp2227
g74
(dp2228
g94
g95
ssg83
g2222
sg76
(lp2229
S'now'
p2230
asbag69
(g90
g71
NtRp2231
(dp2232
g74
(dp2233
g101
g102
ssg83
g2222
sg76
(lp2234
S':'
asbag69
(g90
g71
NtRp2235
(dp2236
g74
(dp2237
sg83
g2222
sg76
(lp2238
g69
(g70
g71
NtRp2239
(dp2240
g74
(dp2241
g82
I5
ssg83
g2235
sg76
(lp2242
S'datetime.datetime(2012, 11, 1, 14, 27, 39, 971000)'
p2243
asbasbasbag69
(g85
g71
NtRp2244
(dp2245
g74
(dp2246
sg83
g79
sg76
(lp2247
g69
(g90
g71
NtRp2248
(dp2249
g74
(dp2250
g94
g95
ssg83
g2244
sg76
(lp2251
S'post_vars'
p2252
asbag69
(g90
g71
NtRp2253
(dp2254
g74
(dp2255
g101
g102
ssg83
g2244
sg76
(lp2256
S':'
asbag69
(g90
g71
NtRp2257
(dp2258
g74
(dp2259
sg83
g2244
sg76
(lp2260
g69
(g70
g71
NtRp2261
(dp2262
g74
(dp2263
g82
I5
ssg83
g2257
sg76
(lp2264
g69
(g78
g71
NtRp2265
(dp2266
g74
(dp2267
g82
I4
ssg83
Nsg76
(lp2268
sbasbasbasbag69
(g85
g71
NtRp2269
(dp2270
g74
(dp2271
sg83
g79
sg76
(lp2272
g69
(g90
g71
NtRp2273
(dp2274
g74
(dp2275
g94
g95
ssg83
g2269
sg76
(lp2276
S'raw_args'
p2277
asbag69
(g90
g71
NtRp2278
(dp2279
g74
(dp2280
g101
g102
ssg83
g2269
sg76
(lp2281
S':'
asbag69
(g90
g71
NtRp2282
(dp2283
g74
(dp2284
sg83
g2269
sg76
(lp2285
g69
(g70
g71
NtRp2286
(dp2287
g74
(dp2288
g82
I5
ssg83
g2282
sg76
(lp2289
S''
asbasbasbag69
(g85
g71
NtRp2290
(dp2291
g74
(dp2292
sg83
g79
sg76
(lp2293
g69
(g90
g71
NtRp2294
(dp2295
g74
(dp2296
g94
g95
ssg83
g2290
sg76
(lp2297
S'raw_extension'
p2298
asbag69
(g90
g71
NtRp2299
(dp2300
g74
(dp2301
g101
g102
ssg83
g2290
sg76
(lp2302
S':'
asbag69
(g90
g71
NtRp2303
(dp2304
g74
(dp2305
sg83
g2290
sg76
(lp2306
g69
(g70
g71
NtRp2307
(dp2308
g74
(dp2309
g82
I5
ssg83
g2303
sg76
(lp2310
S'None'
p2311
asbasbasbag69
(g85
g71
NtRp2312
(dp2313
g74
(dp2314
sg83
g79
sg76
(lp2315
g69
(g90
g71
NtRp2316
(dp2317
g74
(dp2318
g94
g95
ssg83
g2312
sg76
(lp2319
S'url'
p2320
asbag69
(g90
g71
NtRp2321
(dp2322
g74
(dp2323
g101
g102
ssg83
g2312
sg76
(lp2324
S':'
asbag69
(g90
g71
NtRp2325
(dp2326
g74
(dp2327
sg83
g2312
sg76
(lp2328
g69
(g70
g71
NtRp2329
(dp2330
g74
(dp2331
g82
I5
ssg83
g2325
sg76
(lp2332
g1162
asbasbasbag69
(g85
g71
NtRp2333
(dp2334
g74
(dp2335
sg83
g79
sg76
(lp2336
g69
(g90
g71
NtRp2337
(dp2338
g74
(dp2339
g94
g95
ssg83
g2333
sg76
(lp2340
S'utcnow'
p2341
asbag69
(g90
g71
NtRp2342
(dp2343
g74
(dp2344
g101
g102
ssg83
g2333
sg76
(lp2345
S':'
asbag69
(g90
g71
NtRp2346
(dp2347
g74
(dp2348
sg83
g2333
sg76
(lp2349
g69
(g70
g71
NtRp2350
(dp2351
g74
(dp2352
g82
I5
ssg83
g2346
sg76
(lp2353
S'datetime.datetime(2012, 11, 1, 14, 27, 39, 971000)'
p2354
asbasbasbag69
(g85
g71
NtRp2355
(dp2356
g74
(dp2357
sg83
g79
sg76
(lp2358
g69
(g90
g71
NtRp2359
(dp2360
g74
(dp2361
g94
g95
ssg83
g2355
sg76
(lp2362
S'uuid'
p2363
asbag69
(g90
g71
NtRp2364
(dp2365
g74
(dp2366
g101
g102
ssg83
g2355
sg76
(lp2367
S':'
asbag69
(g90
g71
NtRp2368
(dp2369
g74
(dp2370
sg83
g2355
sg76
(lp2371
g69
(g70
g71
NtRp2372
(dp2373
g74
(dp2374
g82
I5
ssg83
g2368
sg76
(lp2375
S'welcome/127.0.0.1.2012-11-01.14-27-39.3b66d995-86a3-4e69-aad8-3172f2ff28fa'
p2376
asbasbasbag69
(g85
g71
NtRp2377
(dp2378
g74
(dp2379
sg83
g79
sg76
(lp2380
g69
(g90
g71
NtRp2381
(dp2382
g74
(dp2383
g94
g95
ssg83
g2377
sg76
(lp2384
S'vars'
p2385
asbag69
(g90
g71
NtRp2386
(dp2387
g74
(dp2388
g101
g102
ssg83
g2377
sg76
(lp2389
S':'
asbag69
(g90
g71
NtRp2390
(dp2391
g74
(dp2392
sg83
g2377
sg76
(lp2393
g69
(g70
g71
NtRp2394
(dp2395
g74
(dp2396
g82
I5
ssg83
g2390
sg76
(lp2397
g69
(g78
g71
NtRp2398
(dp2399
g74
(dp2400
g82
I4
ssg83
Nsg76
(lp2401
sbasbasbasbag69
(g85
g71
NtRp2402
(dp2403
g74
(dp2404
sg83
g79
sg76
(lp2405
g69
(g90
g71
NtRp2406
(dp2407
g74
(dp2408
g94
g95
ssg83
g2402
sg76
(lp2409
S'wsgi'
p2410
asbag69
(g90
g71
NtRp2411
(dp2412
g74
(dp2413
g101
g102
ssg83
g2402
sg76
(lp2414
S':'
asbag69
(g90
g71
NtRp2415
(dp2416
g74
(dp2417
sg83
g2402
sg76
(lp2418
g69
(g70
g71
NtRp2419
(dp2420
g74
(dp2421
g82
I5
ssg83
g2415
sg76
(lp2422
g69
(g78
g71
NtRp2423
(dp2424
g74
(dp2425
g82
I4
ssg83
Nsg76
(lp2426
g69
(g85
g71
NtRp2427
(dp2428
g74
(dp2429
sg83
g2423
sg76
(lp2430
g69
(g90
g71
NtRp2431
(dp2432
g74
(dp2433
g94
g95
ssg83
g2427
sg76
(lp2434
S'environ'
p2435
asbag69
(g90
g71
NtRp2436
(dp2437
g74
(dp2438
g101
g102
ssg83
g2427
sg76
(lp2439
S':'
asbag69
(g90
g71
NtRp2440
(dp2441
g74
(dp2442
sg83
g2427
sg76
(lp2443
g69
(g70
g71
NtRp2444
(dp2445
g74
(dp2446
g82
I4
ssg83
g2440
sg76
(lp2447
g69
(g78
g71
NtRp2448
(dp2449
g74
(dp2450
g82
I3
ssg83
Nsg76
(lp2451
g69
(g85
g71
NtRp2452
(dp2453
g74
(dp2454
sg83
g2448
sg76
(lp2455
g69
(g90
g71
NtRp2456
(dp2457
g74
(dp2458
g94
g95
ssg83
g2452
sg76
(lp2459
S'HTTP_ACCEPT'
p2460
asbag69
(g90
g71
NtRp2461
(dp2462
g74
(dp2463
g101
g102
ssg83
g2452
sg76
(lp2464
S':'
asbag69
(g90
g71
NtRp2465
(dp2466
g74
(dp2467
sg83
g2452
sg76
(lp2468
g69
(g70
g71
NtRp2469
(dp2470
g74
(dp2471
g82
I3
ssg83
g2465
sg76
(lp2472
g854
asbasbasbag69
(g85
g71
NtRp2473
(dp2474
g74
(dp2475
sg83
g2448
sg76
(lp2476
g69
(g90
g71
NtRp2477
(dp2478
g74
(dp2479
g94
g95
ssg83
g2473
sg76
(lp2480
S'HTTP_ACCEPT_ENCODING'
p2481
asbag69
(g90
g71
NtRp2482
(dp2483
g74
(dp2484
g101
g102
ssg83
g2473
sg76
(lp2485
S':'
asbag69
(g90
g71
NtRp2486
(dp2487
g74
(dp2488
sg83
g2473
sg76
(lp2489
g69
(g70
g71
NtRp2490
(dp2491
g74
(dp2492
g82
I3
ssg83
g2486
sg76
(lp2493
g876
asbasbasbag69
(g85
g71
NtRp2494
(dp2495
g74
(dp2496
sg83
g2448
sg76
(lp2497
g69
(g90
g71
NtRp2498
(dp2499
g74
(dp2500
g94
g95
ssg83
g2494
sg76
(lp2501
S'HTTP_ACCEPT_LANGUAGE'
p2502
asbag69
(g90
g71
NtRp2503
(dp2504
g74
(dp2505
g101
g102
ssg83
g2494
sg76
(lp2506
S':'
asbag69
(g90
g71
NtRp2507
(dp2508
g74
(dp2509
sg83
g2494
sg76
(lp2510
g69
(g70
g71
NtRp2511
(dp2512
g74
(dp2513
g82
I3
ssg83
g2507
sg76
(lp2514
g898
asbasbasbag69
(g85
g71
NtRp2515
(dp2516
g74
(dp2517
sg83
g2448
sg76
(lp2518
g69
(g90
g71
NtRp2519
(dp2520
g74
(dp2521
g94
g95
ssg83
g2515
sg76
(lp2522
S'HTTP_CONNECTION'
p2523
asbag69
(g90
g71
NtRp2524
(dp2525
g74
(dp2526
g101
g102
ssg83
g2515
sg76
(lp2527
S':'
asbag69
(g90
g71
NtRp2528
(dp2529
g74
(dp2530
sg83
g2515
sg76
(lp2531
g69
(g70
g71
NtRp2532
(dp2533
g74
(dp2534
g82
I3
ssg83
g2528
sg76
(lp2535
g920
asbasbasbag69
(g85
g71
NtRp2536
(dp2537
g74
(dp2538
sg83
g2448
sg76
(lp2539
g69
(g90
g71
NtRp2540
(dp2541
g74
(dp2542
g94
g95
ssg83
g2536
sg76
(lp2543
S'HTTP_COOKIE'
p2544
asbag69
(g90
g71
NtRp2545
(dp2546
g74
(dp2547
g101
g102
ssg83
g2536
sg76
(lp2548
S':'
asbag69
(g90
g71
NtRp2549
(dp2550
g74
(dp2551
sg83
g2536
sg76
(lp2552
g69
(g70
g71
NtRp2553
(dp2554
g74
(dp2555
g82
I3
ssg83
g2549
sg76
(lp2556
g942
asbasbasbag69
(g85
g71
NtRp2557
(dp2558
g74
(dp2559
sg83
g2448
sg76
(lp2560
g69
(g90
g71
NtRp2561
(dp2562
g74
(dp2563
g94
g95
ssg83
g2557
sg76
(lp2564
S'HTTP_HOST'
p2565
asbag69
(g90
g71
NtRp2566
(dp2567
g74
(dp2568
g101
g102
ssg83
g2557
sg76
(lp2569
S':'
asbag69
(g90
g71
NtRp2570
(dp2571
g74
(dp2572
sg83
g2557
sg76
(lp2573
g69
(g70
g71
NtRp2574
(dp2575
g74
(dp2576
g82
I3
ssg83
g2570
sg76
(lp2577
g964
asbasbasbag69
(g85
g71
NtRp2578
(dp2579
g74
(dp2580
sg83
g2448
sg76
(lp2581
g69
(g90
g71
NtRp2582
(dp2583
g74
(dp2584
g94
g95
ssg83
g2578
sg76
(lp2585
S'HTTP_REFERER'
p2586
asbag69
(g90
g71
NtRp2587
(dp2588
g74
(dp2589
g101
g102
ssg83
g2578
sg76
(lp2590
S':'
asbag69
(g90
g71
NtRp2591
(dp2592
g74
(dp2593
sg83
g2578
sg76
(lp2594
g69
(g70
g71
NtRp2595
(dp2596
g74
(dp2597
g82
I3
ssg83
g2591
sg76
(lp2598
g986
asbasbasbag69
(g85
g71
NtRp2599
(dp2600
g74
(dp2601
sg83
g2448
sg76
(lp2602
g69
(g90
g71
NtRp2603
(dp2604
g74
(dp2605
g94
g95
ssg83
g2599
sg76
(lp2606
S'HTTP_USER_AGENT'
p2607
asbag69
(g90
g71
NtRp2608
(dp2609
g74
(dp2610
g101
g102
ssg83
g2599
sg76
(lp2611
S':'
asbag69
(g90
g71
NtRp2612
(dp2613
g74
(dp2614
sg83
g2599
sg76
(lp2615
g69
(g70
g71
NtRp2616
(dp2617
g74
(dp2618
g82
I3
ssg83
g2612
sg76
(lp2619
g1008
asbasbasbag69
(g85
g71
NtRp2620
(dp2621
g74
(dp2622
sg83
g2448
sg76
(lp2623
g69
(g90
g71
NtRp2624
(dp2625
g74
(dp2626
g94
g95
ssg83
g2620
sg76
(lp2627
S'PATH_INFO'
p2628
asbag69
(g90
g71
NtRp2629
(dp2630
g74
(dp2631
g101
g102
ssg83
g2620
sg76
(lp2632
S':'
asbag69
(g90
g71
NtRp2633
(dp2634
g74
(dp2635
sg83
g2620
sg76
(lp2636
g69
(g70
g71
NtRp2637
(dp2638
g74
(dp2639
g82
I3
ssg83
g2633
sg76
(lp2640
g1162
asbasbasbag69
(g85
g71
NtRp2641
(dp2642
g74
(dp2643
sg83
g2448
sg76
(lp2644
g69
(g90
g71
NtRp2645
(dp2646
g74
(dp2647
g94
g95
ssg83
g2641
sg76
(lp2648
S'QUERY_STRING'
p2649
asbag69
(g90
g71
NtRp2650
(dp2651
g74
(dp2652
g101
g102
ssg83
g2641
sg76
(lp2653
S':'
asbag69
(g90
g71
NtRp2654
(dp2655
g74
(dp2656
sg83
g2641
sg76
(lp2657
g69
(g70
g71
NtRp2658
(dp2659
g74
(dp2660
g82
I3
ssg83
g2654
sg76
(lp2661
S''
asbasbasbag69
(g85
g71
NtRp2662
(dp2663
g74
(dp2664
sg83
g2448
sg76
(lp2665
g69
(g90
g71
NtRp2666
(dp2667
g74
(dp2668
g94
g95
ssg83
g2662
sg76
(lp2669
S'REMOTE_ADDR'
p2670
asbag69
(g90
g71
NtRp2671
(dp2672
g74
(dp2673
g101
g102
ssg83
g2662
sg76
(lp2674
S':'
asbag69
(g90
g71
NtRp2675
(dp2676
g74
(dp2677
sg83
g2662
sg76
(lp2678
g69
(g70
g71
NtRp2679
(dp2680
g74
(dp2681
g82
I3
ssg83
g2675
sg76
(lp2682
g224
asbasbasbag69
(g85
g71
NtRp2683
(dp2684
g74
(dp2685
sg83
g2448
sg76
(lp2686
g69
(g90
g71
NtRp2687
(dp2688
g74
(dp2689
g94
g95
ssg83
g2683
sg76
(lp2690
S'REMOTE_PORT'
p2691
asbag69
(g90
g71
NtRp2692
(dp2693
g74
(dp2694
g101
g102
ssg83
g2683
sg76
(lp2695
S':'
asbag69
(g90
g71
NtRp2696
(dp2697
g74
(dp2698
sg83
g2683
sg76
(lp2699
g69
(g70
g71
NtRp2700
(dp2701
g74
(dp2702
g82
I3
ssg83
g2696
sg76
(lp2703
g1226
asbasbasbag69
(g85
g71
NtRp2704
(dp2705
g74
(dp2706
sg83
g2448
sg76
(lp2707
g69
(g90
g71
NtRp2708
(dp2709
g74
(dp2710
g94
g95
ssg83
g2704
sg76
(lp2711
S'REQUEST_METHOD'
p2712
asbag69
(g90
g71
NtRp2713
(dp2714
g74
(dp2715
g101
g102
ssg83
g2704
sg76
(lp2716
S':'
asbag69
(g90
g71
NtRp2717
(dp2718
g74
(dp2719
sg83
g2704
sg76
(lp2720
g69
(g70
g71
NtRp2721
(dp2722
g74
(dp2723
g82
I3
ssg83
g2717
sg76
(lp2724
g1248
asbasbasbag69
(g85
g71
NtRp2725
(dp2726
g74
(dp2727
sg83
g2448
sg76
(lp2728
g69
(g90
g71
NtRp2729
(dp2730
g74
(dp2731
g94
g95
ssg83
g2725
sg76
(lp2732
S'REQUEST_URI'
p2733
asbag69
(g90
g71
NtRp2734
(dp2735
g74
(dp2736
g101
g102
ssg83
g2725
sg76
(lp2737
S':'
asbag69
(g90
g71
NtRp2738
(dp2739
g74
(dp2740
sg83
g2725
sg76
(lp2741
g69
(g70
g71
NtRp2742
(dp2743
g74
(dp2744
g82
I3
ssg83
g2738
sg76
(lp2745
g1162
asbasbasbag69
(g85
g71
NtRp2746
(dp2747
g74
(dp2748
sg83
g2448
sg76
(lp2749
g69
(g90
g71
NtRp2750
(dp2751
g74
(dp2752
g94
g95
ssg83
g2746
sg76
(lp2753
S'SCRIPT_NAME'
p2754
asbag69
(g90
g71
NtRp2755
(dp2756
g74
(dp2757
g101
g102
ssg83
g2746
sg76
(lp2758
S':'
asbag69
(g90
g71
NtRp2759
(dp2760
g74
(dp2761
sg83
g2746
sg76
(lp2762
g69
(g70
g71
NtRp2763
(dp2764
g74
(dp2765
g82
I3
ssg83
g2759
sg76
(lp2766
S''
asbasbasbag69
(g85
g71
NtRp2767
(dp2768
g74
(dp2769
sg83
g2448
sg76
(lp2770
g69
(g90
g71
NtRp2771
(dp2772
g74
(dp2773
g94
g95
ssg83
g2767
sg76
(lp2774
S'SERVER_NAME'
p2775
asbag69
(g90
g71
NtRp2776
(dp2777
g74
(dp2778
g101
g102
ssg83
g2767
sg76
(lp2779
S':'
asbag69
(g90
g71
NtRp2780
(dp2781
g74
(dp2782
sg83
g2767
sg76
(lp2783
g69
(g70
g71
NtRp2784
(dp2785
g74
(dp2786
g82
I3
ssg83
g2780
sg76
(lp2787
g1127
asbasbasbag69
(g85
g71
NtRp2788
(dp2789
g74
(dp2790
sg83
g2448
sg76
(lp2791
g69
(g90
g71
NtRp2792
(dp2793
g74
(dp2794
g94
g95
ssg83
g2788
sg76
(lp2795
S'SERVER_PORT'
p2796
asbag69
(g90
g71
NtRp2797
(dp2798
g74
(dp2799
g101
g102
ssg83
g2788
sg76
(lp2800
S':'
asbag69
(g90
g71
NtRp2801
(dp2802
g74
(dp2803
sg83
g2788
sg76
(lp2804
g69
(g70
g71
NtRp2805
(dp2806
g74
(dp2807
g82
I3
ssg83
g2801
sg76
(lp2808
g1333
asbasbasbag69
(g85
g71
NtRp2809
(dp2810
g74
(dp2811
sg83
g2448
sg76
(lp2812
g69
(g90
g71
NtRp2813
(dp2814
g74
(dp2815
g94
g95
ssg83
g2809
sg76
(lp2816
S'SERVER_PROTOCOL'
p2817
asbag69
(g90
g71
NtRp2818
(dp2819
g74
(dp2820
g101
g102
ssg83
g2809
sg76
(lp2821
S':'
asbag69
(g90
g71
NtRp2822
(dp2823
g74
(dp2824
sg83
g2809
sg76
(lp2825
g69
(g70
g71
NtRp2826
(dp2827
g74
(dp2828
g82
I3
ssg83
g2822
sg76
(lp2829
g1355
asbasbasbag69
(g85
g71
NtRp2830
(dp2831
g74
(dp2832
sg83
g2448
sg76
(lp2833
g69
(g90
g71
NtRp2834
(dp2835
g74
(dp2836
g94
g95
ssg83
g2830
sg76
(lp2837
S'SERVER_SOFTWARE'
p2838
asbag69
(g90
g71
NtRp2839
(dp2840
g74
(dp2841
g101
g102
ssg83
g2830
sg76
(lp2842
S':'
asbag69
(g90
g71
NtRp2843
(dp2844
g74
(dp2845
sg83
g2830
sg76
(lp2846
g69
(g70
g71
NtRp2847
(dp2848
g74
(dp2849
g82
I3
ssg83
g2843
sg76
(lp2850
g1377
asbasbasbag69
(g85
g71
NtRp2851
(dp2852
g74
(dp2853
sg83
g2448
sg76
(lp2854
g69
(g90
g71
NtRp2855
(dp2856
g74
(dp2857
g94
g95
ssg83
g2851
sg76
(lp2858
S'wsgi.errors'
p2859
asbag69
(g90
g71
NtRp2860
(dp2861
g74
(dp2862
g101
g102
ssg83
g2851
sg76
(lp2863
S':'
asbag69
(g90
g71
NtRp2864
(dp2865
g74
(dp2866
sg83
g2851
sg76
(lp2867
g69
(g70
g71
NtRp2868
(dp2869
g74
(dp2870
g82
I3
ssg83
g2864
sg76
(lp2871
S"<open file '<stderr>', mode 'w' at 0x00A850D0>"
p2872
asbasbasbag69
(g85
g71
NtRp2873
(dp2874
g74
(dp2875
sg83
g2448
sg76
(lp2876
g69
(g90
g71
NtRp2877
(dp2878
g74
(dp2879
g94
g95
ssg83
g2873
sg76
(lp2880
S'wsgi.file_wrapper'
p2881
asbag69
(g90
g71
NtRp2882
(dp2883
g74
(dp2884
g101
g102
ssg83
g2873
sg76
(lp2885
S':'
asbag69
(g90
g71
NtRp2886
(dp2887
g74
(dp2888
sg83
g2873
sg76
(lp2889
g69
(g70
g71
NtRp2890
(dp2891
g74
(dp2892
g82
I3
ssg83
g2886
sg76
(lp2893
S'<class wsgiref.util.FileWrapper at 0x016B7068>'
p2894
asbasbasbag69
(g85
g71
NtRp2895
(dp2896
g74
(dp2897
sg83
g2448
sg76
(lp2898
g69
(g90
g71
NtRp2899
(dp2900
g74
(dp2901
g94
g95
ssg83
g2895
sg76
(lp2902
S'wsgi.input'
p2903
asbag69
(g90
g71
NtRp2904
(dp2905
g74
(dp2906
g101
g102
ssg83
g2895
sg76
(lp2907
S':'
asbag69
(g90
g71
NtRp2908
(dp2909
g74
(dp2910
sg83
g2895
sg76
(lp2911
g69
(g70
g71
NtRp2912
(dp2913
g74
(dp2914
g82
I3
ssg83
g2908
sg76
(lp2915
S'<cStringIO.StringO object at 0x057690E0>'
p2916
asbasbasbag69
(g85
g71
NtRp2917
(dp2918
g74
(dp2919
sg83
g2448
sg76
(lp2920
g69
(g90
g71
NtRp2921
(dp2922
g74
(dp2923
g94
g95
ssg83
g2917
sg76
(lp2924
S'wsgi.multiprocess'
p2925
asbag69
(g90
g71
NtRp2926
(dp2927
g74
(dp2928
g101
g102
ssg83
g2917
sg76
(lp2929
S':'
asbag69
(g90
g71
NtRp2930
(dp2931
g74
(dp2932
sg83
g2917
sg76
(lp2933
g69
(g70
g71
NtRp2934
(dp2935
g74
(dp2936
g82
I3
ssg83
g2930
sg76
(lp2937
g112
asbasbasbag69
(g85
g71
NtRp2938
(dp2939
g74
(dp2940
sg83
g2448
sg76
(lp2941
g69
(g90
g71
NtRp2942
(dp2943
g74
(dp2944
g94
g95
ssg83
g2938
sg76
(lp2945
S'wsgi.multithread'
p2946
asbag69
(g90
g71
NtRp2947
(dp2948
g74
(dp2949
g101
g102
ssg83
g2938
sg76
(lp2950
S':'
asbag69
(g90
g71
NtRp2951
(dp2952
g74
(dp2953
sg83
g2938
sg76
(lp2954
g69
(g70
g71
NtRp2955
(dp2956
g74
(dp2957
g82
I3
ssg83
g2951
sg76
(lp2958
g1594
asbasbasbag69
(g85
g71
NtRp2959
(dp2960
g74
(dp2961
sg83
g2448
sg76
(lp2962
g69
(g90
g71
NtRp2963
(dp2964
g74
(dp2965
g94
g95
ssg83
g2959
sg76
(lp2966
S'wsgi.run_once'
p2967
asbag69
(g90
g71
NtRp2968
(dp2969
g74
(dp2970
g101
g102
ssg83
g2959
sg76
(lp2971
S':'
asbag69
(g90
g71
NtRp2972
(dp2973
g74
(dp2974
sg83
g2959
sg76
(lp2975
g69
(g70
g71
NtRp2976
(dp2977
g74
(dp2978
g82
I3
ssg83
g2972
sg76
(lp2979
g112
asbasbasbag69
(g85
g71
NtRp2980
(dp2981
g74
(dp2982
sg83
g2448
sg76
(lp2983
g69
(g90
g71
NtRp2984
(dp2985
g74
(dp2986
g94
g95
ssg83
g2980
sg76
(lp2987
S'wsgi.url_scheme'
p2988
asbag69
(g90
g71
NtRp2989
(dp2990
g74
(dp2991
g101
g102
ssg83
g2980
sg76
(lp2992
S':'
asbag69
(g90
g71
NtRp2993
(dp2994
g74
(dp2995
sg83
g2980
sg76
(lp2996
g69
(g70
g71
NtRp2997
(dp2998
g74
(dp2999
g82
I3
ssg83
g2993
sg76
(lp3000
g1637
asbasbasbag69
(g85
g71
NtRp3001
(dp3002
g74
(dp3003
sg83
g2448
sg76
(lp3004
g69
(g90
g71
NtRp3005
(dp3006
g74
(dp3007
g94
g95
ssg83
g3001
sg76
(lp3008
S'wsgi.version'
p3009
asbag69
(g90
g71
NtRp3010
(dp3011
g74
(dp3012
g101
g102
ssg83
g3001
sg76
(lp3013
S':'
asbag69
(g90
g71
NtRp3014
(dp3015
g74
(dp3016
sg83
g3001
sg76
(lp3017
g69
(g70
g71
NtRp3018
(dp3019
g74
(dp3020
g82
I3
ssg83
g3014
sg76
(lp3021
S'1'
asbasbasbasbasbasbasbasbasbasbasbasbasbsS'frames'
p3022
(lp3023
(dp3024
S'file'
p3025
S'X:\\procurement\\MATERIEL\\Raw Material\\Data Management\\Custom Applications\\Development\\web2py\\gluon\\restricted.py'
p3026
sS'dump'
p3027
(dp3028
S'environment'
p3029
S"{'A': <class 'gluon.html.A'>, 'Auth': <class 'gluon.tools.Auth'>, 'B': <class 'gluon.html.B'>, 'BEAUTIFY': <class 'gluon.html.BEAUTIFY'>, 'BODY': <class 'gluon.html.BODY'>, 'BR': <class 'gluon.html.BR'>, 'BUTTON': <class 'gluon.html.BUTTON'>, 'CAT': <class 'gluon.html.CAT'>, 'CENTER': <class 'gluon.html.CENTER'>, 'CLEANUP': <class 'gluon.validators.CLEANUP'>, ...}"
p3030
sS'ccode'
p3031
S'<code object <module> at 053B4728, file "X:\\proc...cations\\welcome\\controllers/default.py", line 13>'
p3032
ssS'lnum'
p3033
I212
sS'lines'
p3034
(dp3035
I207
S'    try:'
p3036
sI208
S'        if isinstance(code, types.CodeType):'
p3037
sI209
S'            ccode = code'
p3038
sI210
S'        else:'
p3039
sI211
S'            ccode = compile2(code, layer)'
p3040
sI212
S'        exec ccode in environment'
p3041
sI213
S'    except HTTP:'
p3042
sI214
S'        raise'
p3043
sI215
S'    except RestrictedError:'
p3044
sI216
S'        # do not encapsulate (obfuscate) the original RestrictedError'
p3045
ssS'call'
p3046
S"(code='# -*- coding: utf-8 -*-\\n# this file is released ...=crud())\\n\\nresponse._vars=response._caller(index)\\n', environment={'A': <class 'gluon.html.A'>, 'Auth': <class 'gluon.tools.Auth'>, 'B': <class 'gluon.html.B'>, 'BEAUTIFY': <class 'gluon.html.BEAUTIFY'>, 'BODY': <class 'gluon.html.BODY'>, 'BR': <class 'gluon.html.BR'>, 'BUTTON': <class 'gluon.html.BUTTON'>, 'CAT': <class 'gluon.html.CAT'>, 'CENTER': <class 'gluon.html.CENTER'>, 'CLEANUP': <class 'gluon.validators.CLEANUP'>, ...}, layer=r'X:\\procurement\\MATERIEL\\Raw Material\\Data Manage...eb2py\\applications\\welcome\\controllers/default.py')"
p3047
sS'func'
p3048
S'restricted'
p3049
sa(dp3050
g3025
S'X:\\procurement\\MATERIEL\\Raw Material\\Data Management\\Custom Applications\\Development\\web2py\\applications\\welcome\\controllers\\default.py'
p3051
sg3027
(dp3052
sg3033
I90
sg3034
(dp3053
I79
S'    http://..../[app]/default/data/update/[table]/[id]'
p3054
sI80
S'    http://..../[app]/default/data/delete/[table]/[id]'
p3055
sI81
S'    http://..../[app]/default/data/select/[table]'
p3056
sI82
S'    http://..../[app]/default/data/search/[table]'
p3057
sI83
S'    but URLs must be signed, i.e. linked with'
p3058
sI84
S"      A('table',_href=URL('data/tables',user_signature=True))"
p3059
sI85
S'    or with the signed load operator'
p3060
sI86
S"      LOAD('default','data.load',args='tables',ajax=True,user_signature=True)"
p3061
sI87
S'    """'
p3062
sI88
S'    return dict(form=crud())'
p3063
ssg3046
S'()'
p3064
sg3048
S'<module>'
p3065
sa(dp3066
g3025
S'X:\\procurement\\MATERIEL\\Raw Material\\Data Management\\Custom Applications\\Development\\web2py\\gluon\\globals.py'
p3067
sg3027
(dp3068
S'self'
p3069
S'undefined'
p3070
sS'f'
S'<function index>'
p3071
ssg3033
I188
sg3034
(dp3072
I192
S''
sI183
S'        self.menu = []             # used by the default view layout'
p3073
sI184
S'        self.files = []            # used by web2py_ajax.html'
p3074
sI185
S'        self.generic_patterns = []  # patterns to allow generic views'
p3075
sI186
S"        self.delimiters = ('{{', '}}')"
p3076
sI187
S'        self._vars = None'
p3077
sI188
S'        self._caller = lambda f: f()'
p3078
sI189
S'        self._view_environment = None'
p3079
sI190
S'        self._custom_commit = None'
p3080
sI191
S'        self._custom_rollback = None'
p3081
ssg3046
S'(f=<function index>)'
p3082
sg3048
S'<lambda>'
p3083
sa(dp3084
g3025
S'X:\\procurement\\MATERIEL\\Raw Material\\Data Management\\Custom Applications\\Development\\web2py\\applications\\welcome\\controllers\\default.py'
p3085
sg3027
(dp3086
S'global user'
p3087
S'<function user>'
p3088
ssg3033
I32
sg3034
(dp3089
I32
S'    ChartObj.start_export()'
p3090
sI33
S''
sI34
S'    response.flash = T("Welcome to web2py!")'
p3091
sI35
S"    return dict(message=T('Hello World'))"
p3092
sI36
S''
sI27
S'    ChartObj = Pyxlchart()'
p3093
sI28
S'    ChartObj.WorkbookDirectory = "\\\\\\\\maawtns01\\\\discipline\\\\procurement\\\\MATERIEL\\\\Raw Material\\\\Data Management\\\\Hawk"'
p3094
sI29
S'    ChartObj.WorkbookFilename = "Hawk Workability KPI.xlsm"'
p3095
sI30
S'    ChartObj.ImageFilename = "MyChart1"'
p3096
sI31
S'    ChartObj.ExportPath = "d:\\\\pycharts"'
p3097
ssg3046
S'()'
p3098
sg3048
S'index'
p3099
sa(dp3100
g3025
S'X:\\procurement\\MATERIEL\\Raw Material\\Data Management\\Custom Applications\\Development\\web2py\\applications\\welcome\\modules\\pyxlchart.py'
p3101
sg3027
(dp3102
S'self._export'
p3103
S'<bound method Pyxlchart._export of <applications.welcome.modules.pyxlchart.Pyxlchart object>>'
p3104
sS'self'
p3105
S'<applications.welcome.modules.pyxlchart.Pyxlchart object>'
p3106
ssg3033
I32
sg3034
(dp3107
I32
S'            self._export()'
p3108
sI33
S''
sI34
S'    def _export(self):'
p3109
sI35
S'        """'
p3110
sI36
S'        Exports Charts as determined by the settings in class variabels.'
p3111
sI27
S''
sI28
S'    def start_export(self):'
p3112
sI29
S"        if self.WorkbookDirectory == '':"
p3113
sI30
S'            return "WorkbookDirectory not set"'
p3114
sI31
S'        else:'
p3115
ssg3046
S'(self=<applications.welcome.modules.pyxlchart.Pyxlchart object>)'
p3116
sg3048
S'start_export'
p3117
sa(dp3118
g3025
S'X:\\procurement\\MATERIEL\\Raw Material\\Data Management\\Custom Applications\\Development\\web2py\\applications\\welcome\\modules\\pyxlchart.py'
p3119
sg3027
(dp3120
S'excel'
p3121
g3070
sS'global Dispatch'
p3122
S'<function Dispatch>'
p3123
ssg3033
I38
sg3034
(dp3124
I33
S''
sI34
S'    def _export(self):'
p3125
sI35
S'        """'
p3126
sI36
S'        Exports Charts as determined by the settings in class variabels.'
p3127
sI37
S'        """'
p3128
sI38
S'        excel = Dispatch("excel.application")'
p3129
sI39
S'        excel.Visible = False'
p3130
sI40
S'        wb = excel.Workbooks.Open(os.path.join(self.WorkbookDirectory ,self.WorkbookFilename))'
p3131
sI41
S'        self._get_Charts_In_Worksheet(wb,self.SheetName,self.ChartName)'
p3132
sI42
S''
ssg3046
S'(self=<applications.welcome.modules.pyxlchart.Pyxlchart object>)'
p3133
sg3048
S'_export'
p3134
sa(dp3135
g3025
S'D:\\Python27\\lib\\site-packages\\win32com\\client\\__init__.py'
p3136
sg3027
(dp3137
S'userName'
p3138
S'None'
p3139
sS'dynamic._GetGoodDispatchAndUserName'
p3140
S'<function _GetGoodDispatchAndUserName>'
p3141
sS'global dynamic'
p3142
S"<module 'win32com.client.dynamic' from 'D:\\Python27\\lib\\site-packages\\win32com\\client\\dynamic.pyc'>"
p3143
sS'clsctx'
p3144
S'21'
p3145
sS'dispatch'
p3146
S"'excel.application'"
p3147
ssg3033
I95
sg3034
(dp3148
I96
S'  return __WrapDispatch(dispatch, userName, resultCLSID, typeinfo, clsctx=clsctx)'
p3149
sI97
S''
sI98
S'def DispatchEx(clsid, machine=None, userName = None, resultCLSID = None, typeinfo = None, UnicodeToString=None, clsctx = None):'
p3150
sI99
S'  """Creates a Dispatch based COM object on a specific machine.'
p3151
sI90
S''
sI91
S'def Dispatch(dispatch, userName = None, resultCLSID = None, typeinfo = None, UnicodeToString=None, clsctx = pythoncom.CLSCTX_SERVER):'
p3152
sI92
S'  """Creates a Dispatch based COM object.'
p3153
sI93
S'  """'
p3154
sI94
S'  assert UnicodeToString is None, "this is deprecated and will go away"'
p3155
sI95
S'  dispatch, userName = dynamic._GetGoodDispatchAndUserName(dispatch,userName,clsctx)'
p3156
ssg3046
S"(dispatch='excel.application', userName=None, resultCLSID=None, typeinfo=None, UnicodeToString=None, clsctx=21)"
p3157
sg3048
S'Dispatch'
p3158
sa(dp3159
g3025
S'D:\\Python27\\lib\\site-packages\\win32com\\client\\dynamic.py'
p3160
sg3027
(dp3161
S'userName'
p3162
S"'excel.application'"
p3163
sS'IDispatch'
p3164
S"'excel.application'"
p3165
sS'global _GetGoodDispatch'
p3166
S'<function _GetGoodDispatch>'
p3167
sS'clsctx'
p3168
S'21'
p3169
ssg3033
I114
sg3034
(dp3170
I109
S"\t\t# 2to3 converts the above 'unicode' to 'str', but this will never be executed in py3k"
p3171
sI110
S'\t\t# As above - always a plain string in py2k'
p3172
sI111
S'\t\tuserName = userName.encode("ascii", "replace")'
p3173
sI112
S'\telse:'
p3174
sI113
S'\t\tuserName = str(userName)'
p3175
sI114
S'\treturn (_GetGoodDispatch(IDispatch, clsctx), userName)'
p3176
sI115
S''
sI116
S'def _GetDescInvokeType(entry, default_invoke_type):'
p3177
sI117
S'\tif not entry or not entry.desc: return default_invoke_type'
p3178
sI118
S'\treturn entry.desc[4]'
p3179
ssg3046
S"(IDispatch='excel.application', userName='excel.application', clsctx=21)"
p3180
sg3048
S'_GetGoodDispatchAndUserName'
p3181
sa(dp3182
g3025
S'D:\\Python27\\lib\\site-packages\\win32com\\client\\dynamic.py'
p3183
sg3027
(dp3184
S'builtinNone'
p3185
S'None'
p3186
sS'IDispatch'
p3187
S"'excel.application'"
p3188
sS'pythoncom.IID_IDispatch'
p3189
S"IID('{00020400-0000-0000-C000-000000000046}')"
p3190
sS'clsctx'
p3191
S'21'
p3192
sS'pythoncom.CoCreateInstance'
p3193
S'<built-in function CoCreateInstance>'
p3194
sS'global pythoncom'
p3195
S"<module 'pythoncom' from 'C:\\WINDOWS\\system32\\pythoncom27.dll'>"
p3196
ssg3033
I91
sg3034
(dp3197
I86
S'\t\treturn IDispatch'
p3198
sI87
S'\tif isinstance(IDispatch, _GoodDispatchTypes):'
p3199
sI88
S'\t\ttry:'
p3200
sI89
S'\t\t\tIDispatch = pythoncom.connect(IDispatch)'
p3201
sI90
S'\t\texcept pythoncom.ole_error:'
p3202
sI91
S'\t\t\tIDispatch = pythoncom.CoCreateInstance(IDispatch, None, clsctx, pythoncom.IID_IDispatch)'
p3203
sI92
S'\telse:'
p3204
sI93
S'\t\t# may already be a wrapped class.'
p3205
sI94
S'\t\tIDispatch = getattr(IDispatch, "_oleobj_", IDispatch)'
p3206
sI95
S'\treturn IDispatch'
p3207
ssg3046
S"(IDispatch='excel.application', clsctx=21)"
p3208
sg3048
S'_GetGoodDispatch'
p3209
sasS'pyver'
p3210
S'Python 2.7: D:\\Python27\\python.exe'
p3211
sS'session'
p3212
g69
(g70
g71
NtRp3213
(dp3214
g74
(dp3215
sg76
(lp3216
g69
(g78
g71
NtRp3217
(dp3218
g74
(dp3219
g82
I5
ssg83
Nsg76
(lp3220
sbasbsS'etype'
p3221
S"<class 'pywintypes.com_error'>"
p3222
sS'date'
p3223
S'Thu Nov 01 14:27:40 2012'
p3224
sS'response'
p3225
g69
(g70
g71
NtRp3226
(dp3227
g74
(dp3228
sg76
(lp3229
g69
(g78
g71
NtRp3230
(dp3231
g74
(dp3232
g82
I5
ssg83
Nsg76
(lp3233
g69
(g85
g71
NtRp3234
(dp3235
g74
(dp3236
sg83
g3230
sg76
(lp3237
g69
(g90
g71
NtRp3238
(dp3239
g74
(dp3240
g94
g95
ssg83
g3234
sg76
(lp3241
g167
asbag69
(g90
g71
NtRp3242
(dp3243
g74
(dp3244
g101
g102
ssg83
g3234
sg76
(lp3245
S':'
asbag69
(g90
g71
NtRp3246
(dp3247
g74
(dp3248
sg83
g3234
sg76
(lp3249
g69
(g70
g71
NtRp3250
(dp3251
g74
(dp3252
g82
I5
ssg83
g3246
sg76
(lp3253
S'<cStringIO.StringO object at 0x05BF2160>'
p3254
asbasbasbag69
(g85
g71
NtRp3255
(dp3256
g74
(dp3257
sg83
g3230
sg76
(lp3258
g69
(g90
g71
NtRp3259
(dp3260
g74
(dp3261
g94
g95
ssg83
g3255
sg76
(lp3262
g255
asbag69
(g90
g71
NtRp3263
(dp3264
g74
(dp3265
g101
g102
ssg83
g3255
sg76
(lp3266
S':'
asbag69
(g90
g71
NtRp3267
(dp3268
g74
(dp3269
sg83
g3255
sg76
(lp3270
g69
(g70
g71
NtRp3271
(dp3272
g74
(dp3273
g82
I5
ssg83
g3267
sg76
(lp3274
g69
(g78
g71
NtRp3275
(dp3276
g74
(dp3277
g82
I4
ssg83
Nsg76
(lp3278
g69
(g85
g71
NtRp3279
(dp3280
g74
(dp3281
sg83
g3275
sg76
(lp3282
g69
(g90
g71
NtRp3283
(dp3284
g74
(dp3285
g94
g95
ssg83
g3279
sg76
(lp3286
S'session_id_welcome'
p3287
asbag69
(g90
g71
NtRp3288
(dp3289
g74
(dp3290
g101
g102
ssg83
g3279
sg76
(lp3291
S':'
asbag69
(g90
g71
NtRp3292
(dp3293
g74
(dp3294
sg83
g3279
sg76
(lp3295
g69
(g70
g71
NtRp3296
(dp3297
g74
(dp3298
g82
I4
ssg83
g3292
sg76
(lp3299
S'127.0.0.1-a23eb908-b6ca-4638-888c-41a7c3513ddf'
p3300
ag69
(g78
g71
NtRp3301
(dp3302
g74
(dp3303
g82
I3
ssg83
Nsg76
(lp3304
g69
(g85
g71
NtRp3305
(dp3306
g74
(dp3307
sg83
g3301
sg76
(lp3308
g69
(g90
g71
NtRp3309
(dp3310
g74
(dp3311
g94
g95
ssg83
g3305
sg76
(lp3312
g306
asbag69
(g90
g71
NtRp3313
(dp3314
g74
(dp3315
g101
g102
ssg83
g3305
sg76
(lp3316
S':'
asbag69
(g90
g71
NtRp3317
(dp3318
g74
(dp3319
sg83
g3305
sg76
(lp3320
g69
(g70
g71
NtRp3321
(dp3322
g74
(dp3323
g82
I3
ssg83
g3317
sg76
(lp3324
S''
asbasbasbag69
(g85
g71
NtRp3325
(dp3326
g74
(dp3327
sg83
g3301
sg76
(lp3328
g69
(g90
g71
NtRp3329
(dp3330
g74
(dp3331
g94
g95
ssg83
g3325
sg76
(lp3332
g327
asbag69
(g90
g71
NtRp3333
(dp3334
g74
(dp3335
g101
g102
ssg83
g3325
sg76
(lp3336
S':'
asbag69
(g90
g71
NtRp3337
(dp3338
g74
(dp3339
sg83
g3325
sg76
(lp3340
g69
(g70
g71
NtRp3341
(dp3342
g74
(dp3343
g82
I3
ssg83
g3337
sg76
(lp3344
S''
asbasbasbag69
(g85
g71
NtRp3345
(dp3346
g74
(dp3347
sg83
g3301
sg76
(lp3348
g69
(g90
g71
NtRp3349
(dp3350
g74
(dp3351
g94
g95
ssg83
g3345
sg76
(lp3352
g348
asbag69
(g90
g71
NtRp3353
(dp3354
g74
(dp3355
g101
g102
ssg83
g3345
sg76
(lp3356
S':'
asbag69
(g90
g71
NtRp3357
(dp3358
g74
(dp3359
sg83
g3345
sg76
(lp3360
g69
(g70
g71
NtRp3361
(dp3362
g74
(dp3363
g82
I3
ssg83
g3357
sg76
(lp3364
S''
asbasbasbag69
(g85
g71
NtRp3365
(dp3366
g74
(dp3367
sg83
g3301
sg76
(lp3368
g69
(g90
g71
NtRp3369
(dp3370
g74
(dp3371
g94
g95
ssg83
g3365
sg76
(lp3372
g369
asbag69
(g90
g71
NtRp3373
(dp3374
g74
(dp3375
g101
g102
ssg83
g3365
sg76
(lp3376
S':'
asbag69
(g90
g71
NtRp3377
(dp3378
g74
(dp3379
sg83
g3365
sg76
(lp3380
g69
(g70
g71
NtRp3381
(dp3382
g74
(dp3383
g82
I3
ssg83
g3377
sg76
(lp3384
S''
asbasbasbag69
(g85
g71
NtRp3385
(dp3386
g74
(dp3387
sg83
g3301
sg76
(lp3388
g69
(g90
g71
NtRp3389
(dp3390
g74
(dp3391
g94
g95
ssg83
g3385
sg76
(lp3392
g390
asbag69
(g90
g71
NtRp3393
(dp3394
g74
(dp3395
g101
g102
ssg83
g3385
sg76
(lp3396
S':'
asbag69
(g90
g71
NtRp3397
(dp3398
g74
(dp3399
sg83
g3385
sg76
(lp3400
g69
(g70
g71
NtRp3401
(dp3402
g74
(dp3403
g82
I3
ssg83
g3397
sg76
(lp3404
S''
asbasbasbag69
(g85
g71
NtRp3405
(dp3406
g74
(dp3407
sg83
g3301
sg76
(lp3408
g69
(g90
g71
NtRp3409
(dp3410
g74
(dp3411
g94
g95
ssg83
g3405
sg76
(lp3412
g411
asbag69
(g90
g71
NtRp3413
(dp3414
g74
(dp3415
g101
g102
ssg83
g3405
sg76
(lp3416
S':'
asbag69
(g90
g71
NtRp3417
(dp3418
g74
(dp3419
sg83
g3405
sg76
(lp3420
g69
(g70
g71
NtRp3421
(dp3422
g74
(dp3423
g82
I3
ssg83
g3417
sg76
(lp3424
S'/'
asbasbasbag69
(g85
g71
NtRp3425
(dp3426
g74
(dp3427
sg83
g3301
sg76
(lp3428
g69
(g90
g71
NtRp3429
(dp3430
g74
(dp3431
g94
g95
ssg83
g3425
sg76
(lp3432
g432
asbag69
(g90
g71
NtRp3433
(dp3434
g74
(dp3435
g101
g102
ssg83
g3425
sg76
(lp3436
S':'
asbag69
(g90
g71
NtRp3437
(dp3438
g74
(dp3439
sg83
g3425
sg76
(lp3440
g69
(g70
g71
NtRp3441
(dp3442
g74
(dp3443
g82
I3
ssg83
g3437
sg76
(lp3444
S''
asbasbasbag69
(g85
g71
NtRp3445
(dp3446
g74
(dp3447
sg83
g3301
sg76
(lp3448
g69
(g90
g71
NtRp3449
(dp3450
g74
(dp3451
g94
g95
ssg83
g3445
sg76
(lp3452
g453
asbag69
(g90
g71
NtRp3453
(dp3454
g74
(dp3455
g101
g102
ssg83
g3445
sg76
(lp3456
S':'
asbag69
(g90
g71
NtRp3457
(dp3458
g74
(dp3459
sg83
g3445
sg76
(lp3460
g69
(g70
g71
NtRp3461
(dp3462
g74
(dp3463
g82
I3
ssg83
g3457
sg76
(lp3464
S''
asbasbasbasbasbasbasbasbasbasbasbag69
(g85
g71
NtRp3465
(dp3466
g74
(dp3467
sg83
g3230
sg76
(lp3468
g69
(g90
g71
NtRp3469
(dp3470
g74
(dp3471
g94
g95
ssg83
g3465
sg76
(lp3472
S'delimiters'
p3473
asbag69
(g90
g71
NtRp3474
(dp3475
g74
(dp3476
g101
g102
ssg83
g3465
sg76
(lp3477
S':'
asbag69
(g90
g71
NtRp3478
(dp3479
g74
(dp3480
sg83
g3465
sg76
(lp3481
g69
(g70
g71
NtRp3482
(dp3483
g74
(dp3484
g82
I5
ssg83
g3478
sg76
(lp3485
g69
(g78
g71
NtRp3486
(dp3487
g74
(dp3488
g82
I4
ssg83
Nsg76
(lp3489
g69
(g85
g71
NtRp3490
(dp3491
g74
(dp3492
sg83
g3486
sg76
(lp3493
g69
(g90
g71
NtRp3494
(dp3495
g74
(dp3496
sg83
g3490
sg76
(lp3497
g69
(g70
g71
NtRp3498
(dp3499
g74
(dp3500
g82
I4
ssg83
g3494
sg76
(lp3501
S'{{'
p3502
asbasbasbag69
(g85
g71
NtRp3503
(dp3504
g74
(dp3505
sg83
g3486
sg76
(lp3506
g69
(g90
g71
NtRp3507
(dp3508
g74
(dp3509
sg83
g3503
sg76
(lp3510
g69
(g70
g71
NtRp3511
(dp3512
g74
(dp3513
g82
I4
ssg83
g3507
sg76
(lp3514
S'}}'
p3515
asbasbasbasbasbasbasbag69
(g85
g71
NtRp3516
(dp3517
g74
(dp3518
sg83
g3230
sg76
(lp3519
g69
(g90
g71
NtRp3520
(dp3521
g74
(dp3522
g94
g95
ssg83
g3516
sg76
(lp3523
S'files'
p3524
asbag69
(g90
g71
NtRp3525
(dp3526
g74
(dp3527
g101
g102
ssg83
g3516
sg76
(lp3528
S':'
asbag69
(g90
g71
NtRp3529
(dp3530
g74
(dp3531
sg83
g3516
sg76
(lp3532
g69
(g70
g71
NtRp3533
(dp3534
g74
(dp3535
g82
I5
ssg83
g3529
sg76
(lp3536
g69
(g78
g71
NtRp3537
(dp3538
g74
(dp3539
g82
I4
ssg83
Nsg76
(lp3540
sbasbasbasbag69
(g85
g71
NtRp3541
(dp3542
g74
(dp3543
sg83
g3230
sg76
(lp3544
g69
(g90
g71
NtRp3545
(dp3546
g74
(dp3547
g94
g95
ssg83
g3541
sg76
(lp3548
S'flash'
p3549
asbag69
(g90
g71
NtRp3550
(dp3551
g74
(dp3552
g101
g102
ssg83
g3541
sg76
(lp3553
S':'
asbag69
(g90
g71
NtRp3554
(dp3555
g74
(dp3556
sg83
g3541
sg76
(lp3557
g69
(g70
g71
NtRp3558
(dp3559
g74
(dp3560
g82
I5
ssg83
g3554
sg76
(lp3561
S''
asbasbasbag69
(g85
g71
NtRp3562
(dp3563
g74
(dp3564
sg83
g3230
sg76
(lp3565
g69
(g90
g71
NtRp3566
(dp3567
g74
(dp3568
g94
g95
ssg83
g3562
sg76
(lp3569
S'generic_patterns'
p3570
asbag69
(g90
g71
NtRp3571
(dp3572
g74
(dp3573
g101
g102
ssg83
g3562
sg76
(lp3574
S':'
asbag69
(g90
g71
NtRp3575
(dp3576
g74
(dp3577
sg83
g3562
sg76
(lp3578
g69
(g70
g71
NtRp3579
(dp3580
g74
(dp3581
g82
I5
ssg83
g3575
sg76
(lp3582
g69
(g78
g71
NtRp3583
(dp3584
g74
(dp3585
g82
I4
ssg83
Nsg76
(lp3586
g69
(g85
g71
NtRp3587
(dp3588
g74
(dp3589
sg83
g3583
sg76
(lp3590
g69
(g90
g71
NtRp3591
(dp3592
g74
(dp3593
sg83
g3587
sg76
(lp3594
g69
(g70
g71
NtRp3595
(dp3596
g74
(dp3597
g82
I4
ssg83
g3591
sg76
(lp3598
S'*'
asbasbasbasbasbasbasbag69
(g85
g71
NtRp3599
(dp3600
g74
(dp3601
sg83
g3230
sg76
(lp3602
g69
(g90
g71
NtRp3603
(dp3604
g74
(dp3605
g94
g95
ssg83
g3599
sg76
(lp3606
S'google_analytics_id'
p3607
asbag69
(g90
g71
NtRp3608
(dp3609
g74
(dp3610
g101
g102
ssg83
g3599
sg76
(lp3611
S':'
asbag69
(g90
g71
NtRp3612
(dp3613
g74
(dp3614
sg83
g3599
sg76
(lp3615
g69
(g70
g71
NtRp3616
(dp3617
g74
(dp3618
g82
I5
ssg83
g3612
sg76
(lp3619
S'None'
p3620
asbasbasbag69
(g85
g71
NtRp3621
(dp3622
g74
(dp3623
sg83
g3230
sg76
(lp3624
g69
(g90
g71
NtRp3625
(dp3626
g74
(dp3627
g94
g95
ssg83
g3621
sg76
(lp3628
S'headers'
p3629
asbag69
(g90
g71
NtRp3630
(dp3631
g74
(dp3632
g101
g102
ssg83
g3621
sg76
(lp3633
S':'
asbag69
(g90
g71
NtRp3634
(dp3635
g74
(dp3636
sg83
g3621
sg76
(lp3637
g69
(g70
g71
NtRp3638
(dp3639
g74
(dp3640
g82
I5
ssg83
g3634
sg76
(lp3641
g69
(g78
g71
NtRp3642
(dp3643
g74
(dp3644
g82
I4
ssg83
Nsg76
(lp3645
g69
(g85
g71
NtRp3646
(dp3647
g74
(dp3648
sg83
g3642
sg76
(lp3649
g69
(g90
g71
NtRp3650
(dp3651
g74
(dp3652
g94
g95
ssg83
g3646
sg76
(lp3653
S'X-Powered-By'
p3654
asbag69
(g90
g71
NtRp3655
(dp3656
g74
(dp3657
g101
g102
ssg83
g3646
sg76
(lp3658
S':'
asbag69
(g90
g71
NtRp3659
(dp3660
g74
(dp3661
sg83
g3646
sg76
(lp3662
g69
(g70
g71
NtRp3663
(dp3664
g74
(dp3665
g82
I4
ssg83
g3659
sg76
(lp3666
S'web2py'
p3667
asbasbasbasbasbasbasbag69
(g85
g71
NtRp3668
(dp3669
g74
(dp3670
sg83
g3230
sg76
(lp3671
g69
(g90
g71
NtRp3672
(dp3673
g74
(dp3674
g94
g95
ssg83
g3668
sg76
(lp3675
S'menu'
p3676
asbag69
(g90
g71
NtRp3677
(dp3678
g74
(dp3679
g101
g102
ssg83
g3668
sg76
(lp3680
S':'
asbag69
(g90
g71
NtRp3681
(dp3682
g74
(dp3683
sg83
g3668
sg76
(lp3684
g69
(g70
g71
NtRp3685
(dp3686
g74
(dp3687
g82
I5
ssg83
g3681
sg76
(lp3688
g69
(g78
g71
NtRp3689
(dp3690
g74
(dp3691
g82
I4
ssg83
Nsg76
(lp3692
g69
(g85
g71
NtRp3693
(dp3694
g74
(dp3695
sg83
g3689
sg76
(lp3696
g69
(g90
g71
NtRp3697
(dp3698
g74
(dp3699
sg83
g3693
sg76
(lp3700
g69
(g70
g71
NtRp3701
(dp3702
g74
(dp3703
g82
I4
ssg83
g3697
sg76
(lp3704
g69
(g78
g71
NtRp3705
(dp3706
g74
(dp3707
g82
I3
ssg83
Nsg76
(lp3708
g69
(g85
g71
NtRp3709
(dp3710
g74
(dp3711
sg83
g3705
sg76
(lp3712
g69
(g90
g71
NtRp3713
(dp3714
g74
(dp3715
sg83
g3709
sg76
(lp3716
g69
(g70
g71
NtRp3717
(dp3718
g74
(dp3719
g82
I3
ssg83
g3713
sg76
(lp3720
cgluon.languages
lazyT_unpickle
p3721
(S's\x04\x00\x00\x00Home'
tRp3722
asbasbasbag69
(g85
g71
NtRp3723
(dp3724
g74
(dp3725
sg83
g3705
sg76
(lp3726
g69
(g90
g71
NtRp3727
(dp3728
g74
(dp3729
sg83
g3723
sg76
(lp3730
g69
(g70
g71
NtRp3731
(dp3732
g74
(dp3733
g82
I3
ssg83
g3727
sg76
(lp3734
g112
asbasbasbag69
(g85
g71
NtRp3735
(dp3736
g74
(dp3737
sg83
g3705
sg76
(lp3738
g69
(g90
g71
NtRp3739
(dp3740
g74
(dp3741
sg83
g3735
sg76
(lp3742
g69
(g70
g71
NtRp3743
(dp3744
g74
(dp3745
g82
I3
ssg83
g3739
sg76
(lp3746
S'/welcome/default/index'
p3747
asbasbasbag69
(g85
g71
NtRp3748
(dp3749
g74
(dp3750
sg83
g3705
sg76
(lp3751
g69
(g90
g71
NtRp3752
(dp3753
g74
(dp3754
sg83
g3748
sg76
(lp3755
g69
(g70
g71
NtRp3756
(dp3757
g74
(dp3758
g82
I3
ssg83
g3752
sg76
(lp3759
g69
(g78
g71
NtRp3760
(dp3761
g74
(dp3762
g82
I2
ssg83
Nsg76
(lp3763
sbasbasbasbasbasbasbasbag69
(g85
g71
NtRp3764
(dp3765
g74
(dp3766
sg83
g3689
sg76
(lp3767
g69
(g90
g71
NtRp3768
(dp3769
g74
(dp3770
sg83
g3764
sg76
(lp3771
g69
(g70
g71
NtRp3772
(dp3773
g74
(dp3774
g82
I4
ssg83
g3768
sg76
(lp3775
g69
(g78
g71
NtRp3776
(dp3777
g74
(dp3778
g82
I3
ssg83
Nsg76
(lp3779
g69
(g85
g71
NtRp3780
(dp3781
g74
(dp3782
sg83
g3776
sg76
(lp3783
g69
(g90
g71
NtRp3784
(dp3785
g74
(dp3786
sg83
g3780
sg76
(lp3787
g69
(g70
g71
NtRp3788
(dp3789
g74
(dp3790
g82
I3
ssg83
g3784
sg76
(lp3791
g69
(cgluon.html
SPAN
p3792
g71
NtRp3793
(dp3794
g74
(dp3795
S'_class'
p3796
S'highlighted'
p3797
ssg83
Nsg76
(lp3798
g3667
asbasbasbasbag69
(g85
g71
NtRp3799
(dp3800
g74
(dp3801
sg83
g3776
sg76
(lp3802
g69
(g90
g71
NtRp3803
(dp3804
g74
(dp3805
sg83
g3799
sg76
(lp3806
g69
(g70
g71
NtRp3807
(dp3808
g74
(dp3809
g82
I3
ssg83
g3803
sg76
(lp3810
g112
asbasbasbag69
(g85
g71
NtRp3811
(dp3812
g74
(dp3813
sg83
g3776
sg76
(lp3814
g69
(g90
g71
NtRp3815
(dp3816
g74
(dp3817
sg83
g3811
sg76
(lp3818
g69
(g70
g71
NtRp3819
(dp3820
g74
(dp3821
g82
I3
ssg83
g3815
sg76
(lp3822
S'http://web2py.com'
p3823
asbasbasbag69
(g85
g71
NtRp3824
(dp3825
g74
(dp3826
sg83
g3776
sg76
(lp3827
g69
(g90
g71
NtRp3828
(dp3829
g74
(dp3830
sg83
g3824
sg76
(lp3831
g69
(g70
g71
NtRp3832
(dp3833
g74
(dp3834
g82
I3
ssg83
g3828
sg76
(lp3835
g69
(g78
g71
NtRp3836
(dp3837
g74
(dp3838
g82
I2
ssg83
Nsg76
(lp3839
g69
(g85
g71
NtRp3840
(dp3841
g74
(dp3842
sg83
g3836
sg76
(lp3843
g69
(g90
g71
NtRp3844
(dp3845
g74
(dp3846
sg83
g3840
sg76
(lp3847
g69
(g70
g71
NtRp3848
(dp3849
g74
(dp3850
g82
I2
ssg83
g3844
sg76
(lp3851
g69
(g78
g71
NtRp3852
(dp3853
g74
(dp3854
g82
I1
ssg83
Nsg76
(lp3855
g69
(g85
g71
NtRp3856
(dp3857
g74
(dp3858
sg83
g3852
sg76
(lp3859
g69
(g90
g71
NtRp3860
(dp3861
g74
(dp3862
sg83
g3856
sg76
(lp3863
g69
(g70
g71
NtRp3864
(dp3865
g74
(dp3866
g82
I1
ssg83
g3860
sg76
(lp3867
g3721
(S's\x08\x00\x00\x00My Sites'
tRp3868
asbasbasbag69
(g85
g71
NtRp3869
(dp3870
g74
(dp3871
sg83
g3852
sg76
(lp3872
g69
(g90
g71
NtRp3873
(dp3874
g74
(dp3875
sg83
g3869
sg76
(lp3876
g69
(g70
g71
NtRp3877
(dp3878
g74
(dp3879
g82
I1
ssg83
g3873
sg76
(lp3880
I00
asbasbasbag69
(g85
g71
NtRp3881
(dp3882
g74
(dp3883
sg83
g3852
sg76
(lp3884
g69
(g90
g71
NtRp3885
(dp3886
g74
(dp3887
sg83
g3881
sg76
(lp3888
g69
(g70
g71
NtRp3889
(dp3890
g74
(dp3891
g82
I1
ssg83
g3885
sg76
(lp3892
S'/admin/default/site'
p3893
asbasbasbasbasbasbasbag69
(g85
g71
NtRp3894
(dp3895
g74
(dp3896
sg83
g3836
sg76
(lp3897
g69
(g90
g71
NtRp3898
(dp3899
g74
(dp3900
sg83
g3894
sg76
(lp3901
g69
(g70
g71
NtRp3902
(dp3903
g74
(dp3904
g82
I2
ssg83
g3898
sg76
(lp3905
g69
(g78
g71
NtRp3906
(dp3907
g74
(dp3908
g82
I1
ssg83
Nsg76
(lp3909
g69
(g85
g71
NtRp3910
(dp3911
g74
(dp3912
sg83
g3906
sg76
(lp3913
g69
(g90
g71
NtRp3914
(dp3915
g74
(dp3916
sg83
g3910
sg76
(lp3917
g69
(g70
g71
NtRp3918
(dp3919
g74
(dp3920
g82
I1
ssg83
g3914
sg76
(lp3921
g3721
(S's\x08\x00\x00\x00This App'
tRp3922
asbasbasbag69
(g85
g71
NtRp3923
(dp3924
g74
(dp3925
sg83
g3906
sg76
(lp3926
g69
(g90
g71
NtRp3927
(dp3928
g74
(dp3929
sg83
g3923
sg76
(lp3930
g69
(g70
g71
NtRp3931
(dp3932
g74
(dp3933
g82
I1
ssg83
g3927
sg76
(lp3934
I00
asbasbasbag69
(g85
g71
NtRp3935
(dp3936
g74
(dp3937
sg83
g3906
sg76
(lp3938
g69
(g90
g71
NtRp3939
(dp3940
g74
(dp3941
sg83
g3935
sg76
(lp3942
g69
(g70
g71
NtRp3943
(dp3944
g74
(dp3945
g82
I1
ssg83
g3939
sg76
(lp3946
S'/admin/default/design/welcome'
p3947
asbasbasbag69
(g85
g71
NtRp3948
(dp3949
g74
(dp3950
sg83
g3906
sg76
(lp3951
g69
(g90
g71
NtRp3952
(dp3953
g74
(dp3954
sg83
g3948
sg76
(lp3955
g69
(g70
g71
NtRp3956
(dp3957
g74
(dp3958
g82
I1
ssg83
g3952
sg76
(lp3959
(lp3960
(g3721
(S's\n\x00\x00\x00Controller'
tRp3961
I00
S'/admin/default/edit/welcome/controllers/default.py'
tp3962
a(g3721
(S's\x04\x00\x00\x00View'
tRp3963
I00
S'/admin/default/edit/welcome/views/default/index.html'
tp3964
a(g3721
(S's\x06\x00\x00\x00Layout'
tRp3965
I00
S'/admin/default/edit/welcome/views/layout.html'
tp3966
a(g3721
(S's\n\x00\x00\x00Stylesheet'
tRp3967
I00
S'/admin/default/edit/welcome/static/css/web2py.css'
tp3968
a(g3721
(S's\x08\x00\x00\x00DB Model'
tRp3969
I00
S'/admin/default/edit/welcome/models/db.py'
tp3970
a(g3721
(S's\n\x00\x00\x00Menu Model'
tRp3971
I00
S'/admin/default/edit/welcome/models/menu.py'
tp3972
a(g3721
(S's\x08\x00\x00\x00Database'
tRp3973
I00
S'/welcome/appadmin/index'
tp3974
a(g3721
(S's\x06\x00\x00\x00Errors'
tRp3975
I00
S'/admin/default/errors/welcome'
tp3976
a(g3721
(S's\x05\x00\x00\x00About'
tRp3977
I00
S'/admin/default/about/welcome'
tp3978
aasbasbasbasbasbasbasbag69
(g85
g71
NtRp3979
(dp3980
g74
(dp3981
sg83
g3836
sg76
(lp3982
g69
(g90
g71
NtRp3983
(dp3984
g74
(dp3985
sg83
g3979
sg76
(lp3986
g69
(g70
g71
NtRp3987
(dp3988
g74
(dp3989
g82
I2
ssg83
g3983
sg76
(lp3990
g69
(g78
g71
NtRp3991
(dp3992
g74
(dp3993
g82
I1
ssg83
Nsg76
(lp3994
g69
(g85
g71
NtRp3995
(dp3996
g74
(dp3997
sg83
g3991
sg76
(lp3998
g69
(g90
g71
NtRp3999
(dp4000
g74
(dp4001
sg83
g3995
sg76
(lp4002
g69
(g70
g71
NtRp4003
(dp4004
g74
(dp4005
g82
I1
ssg83
g3999
sg76
(lp4006
S'web2py.com'
p4007
asbasbasbag69
(g85
g71
NtRp4008
(dp4009
g74
(dp4010
sg83
g3991
sg76
(lp4011
g69
(g90
g71
NtRp4012
(dp4013
g74
(dp4014
sg83
g4008
sg76
(lp4015
g69
(g70
g71
NtRp4016
(dp4017
g74
(dp4018
g82
I1
ssg83
g4012
sg76
(lp4019
I00
asbasbasbag69
(g85
g71
NtRp4020
(dp4021
g74
(dp4022
sg83
g3991
sg76
(lp4023
g69
(g90
g71
NtRp4024
(dp4025
g74
(dp4026
sg83
g4020
sg76
(lp4027
g69
(g70
g71
NtRp4028
(dp4029
g74
(dp4030
g82
I1
ssg83
g4024
sg76
(lp4031
S'http://www.web2py.com'
p4032
asbasbasbag69
(g85
g71
NtRp4033
(dp4034
g74
(dp4035
sg83
g3991
sg76
(lp4036
g69
(g90
g71
NtRp4037
(dp4038
g74
(dp4039
sg83
g4033
sg76
(lp4040
g69
(g70
g71
NtRp4041
(dp4042
g74
(dp4043
g82
I1
ssg83
g4037
sg76
(lp4044
(lp4045
(g3721
(S's\x08\x00\x00\x00Download'
tRp4046
I00
S'http://www.web2py.com/examples/default/download'
p4047
tp4048
a(g3721
(S's\x07\x00\x00\x00Support'
tRp4049
I00
S'http://www.web2py.com/examples/default/support'
p4050
tp4051
a(g3721
(S's\x04\x00\x00\x00Demo'
tRp4052
I00
S'http://web2py.com/demo_admin'
p4053
tp4054
a(g3721
(S's\x0e\x00\x00\x00Quick Examples'
tRp4055
I00
S'http://web2py.com/examples/default/examples'
p4056
tp4057
a(g3721
(S's\x03\x00\x00\x00FAQ'
tRp4058
I00
S'http://web2py.com/AlterEgo'
p4059
tp4060
a(g3721
(S's\x06\x00\x00\x00Videos'
tRp4061
I00
S'http://www.web2py.com/examples/default/videos/'
p4062
tp4063
a(g3721
(S's\x11\x00\x00\x00Free Applications'
tRp4064
I00
S'http://web2py.com/appliances'
p4065
tp4066
a(g3721
(S's\x07\x00\x00\x00Plugins'
tRp4067
I00
S'http://web2py.com/plugins'
p4068
tp4069
a(g3721
(S's\x07\x00\x00\x00Layouts'
tRp4070
I00
S'http://web2py.com/layouts'
p4071
tp4072
a(g3721
(S's\x07\x00\x00\x00Recipes'
tRp4073
I00
S'http://web2pyslices.com/'
p4074
tp4075
a(g3721
(S's\x08\x00\x00\x00Semantic'
tRp4076
I00
S'http://web2py.com/semantic'
p4077
tp4078
aasbasbasbasbasbasbasbag69
(g85
g71
NtRp4079
(dp4080
g74
(dp4081
sg83
g3836
sg76
(lp4082
g69
(g90
g71
NtRp4083
(dp4084
g74
(dp4085
sg83
g4079
sg76
(lp4086
g69
(g70
g71
NtRp4087
(dp4088
g74
(dp4089
g82
I2
ssg83
g4083
sg76
(lp4090
g69
(g78
g71
NtRp4091
(dp4092
g74
(dp4093
g82
I1
ssg83
Nsg76
(lp4094
g69
(g85
g71
NtRp4095
(dp4096
g74
(dp4097
sg83
g4091
sg76
(lp4098
g69
(g90
g71
NtRp4099
(dp4100
g74
(dp4101
sg83
g4095
sg76
(lp4102
g69
(g70
g71
NtRp4103
(dp4104
g74
(dp4105
g82
I1
ssg83
g4099
sg76
(lp4106
g3721
(S's\r\x00\x00\x00Documentation'
tRp4107
asbasbasbag69
(g85
g71
NtRp4108
(dp4109
g74
(dp4110
sg83
g4091
sg76
(lp4111
g69
(g90
g71
NtRp4112
(dp4113
g74
(dp4114
sg83
g4108
sg76
(lp4115
g69
(g70
g71
NtRp4116
(dp4117
g74
(dp4118
g82
I1
ssg83
g4112
sg76
(lp4119
I00
asbasbasbag69
(g85
g71
NtRp4120
(dp4121
g74
(dp4122
sg83
g4091
sg76
(lp4123
g69
(g90
g71
NtRp4124
(dp4125
g74
(dp4126
sg83
g4120
sg76
(lp4127
g69
(g70
g71
NtRp4128
(dp4129
g74
(dp4130
g82
I1
ssg83
g4124
sg76
(lp4131
S'http://www.web2py.com/book'
p4132
asbasbasbag69
(g85
g71
NtRp4133
(dp4134
g74
(dp4135
sg83
g4091
sg76
(lp4136
g69
(g90
g71
NtRp4137
(dp4138
g74
(dp4139
sg83
g4133
sg76
(lp4140
g69
(g70
g71
NtRp4141
(dp4142
g74
(dp4143
g82
I1
ssg83
g4137
sg76
(lp4144
(lp4145
(g3721
(S's\x07\x00\x00\x00Preface'
tRp4146
I00
S'http://www.web2py.com/book/default/chapter/00'
p4147
tp4148
a(g3721
(S's\x0c\x00\x00\x00Introduction'
tRp4149
I00
S'http://www.web2py.com/book/default/chapter/01'
p4150
tp4151
a(g3721
(S's\x06\x00\x00\x00Python'
tRp4152
I00
S'http://www.web2py.com/book/default/chapter/02'
p4153
tp4154
a(g3721
(S's\x08\x00\x00\x00Overview'
tRp4155
I00
S'http://www.web2py.com/book/default/chapter/03'
p4156
tp4157
a(g3721
(S's\x08\x00\x00\x00The Core'
tRp4158
I00
S'http://www.web2py.com/book/default/chapter/04'
p4159
tp4160
a(g3721
(S's\t\x00\x00\x00The Views'
tRp4161
I00
S'http://www.web2py.com/book/default/chapter/05'
p4162
tp4163
a(g3721
(S's\x08\x00\x00\x00Database'
tRp4164
I00
S'http://www.web2py.com/book/default/chapter/06'
p4165
tp4166
a(g3721
(S's\x14\x00\x00\x00Forms and Validators'
tRp4167
I00
S'http://www.web2py.com/book/default/chapter/07'
p4168
tp4169
a(g3721
(S's\r\x00\x00\x00Email and SMS'
tRp4170
I00
S'http://www.web2py.com/book/default/chapter/08'
p4171
tp4172
a(g3721
(S's\x0e\x00\x00\x00Access Control'
tRp4173
I00
S'http://www.web2py.com/book/default/chapter/09'
p4174
tp4175
a(g3721
(S's\x08\x00\x00\x00Services'
tRp4176
I00
S'http://www.web2py.com/book/default/chapter/10'
p4177
tp4178
a(g3721
(S's\x0c\x00\x00\x00Ajax Recipes'
tRp4179
I00
S'http://www.web2py.com/book/default/chapter/11'
p4180
tp4181
a(g3721
(S's\x16\x00\x00\x00Components and Plugins'
tRp4182
I00
S'http://www.web2py.com/book/default/chapter/12'
p4183
tp4184
a(g3721
(S's\x12\x00\x00\x00Deployment Recipes'
tRp4185
I00
S'http://www.web2py.com/book/default/chapter/13'
p4186
tp4187
a(g3721
(S's\r\x00\x00\x00Other Recipes'
tRp4188
I00
S'http://www.web2py.com/book/default/chapter/14'
p4189
tp4190
a(g3721
(S's\r\x00\x00\x00Buy this book'
tRp4191
I00
S'http://stores.lulu.com/web2py'
p4192
tp4193
aasbasbasbasbasbasbasbag69
(g85
g71
NtRp4194
(dp4195
g74
(dp4196
sg83
g3836
sg76
(lp4197
g69
(g90
g71
NtRp4198
(dp4199
g74
(dp4200
sg83
g4194
sg76
(lp4201
g69
(g70
g71
NtRp4202
(dp4203
g74
(dp4204
g82
I2
ssg83
g4198
sg76
(lp4205
g69
(g78
g71
NtRp4206
(dp4207
g74
(dp4208
g82
I1
ssg83
Nsg76
(lp4209
g69
(g85
g71
NtRp4210
(dp4211
g74
(dp4212
sg83
g4206
sg76
(lp4213
g69
(g90
g71
NtRp4214
(dp4215
g74
(dp4216
sg83
g4210
sg76
(lp4217
g69
(g70
g71
NtRp4218
(dp4219
g74
(dp4220
g82
I1
ssg83
g4214
sg76
(lp4221
g3721
(S's\t\x00\x00\x00Community'
tRp4222
asbasbasbag69
(g85
g71
NtRp4223
(dp4224
g74
(dp4225
sg83
g4206
sg76
(lp4226
g69
(g90
g71
NtRp4227
(dp4228
g74
(dp4229
sg83
g4223
sg76
(lp4230
g69
(g70
g71
NtRp4231
(dp4232
g74
(dp4233
g82
I1
ssg83
g4227
sg76
(lp4234
I00
asbasbasbag69
(g85
g71
NtRp4235
(dp4236
g74
(dp4237
sg83
g4206
sg76
(lp4238
g69
(g90
g71
NtRp4239
(dp4240
g74
(dp4241
sg83
g4235
sg76
(lp4242
g69
(g70
g71
NtRp4243
(dp4244
g74
(dp4245
g82
I1
ssg83
g4239
sg76
(lp4246
Nasbasbasbag69
(g85
g71
NtRp4247
(dp4248
g74
(dp4249
sg83
g4206
sg76
(lp4250
g69
(g90
g71
NtRp4251
(dp4252
g74
(dp4253
sg83
g4247
sg76
(lp4254
g69
(g70
g71
NtRp4255
(dp4256
g74
(dp4257
g82
I1
ssg83
g4251
sg76
(lp4258
(lp4259
(g3721
(S's\x06\x00\x00\x00Groups'
tRp4260
I00
S'http://www.web2py.com/examples/default/usergroups'
p4261
tp4262
a(g3721
(S's\x07\x00\x00\x00Twitter'
tRp4263
I00
S'http://twitter.com/web2py'
p4264
tp4265
a(g3721
(S's\t\x00\x00\x00Live Chat'
tRp4266
I00
S'http://webchat.freenode.net/?channels=web2py'
p4267
tp4268
aasbasbasbasbasbasbasbag69
(g85
g71
NtRp4269
(dp4270
g74
(dp4271
sg83
g3836
sg76
(lp4272
g69
(g90
g71
NtRp4273
(dp4274
g74
(dp4275
sg83
g4269
sg76
(lp4276
g69
(g70
g71
NtRp4277
(dp4278
g74
(dp4279
g82
I2
ssg83
g4273
sg76
(lp4280
g69
(g78
g71
NtRp4281
(dp4282
g74
(dp4283
g82
I1
ssg83
Nsg76
(lp4284
g69
(g85
g71
NtRp4285
(dp4286
g74
(dp4287
sg83
g4281
sg76
(lp4288
g69
(g90
g71
NtRp4289
(dp4290
g74
(dp4291
sg83
g4285
sg76
(lp4292
g69
(g70
g71
NtRp4293
(dp4294
g74
(dp4295
g82
I1
ssg83
g4289
sg76
(lp4296
g3721
(S's\x07\x00\x00\x00Plugins'
tRp4297
asbasbasbag69
(g85
g71
NtRp4298
(dp4299
g74
(dp4300
sg83
g4281
sg76
(lp4301
g69
(g90
g71
NtRp4302
(dp4303
g74
(dp4304
sg83
g4298
sg76
(lp4305
g69
(g70
g71
NtRp4306
(dp4307
g74
(dp4308
g82
I1
ssg83
g4302
sg76
(lp4309
I00
asbasbasbag69
(g85
g71
NtRp4310
(dp4311
g74
(dp4312
sg83
g4281
sg76
(lp4313
g69
(g90
g71
NtRp4314
(dp4315
g74
(dp4316
sg83
g4310
sg76
(lp4317
g69
(g70
g71
NtRp4318
(dp4319
g74
(dp4320
g82
I1
ssg83
g4314
sg76
(lp4321
Nasbasbasbag69
(g85
g71
NtRp4322
(dp4323
g74
(dp4324
sg83
g4281
sg76
(lp4325
g69
(g90
g71
NtRp4326
(dp4327
g74
(dp4328
sg83
g4322
sg76
(lp4329
g69
(g70
g71
NtRp4330
(dp4331
g74
(dp4332
g82
I1
ssg83
g4326
sg76
(lp4333
(lp4334
(S'plugin_wiki'
p4335
I00
S'http://web2py.com/examples/default/download'
p4336
tp4337
a(g3721
(S's\r\x00\x00\x00Other Plugins'
tRp4338
I00
g4068
tp4339
a(g3721
(S's\x0e\x00\x00\x00Layout Plugins'
tRp4340
I00
g4071
tp4341
aasbasbasbasbasbasbasbasbasbasbasbasbasbasbasbasbasbasbasbag69
(g85
g71
NtRp4342
(dp4343
g74
(dp4344
sg83
g3230
sg76
(lp4345
g69
(g90
g71
NtRp4346
(dp4347
g74
(dp4348
g94
g95
ssg83
g4342
sg76
(lp4349
S'meta'
p4350
asbag69
(g90
g71
NtRp4351
(dp4352
g74
(dp4353
g101
g102
ssg83
g4342
sg76
(lp4354
S':'
asbag69
(g90
g71
NtRp4355
(dp4356
g74
(dp4357
sg83
g4342
sg76
(lp4358
g69
(g70
g71
NtRp4359
(dp4360
g74
(dp4361
g82
I5
ssg83
g4355
sg76
(lp4362
g69
(g78
g71
NtRp4363
(dp4364
g74
(dp4365
g82
I4
ssg83
Nsg76
(lp4366
g69
(g85
g71
NtRp4367
(dp4368
g74
(dp4369
sg83
g4363
sg76
(lp4370
g69
(g90
g71
NtRp4371
(dp4372
g74
(dp4373
g94
g95
ssg83
g4367
sg76
(lp4374
S'author'
p4375
asbag69
(g90
g71
NtRp4376
(dp4377
g74
(dp4378
g101
g102
ssg83
g4367
sg76
(lp4379
S':'
asbag69
(g90
g71
NtRp4380
(dp4381
g74
(dp4382
sg83
g4367
sg76
(lp4383
g69
(g70
g71
NtRp4384
(dp4385
g74
(dp4386
g82
I4
ssg83
g4380
sg76
(lp4387
S'Your Name <you@example.com>'
p4388
asbasbasbag69
(g85
g71
NtRp4389
(dp4390
g74
(dp4391
sg83
g4363
sg76
(lp4392
g69
(g90
g71
NtRp4393
(dp4394
g74
(dp4395
g94
g95
ssg83
g4389
sg76
(lp4396
S'description'
p4397
asbag69
(g90
g71
NtRp4398
(dp4399
g74
(dp4400
g101
g102
ssg83
g4389
sg76
(lp4401
S':'
asbag69
(g90
g71
NtRp4402
(dp4403
g74
(dp4404
sg83
g4389
sg76
(lp4405
g69
(g70
g71
NtRp4406
(dp4407
g74
(dp4408
g82
I4
ssg83
g4402
sg76
(lp4409
S'a cool new app'
p4410
asbasbasbag69
(g85
g71
NtRp4411
(dp4412
g74
(dp4413
sg83
g4363
sg76
(lp4414
g69
(g90
g71
NtRp4415
(dp4416
g74
(dp4417
g94
g95
ssg83
g4411
sg76
(lp4418
S'generator'
p4419
asbag69
(g90
g71
NtRp4420
(dp4421
g74
(dp4422
g101
g102
ssg83
g4411
sg76
(lp4423
S':'
asbag69
(g90
g71
NtRp4424
(dp4425
g74
(dp4426
sg83
g4411
sg76
(lp4427
g69
(g70
g71
NtRp4428
(dp4429
g74
(dp4430
g82
I4
ssg83
g4424
sg76
(lp4431
S'Web2py Web Framework'
p4432
asbasbasbag69
(g85
g71
NtRp4433
(dp4434
g74
(dp4435
sg83
g4363
sg76
(lp4436
g69
(g90
g71
NtRp4437
(dp4438
g74
(dp4439
g94
g95
ssg83
g4433
sg76
(lp4440
S'keywords'
p4441
asbag69
(g90
g71
NtRp4442
(dp4443
g74
(dp4444
g101
g102
ssg83
g4433
sg76
(lp4445
S':'
asbag69
(g90
g71
NtRp4446
(dp4447
g74
(dp4448
sg83
g4433
sg76
(lp4449
g69
(g70
g71
NtRp4450
(dp4451
g74
(dp4452
g82
I4
ssg83
g4446
sg76
(lp4453
S'web2py, python, framework'
p4454
asbasbasbasbasbasbasbag69
(g85
g71
NtRp4455
(dp4456
g74
(dp4457
sg83
g3230
sg76
(lp4458
g69
(g90
g71
NtRp4459
(dp4460
g74
(dp4461
g94
g95
ssg83
g4455
sg76
(lp4462
S'models_to_run'
p4463
asbag69
(g90
g71
NtRp4464
(dp4465
g74
(dp4466
g101
g102
ssg83
g4455
sg76
(lp4467
S':'
asbag69
(g90
g71
NtRp4468
(dp4469
g74
(dp4470
sg83
g4455
sg76
(lp4471
g69
(g70
g71
NtRp4472
(dp4473
g74
(dp4474
g82
I5
ssg83
g4468
sg76
(lp4475
g69
(g78
g71
NtRp4476
(dp4477
g74
(dp4478
g82
I4
ssg83
Nsg76
(lp4479
g69
(g85
g71
NtRp4480
(dp4481
g74
(dp4482
sg83
g4476
sg76
(lp4483
g69
(g90
g71
NtRp4484
(dp4485
g74
(dp4486
sg83
g4480
sg76
(lp4487
g69
(g70
g71
NtRp4488
(dp4489
g74
(dp4490
g82
I4
ssg83
g4484
sg76
(lp4491
S'^\\w+\\.py$'
p4492
asbasbasbag69
(g85
g71
NtRp4493
(dp4494
g74
(dp4495
sg83
g4476
sg76
(lp4496
g69
(g90
g71
NtRp4497
(dp4498
g74
(dp4499
sg83
g4493
sg76
(lp4500
g69
(g70
g71
NtRp4501
(dp4502
g74
(dp4503
g82
I4
ssg83
g4497
sg76
(lp4504
S'^default/\\w+\\.py$'
p4505
asbasbasbag69
(g85
g71
NtRp4506
(dp4507
g74
(dp4508
sg83
g4476
sg76
(lp4509
g69
(g90
g71
NtRp4510
(dp4511
g74
(dp4512
sg83
g4506
sg76
(lp4513
g69
(g70
g71
NtRp4514
(dp4515
g74
(dp4516
g82
I4
ssg83
g4510
sg76
(lp4517
S'^default/index/\\w+\\.py$'
p4518
asbasbasbasbasbasbasbag69
(g85
g71
NtRp4519
(dp4520
g74
(dp4521
sg83
g3230
sg76
(lp4522
g69
(g90
g71
NtRp4523
(dp4524
g74
(dp4525
g94
g95
ssg83
g4519
sg76
(lp4526
S'postprocessing'
p4527
asbag69
(g90
g71
NtRp4528
(dp4529
g74
(dp4530
g101
g102
ssg83
g4519
sg76
(lp4531
S':'
asbag69
(g90
g71
NtRp4532
(dp4533
g74
(dp4534
sg83
g4519
sg76
(lp4535
g69
(g70
g71
NtRp4536
(dp4537
g74
(dp4538
g82
I5
ssg83
g4532
sg76
(lp4539
g69
(g78
g71
NtRp4540
(dp4541
g74
(dp4542
g82
I4
ssg83
Nsg76
(lp4543
sbasbasbasbag69
(g85
g71
NtRp4544
(dp4545
g74
(dp4546
sg83
g3230
sg76
(lp4547
g69
(g90
g71
NtRp4548
(dp4549
g74
(dp4550
g94
g95
ssg83
g4544
sg76
(lp4551
S'session_cookie_expires'
p4552
asbag69
(g90
g71
NtRp4553
(dp4554
g74
(dp4555
g101
g102
ssg83
g4544
sg76
(lp4556
S':'
asbag69
(g90
g71
NtRp4557
(dp4558
g74
(dp4559
sg83
g4544
sg76
(lp4560
g69
(g70
g71
NtRp4561
(dp4562
g74
(dp4563
g82
I5
ssg83
g4557
sg76
(lp4564
S'None'
p4565
asbasbasbag69
(g85
g71
NtRp4566
(dp4567
g74
(dp4568
sg83
g3230
sg76
(lp4569
g69
(g90
g71
NtRp4570
(dp4571
g74
(dp4572
g94
g95
ssg83
g4566
sg76
(lp4573
S'session_data_name'
p4574
asbag69
(g90
g71
NtRp4575
(dp4576
g74
(dp4577
g101
g102
ssg83
g4566
sg76
(lp4578
S':'
asbag69
(g90
g71
NtRp4579
(dp4580
g74
(dp4581
sg83
g4566
sg76
(lp4582
g69
(g70
g71
NtRp4583
(dp4584
g74
(dp4585
g82
I5
ssg83
g4579
sg76
(lp4586
S'session_data_welcome'
p4587
asbasbasbag69
(g85
g71
NtRp4588
(dp4589
g74
(dp4590
sg83
g3230
sg76
(lp4591
g69
(g90
g71
NtRp4592
(dp4593
g74
(dp4594
g94
g95
ssg83
g4588
sg76
(lp4595
S'session_filename'
p4596
asbag69
(g90
g71
NtRp4597
(dp4598
g74
(dp4599
g101
g102
ssg83
g4588
sg76
(lp4600
S':'
asbag69
(g90
g71
NtRp4601
(dp4602
g74
(dp4603
sg83
g4588
sg76
(lp4604
g69
(g70
g71
NtRp4605
(dp4606
g74
(dp4607
g82
I5
ssg83
g4601
sg76
(lp4608
S'X:\\procurement\\MATERIEL\\Raw Material\\Data Management\\Custom Applications\\Development\\web2py\\applications\\welcome\\sessions\\127.0.0.1-a23eb908-b6ca-4638-888c-41a7c3513ddf'
p4609
asbasbasbag69
(g85
g71
NtRp4610
(dp4611
g74
(dp4612
sg83
g3230
sg76
(lp4613
g69
(g90
g71
NtRp4614
(dp4615
g74
(dp4616
g94
g95
ssg83
g4610
sg76
(lp4617
S'session_id'
p4618
asbag69
(g90
g71
NtRp4619
(dp4620
g74
(dp4621
g101
g102
ssg83
g4610
sg76
(lp4622
S':'
asbag69
(g90
g71
NtRp4623
(dp4624
g74
(dp4625
sg83
g4610
sg76
(lp4626
g69
(g70
g71
NtRp4627
(dp4628
g74
(dp4629
g82
I5
ssg83
g4623
sg76
(lp4630
g3300
asbasbasbag69
(g85
g71
NtRp4631
(dp4632
g74
(dp4633
sg83
g3230
sg76
(lp4634
g69
(g90
g71
NtRp4635
(dp4636
g74
(dp4637
g94
g95
ssg83
g4631
sg76
(lp4638
S'session_id_name'
p4639
asbag69
(g90
g71
NtRp4640
(dp4641
g74
(dp4642
g101
g102
ssg83
g4631
sg76
(lp4643
S':'
asbag69
(g90
g71
NtRp4644
(dp4645
g74
(dp4646
sg83
g4631
sg76
(lp4647
g69
(g70
g71
NtRp4648
(dp4649
g74
(dp4650
g82
I5
ssg83
g4644
sg76
(lp4651
g3287
asbasbasbag69
(g85
g71
NtRp4652
(dp4653
g74
(dp4654
sg83
g3230
sg76
(lp4655
g69
(g90
g71
NtRp4656
(dp4657
g74
(dp4658
g94
g95
ssg83
g4652
sg76
(lp4659
S'session_new'
p4660
asbag69
(g90
g71
NtRp4661
(dp4662
g74
(dp4663
g101
g102
ssg83
g4652
sg76
(lp4664
S':'
asbag69
(g90
g71
NtRp4665
(dp4666
g74
(dp4667
sg83
g4652
sg76
(lp4668
g69
(g70
g71
NtRp4669
(dp4670
g74
(dp4671
g82
I5
ssg83
g4665
sg76
(lp4672
g1594
asbasbasbag69
(g85
g71
NtRp4673
(dp4674
g74
(dp4675
sg83
g3230
sg76
(lp4676
g69
(g90
g71
NtRp4677
(dp4678
g74
(dp4679
g94
g95
ssg83
g4673
sg76
(lp4680
S'session_storage_type'
p4681
asbag69
(g90
g71
NtRp4682
(dp4683
g74
(dp4684
g101
g102
ssg83
g4673
sg76
(lp4685
S':'
asbag69
(g90
g71
NtRp4686
(dp4687
g74
(dp4688
sg83
g4673
sg76
(lp4689
g69
(g70
g71
NtRp4690
(dp4691
g74
(dp4692
g82
I5
ssg83
g4686
sg76
(lp4693
g3025
asbasbasbag69
(g85
g71
NtRp4694
(dp4695
g74
(dp4696
sg83
g3230
sg76
(lp4697
g69
(g90
g71
NtRp4698
(dp4699
g74
(dp4700
g94
g95
ssg83
g4694
sg76
(lp4701
S'status'
p4702
asbag69
(g90
g71
NtRp4703
(dp4704
g74
(dp4705
g101
g102
ssg83
g4694
sg76
(lp4706
S':'
asbag69
(g90
g71
NtRp4707
(dp4708
g74
(dp4709
sg83
g4694
sg76
(lp4710
g69
(g70
g71
NtRp4711
(dp4712
g74
(dp4713
g82
I5
ssg83
g4707
sg76
(lp4714
S'200'
p4715
asbasbasbag69
(g85
g71
NtRp4716
(dp4717
g74
(dp4718
sg83
g3230
sg76
(lp4719
g69
(g90
g71
NtRp4720
(dp4721
g74
(dp4722
g94
g95
ssg83
g4716
sg76
(lp4723
S'subtitle'
p4724
asbag69
(g90
g71
NtRp4725
(dp4726
g74
(dp4727
g101
g102
ssg83
g4716
sg76
(lp4728
S':'
asbag69
(g90
g71
NtRp4729
(dp4730
g74
(dp4731
sg83
g4716
sg76
(lp4732
g69
(g70
g71
NtRp4733
(dp4734
g74
(dp4735
g82
I5
ssg83
g4729
sg76
(lp4736
g3721
(S's\r\x00\x00\x00customize me!'
tRp4737
asbasbasbag69
(g85
g71
NtRp4738
(dp4739
g74
(dp4740
sg83
g3230
sg76
(lp4741
g69
(g90
g71
NtRp4742
(dp4743
g74
(dp4744
g94
g95
ssg83
g4738
sg76
(lp4745
S'title'
p4746
asbag69
(g90
g71
NtRp4747
(dp4748
g74
(dp4749
g101
g102
ssg83
g4738
sg76
(lp4750
S':'
asbag69
(g90
g71
NtRp4751
(dp4752
g74
(dp4753
sg83
g4738
sg76
(lp4754
g69
(g70
g71
NtRp4755
(dp4756
g74
(dp4757
g82
I5
ssg83
g4751
sg76
(lp4758
S'Welcome'
p4759
asbasbasbag69
(g85
g71
NtRp4760
(dp4761
g74
(dp4762
sg83
g3230
sg76
(lp4763
g69
(g90
g71
NtRp4764
(dp4765
g74
(dp4766
g94
g95
ssg83
g4760
sg76
(lp4767
S'view'
p4768
asbag69
(g90
g71
NtRp4769
(dp4770
g74
(dp4771
g101
g102
ssg83
g4760
sg76
(lp4772
S':'
asbag69
(g90
g71
NtRp4773
(dp4774
g74
(dp4775
sg83
g4760
sg76
(lp4776
g69
(g70
g71
NtRp4777
(dp4778
g74
(dp4779
g82
I5
ssg83
g4773
sg76
(lp4780
S'default/index.html'
p4781
asbasbasbasbasbsS'locals'
p4782
(dp4783
S'IDispatch'
p4784
S"'excel.application'"
p4785
sS'clsctx'
p4786
S'21'
p4787
sssS'traceback'
p4788
S'Traceback (most recent call last):\n  File "X:\\procurement\\MATERIEL\\Raw Material\\Data Management\\Custom Applications\\Development\\web2py\\gluon\\restricted.py", line 212, in restricted\n    exec ccode in environment\n  File "X:\\procurement\\MATERIEL\\Raw Material\\Data Management\\Custom Applications\\Development\\web2py\\applications\\welcome\\controllers/default.py", line 90, in <module>\n  File "X:\\procurement\\MATERIEL\\Raw Material\\Data Management\\Custom Applications\\Development\\web2py\\gluon\\globals.py", line 188, in <lambda>\n    self._caller = lambda f: f()\n  File "X:\\procurement\\MATERIEL\\Raw Material\\Data Management\\Custom Applications\\Development\\web2py\\applications\\welcome\\controllers/default.py", line 32, in index\n    ChartObj.start_export()\n  File "applications\\welcome\\modules\\pyxlchart.py", line 32, in start_export\n    self._export()\n  File "applications\\welcome\\modules\\pyxlchart.py", line 38, in _export\n    excel = Dispatch("excel.application")\n  File "D:\\Python27\\lib\\site-packages\\win32com\\client\\__init__.py", line 95, in Dispatch\n    dispatch, userName = dynamic._GetGoodDispatchAndUserName(dispatch,userName,clsctx)\n  File "D:\\Python27\\lib\\site-packages\\win32com\\client\\dynamic.py", line 114, in _GetGoodDispatchAndUserName\n    return (_GetGoodDispatch(IDispatch, clsctx), userName)\n  File "D:\\Python27\\lib\\site-packages\\win32com\\client\\dynamic.py", line 91, in _GetGoodDispatch\n    IDispatch = pythoncom.CoCreateInstance(IDispatch, None, clsctx, pythoncom.IID_IDispatch)\ncom_error: (-2147221008, \'CoInitialize has not been called.\', None, None)\n'
p4789
s.