(dp1
S'output'
p2
S"<type 'exceptions.SyntaxError'> Field id_form does not belong to the table"
p3
sS'layer'
p4
S'D:\\web2py\\source\\web2py\\applications\\web2py_xlchart_dashboard\\controllers/charts.py'
p5
sS'code'
p6
S'# coding: utf8\n# try something like\ndef index(): \n    return dict(message="hello from charts.py")\n    \ndef user_charts():\n    mycharts = db(db.user_chart.id_user == auth.user_id).select()\n    allcharts = db(db.chart).select()\n    return dict(mycharts = mycharts,allcharts = allcharts)\n\ndef subscribe_form():\n    \n    form = SQLFORM(db.user_chart,fields=[\'title\',\'description\'],hidden=dict(id_chart=request.vars[\'id_chart\'][0]))\n    form.vars.id_form = request.vars[\'id_chart\'][1]\n    if form.accepts(request,session):\n        form.vars.id_form = request.vars[\'id_chart\'][1]\n    if form.process().accepted:\n        response.flash = \'form accepted\'\n    elif form.errors:\n        response.flash = \'form has errors\'\n    else:\n        response.flash = \'please fill out the form\'\n    return form\n\ndef subscribe():\n    pass\n    \ndef download():\n    return response.download(request, db)\n\nresponse._vars=response._caller(subscribe_form)\n'
p7
sS'snapshot'
p8
(dp9
S'exception'
p10
(dp11
S'__getslice__'
p12
S"<method-wrapper '__getslice__' of exceptions.SyntaxError object>"
p13
sS'text'
p14
S'None'
p15
sS'__str__'
p16
S"<method-wrapper '__str__' of exceptions.SyntaxError object>"
p17
sS'__reduce__'
p18
S'<built-in method __reduce__ of exceptions.SyntaxError object>'
p19
sS'__dict__'
p20
S'{}'
p21
sS'__sizeof__'
p22
S'<built-in method __sizeof__ of exceptions.SyntaxError object>'
p23
sS'__init__'
p24
S"<method-wrapper '__init__' of exceptions.SyntaxError object>"
p25
sS'__setattr__'
p26
S"<method-wrapper '__setattr__' of exceptions.SyntaxError object>"
p27
sS'__reduce_ex__'
p28
S'<built-in method __reduce_ex__ of exceptions.SyntaxError object>'
p29
sS'__new__'
p30
S'<built-in method __new__ of type object>'
p31
sS'__format__'
p32
S'<built-in method __format__ of exceptions.SyntaxError object>'
p33
sS'__class__'
p34
S"<type 'exceptions.SyntaxError'>"
p35
sS'filename'
p36
S'None'
p37
sS'lineno'
p38
S'None'
p39
sS'msg'
p40
S"'Field id_form does not belong to the table'"
p41
sS'__doc__'
p42
S"'Invalid syntax.'"
p43
sS'__getitem__'
p44
S"<method-wrapper '__getitem__' of exceptions.SyntaxError object>"
p45
sS'__setstate__'
p46
S'<built-in method __setstate__ of exceptions.SyntaxError object>'
p47
sS'__getattribute__'
p48
S"<method-wrapper '__getattribute__' of exceptions.SyntaxError object>"
p49
sS'print_file_and_line'
p50
S'None'
p51
sS'args'
p52
S"('Field id_form does not belong to the table',)"
p53
sS'__subclasshook__'
p54
S'<built-in method __subclasshook__ of type object>'
p55
sS'offset'
p56
S'None'
p57
sS'__unicode__'
p58
S'<built-in method __unicode__ of exceptions.SyntaxError object>'
p59
sS'__delattr__'
p60
S"<method-wrapper '__delattr__' of exceptions.SyntaxError object>"
p61
sS'__repr__'
p62
S"<method-wrapper '__repr__' of exceptions.SyntaxError object>"
p63
sS'__hash__'
p64
S"<method-wrapper '__hash__' of exceptions.SyntaxError object>"
p65
ssS'evalue'
p66
S'Field id_form does not belong to the table'
p67
sS'request'
p68
ccopy_reg
_reconstructor
p69
(cgluon.html
BEAUTIFY
p70
c__builtin__
object
p71
NtRp72
(dp73
S'attributes'
p74
(dp75
sS'components'
p76
(lp77
g69
(cgluon.html
TABLE
p78
g71
NtRp79
(dp80
g74
(dp81
S'level'
p82
I5
ssS'parent'
p83
Nsg76
(lp84
g69
(cgluon.html
TR
p85
g71
NtRp86
(dp87
g74
(dp88
sg83
g79
sg76
(lp89
g69
(cgluon.html
TD
p90
g71
NtRp91
(dp92
g74
(dp93
S'_style'
p94
S'font-weight:bold;vertical-align:top'
p95
ssg83
g86
sg76
(lp96
S'ajax'
p97
asbag69
(g90
g71
NtRp98
(dp99
g74
(dp100
S'_valign'
p101
S'top'
p102
ssg83
g86
sg76
(lp103
S':'
asbag69
(g90
g71
NtRp104
(dp105
g74
(dp106
sg83
g86
sg76
(lp107
g69
(g70
g71
NtRp108
(dp109
g74
(dp110
g82
I5
ssg83
g104
sg76
(lp111
S'True'
p112
asbasbasbag69
(g85
g71
NtRp113
(dp114
g74
(dp115
sg83
g79
sg76
(lp116
g69
(g90
g71
NtRp117
(dp118
g74
(dp119
g94
g95
ssg83
g113
sg76
(lp120
S'application'
p121
asbag69
(g90
g71
NtRp122
(dp123
g74
(dp124
g101
g102
ssg83
g113
sg76
(lp125
S':'
asbag69
(g90
g71
NtRp126
(dp127
g74
(dp128
sg83
g113
sg76
(lp129
g69
(g70
g71
NtRp130
(dp131
g74
(dp132
g82
I5
ssg83
g126
sg76
(lp133
S'web2py_xlchart_dashboard'
p134
asbasbasbag69
(g85
g71
NtRp135
(dp136
g74
(dp137
sg83
g79
sg76
(lp138
g69
(g90
g71
NtRp139
(dp140
g74
(dp141
g94
g95
ssg83
g135
sg76
(lp142
g52
asbag69
(g90
g71
NtRp143
(dp144
g74
(dp145
g101
g102
ssg83
g135
sg76
(lp146
S':'
asbag69
(g90
g71
NtRp147
(dp148
g74
(dp149
sg83
g135
sg76
(lp150
g69
(g70
g71
NtRp151
(dp152
g74
(dp153
g82
I5
ssg83
g147
sg76
(lp154
g69
(g78
g71
NtRp155
(dp156
g74
(dp157
g82
I4
ssg83
Nsg76
(lp158
sbasbasbasbag69
(g85
g71
NtRp159
(dp160
g74
(dp161
sg83
g79
sg76
(lp162
g69
(g90
g71
NtRp163
(dp164
g74
(dp165
g94
g95
ssg83
g159
sg76
(lp166
S'body'
p167
asbag69
(g90
g71
NtRp168
(dp169
g74
(dp170
g101
g102
ssg83
g159
sg76
(lp171
S':'
asbag69
(g90
g71
NtRp172
(dp173
g74
(dp174
sg83
g159
sg76
(lp175
g69
(g70
g71
NtRp176
(dp177
g74
(dp178
g82
I5
ssg83
g172
sg76
(lp179
S"<open file '<fdopen>', mode 'w+b' at 0x05C15700>"
p180
asbasbasbag69
(g85
g71
NtRp181
(dp182
g74
(dp183
sg83
g79
sg76
(lp184
g69
(g90
g71
NtRp185
(dp186
g74
(dp187
g94
g95
ssg83
g181
sg76
(lp188
S'cid'
p189
asbag69
(g90
g71
NtRp190
(dp191
g74
(dp192
g101
g102
ssg83
g181
sg76
(lp193
S':'
asbag69
(g90
g71
NtRp194
(dp195
g74
(dp196
sg83
g181
sg76
(lp197
g69
(g70
g71
NtRp198
(dp199
g74
(dp200
g82
I5
ssg83
g194
sg76
(lp201
S'pyxl1352146819_09'
p202
asbasbasbag69
(g85
g71
NtRp203
(dp204
g74
(dp205
sg83
g79
sg76
(lp206
g69
(g90
g71
NtRp207
(dp208
g74
(dp209
g94
g95
ssg83
g203
sg76
(lp210
S'client'
p211
asbag69
(g90
g71
NtRp212
(dp213
g74
(dp214
g101
g102
ssg83
g203
sg76
(lp215
S':'
asbag69
(g90
g71
NtRp216
(dp217
g74
(dp218
sg83
g203
sg76
(lp219
g69
(g70
g71
NtRp220
(dp221
g74
(dp222
g82
I5
ssg83
g216
sg76
(lp223
S'127.0.0.1'
p224
asbasbasbag69
(g85
g71
NtRp225
(dp226
g74
(dp227
sg83
g79
sg76
(lp228
g69
(g90
g71
NtRp229
(dp230
g74
(dp231
g94
g95
ssg83
g225
sg76
(lp232
S'controller'
p233
asbag69
(g90
g71
NtRp234
(dp235
g74
(dp236
g101
g102
ssg83
g225
sg76
(lp237
S':'
asbag69
(g90
g71
NtRp238
(dp239
g74
(dp240
sg83
g225
sg76
(lp241
g69
(g70
g71
NtRp242
(dp243
g74
(dp244
g82
I5
ssg83
g238
sg76
(lp245
S'charts'
p246
asbasbasbag69
(g85
g71
NtRp247
(dp248
g74
(dp249
sg83
g79
sg76
(lp250
g69
(g90
g71
NtRp251
(dp252
g74
(dp253
g94
g95
ssg83
g247
sg76
(lp254
S'cookies'
p255
asbag69
(g90
g71
NtRp256
(dp257
g74
(dp258
g101
g102
ssg83
g247
sg76
(lp259
S':'
asbag69
(g90
g71
NtRp260
(dp261
g74
(dp262
sg83
g247
sg76
(lp263
g69
(g70
g71
NtRp264
(dp265
g74
(dp266
g82
I5
ssg83
g260
sg76
(lp267
g69
(g78
g71
NtRp268
(dp269
g74
(dp270
g82
I4
ssg83
Nsg76
(lp271
g69
(g85
g71
NtRp272
(dp273
g74
(dp274
sg83
g268
sg76
(lp275
g69
(g90
g71
NtRp276
(dp277
g74
(dp278
g94
g95
ssg83
g272
sg76
(lp279
S'session_id_admin'
p280
asbag69
(g90
g71
NtRp281
(dp282
g74
(dp283
g101
g102
ssg83
g272
sg76
(lp284
S':'
asbag69
(g90
g71
NtRp285
(dp286
g74
(dp287
sg83
g272
sg76
(lp288
g69
(g70
g71
NtRp289
(dp290
g74
(dp291
g82
I4
ssg83
g285
sg76
(lp292
S'127.0.0.1-480fa34f-5c98-43dd-a208-33fad76d92d0'
p293
ag69
(g78
g71
NtRp294
(dp295
g74
(dp296
g82
I3
ssg83
Nsg76
(lp297
g69
(g85
g71
NtRp298
(dp299
g74
(dp300
sg83
g294
sg76
(lp301
g69
(g90
g71
NtRp302
(dp303
g74
(dp304
g94
g95
ssg83
g298
sg76
(lp305
S'comment'
p306
asbag69
(g90
g71
NtRp307
(dp308
g74
(dp309
g101
g102
ssg83
g298
sg76
(lp310
S':'
asbag69
(g90
g71
NtRp311
(dp312
g74
(dp313
sg83
g298
sg76
(lp314
g69
(g70
g71
NtRp315
(dp316
g74
(dp317
g82
I3
ssg83
g311
sg76
(lp318
S''
asbasbasbag69
(g85
g71
NtRp319
(dp320
g74
(dp321
sg83
g294
sg76
(lp322
g69
(g90
g71
NtRp323
(dp324
g74
(dp325
g94
g95
ssg83
g319
sg76
(lp326
S'domain'
p327
asbag69
(g90
g71
NtRp328
(dp329
g74
(dp330
g101
g102
ssg83
g319
sg76
(lp331
S':'
asbag69
(g90
g71
NtRp332
(dp333
g74
(dp334
sg83
g319
sg76
(lp335
g69
(g70
g71
NtRp336
(dp337
g74
(dp338
g82
I3
ssg83
g332
sg76
(lp339
S''
asbasbasbag69
(g85
g71
NtRp340
(dp341
g74
(dp342
sg83
g294
sg76
(lp343
g69
(g90
g71
NtRp344
(dp345
g74
(dp346
g94
g95
ssg83
g340
sg76
(lp347
S'expires'
p348
asbag69
(g90
g71
NtRp349
(dp350
g74
(dp351
g101
g102
ssg83
g340
sg76
(lp352
S':'
asbag69
(g90
g71
NtRp353
(dp354
g74
(dp355
sg83
g340
sg76
(lp356
g69
(g70
g71
NtRp357
(dp358
g74
(dp359
g82
I3
ssg83
g353
sg76
(lp360
S''
asbasbasbag69
(g85
g71
NtRp361
(dp362
g74
(dp363
sg83
g294
sg76
(lp364
g69
(g90
g71
NtRp365
(dp366
g74
(dp367
g94
g95
ssg83
g361
sg76
(lp368
S'httponly'
p369
asbag69
(g90
g71
NtRp370
(dp371
g74
(dp372
g101
g102
ssg83
g361
sg76
(lp373
S':'
asbag69
(g90
g71
NtRp374
(dp375
g74
(dp376
sg83
g361
sg76
(lp377
g69
(g70
g71
NtRp378
(dp379
g74
(dp380
g82
I3
ssg83
g374
sg76
(lp381
S''
asbasbasbag69
(g85
g71
NtRp382
(dp383
g74
(dp384
sg83
g294
sg76
(lp385
g69
(g90
g71
NtRp386
(dp387
g74
(dp388
g94
g95
ssg83
g382
sg76
(lp389
S'max-age'
p390
asbag69
(g90
g71
NtRp391
(dp392
g74
(dp393
g101
g102
ssg83
g382
sg76
(lp394
S':'
asbag69
(g90
g71
NtRp395
(dp396
g74
(dp397
sg83
g382
sg76
(lp398
g69
(g70
g71
NtRp399
(dp400
g74
(dp401
g82
I3
ssg83
g395
sg76
(lp402
S''
asbasbasbag69
(g85
g71
NtRp403
(dp404
g74
(dp405
sg83
g294
sg76
(lp406
g69
(g90
g71
NtRp407
(dp408
g74
(dp409
g94
g95
ssg83
g403
sg76
(lp410
S'path'
p411
asbag69
(g90
g71
NtRp412
(dp413
g74
(dp414
g101
g102
ssg83
g403
sg76
(lp415
S':'
asbag69
(g90
g71
NtRp416
(dp417
g74
(dp418
sg83
g403
sg76
(lp419
g69
(g70
g71
NtRp420
(dp421
g74
(dp422
g82
I3
ssg83
g416
sg76
(lp423
S''
asbasbasbag69
(g85
g71
NtRp424
(dp425
g74
(dp426
sg83
g294
sg76
(lp427
g69
(g90
g71
NtRp428
(dp429
g74
(dp430
g94
g95
ssg83
g424
sg76
(lp431
S'secure'
p432
asbag69
(g90
g71
NtRp433
(dp434
g74
(dp435
g101
g102
ssg83
g424
sg76
(lp436
S':'
asbag69
(g90
g71
NtRp437
(dp438
g74
(dp439
sg83
g424
sg76
(lp440
g69
(g70
g71
NtRp441
(dp442
g74
(dp443
g82
I3
ssg83
g437
sg76
(lp444
S''
asbasbasbag69
(g85
g71
NtRp445
(dp446
g74
(dp447
sg83
g294
sg76
(lp448
g69
(g90
g71
NtRp449
(dp450
g74
(dp451
g94
g95
ssg83
g445
sg76
(lp452
S'version'
p453
asbag69
(g90
g71
NtRp454
(dp455
g74
(dp456
g101
g102
ssg83
g445
sg76
(lp457
S':'
asbag69
(g90
g71
NtRp458
(dp459
g74
(dp460
sg83
g445
sg76
(lp461
g69
(g70
g71
NtRp462
(dp463
g74
(dp464
g82
I3
ssg83
g458
sg76
(lp465
S''
asbasbasbasbasbasbasbag69
(g85
g71
NtRp466
(dp467
g74
(dp468
sg83
g268
sg76
(lp469
g69
(g90
g71
NtRp470
(dp471
g74
(dp472
g94
g95
ssg83
g466
sg76
(lp473
S'session_id_web2py_xlchart_dashboard'
p474
asbag69
(g90
g71
NtRp475
(dp476
g74
(dp477
g101
g102
ssg83
g466
sg76
(lp478
S':'
asbag69
(g90
g71
NtRp479
(dp480
g74
(dp481
sg83
g466
sg76
(lp482
g69
(g70
g71
NtRp483
(dp484
g74
(dp485
g82
I4
ssg83
g479
sg76
(lp486
S'127.0.0.1-c53b418b-4944-4d07-915c-a998b8630125'
p487
ag69
(g78
g71
NtRp488
(dp489
g74
(dp490
g82
I3
ssg83
Nsg76
(lp491
g69
(g85
g71
NtRp492
(dp493
g74
(dp494
sg83
g488
sg76
(lp495
g69
(g90
g71
NtRp496
(dp497
g74
(dp498
g94
g95
ssg83
g492
sg76
(lp499
g306
asbag69
(g90
g71
NtRp500
(dp501
g74
(dp502
g101
g102
ssg83
g492
sg76
(lp503
S':'
asbag69
(g90
g71
NtRp504
(dp505
g74
(dp506
sg83
g492
sg76
(lp507
g69
(g70
g71
NtRp508
(dp509
g74
(dp510
g82
I3
ssg83
g504
sg76
(lp511
S''
asbasbasbag69
(g85
g71
NtRp512
(dp513
g74
(dp514
sg83
g488
sg76
(lp515
g69
(g90
g71
NtRp516
(dp517
g74
(dp518
g94
g95
ssg83
g512
sg76
(lp519
g327
asbag69
(g90
g71
NtRp520
(dp521
g74
(dp522
g101
g102
ssg83
g512
sg76
(lp523
S':'
asbag69
(g90
g71
NtRp524
(dp525
g74
(dp526
sg83
g512
sg76
(lp527
g69
(g70
g71
NtRp528
(dp529
g74
(dp530
g82
I3
ssg83
g524
sg76
(lp531
S''
asbasbasbag69
(g85
g71
NtRp532
(dp533
g74
(dp534
sg83
g488
sg76
(lp535
g69
(g90
g71
NtRp536
(dp537
g74
(dp538
g94
g95
ssg83
g532
sg76
(lp539
g348
asbag69
(g90
g71
NtRp540
(dp541
g74
(dp542
g101
g102
ssg83
g532
sg76
(lp543
S':'
asbag69
(g90
g71
NtRp544
(dp545
g74
(dp546
sg83
g532
sg76
(lp547
g69
(g70
g71
NtRp548
(dp549
g74
(dp550
g82
I3
ssg83
g544
sg76
(lp551
S''
asbasbasbag69
(g85
g71
NtRp552
(dp553
g74
(dp554
sg83
g488
sg76
(lp555
g69
(g90
g71
NtRp556
(dp557
g74
(dp558
g94
g95
ssg83
g552
sg76
(lp559
g369
asbag69
(g90
g71
NtRp560
(dp561
g74
(dp562
g101
g102
ssg83
g552
sg76
(lp563
S':'
asbag69
(g90
g71
NtRp564
(dp565
g74
(dp566
sg83
g552
sg76
(lp567
g69
(g70
g71
NtRp568
(dp569
g74
(dp570
g82
I3
ssg83
g564
sg76
(lp571
S''
asbasbasbag69
(g85
g71
NtRp572
(dp573
g74
(dp574
sg83
g488
sg76
(lp575
g69
(g90
g71
NtRp576
(dp577
g74
(dp578
g94
g95
ssg83
g572
sg76
(lp579
g390
asbag69
(g90
g71
NtRp580
(dp581
g74
(dp582
g101
g102
ssg83
g572
sg76
(lp583
S':'
asbag69
(g90
g71
NtRp584
(dp585
g74
(dp586
sg83
g572
sg76
(lp587
g69
(g70
g71
NtRp588
(dp589
g74
(dp590
g82
I3
ssg83
g584
sg76
(lp591
S''
asbasbasbag69
(g85
g71
NtRp592
(dp593
g74
(dp594
sg83
g488
sg76
(lp595
g69
(g90
g71
NtRp596
(dp597
g74
(dp598
g94
g95
ssg83
g592
sg76
(lp599
g411
asbag69
(g90
g71
NtRp600
(dp601
g74
(dp602
g101
g102
ssg83
g592
sg76
(lp603
S':'
asbag69
(g90
g71
NtRp604
(dp605
g74
(dp606
sg83
g592
sg76
(lp607
g69
(g70
g71
NtRp608
(dp609
g74
(dp610
g82
I3
ssg83
g604
sg76
(lp611
S''
asbasbasbag69
(g85
g71
NtRp612
(dp613
g74
(dp614
sg83
g488
sg76
(lp615
g69
(g90
g71
NtRp616
(dp617
g74
(dp618
g94
g95
ssg83
g612
sg76
(lp619
g432
asbag69
(g90
g71
NtRp620
(dp621
g74
(dp622
g101
g102
ssg83
g612
sg76
(lp623
S':'
asbag69
(g90
g71
NtRp624
(dp625
g74
(dp626
sg83
g612
sg76
(lp627
g69
(g70
g71
NtRp628
(dp629
g74
(dp630
g82
I3
ssg83
g624
sg76
(lp631
S''
asbasbasbag69
(g85
g71
NtRp632
(dp633
g74
(dp634
sg83
g488
sg76
(lp635
g69
(g90
g71
NtRp636
(dp637
g74
(dp638
g94
g95
ssg83
g632
sg76
(lp639
g453
asbag69
(g90
g71
NtRp640
(dp641
g74
(dp642
g101
g102
ssg83
g632
sg76
(lp643
S':'
asbag69
(g90
g71
NtRp644
(dp645
g74
(dp646
sg83
g632
sg76
(lp647
g69
(g70
g71
NtRp648
(dp649
g74
(dp650
g82
I3
ssg83
g644
sg76
(lp651
S''
asbasbasbasbasbasbasbasbasbasbasbag69
(g85
g71
NtRp652
(dp653
g74
(dp654
sg83
g79
sg76
(lp655
g69
(g90
g71
NtRp656
(dp657
g74
(dp658
g94
g95
ssg83
g652
sg76
(lp659
S'env'
p660
asbag69
(g90
g71
NtRp661
(dp662
g74
(dp663
g101
g102
ssg83
g652
sg76
(lp664
S':'
asbag69
(g90
g71
NtRp665
(dp666
g74
(dp667
sg83
g652
sg76
(lp668
g69
(g70
g71
NtRp669
(dp670
g74
(dp671
g82
I5
ssg83
g665
sg76
(lp672
g69
(g78
g71
NtRp673
(dp674
g74
(dp675
g82
I4
ssg83
Nsg76
(lp676
g69
(g85
g71
NtRp677
(dp678
g74
(dp679
sg83
g673
sg76
(lp680
g69
(g90
g71
NtRp681
(dp682
g74
(dp683
g94
g95
ssg83
g677
sg76
(lp684
S'app_folders'
p685
asbag69
(g90
g71
NtRp686
(dp687
g74
(dp688
g101
g102
ssg83
g677
sg76
(lp689
S':'
asbag69
(g90
g71
NtRp690
(dp691
g74
(dp692
sg83
g677
sg76
(lp693
g69
(g70
g71
NtRp694
(dp695
g74
(dp696
g82
I4
ssg83
g690
sg76
(lp697
S"set(['D:\\\\web2py\\\\source\\\\web2py\\\\applications\\\\admin\\\\', 'D:\\\\web2py\\\\source\\\\web2py\\\\applications\\\\welcome\\\\', 'D:\\\\web2py\\\\source\\\\web2py\\\\applications\\\\web2py_xlchart_dashboard\\\\'])"
p698
asbasbasbag69
(g85
g71
NtRp699
(dp700
g74
(dp701
sg83
g673
sg76
(lp702
g69
(g90
g71
NtRp703
(dp704
g74
(dp705
g94
g95
ssg83
g699
sg76
(lp706
S'applications_parent'
p707
asbag69
(g90
g71
NtRp708
(dp709
g74
(dp710
g101
g102
ssg83
g699
sg76
(lp711
S':'
asbag69
(g90
g71
NtRp712
(dp713
g74
(dp714
sg83
g699
sg76
(lp715
g69
(g70
g71
NtRp716
(dp717
g74
(dp718
g82
I4
ssg83
g712
sg76
(lp719
S'D:\\web2py\\source\\web2py'
p720
asbasbasbag69
(g85
g71
NtRp721
(dp722
g74
(dp723
sg83
g673
sg76
(lp724
g69
(g90
g71
NtRp725
(dp726
g74
(dp727
g94
g95
ssg83
g721
sg76
(lp728
S'cmd_args'
p729
asbag69
(g90
g71
NtRp730
(dp731
g74
(dp732
g101
g102
ssg83
g721
sg76
(lp733
S':'
asbag69
(g90
g71
NtRp734
(dp735
g74
(dp736
sg83
g721
sg76
(lp737
g69
(g70
g71
NtRp738
(dp739
g74
(dp740
g82
I4
ssg83
g734
sg76
(lp741
g69
(g78
g71
NtRp742
(dp743
g74
(dp744
g82
I3
ssg83
Nsg76
(lp745
sbasbasbasbag69
(g85
g71
NtRp746
(dp747
g74
(dp748
sg83
g673
sg76
(lp749
g69
(g90
g71
NtRp750
(dp751
g74
(dp752
g94
g95
ssg83
g746
sg76
(lp753
S'cmd_options'
p754
asbag69
(g90
g71
NtRp755
(dp756
g74
(dp757
g101
g102
ssg83
g746
sg76
(lp758
S':'
asbag69
(g90
g71
NtRp759
(dp760
g74
(dp761
sg83
g746
sg76
(lp762
g69
(g70
g71
NtRp763
(dp764
g74
(dp765
g82
I4
ssg83
g759
sg76
(lp766
S"<Values at 0xc78f58: {'verbose': False, 'ip': '127.0.0.1', 'with_scheduler': False, 'ips': ['192.168.0.14'], 'shutdown_timeout': 5, 'taskbar': False, 'port': 8000, 'maxthreads': None, 'softcron': False, 'server_name': 'GLKLAG235327', 'bpython': False, 'nogui': False, 'pid_filename': 'httpserver.pid', 'extcron': False, 'runcron': False, 'run_system_tests': False, 'test': None, 'folder': 'D:\\\\web2py\\\\source\\\\web2py', 'config': '', 'import_models': False, 'winservice': '', 'shell': None, 'run': '', 'log_filename': 'httpserver.log', 'debuglevel': 30, 'args': [''], 'socket_timeout': 5, 'ssl_ca_certificate': None, 'scheduler': None, 'profiler_filename': None, 'ssl_private_key': '', 'scheduler_groups': None, 'password': '<ask>', 'request_queue_size': 5, 'ssl_certificate': '', 'cronjob': False, 'numthreads': None, 'quiet': False, 'interfaces': None, 'minthreads': None, 'timeout': 10, 'plain': False, 'nobanner': False}>"
p767
asbasbasbag69
(g85
g71
NtRp768
(dp769
g74
(dp770
sg83
g673
sg76
(lp771
g69
(g90
g71
NtRp772
(dp773
g74
(dp774
g94
g95
ssg83
g768
sg76
(lp775
S'content_length'
p776
asbag69
(g90
g71
NtRp777
(dp778
g74
(dp779
g101
g102
ssg83
g768
sg76
(lp780
S':'
asbag69
(g90
g71
NtRp781
(dp782
g74
(dp783
sg83
g768
sg76
(lp784
g69
(g70
g71
NtRp785
(dp786
g74
(dp787
g82
I4
ssg83
g781
sg76
(lp788
S'114'
p789
asbasbasbag69
(g85
g71
NtRp790
(dp791
g74
(dp792
sg83
g673
sg76
(lp793
g69
(g90
g71
NtRp794
(dp795
g74
(dp796
g94
g95
ssg83
g790
sg76
(lp797
S'content_type'
p798
asbag69
(g90
g71
NtRp799
(dp800
g74
(dp801
g101
g102
ssg83
g790
sg76
(lp802
S':'
asbag69
(g90
g71
NtRp803
(dp804
g74
(dp805
sg83
g790
sg76
(lp806
g69
(g70
g71
NtRp807
(dp808
g74
(dp809
g82
I4
ssg83
g803
sg76
(lp810
S'application/x-www-form-urlencoded; charset=UTF-8'
p811
asbasbasbag69
(g85
g71
NtRp812
(dp813
g74
(dp814
sg83
g673
sg76
(lp815
g69
(g90
g71
NtRp816
(dp817
g74
(dp818
g94
g95
ssg83
g812
sg76
(lp819
S'db_sessions'
p820
asbag69
(g90
g71
NtRp821
(dp822
g74
(dp823
g101
g102
ssg83
g812
sg76
(lp824
S':'
asbag69
(g90
g71
NtRp825
(dp826
g74
(dp827
sg83
g812
sg76
(lp828
g69
(g70
g71
NtRp829
(dp830
g74
(dp831
g82
I4
ssg83
g825
sg76
(lp832
S'set([])'
p833
asbasbasbag69
(g85
g71
NtRp834
(dp835
g74
(dp836
sg83
g673
sg76
(lp837
g69
(g90
g71
NtRp838
(dp839
g74
(dp840
g94
g95
ssg83
g834
sg76
(lp841
S'debugging'
p842
asbag69
(g90
g71
NtRp843
(dp844
g74
(dp845
g101
g102
ssg83
g834
sg76
(lp846
S':'
asbag69
(g90
g71
NtRp847
(dp848
g74
(dp849
sg83
g834
sg76
(lp850
g69
(g70
g71
NtRp851
(dp852
g74
(dp853
g82
I4
ssg83
g847
sg76
(lp854
S'False'
p855
asbasbasbag69
(g85
g71
NtRp856
(dp857
g74
(dp858
sg83
g673
sg76
(lp859
g69
(g90
g71
NtRp860
(dp861
g74
(dp862
g94
g95
ssg83
g856
sg76
(lp863
S'gluon_parent'
p864
asbag69
(g90
g71
NtRp865
(dp866
g74
(dp867
g101
g102
ssg83
g856
sg76
(lp868
S':'
asbag69
(g90
g71
NtRp869
(dp870
g74
(dp871
sg83
g856
sg76
(lp872
g69
(g70
g71
NtRp873
(dp874
g74
(dp875
g82
I4
ssg83
g869
sg76
(lp876
S'D:\\web2py\\source\\web2py'
p877
asbasbasbag69
(g85
g71
NtRp878
(dp879
g74
(dp880
sg83
g673
sg76
(lp881
g69
(g90
g71
NtRp882
(dp883
g74
(dp884
g94
g95
ssg83
g878
sg76
(lp885
S'http_accept'
p886
asbag69
(g90
g71
NtRp887
(dp888
g74
(dp889
g101
g102
ssg83
g878
sg76
(lp890
S':'
asbag69
(g90
g71
NtRp891
(dp892
g74
(dp893
sg83
g878
sg76
(lp894
g69
(g70
g71
NtRp895
(dp896
g74
(dp897
g82
I4
ssg83
g891
sg76
(lp898
S'*/*'
p899
asbasbasbag69
(g85
g71
NtRp900
(dp901
g74
(dp902
sg83
g673
sg76
(lp903
g69
(g90
g71
NtRp904
(dp905
g74
(dp906
g94
g95
ssg83
g900
sg76
(lp907
S'http_accept_charset'
p908
asbag69
(g90
g71
NtRp909
(dp910
g74
(dp911
g101
g102
ssg83
g900
sg76
(lp912
S':'
asbag69
(g90
g71
NtRp913
(dp914
g74
(dp915
sg83
g900
sg76
(lp916
g69
(g70
g71
NtRp917
(dp918
g74
(dp919
g82
I4
ssg83
g913
sg76
(lp920
S'ISO-8859-1,utf-8;q=0.7,*;q=0.3'
p921
asbasbasbag69
(g85
g71
NtRp922
(dp923
g74
(dp924
sg83
g673
sg76
(lp925
g69
(g90
g71
NtRp926
(dp927
g74
(dp928
g94
g95
ssg83
g922
sg76
(lp929
S'http_accept_encoding'
p930
asbag69
(g90
g71
NtRp931
(dp932
g74
(dp933
g101
g102
ssg83
g922
sg76
(lp934
S':'
asbag69
(g90
g71
NtRp935
(dp936
g74
(dp937
sg83
g922
sg76
(lp938
g69
(g70
g71
NtRp939
(dp940
g74
(dp941
g82
I4
ssg83
g935
sg76
(lp942
S'gzip,deflate,sdch'
p943
asbasbasbag69
(g85
g71
NtRp944
(dp945
g74
(dp946
sg83
g673
sg76
(lp947
g69
(g90
g71
NtRp948
(dp949
g74
(dp950
g94
g95
ssg83
g944
sg76
(lp951
S'http_accept_language'
p952
asbag69
(g90
g71
NtRp953
(dp954
g74
(dp955
g101
g102
ssg83
g944
sg76
(lp956
S':'
asbag69
(g90
g71
NtRp957
(dp958
g74
(dp959
sg83
g944
sg76
(lp960
g69
(g70
g71
NtRp961
(dp962
g74
(dp963
g82
I4
ssg83
g957
sg76
(lp964
S'en-US,en;q=0.8'
p965
asbasbasbag69
(g85
g71
NtRp966
(dp967
g74
(dp968
sg83
g673
sg76
(lp969
g69
(g90
g71
NtRp970
(dp971
g74
(dp972
g94
g95
ssg83
g966
sg76
(lp973
S'http_connection'
p974
asbag69
(g90
g71
NtRp975
(dp976
g74
(dp977
g101
g102
ssg83
g966
sg76
(lp978
S':'
asbag69
(g90
g71
NtRp979
(dp980
g74
(dp981
sg83
g966
sg76
(lp982
g69
(g70
g71
NtRp983
(dp984
g74
(dp985
g82
I4
ssg83
g979
sg76
(lp986
S'keep-alive'
p987
asbasbasbag69
(g85
g71
NtRp988
(dp989
g74
(dp990
sg83
g673
sg76
(lp991
g69
(g90
g71
NtRp992
(dp993
g74
(dp994
g94
g95
ssg83
g988
sg76
(lp995
S'http_content_length'
p996
asbag69
(g90
g71
NtRp997
(dp998
g74
(dp999
g101
g102
ssg83
g988
sg76
(lp1000
S':'
asbag69
(g90
g71
NtRp1001
(dp1002
g74
(dp1003
sg83
g988
sg76
(lp1004
g69
(g70
g71
NtRp1005
(dp1006
g74
(dp1007
g82
I4
ssg83
g1001
sg76
(lp1008
g789
asbasbasbag69
(g85
g71
NtRp1009
(dp1010
g74
(dp1011
sg83
g673
sg76
(lp1012
g69
(g90
g71
NtRp1013
(dp1014
g74
(dp1015
g94
g95
ssg83
g1009
sg76
(lp1016
S'http_content_type'
p1017
asbag69
(g90
g71
NtRp1018
(dp1019
g74
(dp1020
g101
g102
ssg83
g1009
sg76
(lp1021
S':'
asbag69
(g90
g71
NtRp1022
(dp1023
g74
(dp1024
sg83
g1009
sg76
(lp1025
g69
(g70
g71
NtRp1026
(dp1027
g74
(dp1028
g82
I4
ssg83
g1022
sg76
(lp1029
g811
asbasbasbag69
(g85
g71
NtRp1030
(dp1031
g74
(dp1032
sg83
g673
sg76
(lp1033
g69
(g90
g71
NtRp1034
(dp1035
g74
(dp1036
g94
g95
ssg83
g1030
sg76
(lp1037
S'http_cookie'
p1038
asbag69
(g90
g71
NtRp1039
(dp1040
g74
(dp1041
g101
g102
ssg83
g1030
sg76
(lp1042
S':'
asbag69
(g90
g71
NtRp1043
(dp1044
g74
(dp1045
sg83
g1030
sg76
(lp1046
g69
(g70
g71
NtRp1047
(dp1048
g74
(dp1049
g82
I4
ssg83
g1043
sg76
(lp1050
S'session_id_admin=127.0.0.1-480fa34f-5c98-43dd-a208-33fad76d92d0; session_id_web2py_xlchart_dashboard=127.0.0.1-c53b418b-4944-4d07-915c-a998b8630125'
p1051
asbasbasbag69
(g85
g71
NtRp1052
(dp1053
g74
(dp1054
sg83
g673
sg76
(lp1055
g69
(g90
g71
NtRp1056
(dp1057
g74
(dp1058
g94
g95
ssg83
g1052
sg76
(lp1059
S'http_host'
p1060
asbag69
(g90
g71
NtRp1061
(dp1062
g74
(dp1063
g101
g102
ssg83
g1052
sg76
(lp1064
S':'
asbag69
(g90
g71
NtRp1065
(dp1066
g74
(dp1067
sg83
g1052
sg76
(lp1068
g69
(g70
g71
NtRp1069
(dp1070
g74
(dp1071
g82
I4
ssg83
g1065
sg76
(lp1072
S'localhost:8000'
p1073
asbasbasbag69
(g85
g71
NtRp1074
(dp1075
g74
(dp1076
sg83
g673
sg76
(lp1077
g69
(g90
g71
NtRp1078
(dp1079
g74
(dp1080
g94
g95
ssg83
g1074
sg76
(lp1081
S'http_origin'
p1082
asbag69
(g90
g71
NtRp1083
(dp1084
g74
(dp1085
g101
g102
ssg83
g1074
sg76
(lp1086
S':'
asbag69
(g90
g71
NtRp1087
(dp1088
g74
(dp1089
sg83
g1074
sg76
(lp1090
g69
(g70
g71
NtRp1091
(dp1092
g74
(dp1093
g82
I4
ssg83
g1087
sg76
(lp1094
S'http://localhost:8000'
p1095
asbasbasbag69
(g85
g71
NtRp1096
(dp1097
g74
(dp1098
sg83
g673
sg76
(lp1099
g69
(g90
g71
NtRp1100
(dp1101
g74
(dp1102
g94
g95
ssg83
g1096
sg76
(lp1103
S'http_referer'
p1104
asbag69
(g90
g71
NtRp1105
(dp1106
g74
(dp1107
g101
g102
ssg83
g1096
sg76
(lp1108
S':'
asbag69
(g90
g71
NtRp1109
(dp1110
g74
(dp1111
sg83
g1096
sg76
(lp1112
g69
(g70
g71
NtRp1113
(dp1114
g74
(dp1115
g82
I4
ssg83
g1109
sg76
(lp1116
S'http://localhost:8000/web2py_xlchart_dashboard/charts/user_charts'
p1117
asbasbasbag69
(g85
g71
NtRp1118
(dp1119
g74
(dp1120
sg83
g673
sg76
(lp1121
g69
(g90
g71
NtRp1122
(dp1123
g74
(dp1124
g94
g95
ssg83
g1118
sg76
(lp1125
S'http_user_agent'
p1126
asbag69
(g90
g71
NtRp1127
(dp1128
g74
(dp1129
g101
g102
ssg83
g1118
sg76
(lp1130
S':'
asbag69
(g90
g71
NtRp1131
(dp1132
g74
(dp1133
sg83
g1118
sg76
(lp1134
g69
(g70
g71
NtRp1135
(dp1136
g74
(dp1137
g82
I4
ssg83
g1131
sg76
(lp1138
S'Mozilla/5.0 (Windows NT 5.1) AppleWebKit/537.4 (KHTML, like Gecko) Chrome/22.0.1229.94 Safari/537.4'
p1139
asbasbasbag69
(g85
g71
NtRp1140
(dp1141
g74
(dp1142
sg83
g673
sg76
(lp1143
g69
(g90
g71
NtRp1144
(dp1145
g74
(dp1146
g94
g95
ssg83
g1140
sg76
(lp1147
S'http_web2py_component_element'
p1148
asbag69
(g90
g71
NtRp1149
(dp1150
g74
(dp1151
g101
g102
ssg83
g1140
sg76
(lp1152
S':'
asbag69
(g90
g71
NtRp1153
(dp1154
g74
(dp1155
sg83
g1140
sg76
(lp1156
g69
(g70
g71
NtRp1157
(dp1158
g74
(dp1159
g82
I4
ssg83
g1153
sg76
(lp1160
g202
asbasbasbag69
(g85
g71
NtRp1161
(dp1162
g74
(dp1163
sg83
g673
sg76
(lp1164
g69
(g90
g71
NtRp1165
(dp1166
g74
(dp1167
g94
g95
ssg83
g1161
sg76
(lp1168
S'http_web2py_component_location'
p1169
asbag69
(g90
g71
NtRp1170
(dp1171
g74
(dp1172
g101
g102
ssg83
g1161
sg76
(lp1173
S':'
asbag69
(g90
g71
NtRp1174
(dp1175
g74
(dp1176
sg83
g1161
sg76
(lp1177
g69
(g70
g71
NtRp1178
(dp1179
g74
(dp1180
g82
I4
ssg83
g1174
sg76
(lp1181
S'http://localhost:8000/web2py_xlchart_dashboard/charts/user_charts'
p1182
asbasbasbag69
(g85
g71
NtRp1183
(dp1184
g74
(dp1185
sg83
g673
sg76
(lp1186
g69
(g90
g71
NtRp1187
(dp1188
g74
(dp1189
g94
g95
ssg83
g1183
sg76
(lp1190
S'http_x_requested_with'
p1191
asbag69
(g90
g71
NtRp1192
(dp1193
g74
(dp1194
g101
g102
ssg83
g1183
sg76
(lp1195
S':'
asbag69
(g90
g71
NtRp1196
(dp1197
g74
(dp1198
sg83
g1183
sg76
(lp1199
g69
(g70
g71
NtRp1200
(dp1201
g74
(dp1202
g82
I4
ssg83
g1196
sg76
(lp1203
S'XMLHttpRequest'
p1204
asbasbasbag69
(g85
g71
NtRp1205
(dp1206
g74
(dp1207
sg83
g673
sg76
(lp1208
g69
(g90
g71
NtRp1209
(dp1210
g74
(dp1211
g94
g95
ssg83
g1205
sg76
(lp1212
S'is_jython'
p1213
asbag69
(g90
g71
NtRp1214
(dp1215
g74
(dp1216
g101
g102
ssg83
g1205
sg76
(lp1217
S':'
asbag69
(g90
g71
NtRp1218
(dp1219
g74
(dp1220
sg83
g1205
sg76
(lp1221
g69
(g70
g71
NtRp1222
(dp1223
g74
(dp1224
g82
I4
ssg83
g1218
sg76
(lp1225
g855
asbasbasbag69
(g85
g71
NtRp1226
(dp1227
g74
(dp1228
sg83
g673
sg76
(lp1229
g69
(g90
g71
NtRp1230
(dp1231
g74
(dp1232
g94
g95
ssg83
g1226
sg76
(lp1233
S'is_pypy'
p1234
asbag69
(g90
g71
NtRp1235
(dp1236
g74
(dp1237
g101
g102
ssg83
g1226
sg76
(lp1238
S':'
asbag69
(g90
g71
NtRp1239
(dp1240
g74
(dp1241
sg83
g1226
sg76
(lp1242
g69
(g70
g71
NtRp1243
(dp1244
g74
(dp1245
g82
I4
ssg83
g1239
sg76
(lp1246
g855
asbasbasbag69
(g85
g71
NtRp1247
(dp1248
g74
(dp1249
sg83
g673
sg76
(lp1250
g69
(g90
g71
NtRp1251
(dp1252
g74
(dp1253
g94
g95
ssg83
g1247
sg76
(lp1254
S'local_hosts'
p1255
asbag69
(g90
g71
NtRp1256
(dp1257
g74
(dp1258
g101
g102
ssg83
g1247
sg76
(lp1259
S':'
asbag69
(g90
g71
NtRp1260
(dp1261
g74
(dp1262
sg83
g1247
sg76
(lp1263
g69
(g70
g71
NtRp1264
(dp1265
g74
(dp1266
g82
I4
ssg83
g1260
sg76
(lp1267
g69
(g78
g71
NtRp1268
(dp1269
g74
(dp1270
g82
I3
ssg83
Nsg76
(lp1271
g69
(g85
g71
NtRp1272
(dp1273
g74
(dp1274
sg83
g1268
sg76
(lp1275
g69
(g90
g71
NtRp1276
(dp1277
g74
(dp1278
sg83
g1272
sg76
(lp1279
g69
(g70
g71
NtRp1280
(dp1281
g74
(dp1282
g82
I3
ssg83
g1276
sg76
(lp1283
S'127.0.0.1'
p1284
asbasbasbag69
(g85
g71
NtRp1285
(dp1286
g74
(dp1287
sg83
g1268
sg76
(lp1288
g69
(g90
g71
NtRp1289
(dp1290
g74
(dp1291
sg83
g1285
sg76
(lp1292
g69
(g70
g71
NtRp1293
(dp1294
g74
(dp1295
g82
I3
ssg83
g1289
sg76
(lp1296
S'::ffff:127.0.0.1'
p1297
asbasbasbag69
(g85
g71
NtRp1298
(dp1299
g74
(dp1300
sg83
g1268
sg76
(lp1301
g69
(g90
g71
NtRp1302
(dp1303
g74
(dp1304
sg83
g1298
sg76
(lp1305
g69
(g70
g71
NtRp1306
(dp1307
g74
(dp1308
g82
I3
ssg83
g1302
sg76
(lp1309
S'GLKLAG235327'
p1310
asbasbasbag69
(g85
g71
NtRp1311
(dp1312
g74
(dp1313
sg83
g1268
sg76
(lp1314
g69
(g90
g71
NtRp1315
(dp1316
g74
(dp1317
sg83
g1311
sg76
(lp1318
g69
(g70
g71
NtRp1319
(dp1320
g74
(dp1321
g82
I3
ssg83
g1315
sg76
(lp1322
S'GLKLAG235327'
p1323
asbasbasbag69
(g85
g71
NtRp1324
(dp1325
g74
(dp1326
sg83
g1268
sg76
(lp1327
g69
(g90
g71
NtRp1328
(dp1329
g74
(dp1330
sg83
g1324
sg76
(lp1331
g69
(g70
g71
NtRp1332
(dp1333
g74
(dp1334
g82
I3
ssg83
g1328
sg76
(lp1335
S'192.168.0.14'
p1336
asbasbasbasbasbasbasbag69
(g85
g71
NtRp1337
(dp1338
g74
(dp1339
sg83
g673
sg76
(lp1340
g69
(g90
g71
NtRp1341
(dp1342
g74
(dp1343
g94
g95
ssg83
g1337
sg76
(lp1344
S'path_info'
p1345
asbag69
(g90
g71
NtRp1346
(dp1347
g74
(dp1348
g101
g102
ssg83
g1337
sg76
(lp1349
S':'
asbag69
(g90
g71
NtRp1350
(dp1351
g74
(dp1352
sg83
g1337
sg76
(lp1353
g69
(g70
g71
NtRp1354
(dp1355
g74
(dp1356
g82
I4
ssg83
g1350
sg76
(lp1357
S'/web2py_xlchart_dashboard/charts/subscribe_form'
p1358
asbasbasbag69
(g85
g71
NtRp1359
(dp1360
g74
(dp1361
sg83
g673
sg76
(lp1362
g69
(g90
g71
NtRp1363
(dp1364
g74
(dp1365
g94
g95
ssg83
g1359
sg76
(lp1366
S'query_string'
p1367
asbag69
(g90
g71
NtRp1368
(dp1369
g74
(dp1370
g101
g102
ssg83
g1359
sg76
(lp1371
S':'
asbag69
(g90
g71
NtRp1372
(dp1373
g74
(dp1374
sg83
g1359
sg76
(lp1375
g69
(g70
g71
NtRp1376
(dp1377
g74
(dp1378
g82
I4
ssg83
g1372
sg76
(lp1379
S'id_chart=12'
p1380
asbasbasbag69
(g85
g71
NtRp1381
(dp1382
g74
(dp1383
sg83
g673
sg76
(lp1384
g69
(g90
g71
NtRp1385
(dp1386
g74
(dp1387
g94
g95
ssg83
g1381
sg76
(lp1388
S'remote_addr'
p1389
asbag69
(g90
g71
NtRp1390
(dp1391
g74
(dp1392
g101
g102
ssg83
g1381
sg76
(lp1393
S':'
asbag69
(g90
g71
NtRp1394
(dp1395
g74
(dp1396
sg83
g1381
sg76
(lp1397
g69
(g70
g71
NtRp1398
(dp1399
g74
(dp1400
g82
I4
ssg83
g1394
sg76
(lp1401
g224
asbasbasbag69
(g85
g71
NtRp1402
(dp1403
g74
(dp1404
sg83
g673
sg76
(lp1405
g69
(g90
g71
NtRp1406
(dp1407
g74
(dp1408
g94
g95
ssg83
g1402
sg76
(lp1409
S'remote_port'
p1410
asbag69
(g90
g71
NtRp1411
(dp1412
g74
(dp1413
g101
g102
ssg83
g1402
sg76
(lp1414
S':'
asbag69
(g90
g71
NtRp1415
(dp1416
g74
(dp1417
sg83
g1402
sg76
(lp1418
g69
(g70
g71
NtRp1419
(dp1420
g74
(dp1421
g82
I4
ssg83
g1415
sg76
(lp1422
S'3684'
p1423
asbasbasbag69
(g85
g71
NtRp1424
(dp1425
g74
(dp1426
sg83
g673
sg76
(lp1427
g69
(g90
g71
NtRp1428
(dp1429
g74
(dp1430
g94
g95
ssg83
g1424
sg76
(lp1431
S'request_method'
p1432
asbag69
(g90
g71
NtRp1433
(dp1434
g74
(dp1435
g101
g102
ssg83
g1424
sg76
(lp1436
S':'
asbag69
(g90
g71
NtRp1437
(dp1438
g74
(dp1439
sg83
g1424
sg76
(lp1440
g69
(g70
g71
NtRp1441
(dp1442
g74
(dp1443
g82
I4
ssg83
g1437
sg76
(lp1444
S'POST'
p1445
asbasbasbag69
(g85
g71
NtRp1446
(dp1447
g74
(dp1448
sg83
g673
sg76
(lp1449
g69
(g90
g71
NtRp1450
(dp1451
g74
(dp1452
g94
g95
ssg83
g1446
sg76
(lp1453
S'request_uri'
p1454
asbag69
(g90
g71
NtRp1455
(dp1456
g74
(dp1457
g101
g102
ssg83
g1446
sg76
(lp1458
S':'
asbag69
(g90
g71
NtRp1459
(dp1460
g74
(dp1461
sg83
g1446
sg76
(lp1462
g69
(g70
g71
NtRp1463
(dp1464
g74
(dp1465
g82
I4
ssg83
g1459
sg76
(lp1466
S'/web2py_xlchart_dashboard/charts/subscribe_form?id_chart=12'
p1467
asbasbasbag69
(g85
g71
NtRp1468
(dp1469
g74
(dp1470
sg83
g673
sg76
(lp1471
g69
(g90
g71
NtRp1472
(dp1473
g74
(dp1474
g94
g95
ssg83
g1468
sg76
(lp1475
S'script_name'
p1476
asbag69
(g90
g71
NtRp1477
(dp1478
g74
(dp1479
g101
g102
ssg83
g1468
sg76
(lp1480
S':'
asbag69
(g90
g71
NtRp1481
(dp1482
g74
(dp1483
sg83
g1468
sg76
(lp1484
g69
(g70
g71
NtRp1485
(dp1486
g74
(dp1487
g82
I4
ssg83
g1481
sg76
(lp1488
S''
asbasbasbag69
(g85
g71
NtRp1489
(dp1490
g74
(dp1491
sg83
g673
sg76
(lp1492
g69
(g90
g71
NtRp1493
(dp1494
g74
(dp1495
g94
g95
ssg83
g1489
sg76
(lp1496
S'server_name'
p1497
asbag69
(g90
g71
NtRp1498
(dp1499
g74
(dp1500
g101
g102
ssg83
g1489
sg76
(lp1501
S':'
asbag69
(g90
g71
NtRp1502
(dp1503
g74
(dp1504
sg83
g1489
sg76
(lp1505
g69
(g70
g71
NtRp1506
(dp1507
g74
(dp1508
g82
I4
ssg83
g1502
sg76
(lp1509
g1323
asbasbasbag69
(g85
g71
NtRp1510
(dp1511
g74
(dp1512
sg83
g673
sg76
(lp1513
g69
(g90
g71
NtRp1514
(dp1515
g74
(dp1516
g94
g95
ssg83
g1510
sg76
(lp1517
S'server_port'
p1518
asbag69
(g90
g71
NtRp1519
(dp1520
g74
(dp1521
g101
g102
ssg83
g1510
sg76
(lp1522
S':'
asbag69
(g90
g71
NtRp1523
(dp1524
g74
(dp1525
sg83
g1510
sg76
(lp1526
g69
(g70
g71
NtRp1527
(dp1528
g74
(dp1529
g82
I4
ssg83
g1523
sg76
(lp1530
S'8000'
p1531
asbasbasbag69
(g85
g71
NtRp1532
(dp1533
g74
(dp1534
sg83
g673
sg76
(lp1535
g69
(g90
g71
NtRp1536
(dp1537
g74
(dp1538
g94
g95
ssg83
g1532
sg76
(lp1539
S'server_protocol'
p1540
asbag69
(g90
g71
NtRp1541
(dp1542
g74
(dp1543
g101
g102
ssg83
g1532
sg76
(lp1544
S':'
asbag69
(g90
g71
NtRp1545
(dp1546
g74
(dp1547
sg83
g1532
sg76
(lp1548
g69
(g70
g71
NtRp1549
(dp1550
g74
(dp1551
g82
I4
ssg83
g1545
sg76
(lp1552
S'HTTP/1.1'
p1553
asbasbasbag69
(g85
g71
NtRp1554
(dp1555
g74
(dp1556
sg83
g673
sg76
(lp1557
g69
(g90
g71
NtRp1558
(dp1559
g74
(dp1560
g94
g95
ssg83
g1554
sg76
(lp1561
S'server_software'
p1562
asbag69
(g90
g71
NtRp1563
(dp1564
g74
(dp1565
g101
g102
ssg83
g1554
sg76
(lp1566
S':'
asbag69
(g90
g71
NtRp1567
(dp1568
g74
(dp1569
sg83
g1554
sg76
(lp1570
g69
(g70
g71
NtRp1571
(dp1572
g74
(dp1573
g82
I4
ssg83
g1567
sg76
(lp1574
S'Rocket 1.2.5'
p1575
asbasbasbag69
(g85
g71
NtRp1576
(dp1577
g74
(dp1578
sg83
g673
sg76
(lp1579
g69
(g90
g71
NtRp1580
(dp1581
g74
(dp1582
g94
g95
ssg83
g1576
sg76
(lp1583
S'web2py_path'
p1584
asbag69
(g90
g71
NtRp1585
(dp1586
g74
(dp1587
g101
g102
ssg83
g1576
sg76
(lp1588
S':'
asbag69
(g90
g71
NtRp1589
(dp1590
g74
(dp1591
sg83
g1576
sg76
(lp1592
g69
(g70
g71
NtRp1593
(dp1594
g74
(dp1595
g82
I4
ssg83
g1589
sg76
(lp1596
g720
asbasbasbag69
(g85
g71
NtRp1597
(dp1598
g74
(dp1599
sg83
g673
sg76
(lp1600
g69
(g90
g71
NtRp1601
(dp1602
g74
(dp1603
g94
g95
ssg83
g1597
sg76
(lp1604
S'web2py_version'
p1605
asbag69
(g90
g71
NtRp1606
(dp1607
g74
(dp1608
g101
g102
ssg83
g1597
sg76
(lp1609
S':'
asbag69
(g90
g71
NtRp1610
(dp1611
g74
(dp1612
sg83
g1597
sg76
(lp1613
g69
(g70
g71
NtRp1614
(dp1615
g74
(dp1616
g82
I4
ssg83
g1610
sg76
(lp1617
g69
(g78
g71
NtRp1618
(dp1619
g74
(dp1620
g82
I3
ssg83
Nsg76
(lp1621
g69
(g85
g71
NtRp1622
(dp1623
g74
(dp1624
sg83
g1618
sg76
(lp1625
g69
(g90
g71
NtRp1626
(dp1627
g74
(dp1628
sg83
g1622
sg76
(lp1629
g69
(g70
g71
NtRp1630
(dp1631
g74
(dp1632
g82
I3
ssg83
g1626
sg76
(lp1633
S'2'
asbasbasbag69
(g85
g71
NtRp1634
(dp1635
g74
(dp1636
sg83
g1618
sg76
(lp1637
g69
(g90
g71
NtRp1638
(dp1639
g74
(dp1640
sg83
g1634
sg76
(lp1641
g69
(g70
g71
NtRp1642
(dp1643
g74
(dp1644
g82
I3
ssg83
g1638
sg76
(lp1645
S'2'
asbasbasbag69
(g85
g71
NtRp1646
(dp1647
g74
(dp1648
sg83
g1618
sg76
(lp1649
g69
(g90
g71
NtRp1650
(dp1651
g74
(dp1652
sg83
g1646
sg76
(lp1653
g69
(g70
g71
NtRp1654
(dp1655
g74
(dp1656
g82
I3
ssg83
g1650
sg76
(lp1657
S'1'
asbasbasbag69
(g85
g71
NtRp1658
(dp1659
g74
(dp1660
sg83
g1618
sg76
(lp1661
g69
(g90
g71
NtRp1662
(dp1663
g74
(dp1664
sg83
g1658
sg76
(lp1665
g69
(g70
g71
NtRp1666
(dp1667
g74
(dp1668
g82
I3
ssg83
g1662
sg76
(lp1669
S'datetime.datetime(2012, 10, 21, 16, 57, 4)'
p1670
asbasbasbag69
(g85
g71
NtRp1671
(dp1672
g74
(dp1673
sg83
g1618
sg76
(lp1674
g69
(g90
g71
NtRp1675
(dp1676
g74
(dp1677
sg83
g1671
sg76
(lp1678
g69
(g70
g71
NtRp1679
(dp1680
g74
(dp1681
g82
I3
ssg83
g1675
sg76
(lp1682
S'stable'
p1683
asbasbasbasbasbasbasbag69
(g85
g71
NtRp1684
(dp1685
g74
(dp1686
sg83
g673
sg76
(lp1687
g69
(g90
g71
NtRp1688
(dp1689
g74
(dp1690
g94
g95
ssg83
g1684
sg76
(lp1691
S'wsgi_errors'
p1692
asbag69
(g90
g71
NtRp1693
(dp1694
g74
(dp1695
g101
g102
ssg83
g1684
sg76
(lp1696
S':'
asbag69
(g90
g71
NtRp1697
(dp1698
g74
(dp1699
sg83
g1684
sg76
(lp1700
g69
(g70
g71
NtRp1701
(dp1702
g74
(dp1703
g82
I4
ssg83
g1697
sg76
(lp1704
S"<open file '<stderr>', mode 'w' at 0x00A850D0>"
p1705
asbasbasbag69
(g85
g71
NtRp1706
(dp1707
g74
(dp1708
sg83
g673
sg76
(lp1709
g69
(g90
g71
NtRp1710
(dp1711
g74
(dp1712
g94
g95
ssg83
g1706
sg76
(lp1713
S'wsgi_file_wrapper'
p1714
asbag69
(g90
g71
NtRp1715
(dp1716
g74
(dp1717
g101
g102
ssg83
g1706
sg76
(lp1718
S':'
asbag69
(g90
g71
NtRp1719
(dp1720
g74
(dp1721
sg83
g1706
sg76
(lp1722
g69
(g70
g71
NtRp1723
(dp1724
g74
(dp1725
g82
I4
ssg83
g1719
sg76
(lp1726
S'<class wsgiref.util.FileWrapper at 0x0172EE68>'
p1727
asbasbasbag69
(g85
g71
NtRp1728
(dp1729
g74
(dp1730
sg83
g673
sg76
(lp1731
g69
(g90
g71
NtRp1732
(dp1733
g74
(dp1734
g94
g95
ssg83
g1728
sg76
(lp1735
S'wsgi_input'
p1736
asbag69
(g90
g71
NtRp1737
(dp1738
g74
(dp1739
g101
g102
ssg83
g1728
sg76
(lp1740
S':'
asbag69
(g90
g71
NtRp1741
(dp1742
g74
(dp1743
sg83
g1728
sg76
(lp1744
g69
(g70
g71
NtRp1745
(dp1746
g74
(dp1747
g82
I4
ssg83
g1741
sg76
(lp1748
S'<socket._fileobject object at 0x05D66630>'
p1749
asbasbasbag69
(g85
g71
NtRp1750
(dp1751
g74
(dp1752
sg83
g673
sg76
(lp1753
g69
(g90
g71
NtRp1754
(dp1755
g74
(dp1756
g94
g95
ssg83
g1750
sg76
(lp1757
S'wsgi_multiprocess'
p1758
asbag69
(g90
g71
NtRp1759
(dp1760
g74
(dp1761
g101
g102
ssg83
g1750
sg76
(lp1762
S':'
asbag69
(g90
g71
NtRp1763
(dp1764
g74
(dp1765
sg83
g1750
sg76
(lp1766
g69
(g70
g71
NtRp1767
(dp1768
g74
(dp1769
g82
I4
ssg83
g1763
sg76
(lp1770
g855
asbasbasbag69
(g85
g71
NtRp1771
(dp1772
g74
(dp1773
sg83
g673
sg76
(lp1774
g69
(g90
g71
NtRp1775
(dp1776
g74
(dp1777
g94
g95
ssg83
g1771
sg76
(lp1778
S'wsgi_multithread'
p1779
asbag69
(g90
g71
NtRp1780
(dp1781
g74
(dp1782
g101
g102
ssg83
g1771
sg76
(lp1783
S':'
asbag69
(g90
g71
NtRp1784
(dp1785
g74
(dp1786
sg83
g1771
sg76
(lp1787
g69
(g70
g71
NtRp1788
(dp1789
g74
(dp1790
g82
I4
ssg83
g1784
sg76
(lp1791
g112
asbasbasbag69
(g85
g71
NtRp1792
(dp1793
g74
(dp1794
sg83
g673
sg76
(lp1795
g69
(g90
g71
NtRp1796
(dp1797
g74
(dp1798
g94
g95
ssg83
g1792
sg76
(lp1799
S'wsgi_run_once'
p1800
asbag69
(g90
g71
NtRp1801
(dp1802
g74
(dp1803
g101
g102
ssg83
g1792
sg76
(lp1804
S':'
asbag69
(g90
g71
NtRp1805
(dp1806
g74
(dp1807
sg83
g1792
sg76
(lp1808
g69
(g70
g71
NtRp1809
(dp1810
g74
(dp1811
g82
I4
ssg83
g1805
sg76
(lp1812
g855
asbasbasbag69
(g85
g71
NtRp1813
(dp1814
g74
(dp1815
sg83
g673
sg76
(lp1816
g69
(g90
g71
NtRp1817
(dp1818
g74
(dp1819
g94
g95
ssg83
g1813
sg76
(lp1820
S'wsgi_url_scheme'
p1821
asbag69
(g90
g71
NtRp1822
(dp1823
g74
(dp1824
g101
g102
ssg83
g1813
sg76
(lp1825
S':'
asbag69
(g90
g71
NtRp1826
(dp1827
g74
(dp1828
sg83
g1813
sg76
(lp1829
g69
(g70
g71
NtRp1830
(dp1831
g74
(dp1832
g82
I4
ssg83
g1826
sg76
(lp1833
S'http'
p1834
asbasbasbag69
(g85
g71
NtRp1835
(dp1836
g74
(dp1837
sg83
g673
sg76
(lp1838
g69
(g90
g71
NtRp1839
(dp1840
g74
(dp1841
g94
g95
ssg83
g1835
sg76
(lp1842
S'wsgi_version'
p1843
asbag69
(g90
g71
NtRp1844
(dp1845
g74
(dp1846
g101
g102
ssg83
g1835
sg76
(lp1847
S':'
asbag69
(g90
g71
NtRp1848
(dp1849
g74
(dp1850
sg83
g1835
sg76
(lp1851
g69
(g70
g71
NtRp1852
(dp1853
g74
(dp1854
g82
I4
ssg83
g1848
sg76
(lp1855
g69
(g78
g71
NtRp1856
(dp1857
g74
(dp1858
g82
I3
ssg83
Nsg76
(lp1859
g69
(g85
g71
NtRp1860
(dp1861
g74
(dp1862
sg83
g1856
sg76
(lp1863
g69
(g90
g71
NtRp1864
(dp1865
g74
(dp1866
sg83
g1860
sg76
(lp1867
g69
(g70
g71
NtRp1868
(dp1869
g74
(dp1870
g82
I3
ssg83
g1864
sg76
(lp1871
S'1'
asbasbasbag69
(g85
g71
NtRp1872
(dp1873
g74
(dp1874
sg83
g1856
sg76
(lp1875
g69
(g90
g71
NtRp1876
(dp1877
g74
(dp1878
sg83
g1872
sg76
(lp1879
g69
(g70
g71
NtRp1880
(dp1881
g74
(dp1882
g82
I3
ssg83
g1876
sg76
(lp1883
S'0'
asbasbasbasbasbasbasbasbasbasbasbag69
(g85
g71
NtRp1884
(dp1885
g74
(dp1886
sg83
g79
sg76
(lp1887
g69
(g90
g71
NtRp1888
(dp1889
g74
(dp1890
g94
g95
ssg83
g1884
sg76
(lp1891
S'extension'
p1892
asbag69
(g90
g71
NtRp1893
(dp1894
g74
(dp1895
g101
g102
ssg83
g1884
sg76
(lp1896
S':'
asbag69
(g90
g71
NtRp1897
(dp1898
g74
(dp1899
sg83
g1884
sg76
(lp1900
g69
(g70
g71
NtRp1901
(dp1902
g74
(dp1903
g82
I5
ssg83
g1897
sg76
(lp1904
S'html'
p1905
asbasbasbag69
(g85
g71
NtRp1906
(dp1907
g74
(dp1908
sg83
g79
sg76
(lp1909
g69
(g90
g71
NtRp1910
(dp1911
g74
(dp1912
g94
g95
ssg83
g1906
sg76
(lp1913
S'folder'
p1914
asbag69
(g90
g71
NtRp1915
(dp1916
g74
(dp1917
g101
g102
ssg83
g1906
sg76
(lp1918
S':'
asbag69
(g90
g71
NtRp1919
(dp1920
g74
(dp1921
sg83
g1906
sg76
(lp1922
g69
(g70
g71
NtRp1923
(dp1924
g74
(dp1925
g82
I5
ssg83
g1919
sg76
(lp1926
S'D:\\web2py\\source\\web2py\\applications\\web2py_xlchart_dashboard\\'
p1927
asbasbasbag69
(g85
g71
NtRp1928
(dp1929
g74
(dp1930
sg83
g79
sg76
(lp1931
g69
(g90
g71
NtRp1932
(dp1933
g74
(dp1934
g94
g95
ssg83
g1928
sg76
(lp1935
S'function'
p1936
asbag69
(g90
g71
NtRp1937
(dp1938
g74
(dp1939
g101
g102
ssg83
g1928
sg76
(lp1940
S':'
asbag69
(g90
g71
NtRp1941
(dp1942
g74
(dp1943
sg83
g1928
sg76
(lp1944
g69
(g70
g71
NtRp1945
(dp1946
g74
(dp1947
g82
I5
ssg83
g1941
sg76
(lp1948
S'subscribe_form'
p1949
asbasbasbag69
(g85
g71
NtRp1950
(dp1951
g74
(dp1952
sg83
g79
sg76
(lp1953
g69
(g90
g71
NtRp1954
(dp1955
g74
(dp1956
g94
g95
ssg83
g1950
sg76
(lp1957
S'get_vars'
p1958
asbag69
(g90
g71
NtRp1959
(dp1960
g74
(dp1961
g101
g102
ssg83
g1950
sg76
(lp1962
S':'
asbag69
(g90
g71
NtRp1963
(dp1964
g74
(dp1965
sg83
g1950
sg76
(lp1966
g69
(g70
g71
NtRp1967
(dp1968
g74
(dp1969
g82
I5
ssg83
g1963
sg76
(lp1970
g69
(g78
g71
NtRp1971
(dp1972
g74
(dp1973
g82
I4
ssg83
Nsg76
(lp1974
g69
(g85
g71
NtRp1975
(dp1976
g74
(dp1977
sg83
g1971
sg76
(lp1978
g69
(g90
g71
NtRp1979
(dp1980
g74
(dp1981
g94
g95
ssg83
g1975
sg76
(lp1982
S'id_chart'
p1983
asbag69
(g90
g71
NtRp1984
(dp1985
g74
(dp1986
g101
g102
ssg83
g1975
sg76
(lp1987
S':'
asbag69
(g90
g71
NtRp1988
(dp1989
g74
(dp1990
sg83
g1975
sg76
(lp1991
g69
(g70
g71
NtRp1992
(dp1993
g74
(dp1994
g82
I4
ssg83
g1988
sg76
(lp1995
S'12'
p1996
asbasbasbasbasbasbasbag69
(g85
g71
NtRp1997
(dp1998
g74
(dp1999
sg83
g79
sg76
(lp2000
g69
(g90
g71
NtRp2001
(dp2002
g74
(dp2003
g94
g95
ssg83
g1997
sg76
(lp2004
S'global_settings'
p2005
asbag69
(g90
g71
NtRp2006
(dp2007
g74
(dp2008
g101
g102
ssg83
g1997
sg76
(lp2009
S':'
asbag69
(g90
g71
NtRp2010
(dp2011
g74
(dp2012
sg83
g1997
sg76
(lp2013
g69
(g70
g71
NtRp2014
(dp2015
g74
(dp2016
g82
I5
ssg83
g2010
sg76
(lp2017
g69
(g78
g71
NtRp2018
(dp2019
g74
(dp2020
g82
I4
ssg83
Nsg76
(lp2021
g69
(g85
g71
NtRp2022
(dp2023
g74
(dp2024
sg83
g2018
sg76
(lp2025
g69
(g90
g71
NtRp2026
(dp2027
g74
(dp2028
g94
g95
ssg83
g2022
sg76
(lp2029
g685
asbag69
(g90
g71
NtRp2030
(dp2031
g74
(dp2032
g101
g102
ssg83
g2022
sg76
(lp2033
S':'
asbag69
(g90
g71
NtRp2034
(dp2035
g74
(dp2036
sg83
g2022
sg76
(lp2037
g69
(g70
g71
NtRp2038
(dp2039
g74
(dp2040
g82
I4
ssg83
g2034
sg76
(lp2041
S"set(['D:\\\\web2py\\\\source\\\\web2py\\\\applications\\\\admin\\\\', 'D:\\\\web2py\\\\source\\\\web2py\\\\applications\\\\welcome\\\\', 'D:\\\\web2py\\\\source\\\\web2py\\\\applications\\\\web2py_xlchart_dashboard\\\\'])"
p2042
asbasbasbag69
(g85
g71
NtRp2043
(dp2044
g74
(dp2045
sg83
g2018
sg76
(lp2046
g69
(g90
g71
NtRp2047
(dp2048
g74
(dp2049
g94
g95
ssg83
g2043
sg76
(lp2050
g707
asbag69
(g90
g71
NtRp2051
(dp2052
g74
(dp2053
g101
g102
ssg83
g2043
sg76
(lp2054
S':'
asbag69
(g90
g71
NtRp2055
(dp2056
g74
(dp2057
sg83
g2043
sg76
(lp2058
g69
(g70
g71
NtRp2059
(dp2060
g74
(dp2061
g82
I4
ssg83
g2055
sg76
(lp2062
g720
asbasbasbag69
(g85
g71
NtRp2063
(dp2064
g74
(dp2065
sg83
g2018
sg76
(lp2066
g69
(g90
g71
NtRp2067
(dp2068
g74
(dp2069
g94
g95
ssg83
g2063
sg76
(lp2070
g729
asbag69
(g90
g71
NtRp2071
(dp2072
g74
(dp2073
g101
g102
ssg83
g2063
sg76
(lp2074
S':'
asbag69
(g90
g71
NtRp2075
(dp2076
g74
(dp2077
sg83
g2063
sg76
(lp2078
g69
(g70
g71
NtRp2079
(dp2080
g74
(dp2081
g82
I4
ssg83
g2075
sg76
(lp2082
g69
(g78
g71
NtRp2083
(dp2084
g74
(dp2085
g82
I3
ssg83
Nsg76
(lp2086
sbasbasbasbag69
(g85
g71
NtRp2087
(dp2088
g74
(dp2089
sg83
g2018
sg76
(lp2090
g69
(g90
g71
NtRp2091
(dp2092
g74
(dp2093
g94
g95
ssg83
g2087
sg76
(lp2094
g754
asbag69
(g90
g71
NtRp2095
(dp2096
g74
(dp2097
g101
g102
ssg83
g2087
sg76
(lp2098
S':'
asbag69
(g90
g71
NtRp2099
(dp2100
g74
(dp2101
sg83
g2087
sg76
(lp2102
g69
(g70
g71
NtRp2103
(dp2104
g74
(dp2105
g82
I4
ssg83
g2099
sg76
(lp2106
S"<Values at 0xc78f58: {'verbose': False, 'ip': '127.0.0.1', 'with_scheduler': False, 'ips': ['192.168.0.14'], 'shutdown_timeout': 5, 'taskbar': False, 'port': 8000, 'maxthreads': None, 'softcron': False, 'server_name': 'GLKLAG235327', 'bpython': False, 'nogui': False, 'pid_filename': 'httpserver.pid', 'extcron': False, 'runcron': False, 'run_system_tests': False, 'test': None, 'folder': 'D:\\\\web2py\\\\source\\\\web2py', 'config': '', 'import_models': False, 'winservice': '', 'shell': None, 'run': '', 'log_filename': 'httpserver.log', 'debuglevel': 30, 'args': [''], 'socket_timeout': 5, 'ssl_ca_certificate': None, 'scheduler': None, 'profiler_filename': None, 'ssl_private_key': '', 'scheduler_groups': None, 'password': '<ask>', 'request_queue_size': 5, 'ssl_certificate': '', 'cronjob': False, 'numthreads': None, 'quiet': False, 'interfaces': None, 'minthreads': None, 'timeout': 10, 'plain': False, 'nobanner': False}>"
p2107
asbasbasbag69
(g85
g71
NtRp2108
(dp2109
g74
(dp2110
sg83
g2018
sg76
(lp2111
g69
(g90
g71
NtRp2112
(dp2113
g74
(dp2114
g94
g95
ssg83
g2108
sg76
(lp2115
g820
asbag69
(g90
g71
NtRp2116
(dp2117
g74
(dp2118
g101
g102
ssg83
g2108
sg76
(lp2119
S':'
asbag69
(g90
g71
NtRp2120
(dp2121
g74
(dp2122
sg83
g2108
sg76
(lp2123
g69
(g70
g71
NtRp2124
(dp2125
g74
(dp2126
g82
I4
ssg83
g2120
sg76
(lp2127
S'set([])'
p2128
asbasbasbag69
(g85
g71
NtRp2129
(dp2130
g74
(dp2131
sg83
g2018
sg76
(lp2132
g69
(g90
g71
NtRp2133
(dp2134
g74
(dp2135
g94
g95
ssg83
g2129
sg76
(lp2136
g842
asbag69
(g90
g71
NtRp2137
(dp2138
g74
(dp2139
g101
g102
ssg83
g2129
sg76
(lp2140
S':'
asbag69
(g90
g71
NtRp2141
(dp2142
g74
(dp2143
sg83
g2129
sg76
(lp2144
g69
(g70
g71
NtRp2145
(dp2146
g74
(dp2147
g82
I4
ssg83
g2141
sg76
(lp2148
g855
asbasbasbag69
(g85
g71
NtRp2149
(dp2150
g74
(dp2151
sg83
g2018
sg76
(lp2152
g69
(g90
g71
NtRp2153
(dp2154
g74
(dp2155
g94
g95
ssg83
g2149
sg76
(lp2156
g864
asbag69
(g90
g71
NtRp2157
(dp2158
g74
(dp2159
g101
g102
ssg83
g2149
sg76
(lp2160
S':'
asbag69
(g90
g71
NtRp2161
(dp2162
g74
(dp2163
sg83
g2149
sg76
(lp2164
g69
(g70
g71
NtRp2165
(dp2166
g74
(dp2167
g82
I4
ssg83
g2161
sg76
(lp2168
g877
asbasbasbag69
(g85
g71
NtRp2169
(dp2170
g74
(dp2171
sg83
g2018
sg76
(lp2172
g69
(g90
g71
NtRp2173
(dp2174
g74
(dp2175
g94
g95
ssg83
g2169
sg76
(lp2176
g1213
asbag69
(g90
g71
NtRp2177
(dp2178
g74
(dp2179
g101
g102
ssg83
g2169
sg76
(lp2180
S':'
asbag69
(g90
g71
NtRp2181
(dp2182
g74
(dp2183
sg83
g2169
sg76
(lp2184
g69
(g70
g71
NtRp2185
(dp2186
g74
(dp2187
g82
I4
ssg83
g2181
sg76
(lp2188
g855
asbasbasbag69
(g85
g71
NtRp2189
(dp2190
g74
(dp2191
sg83
g2018
sg76
(lp2192
g69
(g90
g71
NtRp2193
(dp2194
g74
(dp2195
g94
g95
ssg83
g2189
sg76
(lp2196
g1234
asbag69
(g90
g71
NtRp2197
(dp2198
g74
(dp2199
g101
g102
ssg83
g2189
sg76
(lp2200
S':'
asbag69
(g90
g71
NtRp2201
(dp2202
g74
(dp2203
sg83
g2189
sg76
(lp2204
g69
(g70
g71
NtRp2205
(dp2206
g74
(dp2207
g82
I4
ssg83
g2201
sg76
(lp2208
g855
asbasbasbag69
(g85
g71
NtRp2209
(dp2210
g74
(dp2211
sg83
g2018
sg76
(lp2212
g69
(g90
g71
NtRp2213
(dp2214
g74
(dp2215
g94
g95
ssg83
g2209
sg76
(lp2216
g1255
asbag69
(g90
g71
NtRp2217
(dp2218
g74
(dp2219
g101
g102
ssg83
g2209
sg76
(lp2220
S':'
asbag69
(g90
g71
NtRp2221
(dp2222
g74
(dp2223
sg83
g2209
sg76
(lp2224
g69
(g70
g71
NtRp2225
(dp2226
g74
(dp2227
g82
I4
ssg83
g2221
sg76
(lp2228
g69
(g78
g71
NtRp2229
(dp2230
g74
(dp2231
g82
I3
ssg83
Nsg76
(lp2232
g69
(g85
g71
NtRp2233
(dp2234
g74
(dp2235
sg83
g2229
sg76
(lp2236
g69
(g90
g71
NtRp2237
(dp2238
g74
(dp2239
sg83
g2233
sg76
(lp2240
g69
(g70
g71
NtRp2241
(dp2242
g74
(dp2243
g82
I3
ssg83
g2237
sg76
(lp2244
g1284
asbasbasbag69
(g85
g71
NtRp2245
(dp2246
g74
(dp2247
sg83
g2229
sg76
(lp2248
g69
(g90
g71
NtRp2249
(dp2250
g74
(dp2251
sg83
g2245
sg76
(lp2252
g69
(g70
g71
NtRp2253
(dp2254
g74
(dp2255
g82
I3
ssg83
g2249
sg76
(lp2256
g1297
asbasbasbag69
(g85
g71
NtRp2257
(dp2258
g74
(dp2259
sg83
g2229
sg76
(lp2260
g69
(g90
g71
NtRp2261
(dp2262
g74
(dp2263
sg83
g2257
sg76
(lp2264
g69
(g70
g71
NtRp2265
(dp2266
g74
(dp2267
g82
I3
ssg83
g2261
sg76
(lp2268
g1310
asbasbasbag69
(g85
g71
NtRp2269
(dp2270
g74
(dp2271
sg83
g2229
sg76
(lp2272
g69
(g90
g71
NtRp2273
(dp2274
g74
(dp2275
sg83
g2269
sg76
(lp2276
g69
(g70
g71
NtRp2277
(dp2278
g74
(dp2279
g82
I3
ssg83
g2273
sg76
(lp2280
g1323
asbasbasbag69
(g85
g71
NtRp2281
(dp2282
g74
(dp2283
sg83
g2229
sg76
(lp2284
g69
(g90
g71
NtRp2285
(dp2286
g74
(dp2287
sg83
g2281
sg76
(lp2288
g69
(g70
g71
NtRp2289
(dp2290
g74
(dp2291
g82
I3
ssg83
g2285
sg76
(lp2292
g1336
asbasbasbasbasbasbasbag69
(g85
g71
NtRp2293
(dp2294
g74
(dp2295
sg83
g2018
sg76
(lp2296
g69
(g90
g71
NtRp2297
(dp2298
g74
(dp2299
g94
g95
ssg83
g2293
sg76
(lp2300
g1605
asbag69
(g90
g71
NtRp2301
(dp2302
g74
(dp2303
g101
g102
ssg83
g2293
sg76
(lp2304
S':'
asbag69
(g90
g71
NtRp2305
(dp2306
g74
(dp2307
sg83
g2293
sg76
(lp2308
g69
(g70
g71
NtRp2309
(dp2310
g74
(dp2311
g82
I4
ssg83
g2305
sg76
(lp2312
g69
(g78
g71
NtRp2313
(dp2314
g74
(dp2315
g82
I3
ssg83
Nsg76
(lp2316
g69
(g85
g71
NtRp2317
(dp2318
g74
(dp2319
sg83
g2313
sg76
(lp2320
g69
(g90
g71
NtRp2321
(dp2322
g74
(dp2323
sg83
g2317
sg76
(lp2324
g69
(g70
g71
NtRp2325
(dp2326
g74
(dp2327
g82
I3
ssg83
g2321
sg76
(lp2328
S'2'
asbasbasbag69
(g85
g71
NtRp2329
(dp2330
g74
(dp2331
sg83
g2313
sg76
(lp2332
g69
(g90
g71
NtRp2333
(dp2334
g74
(dp2335
sg83
g2329
sg76
(lp2336
g69
(g70
g71
NtRp2337
(dp2338
g74
(dp2339
g82
I3
ssg83
g2333
sg76
(lp2340
S'2'
asbasbasbag69
(g85
g71
NtRp2341
(dp2342
g74
(dp2343
sg83
g2313
sg76
(lp2344
g69
(g90
g71
NtRp2345
(dp2346
g74
(dp2347
sg83
g2341
sg76
(lp2348
g69
(g70
g71
NtRp2349
(dp2350
g74
(dp2351
g82
I3
ssg83
g2345
sg76
(lp2352
S'1'
asbasbasbag69
(g85
g71
NtRp2353
(dp2354
g74
(dp2355
sg83
g2313
sg76
(lp2356
g69
(g90
g71
NtRp2357
(dp2358
g74
(dp2359
sg83
g2353
sg76
(lp2360
g69
(g70
g71
NtRp2361
(dp2362
g74
(dp2363
g82
I3
ssg83
g2357
sg76
(lp2364
S'datetime.datetime(2012, 10, 21, 16, 57, 4)'
p2365
asbasbasbag69
(g85
g71
NtRp2366
(dp2367
g74
(dp2368
sg83
g2313
sg76
(lp2369
g69
(g90
g71
NtRp2370
(dp2371
g74
(dp2372
sg83
g2366
sg76
(lp2373
g69
(g70
g71
NtRp2374
(dp2375
g74
(dp2376
g82
I3
ssg83
g2370
sg76
(lp2377
g1683
asbasbasbasbasbasbasbasbasbasbasbag69
(g85
g71
NtRp2378
(dp2379
g74
(dp2380
sg83
g79
sg76
(lp2381
g69
(g90
g71
NtRp2382
(dp2383
g74
(dp2384
g94
g95
ssg83
g2378
sg76
(lp2385
S'is_https'
p2386
asbag69
(g90
g71
NtRp2387
(dp2388
g74
(dp2389
g101
g102
ssg83
g2378
sg76
(lp2390
S':'
asbag69
(g90
g71
NtRp2391
(dp2392
g74
(dp2393
sg83
g2378
sg76
(lp2394
g69
(g70
g71
NtRp2395
(dp2396
g74
(dp2397
g82
I5
ssg83
g2391
sg76
(lp2398
g855
asbasbasbag69
(g85
g71
NtRp2399
(dp2400
g74
(dp2401
sg83
g79
sg76
(lp2402
g69
(g90
g71
NtRp2403
(dp2404
g74
(dp2405
g94
g95
ssg83
g2399
sg76
(lp2406
S'is_local'
p2407
asbag69
(g90
g71
NtRp2408
(dp2409
g74
(dp2410
g101
g102
ssg83
g2399
sg76
(lp2411
S':'
asbag69
(g90
g71
NtRp2412
(dp2413
g74
(dp2414
sg83
g2399
sg76
(lp2415
g69
(g70
g71
NtRp2416
(dp2417
g74
(dp2418
g82
I5
ssg83
g2412
sg76
(lp2419
g112
asbasbasbag69
(g85
g71
NtRp2420
(dp2421
g74
(dp2422
sg83
g79
sg76
(lp2423
g69
(g90
g71
NtRp2424
(dp2425
g74
(dp2426
g94
g95
ssg83
g2420
sg76
(lp2427
S'is_restful'
p2428
asbag69
(g90
g71
NtRp2429
(dp2430
g74
(dp2431
g101
g102
ssg83
g2420
sg76
(lp2432
S':'
asbag69
(g90
g71
NtRp2433
(dp2434
g74
(dp2435
sg83
g2420
sg76
(lp2436
g69
(g70
g71
NtRp2437
(dp2438
g74
(dp2439
g82
I5
ssg83
g2433
sg76
(lp2440
g855
asbasbasbag69
(g85
g71
NtRp2441
(dp2442
g74
(dp2443
sg83
g79
sg76
(lp2444
g69
(g90
g71
NtRp2445
(dp2446
g74
(dp2447
g94
g95
ssg83
g2441
sg76
(lp2448
S'now'
p2449
asbag69
(g90
g71
NtRp2450
(dp2451
g74
(dp2452
g101
g102
ssg83
g2441
sg76
(lp2453
S':'
asbag69
(g90
g71
NtRp2454
(dp2455
g74
(dp2456
sg83
g2441
sg76
(lp2457
g69
(g70
g71
NtRp2458
(dp2459
g74
(dp2460
g82
I5
ssg83
g2454
sg76
(lp2461
S'datetime.datetime(2012, 11, 7, 22, 37, 34, 468000)'
p2462
asbasbasbag69
(g85
g71
NtRp2463
(dp2464
g74
(dp2465
sg83
g79
sg76
(lp2466
g69
(g90
g71
NtRp2467
(dp2468
g74
(dp2469
g94
g95
ssg83
g2463
sg76
(lp2470
S'post_vars'
p2471
asbag69
(g90
g71
NtRp2472
(dp2473
g74
(dp2474
g101
g102
ssg83
g2463
sg76
(lp2475
S':'
asbag69
(g90
g71
NtRp2476
(dp2477
g74
(dp2478
sg83
g2463
sg76
(lp2479
g69
(g70
g71
NtRp2480
(dp2481
g74
(dp2482
g82
I5
ssg83
g2476
sg76
(lp2483
g69
(g78
g71
NtRp2484
(dp2485
g74
(dp2486
g82
I4
ssg83
Nsg76
(lp2487
g69
(g85
g71
NtRp2488
(dp2489
g74
(dp2490
sg83
g2484
sg76
(lp2491
g69
(g90
g71
NtRp2492
(dp2493
g74
(dp2494
g94
g95
ssg83
g2488
sg76
(lp2495
S'description'
p2496
asbag69
(g90
g71
NtRp2497
(dp2498
g74
(dp2499
g101
g102
ssg83
g2488
sg76
(lp2500
S':'
asbag69
(g90
g71
NtRp2501
(dp2502
g74
(dp2503
sg83
g2488
sg76
(lp2504
g69
(g70
g71
NtRp2505
(dp2506
g74
(dp2507
g82
I4
ssg83
g2501
sg76
(lp2508
S'Test'
p2509
asbasbasbag69
(g85
g71
NtRp2510
(dp2511
g74
(dp2512
sg83
g2484
sg76
(lp2513
g69
(g90
g71
NtRp2514
(dp2515
g74
(dp2516
g94
g95
ssg83
g2510
sg76
(lp2517
S'id_chart'
p2518
asbag69
(g90
g71
NtRp2519
(dp2520
g74
(dp2521
g101
g102
ssg83
g2510
sg76
(lp2522
S':'
asbag69
(g90
g71
NtRp2523
(dp2524
g74
(dp2525
sg83
g2510
sg76
(lp2526
g69
(g70
g71
NtRp2527
(dp2528
g74
(dp2529
g82
I4
ssg83
g2523
sg76
(lp2530
S'1'
asbasbasbag69
(g85
g71
NtRp2531
(dp2532
g74
(dp2533
sg83
g2484
sg76
(lp2534
g69
(g90
g71
NtRp2535
(dp2536
g74
(dp2537
g94
g95
ssg83
g2531
sg76
(lp2538
S'title'
p2539
asbag69
(g90
g71
NtRp2540
(dp2541
g74
(dp2542
g101
g102
ssg83
g2531
sg76
(lp2543
S':'
asbag69
(g90
g71
NtRp2544
(dp2545
g74
(dp2546
sg83
g2531
sg76
(lp2547
g69
(g70
g71
NtRp2548
(dp2549
g74
(dp2550
g82
I4
ssg83
g2544
sg76
(lp2551
S'Test'
p2552
asbasbasbasbasbasbasbag69
(g85
g71
NtRp2553
(dp2554
g74
(dp2555
sg83
g79
sg76
(lp2556
g69
(g90
g71
NtRp2557
(dp2558
g74
(dp2559
g94
g95
ssg83
g2553
sg76
(lp2560
S'raw_args'
p2561
asbag69
(g90
g71
NtRp2562
(dp2563
g74
(dp2564
g101
g102
ssg83
g2553
sg76
(lp2565
S':'
asbag69
(g90
g71
NtRp2566
(dp2567
g74
(dp2568
sg83
g2553
sg76
(lp2569
g69
(g70
g71
NtRp2570
(dp2571
g74
(dp2572
g82
I5
ssg83
g2566
sg76
(lp2573
S''
asbasbasbag69
(g85
g71
NtRp2574
(dp2575
g74
(dp2576
sg83
g79
sg76
(lp2577
g69
(g90
g71
NtRp2578
(dp2579
g74
(dp2580
g94
g95
ssg83
g2574
sg76
(lp2581
S'raw_extension'
p2582
asbag69
(g90
g71
NtRp2583
(dp2584
g74
(dp2585
g101
g102
ssg83
g2574
sg76
(lp2586
S':'
asbag69
(g90
g71
NtRp2587
(dp2588
g74
(dp2589
sg83
g2574
sg76
(lp2590
g69
(g70
g71
NtRp2591
(dp2592
g74
(dp2593
g82
I5
ssg83
g2587
sg76
(lp2594
S'None'
p2595
asbasbasbag69
(g85
g71
NtRp2596
(dp2597
g74
(dp2598
sg83
g79
sg76
(lp2599
g69
(g90
g71
NtRp2600
(dp2601
g74
(dp2602
g94
g95
ssg83
g2596
sg76
(lp2603
S'url'
p2604
asbag69
(g90
g71
NtRp2605
(dp2606
g74
(dp2607
g101
g102
ssg83
g2596
sg76
(lp2608
S':'
asbag69
(g90
g71
NtRp2609
(dp2610
g74
(dp2611
sg83
g2596
sg76
(lp2612
g69
(g70
g71
NtRp2613
(dp2614
g74
(dp2615
g82
I5
ssg83
g2609
sg76
(lp2616
g1358
asbasbasbag69
(g85
g71
NtRp2617
(dp2618
g74
(dp2619
sg83
g79
sg76
(lp2620
g69
(g90
g71
NtRp2621
(dp2622
g74
(dp2623
g94
g95
ssg83
g2617
sg76
(lp2624
S'utcnow'
p2625
asbag69
(g90
g71
NtRp2626
(dp2627
g74
(dp2628
g101
g102
ssg83
g2617
sg76
(lp2629
S':'
asbag69
(g90
g71
NtRp2630
(dp2631
g74
(dp2632
sg83
g2617
sg76
(lp2633
g69
(g70
g71
NtRp2634
(dp2635
g74
(dp2636
g82
I5
ssg83
g2630
sg76
(lp2637
S'datetime.datetime(2012, 11, 7, 22, 37, 34, 468000)'
p2638
asbasbasbag69
(g85
g71
NtRp2639
(dp2640
g74
(dp2641
sg83
g79
sg76
(lp2642
g69
(g90
g71
NtRp2643
(dp2644
g74
(dp2645
g94
g95
ssg83
g2639
sg76
(lp2646
S'uuid'
p2647
asbag69
(g90
g71
NtRp2648
(dp2649
g74
(dp2650
g101
g102
ssg83
g2639
sg76
(lp2651
S':'
asbag69
(g90
g71
NtRp2652
(dp2653
g74
(dp2654
sg83
g2639
sg76
(lp2655
g69
(g70
g71
NtRp2656
(dp2657
g74
(dp2658
g82
I5
ssg83
g2652
sg76
(lp2659
S'web2py_xlchart_dashboard/127.0.0.1.2012-11-07.22-37-34.925db5a1-60ea-4f2b-9eee-9d6af6e22832'
p2660
asbasbasbag69
(g85
g71
NtRp2661
(dp2662
g74
(dp2663
sg83
g79
sg76
(lp2664
g69
(g90
g71
NtRp2665
(dp2666
g74
(dp2667
g94
g95
ssg83
g2661
sg76
(lp2668
S'vars'
p2669
asbag69
(g90
g71
NtRp2670
(dp2671
g74
(dp2672
g101
g102
ssg83
g2661
sg76
(lp2673
S':'
asbag69
(g90
g71
NtRp2674
(dp2675
g74
(dp2676
sg83
g2661
sg76
(lp2677
g69
(g70
g71
NtRp2678
(dp2679
g74
(dp2680
g82
I5
ssg83
g2674
sg76
(lp2681
g69
(g78
g71
NtRp2682
(dp2683
g74
(dp2684
g82
I4
ssg83
Nsg76
(lp2685
g69
(g85
g71
NtRp2686
(dp2687
g74
(dp2688
sg83
g2682
sg76
(lp2689
g69
(g90
g71
NtRp2690
(dp2691
g74
(dp2692
g94
g95
ssg83
g2686
sg76
(lp2693
g2496
asbag69
(g90
g71
NtRp2694
(dp2695
g74
(dp2696
g101
g102
ssg83
g2686
sg76
(lp2697
S':'
asbag69
(g90
g71
NtRp2698
(dp2699
g74
(dp2700
sg83
g2686
sg76
(lp2701
g69
(g70
g71
NtRp2702
(dp2703
g74
(dp2704
g82
I4
ssg83
g2698
sg76
(lp2705
g2509
asbasbasbag69
(g85
g71
NtRp2706
(dp2707
g74
(dp2708
sg83
g2682
sg76
(lp2709
g69
(g90
g71
NtRp2710
(dp2711
g74
(dp2712
g94
g95
ssg83
g2706
sg76
(lp2713
g1983
asbag69
(g90
g71
NtRp2714
(dp2715
g74
(dp2716
g101
g102
ssg83
g2706
sg76
(lp2717
S':'
asbag69
(g90
g71
NtRp2718
(dp2719
g74
(dp2720
sg83
g2706
sg76
(lp2721
g69
(g70
g71
NtRp2722
(dp2723
g74
(dp2724
g82
I4
ssg83
g2718
sg76
(lp2725
g69
(g78
g71
NtRp2726
(dp2727
g74
(dp2728
g82
I3
ssg83
Nsg76
(lp2729
g69
(g85
g71
NtRp2730
(dp2731
g74
(dp2732
sg83
g2726
sg76
(lp2733
g69
(g90
g71
NtRp2734
(dp2735
g74
(dp2736
sg83
g2730
sg76
(lp2737
g69
(g70
g71
NtRp2738
(dp2739
g74
(dp2740
g82
I3
ssg83
g2734
sg76
(lp2741
S'1'
asbasbasbag69
(g85
g71
NtRp2742
(dp2743
g74
(dp2744
sg83
g2726
sg76
(lp2745
g69
(g90
g71
NtRp2746
(dp2747
g74
(dp2748
sg83
g2742
sg76
(lp2749
g69
(g70
g71
NtRp2750
(dp2751
g74
(dp2752
g82
I3
ssg83
g2746
sg76
(lp2753
S'12'
p2754
asbasbasbasbasbasbasbag69
(g85
g71
NtRp2755
(dp2756
g74
(dp2757
sg83
g2682
sg76
(lp2758
g69
(g90
g71
NtRp2759
(dp2760
g74
(dp2761
g94
g95
ssg83
g2755
sg76
(lp2762
g2539
asbag69
(g90
g71
NtRp2763
(dp2764
g74
(dp2765
g101
g102
ssg83
g2755
sg76
(lp2766
S':'
asbag69
(g90
g71
NtRp2767
(dp2768
g74
(dp2769
sg83
g2755
sg76
(lp2770
g69
(g70
g71
NtRp2771
(dp2772
g74
(dp2773
g82
I4
ssg83
g2767
sg76
(lp2774
g2552
asbasbasbasbasbasbasbag69
(g85
g71
NtRp2775
(dp2776
g74
(dp2777
sg83
g79
sg76
(lp2778
g69
(g90
g71
NtRp2779
(dp2780
g74
(dp2781
g94
g95
ssg83
g2775
sg76
(lp2782
S'wsgi'
p2783
asbag69
(g90
g71
NtRp2784
(dp2785
g74
(dp2786
g101
g102
ssg83
g2775
sg76
(lp2787
S':'
asbag69
(g90
g71
NtRp2788
(dp2789
g74
(dp2790
sg83
g2775
sg76
(lp2791
g69
(g70
g71
NtRp2792
(dp2793
g74
(dp2794
g82
I5
ssg83
g2788
sg76
(lp2795
g69
(g78
g71
NtRp2796
(dp2797
g74
(dp2798
g82
I4
ssg83
Nsg76
(lp2799
g69
(g85
g71
NtRp2800
(dp2801
g74
(dp2802
sg83
g2796
sg76
(lp2803
g69
(g90
g71
NtRp2804
(dp2805
g74
(dp2806
g94
g95
ssg83
g2800
sg76
(lp2807
S'environ'
p2808
asbag69
(g90
g71
NtRp2809
(dp2810
g74
(dp2811
g101
g102
ssg83
g2800
sg76
(lp2812
S':'
asbag69
(g90
g71
NtRp2813
(dp2814
g74
(dp2815
sg83
g2800
sg76
(lp2816
g69
(g70
g71
NtRp2817
(dp2818
g74
(dp2819
g82
I4
ssg83
g2813
sg76
(lp2820
g69
(g78
g71
NtRp2821
(dp2822
g74
(dp2823
g82
I3
ssg83
Nsg76
(lp2824
g69
(g85
g71
NtRp2825
(dp2826
g74
(dp2827
sg83
g2821
sg76
(lp2828
g69
(g90
g71
NtRp2829
(dp2830
g74
(dp2831
g94
g95
ssg83
g2825
sg76
(lp2832
S'CONTENT_LENGTH'
p2833
asbag69
(g90
g71
NtRp2834
(dp2835
g74
(dp2836
g101
g102
ssg83
g2825
sg76
(lp2837
S':'
asbag69
(g90
g71
NtRp2838
(dp2839
g74
(dp2840
sg83
g2825
sg76
(lp2841
g69
(g70
g71
NtRp2842
(dp2843
g74
(dp2844
g82
I3
ssg83
g2838
sg76
(lp2845
g789
asbasbasbag69
(g85
g71
NtRp2846
(dp2847
g74
(dp2848
sg83
g2821
sg76
(lp2849
g69
(g90
g71
NtRp2850
(dp2851
g74
(dp2852
g94
g95
ssg83
g2846
sg76
(lp2853
S'CONTENT_TYPE'
p2854
asbag69
(g90
g71
NtRp2855
(dp2856
g74
(dp2857
g101
g102
ssg83
g2846
sg76
(lp2858
S':'
asbag69
(g90
g71
NtRp2859
(dp2860
g74
(dp2861
sg83
g2846
sg76
(lp2862
g69
(g70
g71
NtRp2863
(dp2864
g74
(dp2865
g82
I3
ssg83
g2859
sg76
(lp2866
g811
asbasbasbag69
(g85
g71
NtRp2867
(dp2868
g74
(dp2869
sg83
g2821
sg76
(lp2870
g69
(g90
g71
NtRp2871
(dp2872
g74
(dp2873
g94
g95
ssg83
g2867
sg76
(lp2874
S'HTTP_ACCEPT'
p2875
asbag69
(g90
g71
NtRp2876
(dp2877
g74
(dp2878
g101
g102
ssg83
g2867
sg76
(lp2879
S':'
asbag69
(g90
g71
NtRp2880
(dp2881
g74
(dp2882
sg83
g2867
sg76
(lp2883
g69
(g70
g71
NtRp2884
(dp2885
g74
(dp2886
g82
I3
ssg83
g2880
sg76
(lp2887
g899
asbasbasbag69
(g85
g71
NtRp2888
(dp2889
g74
(dp2890
sg83
g2821
sg76
(lp2891
g69
(g90
g71
NtRp2892
(dp2893
g74
(dp2894
g94
g95
ssg83
g2888
sg76
(lp2895
S'HTTP_ACCEPT_CHARSET'
p2896
asbag69
(g90
g71
NtRp2897
(dp2898
g74
(dp2899
g101
g102
ssg83
g2888
sg76
(lp2900
S':'
asbag69
(g90
g71
NtRp2901
(dp2902
g74
(dp2903
sg83
g2888
sg76
(lp2904
g69
(g70
g71
NtRp2905
(dp2906
g74
(dp2907
g82
I3
ssg83
g2901
sg76
(lp2908
g921
asbasbasbag69
(g85
g71
NtRp2909
(dp2910
g74
(dp2911
sg83
g2821
sg76
(lp2912
g69
(g90
g71
NtRp2913
(dp2914
g74
(dp2915
g94
g95
ssg83
g2909
sg76
(lp2916
S'HTTP_ACCEPT_ENCODING'
p2917
asbag69
(g90
g71
NtRp2918
(dp2919
g74
(dp2920
g101
g102
ssg83
g2909
sg76
(lp2921
S':'
asbag69
(g90
g71
NtRp2922
(dp2923
g74
(dp2924
sg83
g2909
sg76
(lp2925
g69
(g70
g71
NtRp2926
(dp2927
g74
(dp2928
g82
I3
ssg83
g2922
sg76
(lp2929
g943
asbasbasbag69
(g85
g71
NtRp2930
(dp2931
g74
(dp2932
sg83
g2821
sg76
(lp2933
g69
(g90
g71
NtRp2934
(dp2935
g74
(dp2936
g94
g95
ssg83
g2930
sg76
(lp2937
S'HTTP_ACCEPT_LANGUAGE'
p2938
asbag69
(g90
g71
NtRp2939
(dp2940
g74
(dp2941
g101
g102
ssg83
g2930
sg76
(lp2942
S':'
asbag69
(g90
g71
NtRp2943
(dp2944
g74
(dp2945
sg83
g2930
sg76
(lp2946
g69
(g70
g71
NtRp2947
(dp2948
g74
(dp2949
g82
I3
ssg83
g2943
sg76
(lp2950
g965
asbasbasbag69
(g85
g71
NtRp2951
(dp2952
g74
(dp2953
sg83
g2821
sg76
(lp2954
g69
(g90
g71
NtRp2955
(dp2956
g74
(dp2957
g94
g95
ssg83
g2951
sg76
(lp2958
S'HTTP_CONNECTION'
p2959
asbag69
(g90
g71
NtRp2960
(dp2961
g74
(dp2962
g101
g102
ssg83
g2951
sg76
(lp2963
S':'
asbag69
(g90
g71
NtRp2964
(dp2965
g74
(dp2966
sg83
g2951
sg76
(lp2967
g69
(g70
g71
NtRp2968
(dp2969
g74
(dp2970
g82
I3
ssg83
g2964
sg76
(lp2971
g987
asbasbasbag69
(g85
g71
NtRp2972
(dp2973
g74
(dp2974
sg83
g2821
sg76
(lp2975
g69
(g90
g71
NtRp2976
(dp2977
g74
(dp2978
g94
g95
ssg83
g2972
sg76
(lp2979
S'HTTP_CONTENT_LENGTH'
p2980
asbag69
(g90
g71
NtRp2981
(dp2982
g74
(dp2983
g101
g102
ssg83
g2972
sg76
(lp2984
S':'
asbag69
(g90
g71
NtRp2985
(dp2986
g74
(dp2987
sg83
g2972
sg76
(lp2988
g69
(g70
g71
NtRp2989
(dp2990
g74
(dp2991
g82
I3
ssg83
g2985
sg76
(lp2992
g789
asbasbasbag69
(g85
g71
NtRp2993
(dp2994
g74
(dp2995
sg83
g2821
sg76
(lp2996
g69
(g90
g71
NtRp2997
(dp2998
g74
(dp2999
g94
g95
ssg83
g2993
sg76
(lp3000
S'HTTP_CONTENT_TYPE'
p3001
asbag69
(g90
g71
NtRp3002
(dp3003
g74
(dp3004
g101
g102
ssg83
g2993
sg76
(lp3005
S':'
asbag69
(g90
g71
NtRp3006
(dp3007
g74
(dp3008
sg83
g2993
sg76
(lp3009
g69
(g70
g71
NtRp3010
(dp3011
g74
(dp3012
g82
I3
ssg83
g3006
sg76
(lp3013
g811
asbasbasbag69
(g85
g71
NtRp3014
(dp3015
g74
(dp3016
sg83
g2821
sg76
(lp3017
g69
(g90
g71
NtRp3018
(dp3019
g74
(dp3020
g94
g95
ssg83
g3014
sg76
(lp3021
S'HTTP_COOKIE'
p3022
asbag69
(g90
g71
NtRp3023
(dp3024
g74
(dp3025
g101
g102
ssg83
g3014
sg76
(lp3026
S':'
asbag69
(g90
g71
NtRp3027
(dp3028
g74
(dp3029
sg83
g3014
sg76
(lp3030
g69
(g70
g71
NtRp3031
(dp3032
g74
(dp3033
g82
I3
ssg83
g3027
sg76
(lp3034
g1051
asbasbasbag69
(g85
g71
NtRp3035
(dp3036
g74
(dp3037
sg83
g2821
sg76
(lp3038
g69
(g90
g71
NtRp3039
(dp3040
g74
(dp3041
g94
g95
ssg83
g3035
sg76
(lp3042
S'HTTP_HOST'
p3043
asbag69
(g90
g71
NtRp3044
(dp3045
g74
(dp3046
g101
g102
ssg83
g3035
sg76
(lp3047
S':'
asbag69
(g90
g71
NtRp3048
(dp3049
g74
(dp3050
sg83
g3035
sg76
(lp3051
g69
(g70
g71
NtRp3052
(dp3053
g74
(dp3054
g82
I3
ssg83
g3048
sg76
(lp3055
g1073
asbasbasbag69
(g85
g71
NtRp3056
(dp3057
g74
(dp3058
sg83
g2821
sg76
(lp3059
g69
(g90
g71
NtRp3060
(dp3061
g74
(dp3062
g94
g95
ssg83
g3056
sg76
(lp3063
S'HTTP_ORIGIN'
p3064
asbag69
(g90
g71
NtRp3065
(dp3066
g74
(dp3067
g101
g102
ssg83
g3056
sg76
(lp3068
S':'
asbag69
(g90
g71
NtRp3069
(dp3070
g74
(dp3071
sg83
g3056
sg76
(lp3072
g69
(g70
g71
NtRp3073
(dp3074
g74
(dp3075
g82
I3
ssg83
g3069
sg76
(lp3076
g1095
asbasbasbag69
(g85
g71
NtRp3077
(dp3078
g74
(dp3079
sg83
g2821
sg76
(lp3080
g69
(g90
g71
NtRp3081
(dp3082
g74
(dp3083
g94
g95
ssg83
g3077
sg76
(lp3084
S'HTTP_REFERER'
p3085
asbag69
(g90
g71
NtRp3086
(dp3087
g74
(dp3088
g101
g102
ssg83
g3077
sg76
(lp3089
S':'
asbag69
(g90
g71
NtRp3090
(dp3091
g74
(dp3092
sg83
g3077
sg76
(lp3093
g69
(g70
g71
NtRp3094
(dp3095
g74
(dp3096
g82
I3
ssg83
g3090
sg76
(lp3097
g1117
asbasbasbag69
(g85
g71
NtRp3098
(dp3099
g74
(dp3100
sg83
g2821
sg76
(lp3101
g69
(g90
g71
NtRp3102
(dp3103
g74
(dp3104
g94
g95
ssg83
g3098
sg76
(lp3105
S'HTTP_USER_AGENT'
p3106
asbag69
(g90
g71
NtRp3107
(dp3108
g74
(dp3109
g101
g102
ssg83
g3098
sg76
(lp3110
S':'
asbag69
(g90
g71
NtRp3111
(dp3112
g74
(dp3113
sg83
g3098
sg76
(lp3114
g69
(g70
g71
NtRp3115
(dp3116
g74
(dp3117
g82
I3
ssg83
g3111
sg76
(lp3118
g1139
asbasbasbag69
(g85
g71
NtRp3119
(dp3120
g74
(dp3121
sg83
g2821
sg76
(lp3122
g69
(g90
g71
NtRp3123
(dp3124
g74
(dp3125
g94
g95
ssg83
g3119
sg76
(lp3126
S'HTTP_WEB2PY_COMPONENT_ELEMENT'
p3127
asbag69
(g90
g71
NtRp3128
(dp3129
g74
(dp3130
g101
g102
ssg83
g3119
sg76
(lp3131
S':'
asbag69
(g90
g71
NtRp3132
(dp3133
g74
(dp3134
sg83
g3119
sg76
(lp3135
g69
(g70
g71
NtRp3136
(dp3137
g74
(dp3138
g82
I3
ssg83
g3132
sg76
(lp3139
g202
asbasbasbag69
(g85
g71
NtRp3140
(dp3141
g74
(dp3142
sg83
g2821
sg76
(lp3143
g69
(g90
g71
NtRp3144
(dp3145
g74
(dp3146
g94
g95
ssg83
g3140
sg76
(lp3147
S'HTTP_WEB2PY_COMPONENT_LOCATION'
p3148
asbag69
(g90
g71
NtRp3149
(dp3150
g74
(dp3151
g101
g102
ssg83
g3140
sg76
(lp3152
S':'
asbag69
(g90
g71
NtRp3153
(dp3154
g74
(dp3155
sg83
g3140
sg76
(lp3156
g69
(g70
g71
NtRp3157
(dp3158
g74
(dp3159
g82
I3
ssg83
g3153
sg76
(lp3160
g1182
asbasbasbag69
(g85
g71
NtRp3161
(dp3162
g74
(dp3163
sg83
g2821
sg76
(lp3164
g69
(g90
g71
NtRp3165
(dp3166
g74
(dp3167
g94
g95
ssg83
g3161
sg76
(lp3168
S'HTTP_X_REQUESTED_WITH'
p3169
asbag69
(g90
g71
NtRp3170
(dp3171
g74
(dp3172
g101
g102
ssg83
g3161
sg76
(lp3173
S':'
asbag69
(g90
g71
NtRp3174
(dp3175
g74
(dp3176
sg83
g3161
sg76
(lp3177
g69
(g70
g71
NtRp3178
(dp3179
g74
(dp3180
g82
I3
ssg83
g3174
sg76
(lp3181
g1204
asbasbasbag69
(g85
g71
NtRp3182
(dp3183
g74
(dp3184
sg83
g2821
sg76
(lp3185
g69
(g90
g71
NtRp3186
(dp3187
g74
(dp3188
g94
g95
ssg83
g3182
sg76
(lp3189
S'PATH_INFO'
p3190
asbag69
(g90
g71
NtRp3191
(dp3192
g74
(dp3193
g101
g102
ssg83
g3182
sg76
(lp3194
S':'
asbag69
(g90
g71
NtRp3195
(dp3196
g74
(dp3197
sg83
g3182
sg76
(lp3198
g69
(g70
g71
NtRp3199
(dp3200
g74
(dp3201
g82
I3
ssg83
g3195
sg76
(lp3202
g1358
asbasbasbag69
(g85
g71
NtRp3203
(dp3204
g74
(dp3205
sg83
g2821
sg76
(lp3206
g69
(g90
g71
NtRp3207
(dp3208
g74
(dp3209
g94
g95
ssg83
g3203
sg76
(lp3210
S'QUERY_STRING'
p3211
asbag69
(g90
g71
NtRp3212
(dp3213
g74
(dp3214
g101
g102
ssg83
g3203
sg76
(lp3215
S':'
asbag69
(g90
g71
NtRp3216
(dp3217
g74
(dp3218
sg83
g3203
sg76
(lp3219
g69
(g70
g71
NtRp3220
(dp3221
g74
(dp3222
g82
I3
ssg83
g3216
sg76
(lp3223
g1380
asbasbasbag69
(g85
g71
NtRp3224
(dp3225
g74
(dp3226
sg83
g2821
sg76
(lp3227
g69
(g90
g71
NtRp3228
(dp3229
g74
(dp3230
g94
g95
ssg83
g3224
sg76
(lp3231
S'REMOTE_ADDR'
p3232
asbag69
(g90
g71
NtRp3233
(dp3234
g74
(dp3235
g101
g102
ssg83
g3224
sg76
(lp3236
S':'
asbag69
(g90
g71
NtRp3237
(dp3238
g74
(dp3239
sg83
g3224
sg76
(lp3240
g69
(g70
g71
NtRp3241
(dp3242
g74
(dp3243
g82
I3
ssg83
g3237
sg76
(lp3244
g224
asbasbasbag69
(g85
g71
NtRp3245
(dp3246
g74
(dp3247
sg83
g2821
sg76
(lp3248
g69
(g90
g71
NtRp3249
(dp3250
g74
(dp3251
g94
g95
ssg83
g3245
sg76
(lp3252
S'REMOTE_PORT'
p3253
asbag69
(g90
g71
NtRp3254
(dp3255
g74
(dp3256
g101
g102
ssg83
g3245
sg76
(lp3257
S':'
asbag69
(g90
g71
NtRp3258
(dp3259
g74
(dp3260
sg83
g3245
sg76
(lp3261
g69
(g70
g71
NtRp3262
(dp3263
g74
(dp3264
g82
I3
ssg83
g3258
sg76
(lp3265
g1423
asbasbasbag69
(g85
g71
NtRp3266
(dp3267
g74
(dp3268
sg83
g2821
sg76
(lp3269
g69
(g90
g71
NtRp3270
(dp3271
g74
(dp3272
g94
g95
ssg83
g3266
sg76
(lp3273
S'REQUEST_METHOD'
p3274
asbag69
(g90
g71
NtRp3275
(dp3276
g74
(dp3277
g101
g102
ssg83
g3266
sg76
(lp3278
S':'
asbag69
(g90
g71
NtRp3279
(dp3280
g74
(dp3281
sg83
g3266
sg76
(lp3282
g69
(g70
g71
NtRp3283
(dp3284
g74
(dp3285
g82
I3
ssg83
g3279
sg76
(lp3286
g1445
asbasbasbag69
(g85
g71
NtRp3287
(dp3288
g74
(dp3289
sg83
g2821
sg76
(lp3290
g69
(g90
g71
NtRp3291
(dp3292
g74
(dp3293
g94
g95
ssg83
g3287
sg76
(lp3294
S'REQUEST_URI'
p3295
asbag69
(g90
g71
NtRp3296
(dp3297
g74
(dp3298
g101
g102
ssg83
g3287
sg76
(lp3299
S':'
asbag69
(g90
g71
NtRp3300
(dp3301
g74
(dp3302
sg83
g3287
sg76
(lp3303
g69
(g70
g71
NtRp3304
(dp3305
g74
(dp3306
g82
I3
ssg83
g3300
sg76
(lp3307
g1467
asbasbasbag69
(g85
g71
NtRp3308
(dp3309
g74
(dp3310
sg83
g2821
sg76
(lp3311
g69
(g90
g71
NtRp3312
(dp3313
g74
(dp3314
g94
g95
ssg83
g3308
sg76
(lp3315
S'SCRIPT_NAME'
p3316
asbag69
(g90
g71
NtRp3317
(dp3318
g74
(dp3319
g101
g102
ssg83
g3308
sg76
(lp3320
S':'
asbag69
(g90
g71
NtRp3321
(dp3322
g74
(dp3323
sg83
g3308
sg76
(lp3324
g69
(g70
g71
NtRp3325
(dp3326
g74
(dp3327
g82
I3
ssg83
g3321
sg76
(lp3328
S''
asbasbasbag69
(g85
g71
NtRp3329
(dp3330
g74
(dp3331
sg83
g2821
sg76
(lp3332
g69
(g90
g71
NtRp3333
(dp3334
g74
(dp3335
g94
g95
ssg83
g3329
sg76
(lp3336
S'SERVER_NAME'
p3337
asbag69
(g90
g71
NtRp3338
(dp3339
g74
(dp3340
g101
g102
ssg83
g3329
sg76
(lp3341
S':'
asbag69
(g90
g71
NtRp3342
(dp3343
g74
(dp3344
sg83
g3329
sg76
(lp3345
g69
(g70
g71
NtRp3346
(dp3347
g74
(dp3348
g82
I3
ssg83
g3342
sg76
(lp3349
g1323
asbasbasbag69
(g85
g71
NtRp3350
(dp3351
g74
(dp3352
sg83
g2821
sg76
(lp3353
g69
(g90
g71
NtRp3354
(dp3355
g74
(dp3356
g94
g95
ssg83
g3350
sg76
(lp3357
S'SERVER_PORT'
p3358
asbag69
(g90
g71
NtRp3359
(dp3360
g74
(dp3361
g101
g102
ssg83
g3350
sg76
(lp3362
S':'
asbag69
(g90
g71
NtRp3363
(dp3364
g74
(dp3365
sg83
g3350
sg76
(lp3366
g69
(g70
g71
NtRp3367
(dp3368
g74
(dp3369
g82
I3
ssg83
g3363
sg76
(lp3370
g1531
asbasbasbag69
(g85
g71
NtRp3371
(dp3372
g74
(dp3373
sg83
g2821
sg76
(lp3374
g69
(g90
g71
NtRp3375
(dp3376
g74
(dp3377
g94
g95
ssg83
g3371
sg76
(lp3378
S'SERVER_PROTOCOL'
p3379
asbag69
(g90
g71
NtRp3380
(dp3381
g74
(dp3382
g101
g102
ssg83
g3371
sg76
(lp3383
S':'
asbag69
(g90
g71
NtRp3384
(dp3385
g74
(dp3386
sg83
g3371
sg76
(lp3387
g69
(g70
g71
NtRp3388
(dp3389
g74
(dp3390
g82
I3
ssg83
g3384
sg76
(lp3391
g1553
asbasbasbag69
(g85
g71
NtRp3392
(dp3393
g74
(dp3394
sg83
g2821
sg76
(lp3395
g69
(g90
g71
NtRp3396
(dp3397
g74
(dp3398
g94
g95
ssg83
g3392
sg76
(lp3399
S'SERVER_SOFTWARE'
p3400
asbag69
(g90
g71
NtRp3401
(dp3402
g74
(dp3403
g101
g102
ssg83
g3392
sg76
(lp3404
S':'
asbag69
(g90
g71
NtRp3405
(dp3406
g74
(dp3407
sg83
g3392
sg76
(lp3408
g69
(g70
g71
NtRp3409
(dp3410
g74
(dp3411
g82
I3
ssg83
g3405
sg76
(lp3412
g1575
asbasbasbag69
(g85
g71
NtRp3413
(dp3414
g74
(dp3415
sg83
g2821
sg76
(lp3416
g69
(g90
g71
NtRp3417
(dp3418
g74
(dp3419
g94
g95
ssg83
g3413
sg76
(lp3420
S'wsgi.errors'
p3421
asbag69
(g90
g71
NtRp3422
(dp3423
g74
(dp3424
g101
g102
ssg83
g3413
sg76
(lp3425
S':'
asbag69
(g90
g71
NtRp3426
(dp3427
g74
(dp3428
sg83
g3413
sg76
(lp3429
g69
(g70
g71
NtRp3430
(dp3431
g74
(dp3432
g82
I3
ssg83
g3426
sg76
(lp3433
S"<open file '<stderr>', mode 'w' at 0x00A850D0>"
p3434
asbasbasbag69
(g85
g71
NtRp3435
(dp3436
g74
(dp3437
sg83
g2821
sg76
(lp3438
g69
(g90
g71
NtRp3439
(dp3440
g74
(dp3441
g94
g95
ssg83
g3435
sg76
(lp3442
S'wsgi.file_wrapper'
p3443
asbag69
(g90
g71
NtRp3444
(dp3445
g74
(dp3446
g101
g102
ssg83
g3435
sg76
(lp3447
S':'
asbag69
(g90
g71
NtRp3448
(dp3449
g74
(dp3450
sg83
g3435
sg76
(lp3451
g69
(g70
g71
NtRp3452
(dp3453
g74
(dp3454
g82
I3
ssg83
g3448
sg76
(lp3455
S'<class wsgiref.util.FileWrapper at 0x0172EE68>'
p3456
asbasbasbag69
(g85
g71
NtRp3457
(dp3458
g74
(dp3459
sg83
g2821
sg76
(lp3460
g69
(g90
g71
NtRp3461
(dp3462
g74
(dp3463
g94
g95
ssg83
g3457
sg76
(lp3464
S'wsgi.input'
p3465
asbag69
(g90
g71
NtRp3466
(dp3467
g74
(dp3468
g101
g102
ssg83
g3457
sg76
(lp3469
S':'
asbag69
(g90
g71
NtRp3470
(dp3471
g74
(dp3472
sg83
g3457
sg76
(lp3473
g69
(g70
g71
NtRp3474
(dp3475
g74
(dp3476
g82
I3
ssg83
g3470
sg76
(lp3477
S"<open file '<fdopen>', mode 'w+b' at 0x05C15700>"
p3478
asbasbasbag69
(g85
g71
NtRp3479
(dp3480
g74
(dp3481
sg83
g2821
sg76
(lp3482
g69
(g90
g71
NtRp3483
(dp3484
g74
(dp3485
g94
g95
ssg83
g3479
sg76
(lp3486
S'wsgi.multiprocess'
p3487
asbag69
(g90
g71
NtRp3488
(dp3489
g74
(dp3490
g101
g102
ssg83
g3479
sg76
(lp3491
S':'
asbag69
(g90
g71
NtRp3492
(dp3493
g74
(dp3494
sg83
g3479
sg76
(lp3495
g69
(g70
g71
NtRp3496
(dp3497
g74
(dp3498
g82
I3
ssg83
g3492
sg76
(lp3499
g855
asbasbasbag69
(g85
g71
NtRp3500
(dp3501
g74
(dp3502
sg83
g2821
sg76
(lp3503
g69
(g90
g71
NtRp3504
(dp3505
g74
(dp3506
g94
g95
ssg83
g3500
sg76
(lp3507
S'wsgi.multithread'
p3508
asbag69
(g90
g71
NtRp3509
(dp3510
g74
(dp3511
g101
g102
ssg83
g3500
sg76
(lp3512
S':'
asbag69
(g90
g71
NtRp3513
(dp3514
g74
(dp3515
sg83
g3500
sg76
(lp3516
g69
(g70
g71
NtRp3517
(dp3518
g74
(dp3519
g82
I3
ssg83
g3513
sg76
(lp3520
g112
asbasbasbag69
(g85
g71
NtRp3521
(dp3522
g74
(dp3523
sg83
g2821
sg76
(lp3524
g69
(g90
g71
NtRp3525
(dp3526
g74
(dp3527
g94
g95
ssg83
g3521
sg76
(lp3528
S'wsgi.run_once'
p3529
asbag69
(g90
g71
NtRp3530
(dp3531
g74
(dp3532
g101
g102
ssg83
g3521
sg76
(lp3533
S':'
asbag69
(g90
g71
NtRp3534
(dp3535
g74
(dp3536
sg83
g3521
sg76
(lp3537
g69
(g70
g71
NtRp3538
(dp3539
g74
(dp3540
g82
I3
ssg83
g3534
sg76
(lp3541
g855
asbasbasbag69
(g85
g71
NtRp3542
(dp3543
g74
(dp3544
sg83
g2821
sg76
(lp3545
g69
(g90
g71
NtRp3546
(dp3547
g74
(dp3548
g94
g95
ssg83
g3542
sg76
(lp3549
S'wsgi.url_scheme'
p3550
asbag69
(g90
g71
NtRp3551
(dp3552
g74
(dp3553
g101
g102
ssg83
g3542
sg76
(lp3554
S':'
asbag69
(g90
g71
NtRp3555
(dp3556
g74
(dp3557
sg83
g3542
sg76
(lp3558
g69
(g70
g71
NtRp3559
(dp3560
g74
(dp3561
g82
I3
ssg83
g3555
sg76
(lp3562
g1834
asbasbasbag69
(g85
g71
NtRp3563
(dp3564
g74
(dp3565
sg83
g2821
sg76
(lp3566
g69
(g90
g71
NtRp3567
(dp3568
g74
(dp3569
g94
g95
ssg83
g3563
sg76
(lp3570
S'wsgi.version'
p3571
asbag69
(g90
g71
NtRp3572
(dp3573
g74
(dp3574
g101
g102
ssg83
g3563
sg76
(lp3575
S':'
asbag69
(g90
g71
NtRp3576
(dp3577
g74
(dp3578
sg83
g3563
sg76
(lp3579
g69
(g70
g71
NtRp3580
(dp3581
g74
(dp3582
g82
I3
ssg83
g3576
sg76
(lp3583
S'1'
asbasbasbasbasbasbasbasbasbasbasbasbasbsS'frames'
p3584
(lp3585
(dp3586
S'file'
p3587
S'D:\\web2py\\source\\web2py\\gluon\\restricted.py'
p3588
sS'dump'
p3589
(dp3590
S'environment'
p3591
S"{'A': <class 'gluon.html.A'>, 'Auth': <class 'gluon.tools.Auth'>, 'B': <class 'gluon.html.B'>, 'BEAUTIFY': <class 'gluon.html.BEAUTIFY'>, 'BODY': <class 'gluon.html.BODY'>, 'BR': <class 'gluon.html.BR'>, 'BUTTON': <class 'gluon.html.BUTTON'>, 'CAT': <class 'gluon.html.CAT'>, 'CENTER': <class 'gluon.html.CENTER'>, 'CLEANUP': <class 'gluon.validators.CLEANUP'>, ...}"
p3592
sS'ccode'
p3593
S'<code object <module> at 05C23338, file "D:\\web2...xlchart_dashboard\\controllers/charts.py", line 3>'
p3594
ssS'lnum'
p3595
I212
sS'lines'
p3596
(dp3597
I207
S'    try:'
p3598
sI208
S'        if isinstance(code, types.CodeType):'
p3599
sI209
S'            ccode = code'
p3600
sI210
S'        else:'
p3601
sI211
S'            ccode = compile2(code, layer)'
p3602
sI212
S'        exec ccode in environment'
p3603
sI213
S'    except HTTP:'
p3604
sI214
S'        raise'
p3605
sI215
S'    except RestrictedError:'
p3606
sI216
S'        # do not encapsulate (obfuscate) the original RestrictedError'
p3607
ssS'call'
p3608
S"(code='# coding: utf8\\n# try something like\\ndef index():...\\nresponse._vars=response._caller(subscribe_form)\\n', environment={'A': <class 'gluon.html.A'>, 'Auth': <class 'gluon.tools.Auth'>, 'B': <class 'gluon.html.B'>, 'BEAUTIFY': <class 'gluon.html.BEAUTIFY'>, 'BODY': <class 'gluon.html.BODY'>, 'BR': <class 'gluon.html.BR'>, 'BUTTON': <class 'gluon.html.BUTTON'>, 'CAT': <class 'gluon.html.CAT'>, 'CENTER': <class 'gluon.html.CENTER'>, 'CLEANUP': <class 'gluon.validators.CLEANUP'>, ...}, layer=r'D:\\web2py\\source\\web2py\\applications\\web2py_xlchart_dashboard\\controllers/charts.py')"
p3609
sS'func'
p3610
S'restricted'
p3611
sa(dp3612
g3587
S'D:\\web2py\\source\\web2py\\applications\\web2py_xlchart_dashboard\\controllers\\charts.py'
p3613
sg3589
(dp3614
sg3595
I31
sg3596
(dp3615
I20
S"        response.flash = 'form has errors'"
p3616
sI21
S'    else:'
p3617
sI22
S"        response.flash = 'please fill out the form'"
p3618
sI23
S'    return form'
p3619
sI24
S''
sI25
S'def subscribe():'
p3620
sI26
S'    pass'
p3621
sI27
S''
sI28
S'def download():'
p3622
sI29
S'    return response.download(request, db)'
p3623
ssg3608
S'()'
p3624
sg3610
S'<module>'
p3625
sa(dp3626
g3587
S'D:\\web2py\\source\\web2py\\gluon\\globals.py'
p3627
sg3589
(dp3628
S'self'
p3629
S'undefined'
p3630
sS'f'
S'<function subscribe_form>'
p3631
ssg3595
I188
sg3596
(dp3632
I192
S''
sI183
S'        self.menu = []             # used by the default view layout'
p3633
sI184
S'        self.files = []            # used by web2py_ajax.html'
p3634
sI185
S'        self.generic_patterns = []  # patterns to allow generic views'
p3635
sI186
S"        self.delimiters = ('{{', '}}')"
p3636
sI187
S'        self._vars = None'
p3637
sI188
S'        self._caller = lambda f: f()'
p3638
sI189
S'        self._view_environment = None'
p3639
sI190
S'        self._custom_commit = None'
p3640
sI191
S'        self._custom_rollback = None'
p3641
ssg3608
S'(f=<function subscribe_form>)'
p3642
sg3610
S'<lambda>'
p3643
sa(dp3644
g3587
S'D:\\web2py\\source\\web2py\\applications\\web2py_xlchart_dashboard\\controllers\\charts.py'
p3645
sg3589
(dp3646
sg3595
I15
sg3596
(dp3647
I10
S''
sI11
S'def subscribe_form():'
p3648
sI12
S''
sI13
S"    form = SQLFORM(db.user_chart,fields=['title','description'],hidden=dict(id_chart=request.vars['id_chart'][0]))"
p3649
sI14
S"    form.vars.id_form = request.vars['id_chart'][1]"
p3650
sI15
S'    if form.accepts(request,session):'
p3651
sI16
S"        form.vars.id_form = request.vars['id_chart'][1]"
p3652
sI17
S'    if form.process().accepted:'
p3653
sI18
S"        response.flash = 'form accepted'"
p3654
sI19
S'    elif form.errors:'
p3655
ssg3608
S'()'
p3656
sg3610
S'subscribe_form'
p3657
sa(dp3658
g3587
S'D:\\web2py\\source\\web2py\\gluon\\sqlhtml.py'
p3659
sg3589
(dp3660
S'self.vars.id'
p3661
S'None'
p3662
sS'fields'
p3663
S"{'description': 'Test', 'id_form': '12', 'title': 'Test'}"
p3664
sS'self'
p3665
S'<gluon.sqlhtml.SQLFORM object>'
p3666
sS'self.vars'
p3667
S"<Storage {'title': 'Test', 'description': 'Test', 'id_form': '12'}>"
p3668
sS'self.table.insert'
p3669
S'<bound method Table.insert of <Table user_chart (id,id_user,id_chart,title,description)>>'
p3670
sS'self.table'
p3671
S'<Table user_chart (id,id_user,id_chart,title,description)>'
p3672
ssg3595
I1475
sg3596
(dp3673
I1472
S'                        self.table._db(self.table._id == self.record['
p3674
sI1473
S'                                       self.id_field_name]).update(**fields)'
p3675
sI1474
S'                else:'
p3676
sI1475
S'                    self.vars.id = self.table.insert(**fields)'
p3677
sI1476
S'        self.accepted = ret'
p3678
sI1477
S'        return ret'
p3679
sI1478
S''
sI1479
S'    AUTOTYPES = {'
p3680
sI1470
S'                    self.vars.id = self.record[self.id_field_name]'
p3681
sI1471
S'                    if fields:'
p3682
ssg3608
S"(self=<gluon.sqlhtml.SQLFORM object>, request_vars=<Storage {'_formkey': '067c9a36-4536-4ffd-afe8-d...create', 'id_chart': '1', 'description': 'Test'}>, session=<Storage {'_formkey[user_chart/11]': '6245691a-3...art/4]': 'fde9186d-ab92-486e-a506-7d29730e5f53'}>, formname='user_chart/create', keepvalues=False, onvalidation=None, dbio=True, hideerror=False, detect_record_change=False, **kwargs={})"
p3683
sg3610
S'accepts'
p3684
sa(dp3685
g3587
S'D:\\web2py\\source\\web2py\\gluon\\dal.py'
p3686
sg3589
(dp3687
S'self._listify'
p3688
S'<bound method Table._listify of <Table user_chart (id,id_user,id_chart,title,description)>>'
p3689
sS'fields'
p3690
S"{'description': 'Test', 'id_form': '12', 'title': 'Test'}"
p3691
sS'self'
p3692
S'<Table user_chart (id,id_user,id_chart,title,description)>'
p3693
sS'ret'
p3694
g3630
sS'self._db._adapter'
p3695
S'<gluon.dal.SQLiteAdapter object>'
p3696
sS'self._db._adapter.insert'
p3697
S'<bound method SQLiteAdapter.insert of <gluon.dal.SQLiteAdapter object>>'
p3698
sS'self._db'
p3699
S'<DAL uri="sqlite://storage.sqlite">'
p3700
ssg3595
I7806
sg3596
(dp3701
I7808
S'            fields = Row(fields)'
p3702
sI7809
S'            [f(fields,ret) for f in self._after_insert]'
p3703
sI7810
S'        return ret'
p3704
sI7801
S'        return self._db._adapter._insert(self,self._listify(fields))'
p3705
sI7802
S''
sI7803
S'    def insert(self, **fields):'
p3706
sI7804
S'        self._attempt_upload(fields)'
p3707
sI7805
S'        if any(f(fields) for f in self._before_insert): return 0'
p3708
sI7806
S'        ret =  self._db._adapter.insert(self,self._listify(fields))'
p3709
sI7807
S'        if ret and self._after_insert:'
p3710
ssg3608
S"(self=<Table user_chart (id,id_user,id_chart,title,description)>, **fields={'description': 'Test', 'id_form': '12', 'title': 'Test'})"
p3711
sg3610
S'insert'
p3712
sa(dp3713
g3587
S'D:\\web2py\\source\\web2py\\gluon\\dal.py'
p3714
sg3589
(dp3715
S'name'
p3716
S"'id_form'"
p3717
ssg3595
I7744
sg3596
(dp3718
I7744
S"                        'Field %s does not belong to the table' % name"
p3719
sI7745
S'            else:'
p3720
sI7746
S'                field = self[name]'
p3721
sI7747
S'                value = fields[name]'
p3722
sI7748
S'                if field.filter_in:'
p3723
sI7739
S'        # store all fields passed as input in new_fields'
p3724
sI7740
S'        for name in fields:'
p3725
sI7741
S'            if not name in self.fields:'
p3726
sI7742
S"                if name != 'id':"
p3727
sI7743
S'                    raise SyntaxError, \\'
p3728
ssg3608
S"(self=<Table user_chart (id,id_user,id_chart,title,description)>, fields={'description': 'Test', 'id_form': '12', 'title': 'Test'}, update=False)"
p3729
sg3610
S'_listify'
p3730
sasS'pyver'
p3731
S'Python 2.7: d:\\python27\\python.exe'
p3732
sS'session'
p3733
g69
(g70
g71
NtRp3734
(dp3735
g74
(dp3736
sg76
(lp3737
g69
(g78
g71
NtRp3738
(dp3739
g74
(dp3740
g82
I5
ssg83
Nsg76
(lp3741
g69
(g85
g71
NtRp3742
(dp3743
g74
(dp3744
sg83
g3738
sg76
(lp3745
g69
(g90
g71
NtRp3746
(dp3747
g74
(dp3748
g94
g95
ssg83
g3742
sg76
(lp3749
S'flash'
p3750
asbag69
(g90
g71
NtRp3751
(dp3752
g74
(dp3753
g101
g102
ssg83
g3742
sg76
(lp3754
S':'
asbag69
(g90
g71
NtRp3755
(dp3756
g74
(dp3757
sg83
g3742
sg76
(lp3758
g69
(g70
g71
NtRp3759
(dp3760
g74
(dp3761
g82
I5
ssg83
g3755
sg76
(lp3762
S'None'
p3763
asbasbasbag69
(g85
g71
NtRp3764
(dp3765
g74
(dp3766
sg83
g3738
sg76
(lp3767
g69
(g90
g71
NtRp3768
(dp3769
g74
(dp3770
g94
g95
ssg83
g3764
sg76
(lp3771
S'last_orderby'
p3772
asbag69
(g90
g71
NtRp3773
(dp3774
g74
(dp3775
g101
g102
ssg83
g3764
sg76
(lp3776
S':'
asbag69
(g90
g71
NtRp3777
(dp3778
g74
(dp3779
sg83
g3764
sg76
(lp3780
g69
(g70
g71
NtRp3781
(dp3782
g74
(dp3783
g82
I5
ssg83
g3777
sg76
(lp3784
S'None'
p3785
asbasbasbag69
(g85
g71
NtRp3786
(dp3787
g74
(dp3788
sg83
g3738
sg76
(lp3789
g69
(g90
g71
NtRp3790
(dp3791
g74
(dp3792
g94
g95
ssg83
g3786
sg76
(lp3793
S'last_query'
p3794
asbag69
(g90
g71
NtRp3795
(dp3796
g74
(dp3797
g101
g102
ssg83
g3786
sg76
(lp3798
S':'
asbag69
(g90
g71
NtRp3799
(dp3800
g74
(dp3801
sg83
g3786
sg76
(lp3802
g69
(g70
g71
NtRp3803
(dp3804
g74
(dp3805
g82
I5
ssg83
g3799
sg76
(lp3806
S'db.user_chart.id>0'
p3807
asbasbasbasbasbsS'etype'
p3808
S"<type 'exceptions.SyntaxError'>"
p3809
sS'date'
p3810
S'Wed Nov 07 22:37:34 2012'
p3811
sS'response'
p3812
g69
(g70
g71
NtRp3813
(dp3814
g74
(dp3815
sg76
(lp3816
g69
(g78
g71
NtRp3817
(dp3818
g74
(dp3819
g82
I5
ssg83
Nsg76
(lp3820
g69
(g85
g71
NtRp3821
(dp3822
g74
(dp3823
sg83
g3817
sg76
(lp3824
g69
(g90
g71
NtRp3825
(dp3826
g74
(dp3827
g94
g95
ssg83
g3821
sg76
(lp3828
g167
asbag69
(g90
g71
NtRp3829
(dp3830
g74
(dp3831
g101
g102
ssg83
g3821
sg76
(lp3832
S':'
asbag69
(g90
g71
NtRp3833
(dp3834
g74
(dp3835
sg83
g3821
sg76
(lp3836
g69
(g70
g71
NtRp3837
(dp3838
g74
(dp3839
g82
I5
ssg83
g3833
sg76
(lp3840
S'<cStringIO.StringO object at 0x05D6A6C0>'
p3841
asbasbasbag69
(g85
g71
NtRp3842
(dp3843
g74
(dp3844
sg83
g3817
sg76
(lp3845
g69
(g90
g71
NtRp3846
(dp3847
g74
(dp3848
g94
g95
ssg83
g3842
sg76
(lp3849
g255
asbag69
(g90
g71
NtRp3850
(dp3851
g74
(dp3852
g101
g102
ssg83
g3842
sg76
(lp3853
S':'
asbag69
(g90
g71
NtRp3854
(dp3855
g74
(dp3856
sg83
g3842
sg76
(lp3857
g69
(g70
g71
NtRp3858
(dp3859
g74
(dp3860
g82
I5
ssg83
g3854
sg76
(lp3861
g69
(g78
g71
NtRp3862
(dp3863
g74
(dp3864
g82
I4
ssg83
Nsg76
(lp3865
g69
(g85
g71
NtRp3866
(dp3867
g74
(dp3868
sg83
g3862
sg76
(lp3869
g69
(g90
g71
NtRp3870
(dp3871
g74
(dp3872
g94
g95
ssg83
g3866
sg76
(lp3873
S'session_id_web2py_xlchart_dashboard'
p3874
asbag69
(g90
g71
NtRp3875
(dp3876
g74
(dp3877
g101
g102
ssg83
g3866
sg76
(lp3878
S':'
asbag69
(g90
g71
NtRp3879
(dp3880
g74
(dp3881
sg83
g3866
sg76
(lp3882
g69
(g70
g71
NtRp3883
(dp3884
g74
(dp3885
g82
I4
ssg83
g3879
sg76
(lp3886
g487
ag69
(g78
g71
NtRp3887
(dp3888
g74
(dp3889
g82
I3
ssg83
Nsg76
(lp3890
g69
(g85
g71
NtRp3891
(dp3892
g74
(dp3893
sg83
g3887
sg76
(lp3894
g69
(g90
g71
NtRp3895
(dp3896
g74
(dp3897
g94
g95
ssg83
g3891
sg76
(lp3898
g306
asbag69
(g90
g71
NtRp3899
(dp3900
g74
(dp3901
g101
g102
ssg83
g3891
sg76
(lp3902
S':'
asbag69
(g90
g71
NtRp3903
(dp3904
g74
(dp3905
sg83
g3891
sg76
(lp3906
g69
(g70
g71
NtRp3907
(dp3908
g74
(dp3909
g82
I3
ssg83
g3903
sg76
(lp3910
S''
asbasbasbag69
(g85
g71
NtRp3911
(dp3912
g74
(dp3913
sg83
g3887
sg76
(lp3914
g69
(g90
g71
NtRp3915
(dp3916
g74
(dp3917
g94
g95
ssg83
g3911
sg76
(lp3918
g327
asbag69
(g90
g71
NtRp3919
(dp3920
g74
(dp3921
g101
g102
ssg83
g3911
sg76
(lp3922
S':'
asbag69
(g90
g71
NtRp3923
(dp3924
g74
(dp3925
sg83
g3911
sg76
(lp3926
g69
(g70
g71
NtRp3927
(dp3928
g74
(dp3929
g82
I3
ssg83
g3923
sg76
(lp3930
S''
asbasbasbag69
(g85
g71
NtRp3931
(dp3932
g74
(dp3933
sg83
g3887
sg76
(lp3934
g69
(g90
g71
NtRp3935
(dp3936
g74
(dp3937
g94
g95
ssg83
g3931
sg76
(lp3938
g348
asbag69
(g90
g71
NtRp3939
(dp3940
g74
(dp3941
g101
g102
ssg83
g3931
sg76
(lp3942
S':'
asbag69
(g90
g71
NtRp3943
(dp3944
g74
(dp3945
sg83
g3931
sg76
(lp3946
g69
(g70
g71
NtRp3947
(dp3948
g74
(dp3949
g82
I3
ssg83
g3943
sg76
(lp3950
S''
asbasbasbag69
(g85
g71
NtRp3951
(dp3952
g74
(dp3953
sg83
g3887
sg76
(lp3954
g69
(g90
g71
NtRp3955
(dp3956
g74
(dp3957
g94
g95
ssg83
g3951
sg76
(lp3958
g369
asbag69
(g90
g71
NtRp3959
(dp3960
g74
(dp3961
g101
g102
ssg83
g3951
sg76
(lp3962
S':'
asbag69
(g90
g71
NtRp3963
(dp3964
g74
(dp3965
sg83
g3951
sg76
(lp3966
g69
(g70
g71
NtRp3967
(dp3968
g74
(dp3969
g82
I3
ssg83
g3963
sg76
(lp3970
S''
asbasbasbag69
(g85
g71
NtRp3971
(dp3972
g74
(dp3973
sg83
g3887
sg76
(lp3974
g69
(g90
g71
NtRp3975
(dp3976
g74
(dp3977
g94
g95
ssg83
g3971
sg76
(lp3978
g390
asbag69
(g90
g71
NtRp3979
(dp3980
g74
(dp3981
g101
g102
ssg83
g3971
sg76
(lp3982
S':'
asbag69
(g90
g71
NtRp3983
(dp3984
g74
(dp3985
sg83
g3971
sg76
(lp3986
g69
(g70
g71
NtRp3987
(dp3988
g74
(dp3989
g82
I3
ssg83
g3983
sg76
(lp3990
S''
asbasbasbag69
(g85
g71
NtRp3991
(dp3992
g74
(dp3993
sg83
g3887
sg76
(lp3994
g69
(g90
g71
NtRp3995
(dp3996
g74
(dp3997
g94
g95
ssg83
g3991
sg76
(lp3998
g411
asbag69
(g90
g71
NtRp3999
(dp4000
g74
(dp4001
g101
g102
ssg83
g3991
sg76
(lp4002
S':'
asbag69
(g90
g71
NtRp4003
(dp4004
g74
(dp4005
sg83
g3991
sg76
(lp4006
g69
(g70
g71
NtRp4007
(dp4008
g74
(dp4009
g82
I3
ssg83
g4003
sg76
(lp4010
S'/'
asbasbasbag69
(g85
g71
NtRp4011
(dp4012
g74
(dp4013
sg83
g3887
sg76
(lp4014
g69
(g90
g71
NtRp4015
(dp4016
g74
(dp4017
g94
g95
ssg83
g4011
sg76
(lp4018
g432
asbag69
(g90
g71
NtRp4019
(dp4020
g74
(dp4021
g101
g102
ssg83
g4011
sg76
(lp4022
S':'
asbag69
(g90
g71
NtRp4023
(dp4024
g74
(dp4025
sg83
g4011
sg76
(lp4026
g69
(g70
g71
NtRp4027
(dp4028
g74
(dp4029
g82
I3
ssg83
g4023
sg76
(lp4030
S''
asbasbasbag69
(g85
g71
NtRp4031
(dp4032
g74
(dp4033
sg83
g3887
sg76
(lp4034
g69
(g90
g71
NtRp4035
(dp4036
g74
(dp4037
g94
g95
ssg83
g4031
sg76
(lp4038
g453
asbag69
(g90
g71
NtRp4039
(dp4040
g74
(dp4041
g101
g102
ssg83
g4031
sg76
(lp4042
S':'
asbag69
(g90
g71
NtRp4043
(dp4044
g74
(dp4045
sg83
g4031
sg76
(lp4046
g69
(g70
g71
NtRp4047
(dp4048
g74
(dp4049
g82
I3
ssg83
g4043
sg76
(lp4050
S''
asbasbasbasbasbasbasbasbasbasbasbag69
(g85
g71
NtRp4051
(dp4052
g74
(dp4053
sg83
g3817
sg76
(lp4054
g69
(g90
g71
NtRp4055
(dp4056
g74
(dp4057
g94
g95
ssg83
g4051
sg76
(lp4058
S'delimiters'
p4059
asbag69
(g90
g71
NtRp4060
(dp4061
g74
(dp4062
g101
g102
ssg83
g4051
sg76
(lp4063
S':'
asbag69
(g90
g71
NtRp4064
(dp4065
g74
(dp4066
sg83
g4051
sg76
(lp4067
g69
(g70
g71
NtRp4068
(dp4069
g74
(dp4070
g82
I5
ssg83
g4064
sg76
(lp4071
g69
(g78
g71
NtRp4072
(dp4073
g74
(dp4074
g82
I4
ssg83
Nsg76
(lp4075
g69
(g85
g71
NtRp4076
(dp4077
g74
(dp4078
sg83
g4072
sg76
(lp4079
g69
(g90
g71
NtRp4080
(dp4081
g74
(dp4082
sg83
g4076
sg76
(lp4083
g69
(g70
g71
NtRp4084
(dp4085
g74
(dp4086
g82
I4
ssg83
g4080
sg76
(lp4087
S'{{'
p4088
asbasbasbag69
(g85
g71
NtRp4089
(dp4090
g74
(dp4091
sg83
g4072
sg76
(lp4092
g69
(g90
g71
NtRp4093
(dp4094
g74
(dp4095
sg83
g4089
sg76
(lp4096
g69
(g70
g71
NtRp4097
(dp4098
g74
(dp4099
g82
I4
ssg83
g4093
sg76
(lp4100
S'}}'
p4101
asbasbasbasbasbasbasbag69
(g85
g71
NtRp4102
(dp4103
g74
(dp4104
sg83
g3817
sg76
(lp4105
g69
(g90
g71
NtRp4106
(dp4107
g74
(dp4108
g94
g95
ssg83
g4102
sg76
(lp4109
S'files'
p4110
asbag69
(g90
g71
NtRp4111
(dp4112
g74
(dp4113
g101
g102
ssg83
g4102
sg76
(lp4114
S':'
asbag69
(g90
g71
NtRp4115
(dp4116
g74
(dp4117
sg83
g4102
sg76
(lp4118
g69
(g70
g71
NtRp4119
(dp4120
g74
(dp4121
g82
I5
ssg83
g4115
sg76
(lp4122
g69
(g78
g71
NtRp4123
(dp4124
g74
(dp4125
g82
I4
ssg83
Nsg76
(lp4126
sbasbasbasbag69
(g85
g71
NtRp4127
(dp4128
g74
(dp4129
sg83
g3817
sg76
(lp4130
g69
(g90
g71
NtRp4131
(dp4132
g74
(dp4133
g94
g95
ssg83
g4127
sg76
(lp4134
S'flash'
p4135
asbag69
(g90
g71
NtRp4136
(dp4137
g74
(dp4138
g101
g102
ssg83
g4127
sg76
(lp4139
S':'
asbag69
(g90
g71
NtRp4140
(dp4141
g74
(dp4142
sg83
g4127
sg76
(lp4143
g69
(g70
g71
NtRp4144
(dp4145
g74
(dp4146
g82
I5
ssg83
g4140
sg76
(lp4147
S''
asbasbasbag69
(g85
g71
NtRp4148
(dp4149
g74
(dp4150
sg83
g3817
sg76
(lp4151
g69
(g90
g71
NtRp4152
(dp4153
g74
(dp4154
g94
g95
ssg83
g4148
sg76
(lp4155
S'generic_patterns'
p4156
asbag69
(g90
g71
NtRp4157
(dp4158
g74
(dp4159
g101
g102
ssg83
g4148
sg76
(lp4160
S':'
asbag69
(g90
g71
NtRp4161
(dp4162
g74
(dp4163
sg83
g4148
sg76
(lp4164
g69
(g70
g71
NtRp4165
(dp4166
g74
(dp4167
g82
I5
ssg83
g4161
sg76
(lp4168
g69
(g78
g71
NtRp4169
(dp4170
g74
(dp4171
g82
I4
ssg83
Nsg76
(lp4172
g69
(g85
g71
NtRp4173
(dp4174
g74
(dp4175
sg83
g4169
sg76
(lp4176
g69
(g90
g71
NtRp4177
(dp4178
g74
(dp4179
sg83
g4173
sg76
(lp4180
g69
(g70
g71
NtRp4181
(dp4182
g74
(dp4183
g82
I4
ssg83
g4177
sg76
(lp4184
S'*'
asbasbasbasbasbasbasbag69
(g85
g71
NtRp4185
(dp4186
g74
(dp4187
sg83
g3817
sg76
(lp4188
g69
(g90
g71
NtRp4189
(dp4190
g74
(dp4191
g94
g95
ssg83
g4185
sg76
(lp4192
S'google_analytics_id'
p4193
asbag69
(g90
g71
NtRp4194
(dp4195
g74
(dp4196
g101
g102
ssg83
g4185
sg76
(lp4197
S':'
asbag69
(g90
g71
NtRp4198
(dp4199
g74
(dp4200
sg83
g4185
sg76
(lp4201
g69
(g70
g71
NtRp4202
(dp4203
g74
(dp4204
g82
I5
ssg83
g4198
sg76
(lp4205
S'None'
p4206
asbasbasbag69
(g85
g71
NtRp4207
(dp4208
g74
(dp4209
sg83
g3817
sg76
(lp4210
g69
(g90
g71
NtRp4211
(dp4212
g74
(dp4213
g94
g95
ssg83
g4207
sg76
(lp4214
S'headers'
p4215
asbag69
(g90
g71
NtRp4216
(dp4217
g74
(dp4218
g101
g102
ssg83
g4207
sg76
(lp4219
S':'
asbag69
(g90
g71
NtRp4220
(dp4221
g74
(dp4222
sg83
g4207
sg76
(lp4223
g69
(g70
g71
NtRp4224
(dp4225
g74
(dp4226
g82
I5
ssg83
g4220
sg76
(lp4227
g69
(g78
g71
NtRp4228
(dp4229
g74
(dp4230
g82
I4
ssg83
Nsg76
(lp4231
g69
(g85
g71
NtRp4232
(dp4233
g74
(dp4234
sg83
g4228
sg76
(lp4235
g69
(g90
g71
NtRp4236
(dp4237
g74
(dp4238
g94
g95
ssg83
g4232
sg76
(lp4239
S'X-Powered-By'
p4240
asbag69
(g90
g71
NtRp4241
(dp4242
g74
(dp4243
g101
g102
ssg83
g4232
sg76
(lp4244
S':'
asbag69
(g90
g71
NtRp4245
(dp4246
g74
(dp4247
sg83
g4232
sg76
(lp4248
g69
(g70
g71
NtRp4249
(dp4250
g74
(dp4251
g82
I4
ssg83
g4245
sg76
(lp4252
S'web2py'
p4253
asbasbasbasbasbasbasbag69
(g85
g71
NtRp4254
(dp4255
g74
(dp4256
sg83
g3817
sg76
(lp4257
g69
(g90
g71
NtRp4258
(dp4259
g74
(dp4260
g94
g95
ssg83
g4254
sg76
(lp4261
S'menu'
p4262
asbag69
(g90
g71
NtRp4263
(dp4264
g74
(dp4265
g101
g102
ssg83
g4254
sg76
(lp4266
S':'
asbag69
(g90
g71
NtRp4267
(dp4268
g74
(dp4269
sg83
g4254
sg76
(lp4270
g69
(g70
g71
NtRp4271
(dp4272
g74
(dp4273
g82
I5
ssg83
g4267
sg76
(lp4274
g69
(g78
g71
NtRp4275
(dp4276
g74
(dp4277
g82
I4
ssg83
Nsg76
(lp4278
g69
(g85
g71
NtRp4279
(dp4280
g74
(dp4281
sg83
g4275
sg76
(lp4282
g69
(g90
g71
NtRp4283
(dp4284
g74
(dp4285
sg83
g4279
sg76
(lp4286
g69
(g70
g71
NtRp4287
(dp4288
g74
(dp4289
g82
I4
ssg83
g4283
sg76
(lp4290
g69
(g78
g71
NtRp4291
(dp4292
g74
(dp4293
g82
I3
ssg83
Nsg76
(lp4294
g69
(g85
g71
NtRp4295
(dp4296
g74
(dp4297
sg83
g4291
sg76
(lp4298
g69
(g90
g71
NtRp4299
(dp4300
g74
(dp4301
sg83
g4295
sg76
(lp4302
g69
(g70
g71
NtRp4303
(dp4304
g74
(dp4305
g82
I3
ssg83
g4299
sg76
(lp4306
cgluon.languages
lazyT_unpickle
p4307
(S't\t\x00\x00\x00Dashboard'
tRp4308
asbasbasbag69
(g85
g71
NtRp4309
(dp4310
g74
(dp4311
sg83
g4291
sg76
(lp4312
g69
(g90
g71
NtRp4313
(dp4314
g74
(dp4315
sg83
g4309
sg76
(lp4316
g69
(g70
g71
NtRp4317
(dp4318
g74
(dp4319
g82
I3
ssg83
g4313
sg76
(lp4320
g855
asbasbasbag69
(g85
g71
NtRp4321
(dp4322
g74
(dp4323
sg83
g4291
sg76
(lp4324
g69
(g90
g71
NtRp4325
(dp4326
g74
(dp4327
sg83
g4321
sg76
(lp4328
g69
(g70
g71
NtRp4329
(dp4330
g74
(dp4331
g82
I3
ssg83
g4325
sg76
(lp4332
S'/web2py_xlchart_dashboard/default/index'
p4333
asbasbasbag69
(g85
g71
NtRp4334
(dp4335
g74
(dp4336
sg83
g4291
sg76
(lp4337
g69
(g90
g71
NtRp4338
(dp4339
g74
(dp4340
sg83
g4334
sg76
(lp4341
g69
(g70
g71
NtRp4342
(dp4343
g74
(dp4344
g82
I3
ssg83
g4338
sg76
(lp4345
g69
(g78
g71
NtRp4346
(dp4347
g74
(dp4348
g82
I2
ssg83
Nsg76
(lp4349
g69
(g85
g71
NtRp4350
(dp4351
g74
(dp4352
sg83
g4346
sg76
(lp4353
g69
(g90
g71
NtRp4354
(dp4355
g74
(dp4356
sg83
g4350
sg76
(lp4357
g69
(g70
g71
NtRp4358
(dp4359
g74
(dp4360
g82
I2
ssg83
g4354
sg76
(lp4361
g69
(g78
g71
NtRp4362
(dp4363
g74
(dp4364
g82
I1
ssg83
Nsg76
(lp4365
g69
(g85
g71
NtRp4366
(dp4367
g74
(dp4368
sg83
g4362
sg76
(lp4369
g69
(g90
g71
NtRp4370
(dp4371
g74
(dp4372
sg83
g4366
sg76
(lp4373
g69
(g70
g71
NtRp4374
(dp4375
g74
(dp4376
g82
I1
ssg83
g4370
sg76
(lp4377
g4307
(S's\x0c\x00\x00\x00My Dashboard'
tRp4378
asbasbasbag69
(g85
g71
NtRp4379
(dp4380
g74
(dp4381
sg83
g4362
sg76
(lp4382
g69
(g90
g71
NtRp4383
(dp4384
g74
(dp4385
sg83
g4379
sg76
(lp4386
g69
(g70
g71
NtRp4387
(dp4388
g74
(dp4389
g82
I1
ssg83
g4383
sg76
(lp4390
I00
asbasbasbag69
(g85
g71
NtRp4391
(dp4392
g74
(dp4393
sg83
g4362
sg76
(lp4394
g69
(g90
g71
NtRp4395
(dp4396
g74
(dp4397
sg83
g4391
sg76
(lp4398
g69
(g70
g71
NtRp4399
(dp4400
g74
(dp4401
g82
I1
ssg83
g4395
sg76
(lp4402
S'/web2py_xlchart_dashboard/default/index'
p4403
asbasbasbag69
(g85
g71
NtRp4404
(dp4405
g74
(dp4406
sg83
g4362
sg76
(lp4407
g69
(g90
g71
NtRp4408
(dp4409
g74
(dp4410
sg83
g4404
sg76
(lp4411
g69
(g70
g71
NtRp4412
(dp4413
g74
(dp4414
g82
I1
ssg83
g4408
sg76
(lp4415
(lp4416
(g4307
(S's\x11\x00\x00\x00Manage Dashboards'
tRp4417
I00
S'/web2py_xlchart_dashboard/dashboard/manage_dashboard'
tp4418
a(g4307
(S's\r\x00\x00\x00Add Dashboard'
tRp4419
I00
S'/web2py_xlchart_dashboard/default/add_workbook'
tp4420
a(g4307
(S's\x0f\x00\x00\x00Manage Projects'
tRp4421
I00
S'/web2py_xlchart_dashboard/default/add_workbook'
tp4422
a(g4307
(S's\x0b\x00\x00\x00Add Project'
tRp4423
I00
S'/web2py_xlchart_dashboard/default/add_workbook'
tp4424
aasbasbasbasbasbasbasbag69
(g85
g71
NtRp4425
(dp4426
g74
(dp4427
sg83
g4346
sg76
(lp4428
g69
(g90
g71
NtRp4429
(dp4430
g74
(dp4431
sg83
g4425
sg76
(lp4432
g69
(g70
g71
NtRp4433
(dp4434
g74
(dp4435
g82
I2
ssg83
g4429
sg76
(lp4436
g69
(g78
g71
NtRp4437
(dp4438
g74
(dp4439
g82
I1
ssg83
Nsg76
(lp4440
g69
(g85
g71
NtRp4441
(dp4442
g74
(dp4443
sg83
g4437
sg76
(lp4444
g69
(g90
g71
NtRp4445
(dp4446
g74
(dp4447
sg83
g4441
sg76
(lp4448
g69
(g70
g71
NtRp4449
(dp4450
g74
(dp4451
g82
I1
ssg83
g4445
sg76
(lp4452
g4307
(S't\t\x00\x00\x00Workbooks'
tRp4453
asbasbasbag69
(g85
g71
NtRp4454
(dp4455
g74
(dp4456
sg83
g4437
sg76
(lp4457
g69
(g90
g71
NtRp4458
(dp4459
g74
(dp4460
sg83
g4454
sg76
(lp4461
g69
(g70
g71
NtRp4462
(dp4463
g74
(dp4464
g82
I1
ssg83
g4458
sg76
(lp4465
I00
asbasbasbag69
(g85
g71
NtRp4466
(dp4467
g74
(dp4468
sg83
g4437
sg76
(lp4469
g69
(g90
g71
NtRp4470
(dp4471
g74
(dp4472
sg83
g4466
sg76
(lp4473
g69
(g70
g71
NtRp4474
(dp4475
g74
(dp4476
g82
I1
ssg83
g4470
sg76
(lp4477
S'/web2py_xlchart_dashboard/default/index'
p4478
asbasbasbag69
(g85
g71
NtRp4479
(dp4480
g74
(dp4481
sg83
g4437
sg76
(lp4482
g69
(g90
g71
NtRp4483
(dp4484
g74
(dp4485
sg83
g4479
sg76
(lp4486
g69
(g70
g71
NtRp4487
(dp4488
g74
(dp4489
g82
I1
ssg83
g4483
sg76
(lp4490
(lp4491
(g4307
(S's\x0c\x00\x00\x00Add Workbook'
tRp4492
I00
S'/web2py_xlchart_dashboard/default/add_workbook'
tp4493
aasbasbasbasbasbasbasbasbasbasbasbasbasbasbasbag69
(g85
g71
NtRp4494
(dp4495
g74
(dp4496
sg83
g4275
sg76
(lp4497
g69
(g90
g71
NtRp4498
(dp4499
g74
(dp4500
sg83
g4494
sg76
(lp4501
g69
(g70
g71
NtRp4502
(dp4503
g74
(dp4504
g82
I4
ssg83
g4498
sg76
(lp4505
g69
(g78
g71
NtRp4506
(dp4507
g74
(dp4508
g82
I3
ssg83
Nsg76
(lp4509
g69
(g85
g71
NtRp4510
(dp4511
g74
(dp4512
sg83
g4506
sg76
(lp4513
g69
(g90
g71
NtRp4514
(dp4515
g74
(dp4516
sg83
g4510
sg76
(lp4517
g69
(g70
g71
NtRp4518
(dp4519
g74
(dp4520
g82
I3
ssg83
g4514
sg76
(lp4521
g69
(cgluon.html
SPAN
p4522
g71
NtRp4523
(dp4524
g74
(dp4525
S'_class'
p4526
S'highlighted'
p4527
ssg83
Nsg76
(lp4528
g4253
asbasbasbasbag69
(g85
g71
NtRp4529
(dp4530
g74
(dp4531
sg83
g4506
sg76
(lp4532
g69
(g90
g71
NtRp4533
(dp4534
g74
(dp4535
sg83
g4529
sg76
(lp4536
g69
(g70
g71
NtRp4537
(dp4538
g74
(dp4539
g82
I3
ssg83
g4533
sg76
(lp4540
g855
asbasbasbag69
(g85
g71
NtRp4541
(dp4542
g74
(dp4543
sg83
g4506
sg76
(lp4544
g69
(g90
g71
NtRp4545
(dp4546
g74
(dp4547
sg83
g4541
sg76
(lp4548
g69
(g70
g71
NtRp4549
(dp4550
g74
(dp4551
g82
I3
ssg83
g4545
sg76
(lp4552
S'http://web2py.com'
p4553
asbasbasbag69
(g85
g71
NtRp4554
(dp4555
g74
(dp4556
sg83
g4506
sg76
(lp4557
g69
(g90
g71
NtRp4558
(dp4559
g74
(dp4560
sg83
g4554
sg76
(lp4561
g69
(g70
g71
NtRp4562
(dp4563
g74
(dp4564
g82
I3
ssg83
g4558
sg76
(lp4565
g69
(g78
g71
NtRp4566
(dp4567
g74
(dp4568
g82
I2
ssg83
Nsg76
(lp4569
g69
(g85
g71
NtRp4570
(dp4571
g74
(dp4572
sg83
g4566
sg76
(lp4573
g69
(g90
g71
NtRp4574
(dp4575
g74
(dp4576
sg83
g4570
sg76
(lp4577
g69
(g70
g71
NtRp4578
(dp4579
g74
(dp4580
g82
I2
ssg83
g4574
sg76
(lp4581
g69
(g78
g71
NtRp4582
(dp4583
g74
(dp4584
g82
I1
ssg83
Nsg76
(lp4585
g69
(g85
g71
NtRp4586
(dp4587
g74
(dp4588
sg83
g4582
sg76
(lp4589
g69
(g90
g71
NtRp4590
(dp4591
g74
(dp4592
sg83
g4586
sg76
(lp4593
g69
(g70
g71
NtRp4594
(dp4595
g74
(dp4596
g82
I1
ssg83
g4590
sg76
(lp4597
g4307
(S's\x08\x00\x00\x00My Sites'
tRp4598
asbasbasbag69
(g85
g71
NtRp4599
(dp4600
g74
(dp4601
sg83
g4582
sg76
(lp4602
g69
(g90
g71
NtRp4603
(dp4604
g74
(dp4605
sg83
g4599
sg76
(lp4606
g69
(g70
g71
NtRp4607
(dp4608
g74
(dp4609
g82
I1
ssg83
g4603
sg76
(lp4610
I00
asbasbasbag69
(g85
g71
NtRp4611
(dp4612
g74
(dp4613
sg83
g4582
sg76
(lp4614
g69
(g90
g71
NtRp4615
(dp4616
g74
(dp4617
sg83
g4611
sg76
(lp4618
g69
(g70
g71
NtRp4619
(dp4620
g74
(dp4621
g82
I1
ssg83
g4615
sg76
(lp4622
S'/admin/default/site'
p4623
asbasbasbasbasbasbasbag69
(g85
g71
NtRp4624
(dp4625
g74
(dp4626
sg83
g4566
sg76
(lp4627
g69
(g90
g71
NtRp4628
(dp4629
g74
(dp4630
sg83
g4624
sg76
(lp4631
g69
(g70
g71
NtRp4632
(dp4633
g74
(dp4634
g82
I2
ssg83
g4628
sg76
(lp4635
g69
(g78
g71
NtRp4636
(dp4637
g74
(dp4638
g82
I1
ssg83
Nsg76
(lp4639
g69
(g85
g71
NtRp4640
(dp4641
g74
(dp4642
sg83
g4636
sg76
(lp4643
g69
(g90
g71
NtRp4644
(dp4645
g74
(dp4646
sg83
g4640
sg76
(lp4647
g69
(g70
g71
NtRp4648
(dp4649
g74
(dp4650
g82
I1
ssg83
g4644
sg76
(lp4651
g4307
(S's\x08\x00\x00\x00This App'
tRp4652
asbasbasbag69
(g85
g71
NtRp4653
(dp4654
g74
(dp4655
sg83
g4636
sg76
(lp4656
g69
(g90
g71
NtRp4657
(dp4658
g74
(dp4659
sg83
g4653
sg76
(lp4660
g69
(g70
g71
NtRp4661
(dp4662
g74
(dp4663
g82
I1
ssg83
g4657
sg76
(lp4664
I00
asbasbasbag69
(g85
g71
NtRp4665
(dp4666
g74
(dp4667
sg83
g4636
sg76
(lp4668
g69
(g90
g71
NtRp4669
(dp4670
g74
(dp4671
sg83
g4665
sg76
(lp4672
g69
(g70
g71
NtRp4673
(dp4674
g74
(dp4675
g82
I1
ssg83
g4669
sg76
(lp4676
S'/admin/default/design/web2py_xlchart_dashboard'
p4677
asbasbasbag69
(g85
g71
NtRp4678
(dp4679
g74
(dp4680
sg83
g4636
sg76
(lp4681
g69
(g90
g71
NtRp4682
(dp4683
g74
(dp4684
sg83
g4678
sg76
(lp4685
g69
(g70
g71
NtRp4686
(dp4687
g74
(dp4688
g82
I1
ssg83
g4682
sg76
(lp4689
(lp4690
(g4307
(S's\n\x00\x00\x00Controller'
tRp4691
I00
S'/admin/default/edit/web2py_xlchart_dashboard/controllers/charts.py'
tp4692
a(g4307
(S's\x04\x00\x00\x00View'
tRp4693
I00
S'/admin/default/edit/web2py_xlchart_dashboard/views/charts/subscribe_form.html'
tp4694
a(g4307
(S's\x06\x00\x00\x00Layout'
tRp4695
I00
S'/admin/default/edit/web2py_xlchart_dashboard/views/layout.html'
tp4696
a(g4307
(S's\n\x00\x00\x00Stylesheet'
tRp4697
I00
S'/admin/default/edit/web2py_xlchart_dashboard/static/css/web2py.css'
tp4698
a(g4307
(S's\x08\x00\x00\x00DB Model'
tRp4699
I00
S'/admin/default/edit/web2py_xlchart_dashboard/models/db.py'
tp4700
a(g4307
(S's\n\x00\x00\x00Menu Model'
tRp4701
I00
S'/admin/default/edit/web2py_xlchart_dashboard/models/menu.py'
tp4702
a(g4307
(S's\x08\x00\x00\x00Database'
tRp4703
I00
S'/web2py_xlchart_dashboard/appadmin/index'
tp4704
a(g4307
(S's\x06\x00\x00\x00Errors'
tRp4705
I00
S'/admin/default/errors/web2py_xlchart_dashboard'
tp4706
a(g4307
(S's\x05\x00\x00\x00About'
tRp4707
I00
S'/admin/default/about/web2py_xlchart_dashboard'
tp4708
aasbasbasbasbasbasbasbag69
(g85
g71
NtRp4709
(dp4710
g74
(dp4711
sg83
g4566
sg76
(lp4712
g69
(g90
g71
NtRp4713
(dp4714
g74
(dp4715
sg83
g4709
sg76
(lp4716
g69
(g70
g71
NtRp4717
(dp4718
g74
(dp4719
g82
I2
ssg83
g4713
sg76
(lp4720
g69
(g78
g71
NtRp4721
(dp4722
g74
(dp4723
g82
I1
ssg83
Nsg76
(lp4724
g69
(g85
g71
NtRp4725
(dp4726
g74
(dp4727
sg83
g4721
sg76
(lp4728
g69
(g90
g71
NtRp4729
(dp4730
g74
(dp4731
sg83
g4725
sg76
(lp4732
g69
(g70
g71
NtRp4733
(dp4734
g74
(dp4735
g82
I1
ssg83
g4729
sg76
(lp4736
S'web2py.com'
p4737
asbasbasbag69
(g85
g71
NtRp4738
(dp4739
g74
(dp4740
sg83
g4721
sg76
(lp4741
g69
(g90
g71
NtRp4742
(dp4743
g74
(dp4744
sg83
g4738
sg76
(lp4745
g69
(g70
g71
NtRp4746
(dp4747
g74
(dp4748
g82
I1
ssg83
g4742
sg76
(lp4749
I00
asbasbasbag69
(g85
g71
NtRp4750
(dp4751
g74
(dp4752
sg83
g4721
sg76
(lp4753
g69
(g90
g71
NtRp4754
(dp4755
g74
(dp4756
sg83
g4750
sg76
(lp4757
g69
(g70
g71
NtRp4758
(dp4759
g74
(dp4760
g82
I1
ssg83
g4754
sg76
(lp4761
S'http://www.web2py.com'
p4762
asbasbasbag69
(g85
g71
NtRp4763
(dp4764
g74
(dp4765
sg83
g4721
sg76
(lp4766
g69
(g90
g71
NtRp4767
(dp4768
g74
(dp4769
sg83
g4763
sg76
(lp4770
g69
(g70
g71
NtRp4771
(dp4772
g74
(dp4773
g82
I1
ssg83
g4767
sg76
(lp4774
(lp4775
(g4307
(S's\x08\x00\x00\x00Download'
tRp4776
I00
S'http://www.web2py.com/examples/default/download'
p4777
tp4778
a(g4307
(S's\x07\x00\x00\x00Support'
tRp4779
I00
S'http://www.web2py.com/examples/default/support'
p4780
tp4781
a(g4307
(S's\x04\x00\x00\x00Demo'
tRp4782
I00
S'http://web2py.com/demo_admin'
p4783
tp4784
a(g4307
(S's\x0e\x00\x00\x00Quick Examples'
tRp4785
I00
S'http://web2py.com/examples/default/examples'
p4786
tp4787
a(g4307
(S's\x03\x00\x00\x00FAQ'
tRp4788
I00
S'http://web2py.com/AlterEgo'
p4789
tp4790
a(g4307
(S's\x06\x00\x00\x00Videos'
tRp4791
I00
S'http://www.web2py.com/examples/default/videos/'
p4792
tp4793
a(g4307
(S's\x11\x00\x00\x00Free Applications'
tRp4794
I00
S'http://web2py.com/appliances'
p4795
tp4796
a(g4307
(S's\x07\x00\x00\x00Plugins'
tRp4797
I00
S'http://web2py.com/plugins'
p4798
tp4799
a(g4307
(S's\x07\x00\x00\x00Layouts'
tRp4800
I00
S'http://web2py.com/layouts'
p4801
tp4802
a(g4307
(S's\x07\x00\x00\x00Recipes'
tRp4803
I00
S'http://web2pyslices.com/'
p4804
tp4805
a(g4307
(S's\x08\x00\x00\x00Semantic'
tRp4806
I00
S'http://web2py.com/semantic'
p4807
tp4808
aasbasbasbasbasbasbasbag69
(g85
g71
NtRp4809
(dp4810
g74
(dp4811
sg83
g4566
sg76
(lp4812
g69
(g90
g71
NtRp4813
(dp4814
g74
(dp4815
sg83
g4809
sg76
(lp4816
g69
(g70
g71
NtRp4817
(dp4818
g74
(dp4819
g82
I2
ssg83
g4813
sg76
(lp4820
g69
(g78
g71
NtRp4821
(dp4822
g74
(dp4823
g82
I1
ssg83
Nsg76
(lp4824
g69
(g85
g71
NtRp4825
(dp4826
g74
(dp4827
sg83
g4821
sg76
(lp4828
g69
(g90
g71
NtRp4829
(dp4830
g74
(dp4831
sg83
g4825
sg76
(lp4832
g69
(g70
g71
NtRp4833
(dp4834
g74
(dp4835
g82
I1
ssg83
g4829
sg76
(lp4836
g4307
(S's\r\x00\x00\x00Documentation'
tRp4837
asbasbasbag69
(g85
g71
NtRp4838
(dp4839
g74
(dp4840
sg83
g4821
sg76
(lp4841
g69
(g90
g71
NtRp4842
(dp4843
g74
(dp4844
sg83
g4838
sg76
(lp4845
g69
(g70
g71
NtRp4846
(dp4847
g74
(dp4848
g82
I1
ssg83
g4842
sg76
(lp4849
I00
asbasbasbag69
(g85
g71
NtRp4850
(dp4851
g74
(dp4852
sg83
g4821
sg76
(lp4853
g69
(g90
g71
NtRp4854
(dp4855
g74
(dp4856
sg83
g4850
sg76
(lp4857
g69
(g70
g71
NtRp4858
(dp4859
g74
(dp4860
g82
I1
ssg83
g4854
sg76
(lp4861
S'http://www.web2py.com/book'
p4862
asbasbasbag69
(g85
g71
NtRp4863
(dp4864
g74
(dp4865
sg83
g4821
sg76
(lp4866
g69
(g90
g71
NtRp4867
(dp4868
g74
(dp4869
sg83
g4863
sg76
(lp4870
g69
(g70
g71
NtRp4871
(dp4872
g74
(dp4873
g82
I1
ssg83
g4867
sg76
(lp4874
(lp4875
(g4307
(S's\x07\x00\x00\x00Preface'
tRp4876
I00
S'http://www.web2py.com/book/default/chapter/00'
p4877
tp4878
a(g4307
(S's\x0c\x00\x00\x00Introduction'
tRp4879
I00
S'http://www.web2py.com/book/default/chapter/01'
p4880
tp4881
a(g4307
(S's\x06\x00\x00\x00Python'
tRp4882
I00
S'http://www.web2py.com/book/default/chapter/02'
p4883
tp4884
a(g4307
(S's\x08\x00\x00\x00Overview'
tRp4885
I00
S'http://www.web2py.com/book/default/chapter/03'
p4886
tp4887
a(g4307
(S's\x08\x00\x00\x00The Core'
tRp4888
I00
S'http://www.web2py.com/book/default/chapter/04'
p4889
tp4890
a(g4307
(S's\t\x00\x00\x00The Views'
tRp4891
I00
S'http://www.web2py.com/book/default/chapter/05'
p4892
tp4893
a(g4307
(S's\x08\x00\x00\x00Database'
tRp4894
I00
S'http://www.web2py.com/book/default/chapter/06'
p4895
tp4896
a(g4307
(S's\x14\x00\x00\x00Forms and Validators'
tRp4897
I00
S'http://www.web2py.com/book/default/chapter/07'
p4898
tp4899
a(g4307
(S's\r\x00\x00\x00Email and SMS'
tRp4900
I00
S'http://www.web2py.com/book/default/chapter/08'
p4901
tp4902
a(g4307
(S's\x0e\x00\x00\x00Access Control'
tRp4903
I00
S'http://www.web2py.com/book/default/chapter/09'
p4904
tp4905
a(g4307
(S's\x08\x00\x00\x00Services'
tRp4906
I00
S'http://www.web2py.com/book/default/chapter/10'
p4907
tp4908
a(g4307
(S's\x0c\x00\x00\x00Ajax Recipes'
tRp4909
I00
S'http://www.web2py.com/book/default/chapter/11'
p4910
tp4911
a(g4307
(S's\x16\x00\x00\x00Components and Plugins'
tRp4912
I00
S'http://www.web2py.com/book/default/chapter/12'
p4913
tp4914
a(g4307
(S's\x12\x00\x00\x00Deployment Recipes'
tRp4915
I00
S'http://www.web2py.com/book/default/chapter/13'
p4916
tp4917
a(g4307
(S's\r\x00\x00\x00Other Recipes'
tRp4918
I00
S'http://www.web2py.com/book/default/chapter/14'
p4919
tp4920
a(g4307
(S's\r\x00\x00\x00Buy this book'
tRp4921
I00
S'http://stores.lulu.com/web2py'
p4922
tp4923
aasbasbasbasbasbasbasbag69
(g85
g71
NtRp4924
(dp4925
g74
(dp4926
sg83
g4566
sg76
(lp4927
g69
(g90
g71
NtRp4928
(dp4929
g74
(dp4930
sg83
g4924
sg76
(lp4931
g69
(g70
g71
NtRp4932
(dp4933
g74
(dp4934
g82
I2
ssg83
g4928
sg76
(lp4935
g69
(g78
g71
NtRp4936
(dp4937
g74
(dp4938
g82
I1
ssg83
Nsg76
(lp4939
g69
(g85
g71
NtRp4940
(dp4941
g74
(dp4942
sg83
g4936
sg76
(lp4943
g69
(g90
g71
NtRp4944
(dp4945
g74
(dp4946
sg83
g4940
sg76
(lp4947
g69
(g70
g71
NtRp4948
(dp4949
g74
(dp4950
g82
I1
ssg83
g4944
sg76
(lp4951
g4307
(S's\t\x00\x00\x00Community'
tRp4952
asbasbasbag69
(g85
g71
NtRp4953
(dp4954
g74
(dp4955
sg83
g4936
sg76
(lp4956
g69
(g90
g71
NtRp4957
(dp4958
g74
(dp4959
sg83
g4953
sg76
(lp4960
g69
(g70
g71
NtRp4961
(dp4962
g74
(dp4963
g82
I1
ssg83
g4957
sg76
(lp4964
I00
asbasbasbag69
(g85
g71
NtRp4965
(dp4966
g74
(dp4967
sg83
g4936
sg76
(lp4968
g69
(g90
g71
NtRp4969
(dp4970
g74
(dp4971
sg83
g4965
sg76
(lp4972
g69
(g70
g71
NtRp4973
(dp4974
g74
(dp4975
g82
I1
ssg83
g4969
sg76
(lp4976
Nasbasbasbag69
(g85
g71
NtRp4977
(dp4978
g74
(dp4979
sg83
g4936
sg76
(lp4980
g69
(g90
g71
NtRp4981
(dp4982
g74
(dp4983
sg83
g4977
sg76
(lp4984
g69
(g70
g71
NtRp4985
(dp4986
g74
(dp4987
g82
I1
ssg83
g4981
sg76
(lp4988
(lp4989
(g4307
(S's\x06\x00\x00\x00Groups'
tRp4990
I00
S'http://www.web2py.com/examples/default/usergroups'
p4991
tp4992
a(g4307
(S's\x07\x00\x00\x00Twitter'
tRp4993
I00
S'http://twitter.com/web2py'
p4994
tp4995
a(g4307
(S's\t\x00\x00\x00Live Chat'
tRp4996
I00
S'http://webchat.freenode.net/?channels=web2py'
p4997
tp4998
aasbasbasbasbasbasbasbag69
(g85
g71
NtRp4999
(dp5000
g74
(dp5001
sg83
g4566
sg76
(lp5002
g69
(g90
g71
NtRp5003
(dp5004
g74
(dp5005
sg83
g4999
sg76
(lp5006
g69
(g70
g71
NtRp5007
(dp5008
g74
(dp5009
g82
I2
ssg83
g5003
sg76
(lp5010
g69
(g78
g71
NtRp5011
(dp5012
g74
(dp5013
g82
I1
ssg83
Nsg76
(lp5014
g69
(g85
g71
NtRp5015
(dp5016
g74
(dp5017
sg83
g5011
sg76
(lp5018
g69
(g90
g71
NtRp5019
(dp5020
g74
(dp5021
sg83
g5015
sg76
(lp5022
g69
(g70
g71
NtRp5023
(dp5024
g74
(dp5025
g82
I1
ssg83
g5019
sg76
(lp5026
g4307
(S's\x07\x00\x00\x00Plugins'
tRp5027
asbasbasbag69
(g85
g71
NtRp5028
(dp5029
g74
(dp5030
sg83
g5011
sg76
(lp5031
g69
(g90
g71
NtRp5032
(dp5033
g74
(dp5034
sg83
g5028
sg76
(lp5035
g69
(g70
g71
NtRp5036
(dp5037
g74
(dp5038
g82
I1
ssg83
g5032
sg76
(lp5039
I00
asbasbasbag69
(g85
g71
NtRp5040
(dp5041
g74
(dp5042
sg83
g5011
sg76
(lp5043
g69
(g90
g71
NtRp5044
(dp5045
g74
(dp5046
sg83
g5040
sg76
(lp5047
g69
(g70
g71
NtRp5048
(dp5049
g74
(dp5050
g82
I1
ssg83
g5044
sg76
(lp5051
Nasbasbasbag69
(g85
g71
NtRp5052
(dp5053
g74
(dp5054
sg83
g5011
sg76
(lp5055
g69
(g90
g71
NtRp5056
(dp5057
g74
(dp5058
sg83
g5052
sg76
(lp5059
g69
(g70
g71
NtRp5060
(dp5061
g74
(dp5062
g82
I1
ssg83
g5056
sg76
(lp5063
(lp5064
(S'plugin_wiki'
p5065
I00
S'http://web2py.com/examples/default/download'
p5066
tp5067
a(g4307
(S's\r\x00\x00\x00Other Plugins'
tRp5068
I00
g4798
tp5069
a(g4307
(S's\x0e\x00\x00\x00Layout Plugins'
tRp5070
I00
g4801
tp5071
aasbasbasbasbasbasbasbasbasbasbasbasbasbasbasbasbasbasbasbag69
(g85
g71
NtRp5072
(dp5073
g74
(dp5074
sg83
g3817
sg76
(lp5075
g69
(g90
g71
NtRp5076
(dp5077
g74
(dp5078
g94
g95
ssg83
g5072
sg76
(lp5079
S'meta'
p5080
asbag69
(g90
g71
NtRp5081
(dp5082
g74
(dp5083
g101
g102
ssg83
g5072
sg76
(lp5084
S':'
asbag69
(g90
g71
NtRp5085
(dp5086
g74
(dp5087
sg83
g5072
sg76
(lp5088
g69
(g70
g71
NtRp5089
(dp5090
g74
(dp5091
g82
I5
ssg83
g5085
sg76
(lp5092
g69
(g78
g71
NtRp5093
(dp5094
g74
(dp5095
g82
I4
ssg83
Nsg76
(lp5096
g69
(g85
g71
NtRp5097
(dp5098
g74
(dp5099
sg83
g5093
sg76
(lp5100
g69
(g90
g71
NtRp5101
(dp5102
g74
(dp5103
g94
g95
ssg83
g5097
sg76
(lp5104
S'author'
p5105
asbag69
(g90
g71
NtRp5106
(dp5107
g74
(dp5108
g101
g102
ssg83
g5097
sg76
(lp5109
S':'
asbag69
(g90
g71
NtRp5110
(dp5111
g74
(dp5112
sg83
g5097
sg76
(lp5113
g69
(g70
g71
NtRp5114
(dp5115
g74
(dp5116
g82
I4
ssg83
g5110
sg76
(lp5117
S'Your Name <you@example.com>'
p5118
asbasbasbag69
(g85
g71
NtRp5119
(dp5120
g74
(dp5121
sg83
g5093
sg76
(lp5122
g69
(g90
g71
NtRp5123
(dp5124
g74
(dp5125
g94
g95
ssg83
g5119
sg76
(lp5126
S'description'
p5127
asbag69
(g90
g71
NtRp5128
(dp5129
g74
(dp5130
g101
g102
ssg83
g5119
sg76
(lp5131
S':'
asbag69
(g90
g71
NtRp5132
(dp5133
g74
(dp5134
sg83
g5119
sg76
(lp5135
g69
(g70
g71
NtRp5136
(dp5137
g74
(dp5138
g82
I4
ssg83
g5132
sg76
(lp5139
S'a cool new app'
p5140
asbasbasbag69
(g85
g71
NtRp5141
(dp5142
g74
(dp5143
sg83
g5093
sg76
(lp5144
g69
(g90
g71
NtRp5145
(dp5146
g74
(dp5147
g94
g95
ssg83
g5141
sg76
(lp5148
S'generator'
p5149
asbag69
(g90
g71
NtRp5150
(dp5151
g74
(dp5152
g101
g102
ssg83
g5141
sg76
(lp5153
S':'
asbag69
(g90
g71
NtRp5154
(dp5155
g74
(dp5156
sg83
g5141
sg76
(lp5157
g69
(g70
g71
NtRp5158
(dp5159
g74
(dp5160
g82
I4
ssg83
g5154
sg76
(lp5161
S'Web2py Web Framework'
p5162
asbasbasbag69
(g85
g71
NtRp5163
(dp5164
g74
(dp5165
sg83
g5093
sg76
(lp5166
g69
(g90
g71
NtRp5167
(dp5168
g74
(dp5169
g94
g95
ssg83
g5163
sg76
(lp5170
S'keywords'
p5171
asbag69
(g90
g71
NtRp5172
(dp5173
g74
(dp5174
g101
g102
ssg83
g5163
sg76
(lp5175
S':'
asbag69
(g90
g71
NtRp5176
(dp5177
g74
(dp5178
sg83
g5163
sg76
(lp5179
g69
(g70
g71
NtRp5180
(dp5181
g74
(dp5182
g82
I4
ssg83
g5176
sg76
(lp5183
S'web2py, python, framework'
p5184
asbasbasbasbasbasbasbag69
(g85
g71
NtRp5185
(dp5186
g74
(dp5187
sg83
g3817
sg76
(lp5188
g69
(g90
g71
NtRp5189
(dp5190
g74
(dp5191
g94
g95
ssg83
g5185
sg76
(lp5192
S'models_to_run'
p5193
asbag69
(g90
g71
NtRp5194
(dp5195
g74
(dp5196
g101
g102
ssg83
g5185
sg76
(lp5197
S':'
asbag69
(g90
g71
NtRp5198
(dp5199
g74
(dp5200
sg83
g5185
sg76
(lp5201
g69
(g70
g71
NtRp5202
(dp5203
g74
(dp5204
g82
I5
ssg83
g5198
sg76
(lp5205
g69
(g78
g71
NtRp5206
(dp5207
g74
(dp5208
g82
I4
ssg83
Nsg76
(lp5209
g69
(g85
g71
NtRp5210
(dp5211
g74
(dp5212
sg83
g5206
sg76
(lp5213
g69
(g90
g71
NtRp5214
(dp5215
g74
(dp5216
sg83
g5210
sg76
(lp5217
g69
(g70
g71
NtRp5218
(dp5219
g74
(dp5220
g82
I4
ssg83
g5214
sg76
(lp5221
S'^\\w+\\.py$'
p5222
asbasbasbag69
(g85
g71
NtRp5223
(dp5224
g74
(dp5225
sg83
g5206
sg76
(lp5226
g69
(g90
g71
NtRp5227
(dp5228
g74
(dp5229
sg83
g5223
sg76
(lp5230
g69
(g70
g71
NtRp5231
(dp5232
g74
(dp5233
g82
I4
ssg83
g5227
sg76
(lp5234
S'^charts/\\w+\\.py$'
p5235
asbasbasbag69
(g85
g71
NtRp5236
(dp5237
g74
(dp5238
sg83
g5206
sg76
(lp5239
g69
(g90
g71
NtRp5240
(dp5241
g74
(dp5242
sg83
g5236
sg76
(lp5243
g69
(g70
g71
NtRp5244
(dp5245
g74
(dp5246
g82
I4
ssg83
g5240
sg76
(lp5247
S'^charts/subscribe_form/\\w+\\.py$'
p5248
asbasbasbasbasbasbasbag69
(g85
g71
NtRp5249
(dp5250
g74
(dp5251
sg83
g3817
sg76
(lp5252
g69
(g90
g71
NtRp5253
(dp5254
g74
(dp5255
g94
g95
ssg83
g5249
sg76
(lp5256
S'postprocessing'
p5257
asbag69
(g90
g71
NtRp5258
(dp5259
g74
(dp5260
g101
g102
ssg83
g5249
sg76
(lp5261
S':'
asbag69
(g90
g71
NtRp5262
(dp5263
g74
(dp5264
sg83
g5249
sg76
(lp5265
g69
(g70
g71
NtRp5266
(dp5267
g74
(dp5268
g82
I5
ssg83
g5262
sg76
(lp5269
g69
(g78
g71
NtRp5270
(dp5271
g74
(dp5272
g82
I4
ssg83
Nsg76
(lp5273
sbasbasbasbag69
(g85
g71
NtRp5274
(dp5275
g74
(dp5276
sg83
g3817
sg76
(lp5277
g69
(g90
g71
NtRp5278
(dp5279
g74
(dp5280
g94
g95
ssg83
g5274
sg76
(lp5281
S'session_cookie_expires'
p5282
asbag69
(g90
g71
NtRp5283
(dp5284
g74
(dp5285
g101
g102
ssg83
g5274
sg76
(lp5286
S':'
asbag69
(g90
g71
NtRp5287
(dp5288
g74
(dp5289
sg83
g5274
sg76
(lp5290
g69
(g70
g71
NtRp5291
(dp5292
g74
(dp5293
g82
I5
ssg83
g5287
sg76
(lp5294
S'None'
p5295
asbasbasbag69
(g85
g71
NtRp5296
(dp5297
g74
(dp5298
sg83
g3817
sg76
(lp5299
g69
(g90
g71
NtRp5300
(dp5301
g74
(dp5302
g94
g95
ssg83
g5296
sg76
(lp5303
S'session_data_name'
p5304
asbag69
(g90
g71
NtRp5305
(dp5306
g74
(dp5307
g101
g102
ssg83
g5296
sg76
(lp5308
S':'
asbag69
(g90
g71
NtRp5309
(dp5310
g74
(dp5311
sg83
g5296
sg76
(lp5312
g69
(g70
g71
NtRp5313
(dp5314
g74
(dp5315
g82
I5
ssg83
g5309
sg76
(lp5316
S'session_data_web2py_xlchart_dashboard'
p5317
asbasbasbag69
(g85
g71
NtRp5318
(dp5319
g74
(dp5320
sg83
g3817
sg76
(lp5321
g69
(g90
g71
NtRp5322
(dp5323
g74
(dp5324
g94
g95
ssg83
g5318
sg76
(lp5325
S'session_file'
p5326
asbag69
(g90
g71
NtRp5327
(dp5328
g74
(dp5329
g101
g102
ssg83
g5318
sg76
(lp5330
S':'
asbag69
(g90
g71
NtRp5331
(dp5332
g74
(dp5333
sg83
g5318
sg76
(lp5334
g69
(g70
g71
NtRp5335
(dp5336
g74
(dp5337
g82
I5
ssg83
g5331
sg76
(lp5338
S"<open file 'D:\\web2py\\source\\web2py\\applications\\web2py_xlchart_dashboard\\sessions\\127.0.0.1-c53b418b-4944-4d07-915c-a998b8630125', mode 'rb+' at 0x05C15E90>"
p5339
asbasbasbag69
(g85
g71
NtRp5340
(dp5341
g74
(dp5342
sg83
g3817
sg76
(lp5343
g69
(g90
g71
NtRp5344
(dp5345
g74
(dp5346
g94
g95
ssg83
g5340
sg76
(lp5347
S'session_filename'
p5348
asbag69
(g90
g71
NtRp5349
(dp5350
g74
(dp5351
g101
g102
ssg83
g5340
sg76
(lp5352
S':'
asbag69
(g90
g71
NtRp5353
(dp5354
g74
(dp5355
sg83
g5340
sg76
(lp5356
g69
(g70
g71
NtRp5357
(dp5358
g74
(dp5359
g82
I5
ssg83
g5353
sg76
(lp5360
S'D:\\web2py\\source\\web2py\\applications\\web2py_xlchart_dashboard\\sessions\\127.0.0.1-c53b418b-4944-4d07-915c-a998b8630125'
p5361
asbasbasbag69
(g85
g71
NtRp5362
(dp5363
g74
(dp5364
sg83
g3817
sg76
(lp5365
g69
(g90
g71
NtRp5366
(dp5367
g74
(dp5368
g94
g95
ssg83
g5362
sg76
(lp5369
S'session_id'
p5370
asbag69
(g90
g71
NtRp5371
(dp5372
g74
(dp5373
g101
g102
ssg83
g5362
sg76
(lp5374
S':'
asbag69
(g90
g71
NtRp5375
(dp5376
g74
(dp5377
sg83
g5362
sg76
(lp5378
g69
(g70
g71
NtRp5379
(dp5380
g74
(dp5381
g82
I5
ssg83
g5375
sg76
(lp5382
g487
asbasbasbag69
(g85
g71
NtRp5383
(dp5384
g74
(dp5385
sg83
g3817
sg76
(lp5386
g69
(g90
g71
NtRp5387
(dp5388
g74
(dp5389
g94
g95
ssg83
g5383
sg76
(lp5390
S'session_id_name'
p5391
asbag69
(g90
g71
NtRp5392
(dp5393
g74
(dp5394
g101
g102
ssg83
g5383
sg76
(lp5395
S':'
asbag69
(g90
g71
NtRp5396
(dp5397
g74
(dp5398
sg83
g5383
sg76
(lp5399
g69
(g70
g71
NtRp5400
(dp5401
g74
(dp5402
g82
I5
ssg83
g5396
sg76
(lp5403
g3874
asbasbasbag69
(g85
g71
NtRp5404
(dp5405
g74
(dp5406
sg83
g3817
sg76
(lp5407
g69
(g90
g71
NtRp5408
(dp5409
g74
(dp5410
g94
g95
ssg83
g5404
sg76
(lp5411
S'session_locked'
p5412
asbag69
(g90
g71
NtRp5413
(dp5414
g74
(dp5415
g101
g102
ssg83
g5404
sg76
(lp5416
S':'
asbag69
(g90
g71
NtRp5417
(dp5418
g74
(dp5419
sg83
g5404
sg76
(lp5420
g69
(g70
g71
NtRp5421
(dp5422
g74
(dp5423
g82
I5
ssg83
g5417
sg76
(lp5424
g112
asbasbasbag69
(g85
g71
NtRp5425
(dp5426
g74
(dp5427
sg83
g3817
sg76
(lp5428
g69
(g90
g71
NtRp5429
(dp5430
g74
(dp5431
g94
g95
ssg83
g5425
sg76
(lp5432
S'session_new'
p5433
asbag69
(g90
g71
NtRp5434
(dp5435
g74
(dp5436
g101
g102
ssg83
g5425
sg76
(lp5437
S':'
asbag69
(g90
g71
NtRp5438
(dp5439
g74
(dp5440
sg83
g5425
sg76
(lp5441
g69
(g70
g71
NtRp5442
(dp5443
g74
(dp5444
g82
I5
ssg83
g5438
sg76
(lp5445
g855
asbasbasbag69
(g85
g71
NtRp5446
(dp5447
g74
(dp5448
sg83
g3817
sg76
(lp5449
g69
(g90
g71
NtRp5450
(dp5451
g74
(dp5452
g94
g95
ssg83
g5446
sg76
(lp5453
S'session_storage_type'
p5454
asbag69
(g90
g71
NtRp5455
(dp5456
g74
(dp5457
g101
g102
ssg83
g5446
sg76
(lp5458
S':'
asbag69
(g90
g71
NtRp5459
(dp5460
g74
(dp5461
sg83
g5446
sg76
(lp5462
g69
(g70
g71
NtRp5463
(dp5464
g74
(dp5465
g82
I5
ssg83
g5459
sg76
(lp5466
g3587
asbasbasbag69
(g85
g71
NtRp5467
(dp5468
g74
(dp5469
sg83
g3817
sg76
(lp5470
g69
(g90
g71
NtRp5471
(dp5472
g74
(dp5473
g94
g95
ssg83
g5467
sg76
(lp5474
S'status'
p5475
asbag69
(g90
g71
NtRp5476
(dp5477
g74
(dp5478
g101
g102
ssg83
g5467
sg76
(lp5479
S':'
asbag69
(g90
g71
NtRp5480
(dp5481
g74
(dp5482
sg83
g5467
sg76
(lp5483
g69
(g70
g71
NtRp5484
(dp5485
g74
(dp5486
g82
I5
ssg83
g5480
sg76
(lp5487
S'200'
p5488
asbasbasbag69
(g85
g71
NtRp5489
(dp5490
g74
(dp5491
sg83
g3817
sg76
(lp5492
g69
(g90
g71
NtRp5493
(dp5494
g74
(dp5495
g94
g95
ssg83
g5489
sg76
(lp5496
S'subtitle'
p5497
asbag69
(g90
g71
NtRp5498
(dp5499
g74
(dp5500
g101
g102
ssg83
g5489
sg76
(lp5501
S':'
asbag69
(g90
g71
NtRp5502
(dp5503
g74
(dp5504
sg83
g5489
sg76
(lp5505
g69
(g70
g71
NtRp5506
(dp5507
g74
(dp5508
g82
I5
ssg83
g5502
sg76
(lp5509
g4307
(S's\r\x00\x00\x00customize me!'
tRp5510
asbasbasbag69
(g85
g71
NtRp5511
(dp5512
g74
(dp5513
sg83
g3817
sg76
(lp5514
g69
(g90
g71
NtRp5515
(dp5516
g74
(dp5517
g94
g95
ssg83
g5511
sg76
(lp5518
S'title'
p5519
asbag69
(g90
g71
NtRp5520
(dp5521
g74
(dp5522
g101
g102
ssg83
g5511
sg76
(lp5523
S':'
asbag69
(g90
g71
NtRp5524
(dp5525
g74
(dp5526
sg83
g5511
sg76
(lp5527
g69
(g70
g71
NtRp5528
(dp5529
g74
(dp5530
g82
I5
ssg83
g5524
sg76
(lp5531
S'Web2py Xlchart Dashboard'
p5532
asbasbasbag69
(g85
g71
NtRp5533
(dp5534
g74
(dp5535
sg83
g3817
sg76
(lp5536
g69
(g90
g71
NtRp5537
(dp5538
g74
(dp5539
g94
g95
ssg83
g5533
sg76
(lp5540
S'view'
p5541
asbag69
(g90
g71
NtRp5542
(dp5543
g74
(dp5544
g101
g102
ssg83
g5533
sg76
(lp5545
S':'
asbag69
(g90
g71
NtRp5546
(dp5547
g74
(dp5548
sg83
g5533
sg76
(lp5549
g69
(g70
g71
NtRp5550
(dp5551
g74
(dp5552
g82
I5
ssg83
g5546
sg76
(lp5553
S'charts/subscribe_form.html'
p5554
asbasbasbasbasbsS'locals'
p5555
(dp5556
S'fields'
p5557
S"{'description': 'Test', 'id_form': '12', 'title': 'Test'}"
p5558
sS'self'
p5559
S'<Table user_chart (id,id_user,id_chart,title,description)>'
p5560
sS'new_fields'
p5561
g21
sS'name'
p5562
S"'id_form'"
p5563
sS'update'
p5564
g855
sssS'traceback'
p5565
S'Traceback (most recent call last):\n  File "D:\\web2py\\source\\web2py\\gluon\\restricted.py", line 212, in restricted\n    exec ccode in environment\n  File "D:\\web2py\\source\\web2py\\applications\\web2py_xlchart_dashboard\\controllers/charts.py", line 31, in <module>\n  File "D:\\web2py\\source\\web2py\\gluon\\globals.py", line 188, in <lambda>\n    self._caller = lambda f: f()\n  File "D:\\web2py\\source\\web2py\\applications\\web2py_xlchart_dashboard\\controllers/charts.py", line 15, in subscribe_form\n    if form.accepts(request,session):\n  File "D:\\web2py\\source\\web2py\\gluon\\sqlhtml.py", line 1475, in accepts\n    self.vars.id = self.table.insert(**fields)\n  File "D:\\web2py\\source\\web2py\\gluon\\dal.py", line 7806, in insert\n    ret =  self._db._adapter.insert(self,self._listify(fields))\n  File "D:\\web2py\\source\\web2py\\gluon\\dal.py", line 7744, in _listify\n    \'Field %s does not belong to the table\' % name\nSyntaxError: Field id_form does not belong to the table\n'
p5566
s.