(dp1
S'output'
p2
S"<type 'exceptions.AttributeError'> 'Row' object has no attribute 'chartName'"
p3
sS'layer'
p4
S'D:\\web2py\\source\\web2py\\applications\\web2py_xlchart_dashboard\\views\\charts/user_charts.html'
p5
sS'code'
p6
S'response.write(\'<!DOCTYPE html>\\n<!-- paulirish.com/2008/conditional-stylesheets-vs-css-hacks-answer-neither/ -->\\n<!--[if lt IE 7]><html class="ie ie6 ie-lte9 ie-lte8 ie-lte7 no-js" lang="\', escape=False)\nresponse.write(T.accepted_language or \'en\')\nresponse.write(\'"> <![endif]-->\\n<!--[if IE 7]><html class="ie ie7 ie-lte9 ie-lte8 ie-lte7 no-js" lang="\', escape=False)\nresponse.write(T.accepted_language or \'en\')\nresponse.write(\'"> <![endif]-->\\n<!--[if IE 8]><html class="ie ie8 ie-lte9 ie-lte8 no-js" lang="\', escape=False)\nresponse.write(T.accepted_language or \'en\')\nresponse.write(\'"> <![endif]-->\\n<!--[if IE 9]><html class="ie9 ie-lte9 no-js" lang="\', escape=False)\nresponse.write(T.accepted_language or \'en\')\nresponse.write(\'"> <![endif]-->\\n<!--[if (gt IE 9)|!(IE)]><!--> <html class="no-js" lang="\', escape=False)\nresponse.write(T.accepted_language or \'en\')\nresponse.write(\'"> <!--<![endif]-->\\n<head>\\n  <meta charset="utf-8" />\\n  <!-- www.phpied.com/conditional-comments-block-downloads/ -->\\n  <!-- Always force latest IE rendering engine\\n       (even in intranet) & Chrome Frame\\n       Remove this if you use the .htaccess -->\\n  <!--[if IE]>\\n      <meta http-equiv="X-UA-Compatible" content="IE=edge\', escape=False)\nresponse.write(not request.is_local and \',chrome=1\' or \'\')\nresponse.write(\'">\\n      <![endif]-->\\n\\n  <title>\', escape=False)\nresponse.write(response.title or request.application)\nresponse.write(\'</title>\\n\\n  <!-- http://dev.w3.org/html5/markup/meta.name.html -->\\n  <meta name="application-name" content="\', escape=False)\nresponse.write(request.application)\nresponse.write(\'" />\\n\\n  <!-- Speaking of Google, don\\\'t forget to set your site up:\\n       http://google.com/webmasters -->\\n  <meta name="google-site-verification" content="" />\\n\\n  <!--  Mobile Viewport Fix\\n        j.mp/mobileviewport & davidbcalhoun.com/2010/viewport-metatag\\n        device-width: Occupy full width of the screen in its current orientation\\n        initial-scale = 1.0 retains dimensions instead of zooming out if page height > device height\\n        user-scalable = yes allows the user to zoom in -->\\n  <meta name="viewport" content="width=device-width, initial-scale=1.0">\\n\\n  <link rel="shortcut icon" href="\', escape=False)\nresponse.write(URL(\'static\',\'images/favicon.ico\'))\nresponse.write(\'" type="image/x-icon">\\n  <link rel="apple-touch-icon" href="\', escape=False)\nresponse.write(URL(\'static\',\'images/favicon.png\'))\nresponse.write(\'">\\n\\n  <!-- All JavaScript at the bottom, except for Modernizr which enables\\n       HTML5 elements & feature detects -->\\n  <script src="\', escape=False)\nresponse.write(URL(\'static\',\'js/modernizr.custom.js\'))\nresponse.write(\'"></script>\\n\\n  <!-- include stylesheets -->\\n  \', escape=False)\nresponse.files.append(URL(\'static\',\'css/web2py.css\'))\nresponse.files.append(URL(\'static\',\'css/bootstrap.min.css\'))\nresponse.files.append(URL(\'static\',\'css/bootstrap-responsive.min.css\'))\nresponse.files.append(URL(\'static\',\'css/web2py_bootstrap.css\'))\nresponse.write(\'\\n\\n  \', escape=False)\nresponse.write(\'<script type="text/javascript"><!--\\n    // These variables are used by the web2py_ajax_init function in web2py_ajax.js (which is loaded below).\\n    var w2p_ajax_confirm_message = "\', escape=False)\nresponse.write(T(\'Are you sure you want to delete this object?\'))\nresponse.write(\'";\\n    var w2p_ajax_date_format = "\', escape=False)\nresponse.write(T(\'%Y-%m-%d\'))\nresponse.write(\'";\\n    var w2p_ajax_datetime_format = "\', escape=False)\nresponse.write(T(\'%Y-%m-%d %H:%M:%S\'))\nresponse.write(\'";\\n    //--></script>\\n\', escape=False)\nresponse.files.insert(0,URL(\'static\',\'js/jquery.js\'))\nresponse.files.insert(1,URL(\'static\',\'css/calendar.css\'))\nresponse.files.insert(2,URL(\'static\',\'js/calendar.js\'))\nresponse.files.insert(3,URL(\'static\',\'js/web2py.js\'))\nresponse.include_meta()\nresponse.include_files()\nresponse.write(\'\\n\', escape=False)\nresponse.write(\'\\n\\n  \', escape=False)\n# using sidebars need to know what sidebar you want to use\nleft_sidebar_enabled = globals().get(\'left_sidebar_enabled\',False)\nright_sidebar_enabled = globals().get(\'right_sidebar_enabled\',False)\nmiddle_columns = {0:\'span12\',1:\'span9\',2:\'span6\'}[\n(left_sidebar_enabled and 1 or 0)+(right_sidebar_enabled and 1 or 0)]\nresponse.write(\'\\n\\n  <!-- uncomment here to load jquery-ui\\n       <link rel="stylesheet" href="http://ajax.googleapis.com/ajax/libs/jqueryui/1.8.16/themes/base/jquery-ui.css" type="text/css" media="all" />\\n       <script src="http://ajax.googleapis.com/ajax/libs/jqueryui/1.8.16/jquery-ui.min.js" type="text/javascript"></script>\\n       uncomment to load jquery-ui //-->\\n  <noscript><link href="\', escape=False)\nresponse.write(URL(\'static\', \'css/web2py_bootstrap_nojs.css\'))\nresponse.write(\'" rel="stylesheet" type="text/css" /></noscript>\\n  \', escape=False)\nresponse.write(\'\\n</head>\\n\\n<body>\\n  <!-- Navbar ================================================== -->\\n  <div class="navbar navbar-inverse navbar-fixed-top">\\n    <div class="flash">\', escape=False)\nresponse.write(response.flash or \'\')\nresponse.write(\'</div>\\n    <div class="navbar-inner">\\n      <div class="container">\\n        <!-- the next tag is necessary for bootstrap menus, do not remove -->\\n        <button type="button" class="btn btn-navbar" data-toggle="collapse" data-target=".nav-collapse">\\n          <span class="icon-bar"></span>\\n          <span class="icon-bar"></span>\\n          <span class="icon-bar"></span>\\n        </button>\\n        <a class="brand" href="http://www.web2py.com/"><b>web<span>2</span>py</b>&trade;&nbsp;</a>\\n        <ul id="navbar" class="nav pull-right">\', escape=False)\nresponse.write(\'auth\' in globals() and auth.navbar(mode="dropdown") or \'\')\nresponse.write(\'</ul>\\n        <div class="nav-collapse">\\n          \', escape=False)\nis_mobile=request.user_agent().is_mobile\nresponse.write(\'\\n          \', escape=False)\nif response.menu:\n    response.write(\'\\n          \', escape=False)\n    response.write(MENU(response.menu, _class=\'mobile-menu nav\' if is_mobile else \'nav\',mobile=is_mobile,li_class=\'dropdown\',ul_class=\'dropdown-menu\'))\n    response.write(\'\\n          \', escape=False)\n    pass\nresponse.write(\'\\n        </div><!--/.nav-collapse -->\\n      </div>\\n    </div>\\n  </div><!--/top navbar -->\\n\\n  <div class="container">\\n    <!-- Masthead ================================================== -->\\n    <header class="mastheader row" id="header">\\n        <div class="span12">\\n            <div class="page-header">\\n                <h1>\\n                    \', escape=False)\nresponse.write(response.title or request.application)\nresponse.write(\'\\n                    <small>\', escape=False)\nresponse.write(response.subtitle or \'\')\nresponse.write(\'</small>\\n                </h1>\\n            </div>\\n        </div>\\n    </header>\\n\\n    <section id="main" class="main row">\\n        \', escape=False)\nif left_sidebar_enabled:\n    response.write(\'\\n        <div class="span3 left-sidebar">\\n            \', escape=False)\n    response.write(\'\\n            <h3>Left Sidebar</h3>\\n            <p></p>\\n            \', escape=False)\n    response.write(\'\\n        </div>\\n        \', escape=False)\n    pass\nresponse.write(\'\\n\\n        <div class="\', escape=False)\nresponse.write(middle_columns)\nresponse.write(\'">\\n            \', escape=False)\nresponse.write(\'\\n            \', escape=False)\nresponse.write(\'\\r\\n    <style>\\r\\n        \\r\\n      \\r\\n        \\r\\n    #usercharts{\\r\\n        float: left;\\r\\n        width: 200px;\\r\\n        margin-right: 50px\\r\\n        border-right-size: 1pt;\\r\\n        border-right-style: solid;\\r\\n        border-right-color: #000000;    \\r\\n    }\\r\\n    #allcharts{\\r\\n        margin-left: 50px;\\r\\n        float:left;\\r\\n    }\\r\\n    .chartholder{\\r\\n      clear:both;\\r\\n      vertical-align:middle;  \\r\\n    }\\r\\n    .chartimage{\\r\\n        float:left;\\r\\n        margin: 5px;\\r\\n    }\\r\\n    .userimage{\\r\\n            position:relative;\\r\\n            width:100%;\\r\\n        \\tmargin: 5px;\\r\\n    }\\r\\n    \\r\\n    .userimage .usermsg{\\r\\n            position: absolute; \\r\\n   \\t\\t\\ttop: 1px; \\r\\n   \\t\\t\\tleft: 1px; \\r\\n            font-size: 8pt;\\r\\n            font-color:#000000;\\r\\n            background-color:#ffffff;        \\r\\n    }        \\r\\n    \\r\\n    \\r\\n    .charttext{\\r\\n           \\r\\n        float:left;\\r\\n        vertical-align:middle;\\r\\n        font-size: 8pt;\\r\\n        \\r\\n    }\\r\\n   \\r\\n    .subscribe_form textarea{\\r\\n        width:150px;\\r\\n        height:75px;\\r\\n    }\\r\\n    \\r\\n    #user_chart_title{\\r\\n        width:150px;\\r\\n    }\\r\\n    \\r\\n    .subscribed{\\r\\n        background-color:#00ff00;\\r\\n        font-weight: bold;\\r\\n    }\\r\\n    \\r\\n</style>\\r\\n\\r\\n<h2>Manage my charts</h2>\\r\\n<div id="usercharts">\\r\\n    <h4>My Charts</h4>\\r\\n    \', escape=False)\nfor chart in mycharts:\n    response.write(\'\\r\\n    <div class="chartholder">\\r\\n    \\t<div class="userimage">\\r\\n    \\t\\t\', escape=False)\n    response.write(IMG(_src=URL(\'download\',args=chart.id_chart.file),_width=\'150px\'))\n    response.write(\'<BR>\\r\\n            <span class="usermsg">\', escape=False)\n    response.write(A(\'Un-Subscribe\',_href=URL(\'subscribe_form\',vars={\'id_chart\': chart.id}), cid=str(chart.chartName).replace(\'.\',\'_\')))\n    response.write(\'</span>\\r\\n        </div>\\r\\n        <div class="usertext">\\r\\n            \\r\\n        </div>\\r\\n    </div>\\r\\n\\t\', escape=False)\n    pass\nresponse.write(\'\\r\\n</div>\\r\\n\\r\\n<div id="allcharts">\\r\\n    <h4>Available Charts</h4>\\r\\n    \', escape=False)\nfor chart in allcharts:\n    response.write(\'\\r\\n    <div class="chartholder">\\r\\n    \\t<div class="chartimage">\\r\\n    \\t\\t\', escape=False)\n    response.write(IMG(_src=URL(\'download\',args=chart.file),_width=\'150px\'))\n    response.write(\'<BR>\\r\\n        </div>\\r\\n        <div class="charttext">\\r\\n            Workbook: \', escape=False)\n    response.write(chart.id_workbook.title)\n    response.write(\'<BR>\\r\\n            Sheet: \', escape=False)\n    response.write(chart.worksheet)\n    response.write(\'<BR>\\r\\n            \', escape=False)\n    if is_my_chart(chart.chartName):\n        response.write(\'\\r\\n            <span class="subscribed">You already subscribe to this chart</span>\\r\\n            \', escape=False)\n    else:\n        response.write(\'\\r\\n            \', escape=False)\n        response.write(A(\'Add to My Charts\',_href=URL(\'subscribe_form\',vars={\'id_chart\': chart.id}), cid=str(chart.chartName).replace(\'.\',\'_\')))\n        response.write(\'\\r\\n           \\r\\n            \', escape=False)\n        pass\n    response.write(\'\\r\\n            <div id="p"></div>\\r\\n            <div id="\', escape=False)\n    response.write(str(chart.chartName).replace(\'.\',\'_\'))\n    response.write(\'" class="subscribe_form"></div>\\r\\n        </div>\\r\\n    </div>\\r\\n\\t\', escape=False)\n    pass\nresponse.write(\'\\r\\n</div>\\r\\n\', escape=False)\nresponse.write(\'\\n            \', escape=False)\nresponse.write(\'\\n        </div>\\n\\n        \', escape=False)\nif right_sidebar_enabled:\n    response.write(\'\\n        <div class="span3">\\n            \', escape=False)\n    response.write(\'\\n            <h3>Right Sidebar</h3>\\n            <p></p>\\n            \', escape=False)\n    response.write(\'\\n        </div>\\n        \', escape=False)\n    pass\nresponse.write(\'\\n    </section><!--/main-->\\n\\n    <!-- Footer ================================================== -->\\n    <div class="row">\\n        <footer class="footer span12" id="footer">\\n            <div class="footer-content">\\n                \', escape=False)\nresponse.write(\' <!-- this is default footer -->\\n                <div class="copyright pull-left">\', escape=False)\nresponse.write(T(\'Copyright\'))\nresponse.write(\' &#169; \', escape=False)\nresponse.write(request.now.year)\nresponse.write(\'</div>\\n                <div id="poweredBy" class="pull-right">\\n                    \', escape=False)\nresponse.write(T(\'Powered by\'))\nresponse.write(\'\\n                    <a href="http://www.web2py.com/">web2py</a>\\n                </div>\\n                \', escape=False)\nresponse.write(\'\\n            </div>\\n        </footer>\\n    </div>\\n\\n  </div> <!-- /container -->\\n\\n  <!-- The javascript =============================================\\n       (Placed at the end of the document so the pages load faster) -->\\n  <script src="\', escape=False)\nresponse.write(URL(\'static\',\'js/bootstrap.min.js\'))\nresponse.write(\'"></script>\\n  <script src="\', escape=False)\nresponse.write(URL(\'static\',\'js/web2py_bootstrap.js\'))\nresponse.write(\'"></script>\\n  <!--[if lt IE 7 ]>\\n      <script src="\', escape=False)\nresponse.write(URL(\'static\',\'js/dd_belatedpng.js\'))\nresponse.write(\'"></script>\\n      <script> DD_belatedPNG.fix(\\\'img, .png_bg\\\'); //fix any <img> or .png_bg background-images </script>\\n      <![endif]-->\\n  \', escape=False)\nif response.google_analytics_id:\n    response.write(\'<script type="text/javascript"> var _gaq = _gaq || []; _gaq.push([\\\'_setAccount\\\', \\\'\', escape=False)\n    response.write(response.google_analytics_id)\n    response.write("\']); _gaq.push([\'_trackPageview\']); (function() { var ga = document.createElement(\'script\'); ga.type = \'text/javascript\'; ga.async = true; ga.src = (\'https:\' == document.location.protocol ? \'https://ssl\' : \'http://www\') + \'.google-analytics.com/ga.js\'; var s = document.getElementsByTagName(\'script\')[0]; s.parentNode.insertBefore(ga, s); })(); </script> ", escape=False)\n    pass\nresponse.write(\'\\n  <script src="\', escape=False)\nresponse.write(URL(\'static\',\'js/share.js\',vars=dict(static=URL(\'static\',\'images\'))))\nresponse.write(\'"></script>\\n</body>\\n</html>\\n\\n\', escape=False)'
p7
sS'snapshot'
p8
(dp9
S'exception'
p10
(dp11
S'__hash__'
p12
S"<method-wrapper '__hash__' of exceptions.AttributeError object>"
p13
sS'__setattr__'
p14
S"<method-wrapper '__setattr__' of exceptions.AttributeError object>"
p15
sS'__reduce_ex__'
p16
S'<built-in method __reduce_ex__ of exceptions.AttributeError object>'
p17
sS'__getslice__'
p18
S"<method-wrapper '__getslice__' of exceptions.AttributeError object>"
p19
sS'__getitem__'
p20
S"<method-wrapper '__getitem__' of exceptions.AttributeError object>"
p21
sS'__setstate__'
p22
S'<built-in method __setstate__ of exceptions.AttributeError object>'
p23
sS'__reduce__'
p24
S'<built-in method __reduce__ of exceptions.AttributeError object>'
p25
sS'__str__'
p26
S"<method-wrapper '__str__' of exceptions.AttributeError object>"
p27
sS'__format__'
p28
S'<built-in method __format__ of exceptions.AttributeError object>'
p29
sS'__getattribute__'
p30
S"<method-wrapper '__getattribute__' of exceptions.AttributeError object>"
p31
sS'__class__'
p32
S"<type 'exceptions.AttributeError'>"
p33
sS'__unicode__'
p34
S'<built-in method __unicode__ of exceptions.AttributeError object>'
p35
sS'__delattr__'
p36
S"<method-wrapper '__delattr__' of exceptions.AttributeError object>"
p37
sS'__subclasshook__'
p38
S'<built-in method __subclasshook__ of type object>'
p39
sS'__repr__'
p40
S"<method-wrapper '__repr__' of exceptions.AttributeError object>"
p41
sS'args'
p42
S'("\'Row\' object has no attribute \'chartName\'",)'
p43
sS'__dict__'
p44
S'{}'
p45
sS'__sizeof__'
p46
S'<built-in method __sizeof__ of exceptions.AttributeError object>'
p47
sS'__doc__'
p48
S"'Attribute not found.'"
p49
sS'__init__'
p50
S"<method-wrapper '__init__' of exceptions.AttributeError object>"
p51
sS'__new__'
p52
S'<built-in method __new__ of type object>'
p53
ssS'evalue'
p54
S"'Row' object has no attribute 'chartName'"
p55
sS'request'
p56
ccopy_reg
_reconstructor
p57
(cgluon.html
BEAUTIFY
p58
c__builtin__
object
p59
NtRp60
(dp61
S'attributes'
p62
(dp63
sS'components'
p64
(lp65
g57
(cgluon.html
TABLE
p66
g59
NtRp67
(dp68
g62
(dp69
S'level'
p70
I5
ssS'parent'
p71
Nsg64
(lp72
g57
(cgluon.html
TR
p73
g59
NtRp74
(dp75
g62
(dp76
sg71
g67
sg64
(lp77
g57
(cgluon.html
TD
p78
g59
NtRp79
(dp80
g62
(dp81
S'_style'
p82
S'font-weight:bold;vertical-align:top'
p83
ssg71
g74
sg64
(lp84
S'ajax'
p85
asbag57
(g78
g59
NtRp86
(dp87
g62
(dp88
S'_valign'
p89
S'top'
p90
ssg71
g74
sg64
(lp91
S':'
asbag57
(g78
g59
NtRp92
(dp93
g62
(dp94
sg71
g74
sg64
(lp95
g57
(g58
g59
NtRp96
(dp97
g62
(dp98
g70
I5
ssg71
g92
sg64
(lp99
S'False'
p100
asbasbasbag57
(g73
g59
NtRp101
(dp102
g62
(dp103
sg71
g67
sg64
(lp104
g57
(g78
g59
NtRp105
(dp106
g62
(dp107
g82
g83
ssg71
g101
sg64
(lp108
S'application'
p109
asbag57
(g78
g59
NtRp110
(dp111
g62
(dp112
g89
g90
ssg71
g101
sg64
(lp113
S':'
asbag57
(g78
g59
NtRp114
(dp115
g62
(dp116
sg71
g101
sg64
(lp117
g57
(g58
g59
NtRp118
(dp119
g62
(dp120
g70
I5
ssg71
g114
sg64
(lp121
S'web2py_xlchart_dashboard'
p122
asbasbasbag57
(g73
g59
NtRp123
(dp124
g62
(dp125
sg71
g67
sg64
(lp126
g57
(g78
g59
NtRp127
(dp128
g62
(dp129
g82
g83
ssg71
g123
sg64
(lp130
g42
asbag57
(g78
g59
NtRp131
(dp132
g62
(dp133
g89
g90
ssg71
g123
sg64
(lp134
S':'
asbag57
(g78
g59
NtRp135
(dp136
g62
(dp137
sg71
g123
sg64
(lp138
g57
(g58
g59
NtRp139
(dp140
g62
(dp141
g70
I5
ssg71
g135
sg64
(lp142
g57
(g66
g59
NtRp143
(dp144
g62
(dp145
g70
I4
ssg71
Nsg64
(lp146
sbasbasbasbag57
(g73
g59
NtRp147
(dp148
g62
(dp149
sg71
g67
sg64
(lp150
g57
(g78
g59
NtRp151
(dp152
g62
(dp153
g82
g83
ssg71
g147
sg64
(lp154
S'body'
p155
asbag57
(g78
g59
NtRp156
(dp157
g62
(dp158
g89
g90
ssg71
g147
sg64
(lp159
S':'
asbag57
(g78
g59
NtRp160
(dp161
g62
(dp162
sg71
g147
sg64
(lp163
g57
(g58
g59
NtRp164
(dp165
g62
(dp166
g70
I5
ssg71
g160
sg64
(lp167
S'<cStringIO.StringO object at 0x098D9840>'
p168
asbasbasbag57
(g73
g59
NtRp169
(dp170
g62
(dp171
sg71
g67
sg64
(lp172
g57
(g78
g59
NtRp173
(dp174
g62
(dp175
g82
g83
ssg71
g169
sg64
(lp176
S'cid'
p177
asbag57
(g78
g59
NtRp178
(dp179
g62
(dp180
g89
g90
ssg71
g169
sg64
(lp181
S':'
asbag57
(g78
g59
NtRp182
(dp183
g62
(dp184
sg71
g169
sg64
(lp185
g57
(g58
g59
NtRp186
(dp187
g62
(dp188
g70
I5
ssg71
g182
sg64
(lp189
S'None'
p190
asbasbasbag57
(g73
g59
NtRp191
(dp192
g62
(dp193
sg71
g67
sg64
(lp194
g57
(g78
g59
NtRp195
(dp196
g62
(dp197
g82
g83
ssg71
g191
sg64
(lp198
S'client'
p199
asbag57
(g78
g59
NtRp200
(dp201
g62
(dp202
g89
g90
ssg71
g191
sg64
(lp203
S':'
asbag57
(g78
g59
NtRp204
(dp205
g62
(dp206
sg71
g191
sg64
(lp207
g57
(g58
g59
NtRp208
(dp209
g62
(dp210
g70
I5
ssg71
g204
sg64
(lp211
S'127.0.0.1'
p212
asbasbasbag57
(g73
g59
NtRp213
(dp214
g62
(dp215
sg71
g67
sg64
(lp216
g57
(g78
g59
NtRp217
(dp218
g62
(dp219
g82
g83
ssg71
g213
sg64
(lp220
S'controller'
p221
asbag57
(g78
g59
NtRp222
(dp223
g62
(dp224
g89
g90
ssg71
g213
sg64
(lp225
S':'
asbag57
(g78
g59
NtRp226
(dp227
g62
(dp228
sg71
g213
sg64
(lp229
g57
(g58
g59
NtRp230
(dp231
g62
(dp232
g70
I5
ssg71
g226
sg64
(lp233
S'charts'
p234
asbasbasbag57
(g73
g59
NtRp235
(dp236
g62
(dp237
sg71
g67
sg64
(lp238
g57
(g78
g59
NtRp239
(dp240
g62
(dp241
g82
g83
ssg71
g235
sg64
(lp242
S'cookies'
p243
asbag57
(g78
g59
NtRp244
(dp245
g62
(dp246
g89
g90
ssg71
g235
sg64
(lp247
S':'
asbag57
(g78
g59
NtRp248
(dp249
g62
(dp250
sg71
g235
sg64
(lp251
g57
(g58
g59
NtRp252
(dp253
g62
(dp254
g70
I5
ssg71
g248
sg64
(lp255
g57
(g66
g59
NtRp256
(dp257
g62
(dp258
g70
I4
ssg71
Nsg64
(lp259
g57
(g73
g59
NtRp260
(dp261
g62
(dp262
sg71
g256
sg64
(lp263
g57
(g78
g59
NtRp264
(dp265
g62
(dp266
g82
g83
ssg71
g260
sg64
(lp267
S'session_id_admin'
p268
asbag57
(g78
g59
NtRp269
(dp270
g62
(dp271
g89
g90
ssg71
g260
sg64
(lp272
S':'
asbag57
(g78
g59
NtRp273
(dp274
g62
(dp275
sg71
g260
sg64
(lp276
g57
(g58
g59
NtRp277
(dp278
g62
(dp279
g70
I4
ssg71
g273
sg64
(lp280
S'127.0.0.1-4097e40a-b075-489f-8c12-88c38e87b03e'
p281
ag57
(g66
g59
NtRp282
(dp283
g62
(dp284
g70
I3
ssg71
Nsg64
(lp285
g57
(g73
g59
NtRp286
(dp287
g62
(dp288
sg71
g282
sg64
(lp289
g57
(g78
g59
NtRp290
(dp291
g62
(dp292
g82
g83
ssg71
g286
sg64
(lp293
S'comment'
p294
asbag57
(g78
g59
NtRp295
(dp296
g62
(dp297
g89
g90
ssg71
g286
sg64
(lp298
S':'
asbag57
(g78
g59
NtRp299
(dp300
g62
(dp301
sg71
g286
sg64
(lp302
g57
(g58
g59
NtRp303
(dp304
g62
(dp305
g70
I3
ssg71
g299
sg64
(lp306
S''
asbasbasbag57
(g73
g59
NtRp307
(dp308
g62
(dp309
sg71
g282
sg64
(lp310
g57
(g78
g59
NtRp311
(dp312
g62
(dp313
g82
g83
ssg71
g307
sg64
(lp314
S'domain'
p315
asbag57
(g78
g59
NtRp316
(dp317
g62
(dp318
g89
g90
ssg71
g307
sg64
(lp319
S':'
asbag57
(g78
g59
NtRp320
(dp321
g62
(dp322
sg71
g307
sg64
(lp323
g57
(g58
g59
NtRp324
(dp325
g62
(dp326
g70
I3
ssg71
g320
sg64
(lp327
S''
asbasbasbag57
(g73
g59
NtRp328
(dp329
g62
(dp330
sg71
g282
sg64
(lp331
g57
(g78
g59
NtRp332
(dp333
g62
(dp334
g82
g83
ssg71
g328
sg64
(lp335
S'expires'
p336
asbag57
(g78
g59
NtRp337
(dp338
g62
(dp339
g89
g90
ssg71
g328
sg64
(lp340
S':'
asbag57
(g78
g59
NtRp341
(dp342
g62
(dp343
sg71
g328
sg64
(lp344
g57
(g58
g59
NtRp345
(dp346
g62
(dp347
g70
I3
ssg71
g341
sg64
(lp348
S''
asbasbasbag57
(g73
g59
NtRp349
(dp350
g62
(dp351
sg71
g282
sg64
(lp352
g57
(g78
g59
NtRp353
(dp354
g62
(dp355
g82
g83
ssg71
g349
sg64
(lp356
S'httponly'
p357
asbag57
(g78
g59
NtRp358
(dp359
g62
(dp360
g89
g90
ssg71
g349
sg64
(lp361
S':'
asbag57
(g78
g59
NtRp362
(dp363
g62
(dp364
sg71
g349
sg64
(lp365
g57
(g58
g59
NtRp366
(dp367
g62
(dp368
g70
I3
ssg71
g362
sg64
(lp369
S''
asbasbasbag57
(g73
g59
NtRp370
(dp371
g62
(dp372
sg71
g282
sg64
(lp373
g57
(g78
g59
NtRp374
(dp375
g62
(dp376
g82
g83
ssg71
g370
sg64
(lp377
S'max-age'
p378
asbag57
(g78
g59
NtRp379
(dp380
g62
(dp381
g89
g90
ssg71
g370
sg64
(lp382
S':'
asbag57
(g78
g59
NtRp383
(dp384
g62
(dp385
sg71
g370
sg64
(lp386
g57
(g58
g59
NtRp387
(dp388
g62
(dp389
g70
I3
ssg71
g383
sg64
(lp390
S''
asbasbasbag57
(g73
g59
NtRp391
(dp392
g62
(dp393
sg71
g282
sg64
(lp394
g57
(g78
g59
NtRp395
(dp396
g62
(dp397
g82
g83
ssg71
g391
sg64
(lp398
S'path'
p399
asbag57
(g78
g59
NtRp400
(dp401
g62
(dp402
g89
g90
ssg71
g391
sg64
(lp403
S':'
asbag57
(g78
g59
NtRp404
(dp405
g62
(dp406
sg71
g391
sg64
(lp407
g57
(g58
g59
NtRp408
(dp409
g62
(dp410
g70
I3
ssg71
g404
sg64
(lp411
S''
asbasbasbag57
(g73
g59
NtRp412
(dp413
g62
(dp414
sg71
g282
sg64
(lp415
g57
(g78
g59
NtRp416
(dp417
g62
(dp418
g82
g83
ssg71
g412
sg64
(lp419
S'secure'
p420
asbag57
(g78
g59
NtRp421
(dp422
g62
(dp423
g89
g90
ssg71
g412
sg64
(lp424
S':'
asbag57
(g78
g59
NtRp425
(dp426
g62
(dp427
sg71
g412
sg64
(lp428
g57
(g58
g59
NtRp429
(dp430
g62
(dp431
g70
I3
ssg71
g425
sg64
(lp432
S''
asbasbasbag57
(g73
g59
NtRp433
(dp434
g62
(dp435
sg71
g282
sg64
(lp436
g57
(g78
g59
NtRp437
(dp438
g62
(dp439
g82
g83
ssg71
g433
sg64
(lp440
S'version'
p441
asbag57
(g78
g59
NtRp442
(dp443
g62
(dp444
g89
g90
ssg71
g433
sg64
(lp445
S':'
asbag57
(g78
g59
NtRp446
(dp447
g62
(dp448
sg71
g433
sg64
(lp449
g57
(g58
g59
NtRp450
(dp451
g62
(dp452
g70
I3
ssg71
g446
sg64
(lp453
S''
asbasbasbasbasbasbasbag57
(g73
g59
NtRp454
(dp455
g62
(dp456
sg71
g256
sg64
(lp457
g57
(g78
g59
NtRp458
(dp459
g62
(dp460
g82
g83
ssg71
g454
sg64
(lp461
S'session_id_web2py_xlchart_dashboard'
p462
asbag57
(g78
g59
NtRp463
(dp464
g62
(dp465
g89
g90
ssg71
g454
sg64
(lp466
S':'
asbag57
(g78
g59
NtRp467
(dp468
g62
(dp469
sg71
g454
sg64
(lp470
g57
(g58
g59
NtRp471
(dp472
g62
(dp473
g70
I4
ssg71
g467
sg64
(lp474
S'127.0.0.1-7a74a73d-368d-4877-8817-36158f804b74'
p475
ag57
(g66
g59
NtRp476
(dp477
g62
(dp478
g70
I3
ssg71
Nsg64
(lp479
g57
(g73
g59
NtRp480
(dp481
g62
(dp482
sg71
g476
sg64
(lp483
g57
(g78
g59
NtRp484
(dp485
g62
(dp486
g82
g83
ssg71
g480
sg64
(lp487
g294
asbag57
(g78
g59
NtRp488
(dp489
g62
(dp490
g89
g90
ssg71
g480
sg64
(lp491
S':'
asbag57
(g78
g59
NtRp492
(dp493
g62
(dp494
sg71
g480
sg64
(lp495
g57
(g58
g59
NtRp496
(dp497
g62
(dp498
g70
I3
ssg71
g492
sg64
(lp499
S''
asbasbasbag57
(g73
g59
NtRp500
(dp501
g62
(dp502
sg71
g476
sg64
(lp503
g57
(g78
g59
NtRp504
(dp505
g62
(dp506
g82
g83
ssg71
g500
sg64
(lp507
g315
asbag57
(g78
g59
NtRp508
(dp509
g62
(dp510
g89
g90
ssg71
g500
sg64
(lp511
S':'
asbag57
(g78
g59
NtRp512
(dp513
g62
(dp514
sg71
g500
sg64
(lp515
g57
(g58
g59
NtRp516
(dp517
g62
(dp518
g70
I3
ssg71
g512
sg64
(lp519
S''
asbasbasbag57
(g73
g59
NtRp520
(dp521
g62
(dp522
sg71
g476
sg64
(lp523
g57
(g78
g59
NtRp524
(dp525
g62
(dp526
g82
g83
ssg71
g520
sg64
(lp527
g336
asbag57
(g78
g59
NtRp528
(dp529
g62
(dp530
g89
g90
ssg71
g520
sg64
(lp531
S':'
asbag57
(g78
g59
NtRp532
(dp533
g62
(dp534
sg71
g520
sg64
(lp535
g57
(g58
g59
NtRp536
(dp537
g62
(dp538
g70
I3
ssg71
g532
sg64
(lp539
S''
asbasbasbag57
(g73
g59
NtRp540
(dp541
g62
(dp542
sg71
g476
sg64
(lp543
g57
(g78
g59
NtRp544
(dp545
g62
(dp546
g82
g83
ssg71
g540
sg64
(lp547
g357
asbag57
(g78
g59
NtRp548
(dp549
g62
(dp550
g89
g90
ssg71
g540
sg64
(lp551
S':'
asbag57
(g78
g59
NtRp552
(dp553
g62
(dp554
sg71
g540
sg64
(lp555
g57
(g58
g59
NtRp556
(dp557
g62
(dp558
g70
I3
ssg71
g552
sg64
(lp559
S''
asbasbasbag57
(g73
g59
NtRp560
(dp561
g62
(dp562
sg71
g476
sg64
(lp563
g57
(g78
g59
NtRp564
(dp565
g62
(dp566
g82
g83
ssg71
g560
sg64
(lp567
g378
asbag57
(g78
g59
NtRp568
(dp569
g62
(dp570
g89
g90
ssg71
g560
sg64
(lp571
S':'
asbag57
(g78
g59
NtRp572
(dp573
g62
(dp574
sg71
g560
sg64
(lp575
g57
(g58
g59
NtRp576
(dp577
g62
(dp578
g70
I3
ssg71
g572
sg64
(lp579
S''
asbasbasbag57
(g73
g59
NtRp580
(dp581
g62
(dp582
sg71
g476
sg64
(lp583
g57
(g78
g59
NtRp584
(dp585
g62
(dp586
g82
g83
ssg71
g580
sg64
(lp587
g399
asbag57
(g78
g59
NtRp588
(dp589
g62
(dp590
g89
g90
ssg71
g580
sg64
(lp591
S':'
asbag57
(g78
g59
NtRp592
(dp593
g62
(dp594
sg71
g580
sg64
(lp595
g57
(g58
g59
NtRp596
(dp597
g62
(dp598
g70
I3
ssg71
g592
sg64
(lp599
S''
asbasbasbag57
(g73
g59
NtRp600
(dp601
g62
(dp602
sg71
g476
sg64
(lp603
g57
(g78
g59
NtRp604
(dp605
g62
(dp606
g82
g83
ssg71
g600
sg64
(lp607
g420
asbag57
(g78
g59
NtRp608
(dp609
g62
(dp610
g89
g90
ssg71
g600
sg64
(lp611
S':'
asbag57
(g78
g59
NtRp612
(dp613
g62
(dp614
sg71
g600
sg64
(lp615
g57
(g58
g59
NtRp616
(dp617
g62
(dp618
g70
I3
ssg71
g612
sg64
(lp619
S''
asbasbasbag57
(g73
g59
NtRp620
(dp621
g62
(dp622
sg71
g476
sg64
(lp623
g57
(g78
g59
NtRp624
(dp625
g62
(dp626
g82
g83
ssg71
g620
sg64
(lp627
g441
asbag57
(g78
g59
NtRp628
(dp629
g62
(dp630
g89
g90
ssg71
g620
sg64
(lp631
S':'
asbag57
(g78
g59
NtRp632
(dp633
g62
(dp634
sg71
g620
sg64
(lp635
g57
(g58
g59
NtRp636
(dp637
g62
(dp638
g70
I3
ssg71
g632
sg64
(lp639
S''
asbasbasbasbasbasbasbasbasbasbasbag57
(g73
g59
NtRp640
(dp641
g62
(dp642
sg71
g67
sg64
(lp643
g57
(g78
g59
NtRp644
(dp645
g62
(dp646
g82
g83
ssg71
g640
sg64
(lp647
S'env'
p648
asbag57
(g78
g59
NtRp649
(dp650
g62
(dp651
g89
g90
ssg71
g640
sg64
(lp652
S':'
asbag57
(g78
g59
NtRp653
(dp654
g62
(dp655
sg71
g640
sg64
(lp656
g57
(g58
g59
NtRp657
(dp658
g62
(dp659
g70
I5
ssg71
g653
sg64
(lp660
g57
(g66
g59
NtRp661
(dp662
g62
(dp663
g70
I4
ssg71
Nsg64
(lp664
g57
(g73
g59
NtRp665
(dp666
g62
(dp667
sg71
g661
sg64
(lp668
g57
(g78
g59
NtRp669
(dp670
g62
(dp671
g82
g83
ssg71
g665
sg64
(lp672
S'app_folders'
p673
asbag57
(g78
g59
NtRp674
(dp675
g62
(dp676
g89
g90
ssg71
g665
sg64
(lp677
S':'
asbag57
(g78
g59
NtRp678
(dp679
g62
(dp680
sg71
g665
sg64
(lp681
g57
(g58
g59
NtRp682
(dp683
g62
(dp684
g70
I4
ssg71
g678
sg64
(lp685
S"set(['D:\\\\web2py\\\\source\\\\web2py\\\\applications\\\\admin\\\\', 'D:\\\\web2py\\\\source\\\\web2py\\\\applications\\\\welcome\\\\', 'D:\\\\web2py\\\\source\\\\web2py\\\\applications\\\\web2py_xlchart_dashboard\\\\'])"
p686
asbasbasbag57
(g73
g59
NtRp687
(dp688
g62
(dp689
sg71
g661
sg64
(lp690
g57
(g78
g59
NtRp691
(dp692
g62
(dp693
g82
g83
ssg71
g687
sg64
(lp694
S'applications_parent'
p695
asbag57
(g78
g59
NtRp696
(dp697
g62
(dp698
g89
g90
ssg71
g687
sg64
(lp699
S':'
asbag57
(g78
g59
NtRp700
(dp701
g62
(dp702
sg71
g687
sg64
(lp703
g57
(g58
g59
NtRp704
(dp705
g62
(dp706
g70
I4
ssg71
g700
sg64
(lp707
S'D:\\web2py\\source\\web2py'
p708
asbasbasbag57
(g73
g59
NtRp709
(dp710
g62
(dp711
sg71
g661
sg64
(lp712
g57
(g78
g59
NtRp713
(dp714
g62
(dp715
g82
g83
ssg71
g709
sg64
(lp716
S'cmd_args'
p717
asbag57
(g78
g59
NtRp718
(dp719
g62
(dp720
g89
g90
ssg71
g709
sg64
(lp721
S':'
asbag57
(g78
g59
NtRp722
(dp723
g62
(dp724
sg71
g709
sg64
(lp725
g57
(g58
g59
NtRp726
(dp727
g62
(dp728
g70
I4
ssg71
g722
sg64
(lp729
g57
(g66
g59
NtRp730
(dp731
g62
(dp732
g70
I3
ssg71
Nsg64
(lp733
sbasbasbasbag57
(g73
g59
NtRp734
(dp735
g62
(dp736
sg71
g661
sg64
(lp737
g57
(g78
g59
NtRp738
(dp739
g62
(dp740
g82
g83
ssg71
g734
sg64
(lp741
S'cmd_options'
p742
asbag57
(g78
g59
NtRp743
(dp744
g62
(dp745
g89
g90
ssg71
g734
sg64
(lp746
S':'
asbag57
(g78
g59
NtRp747
(dp748
g62
(dp749
sg71
g734
sg64
(lp750
g57
(g58
g59
NtRp751
(dp752
g62
(dp753
g70
I4
ssg71
g747
sg64
(lp754
S"<Values at 0xc77f58: {'verbose': False, 'ip': '127.0.0.1', 'with_scheduler': False, 'ips': [], 'shutdown_timeout': 5, 'taskbar': False, 'port': 8000, 'maxthreads': None, 'softcron': False, 'server_name': 'GLKLAG235327', 'bpython': False, 'nogui': False, 'pid_filename': 'httpserver.pid', 'extcron': False, 'runcron': False, 'run_system_tests': False, 'test': None, 'folder': 'D:\\\\web2py\\\\source\\\\web2py', 'config': '', 'import_models': False, 'winservice': '', 'shell': None, 'run': '', 'log_filename': 'httpserver.log', 'debuglevel': 30, 'args': [''], 'socket_timeout': 5, 'ssl_ca_certificate': None, 'scheduler': None, 'profiler_filename': None, 'ssl_private_key': '', 'scheduler_groups': None, 'password': '<ask>', 'request_queue_size': 5, 'ssl_certificate': '', 'cronjob': False, 'numthreads': None, 'quiet': False, 'interfaces': None, 'minthreads': None, 'timeout': 10, 'plain': False, 'nobanner': False}>"
p755
asbasbasbag57
(g73
g59
NtRp756
(dp757
g62
(dp758
sg71
g661
sg64
(lp759
g57
(g78
g59
NtRp760
(dp761
g62
(dp762
g82
g83
ssg71
g756
sg64
(lp763
S'db_sessions'
p764
asbag57
(g78
g59
NtRp765
(dp766
g62
(dp767
g89
g90
ssg71
g756
sg64
(lp768
S':'
asbag57
(g78
g59
NtRp769
(dp770
g62
(dp771
sg71
g756
sg64
(lp772
g57
(g58
g59
NtRp773
(dp774
g62
(dp775
g70
I4
ssg71
g769
sg64
(lp776
S'set([])'
p777
asbasbasbag57
(g73
g59
NtRp778
(dp779
g62
(dp780
sg71
g661
sg64
(lp781
g57
(g78
g59
NtRp782
(dp783
g62
(dp784
g82
g83
ssg71
g778
sg64
(lp785
S'debugging'
p786
asbag57
(g78
g59
NtRp787
(dp788
g62
(dp789
g89
g90
ssg71
g778
sg64
(lp790
S':'
asbag57
(g78
g59
NtRp791
(dp792
g62
(dp793
sg71
g778
sg64
(lp794
g57
(g58
g59
NtRp795
(dp796
g62
(dp797
g70
I4
ssg71
g791
sg64
(lp798
S'True'
p799
asbasbasbag57
(g73
g59
NtRp800
(dp801
g62
(dp802
sg71
g661
sg64
(lp803
g57
(g78
g59
NtRp804
(dp805
g62
(dp806
g82
g83
ssg71
g800
sg64
(lp807
S'gluon_parent'
p808
asbag57
(g78
g59
NtRp809
(dp810
g62
(dp811
g89
g90
ssg71
g800
sg64
(lp812
S':'
asbag57
(g78
g59
NtRp813
(dp814
g62
(dp815
sg71
g800
sg64
(lp816
g57
(g58
g59
NtRp817
(dp818
g62
(dp819
g70
I4
ssg71
g813
sg64
(lp820
S'D:\\web2py\\source\\web2py'
p821
asbasbasbag57
(g73
g59
NtRp822
(dp823
g62
(dp824
sg71
g661
sg64
(lp825
g57
(g78
g59
NtRp826
(dp827
g62
(dp828
g82
g83
ssg71
g822
sg64
(lp829
S'http_accept'
p830
asbag57
(g78
g59
NtRp831
(dp832
g62
(dp833
g89
g90
ssg71
g822
sg64
(lp834
S':'
asbag57
(g78
g59
NtRp835
(dp836
g62
(dp837
sg71
g822
sg64
(lp838
g57
(g58
g59
NtRp839
(dp840
g62
(dp841
g70
I4
ssg71
g835
sg64
(lp842
S'text/html,application/xhtml+xml,application/xml;q=0.9,*/*;q=0.8'
p843
asbasbasbag57
(g73
g59
NtRp844
(dp845
g62
(dp846
sg71
g661
sg64
(lp847
g57
(g78
g59
NtRp848
(dp849
g62
(dp850
g82
g83
ssg71
g844
sg64
(lp851
S'http_accept_charset'
p852
asbag57
(g78
g59
NtRp853
(dp854
g62
(dp855
g89
g90
ssg71
g844
sg64
(lp856
S':'
asbag57
(g78
g59
NtRp857
(dp858
g62
(dp859
sg71
g844
sg64
(lp860
g57
(g58
g59
NtRp861
(dp862
g62
(dp863
g70
I4
ssg71
g857
sg64
(lp864
S'ISO-8859-1,utf-8;q=0.7,*;q=0.3'
p865
asbasbasbag57
(g73
g59
NtRp866
(dp867
g62
(dp868
sg71
g661
sg64
(lp869
g57
(g78
g59
NtRp870
(dp871
g62
(dp872
g82
g83
ssg71
g866
sg64
(lp873
S'http_accept_encoding'
p874
asbag57
(g78
g59
NtRp875
(dp876
g62
(dp877
g89
g90
ssg71
g866
sg64
(lp878
S':'
asbag57
(g78
g59
NtRp879
(dp880
g62
(dp881
sg71
g866
sg64
(lp882
g57
(g58
g59
NtRp883
(dp884
g62
(dp885
g70
I4
ssg71
g879
sg64
(lp886
S'gzip,deflate,sdch'
p887
asbasbasbag57
(g73
g59
NtRp888
(dp889
g62
(dp890
sg71
g661
sg64
(lp891
g57
(g78
g59
NtRp892
(dp893
g62
(dp894
g82
g83
ssg71
g888
sg64
(lp895
S'http_accept_language'
p896
asbag57
(g78
g59
NtRp897
(dp898
g62
(dp899
g89
g90
ssg71
g888
sg64
(lp900
S':'
asbag57
(g78
g59
NtRp901
(dp902
g62
(dp903
sg71
g888
sg64
(lp904
g57
(g58
g59
NtRp905
(dp906
g62
(dp907
g70
I4
ssg71
g901
sg64
(lp908
S'en-US,en;q=0.8'
p909
asbasbasbag57
(g73
g59
NtRp910
(dp911
g62
(dp912
sg71
g661
sg64
(lp913
g57
(g78
g59
NtRp914
(dp915
g62
(dp916
g82
g83
ssg71
g910
sg64
(lp917
S'http_connection'
p918
asbag57
(g78
g59
NtRp919
(dp920
g62
(dp921
g89
g90
ssg71
g910
sg64
(lp922
S':'
asbag57
(g78
g59
NtRp923
(dp924
g62
(dp925
sg71
g910
sg64
(lp926
g57
(g58
g59
NtRp927
(dp928
g62
(dp929
g70
I4
ssg71
g923
sg64
(lp930
S'keep-alive'
p931
asbasbasbag57
(g73
g59
NtRp932
(dp933
g62
(dp934
sg71
g661
sg64
(lp935
g57
(g78
g59
NtRp936
(dp937
g62
(dp938
g82
g83
ssg71
g932
sg64
(lp939
S'http_cookie'
p940
asbag57
(g78
g59
NtRp941
(dp942
g62
(dp943
g89
g90
ssg71
g932
sg64
(lp944
S':'
asbag57
(g78
g59
NtRp945
(dp946
g62
(dp947
sg71
g932
sg64
(lp948
g57
(g58
g59
NtRp949
(dp950
g62
(dp951
g70
I4
ssg71
g945
sg64
(lp952
S'session_id_web2py_xlchart_dashboard=127.0.0.1-7a74a73d-368d-4877-8817-36158f804b74; session_id_admin=127.0.0.1-4097e40a-b075-489f-8c12-88c38e87b03e'
p953
asbasbasbag57
(g73
g59
NtRp954
(dp955
g62
(dp956
sg71
g661
sg64
(lp957
g57
(g78
g59
NtRp958
(dp959
g62
(dp960
g82
g83
ssg71
g954
sg64
(lp961
S'http_host'
p962
asbag57
(g78
g59
NtRp963
(dp964
g62
(dp965
g89
g90
ssg71
g954
sg64
(lp966
S':'
asbag57
(g78
g59
NtRp967
(dp968
g62
(dp969
sg71
g954
sg64
(lp970
g57
(g58
g59
NtRp971
(dp972
g62
(dp973
g70
I4
ssg71
g967
sg64
(lp974
S'127.0.0.1:8000'
p975
asbasbasbag57
(g73
g59
NtRp976
(dp977
g62
(dp978
sg71
g661
sg64
(lp979
g57
(g78
g59
NtRp980
(dp981
g62
(dp982
g82
g83
ssg71
g976
sg64
(lp983
S'http_referer'
p984
asbag57
(g78
g59
NtRp985
(dp986
g62
(dp987
g89
g90
ssg71
g976
sg64
(lp988
S':'
asbag57
(g78
g59
NtRp989
(dp990
g62
(dp991
sg71
g976
sg64
(lp992
g57
(g58
g59
NtRp993
(dp994
g62
(dp995
g70
I4
ssg71
g989
sg64
(lp996
S'http://127.0.0.1:8000/admin/default/edit/web2py_xlchart_dashboard/views/charts/user_charts.html'
p997
asbasbasbag57
(g73
g59
NtRp998
(dp999
g62
(dp1000
sg71
g661
sg64
(lp1001
g57
(g78
g59
NtRp1002
(dp1003
g62
(dp1004
g82
g83
ssg71
g998
sg64
(lp1005
S'http_user_agent'
p1006
asbag57
(g78
g59
NtRp1007
(dp1008
g62
(dp1009
g89
g90
ssg71
g998
sg64
(lp1010
S':'
asbag57
(g78
g59
NtRp1011
(dp1012
g62
(dp1013
sg71
g998
sg64
(lp1014
g57
(g58
g59
NtRp1015
(dp1016
g62
(dp1017
g70
I4
ssg71
g1011
sg64
(lp1018
S'Mozilla/5.0 (Windows NT 5.1) AppleWebKit/537.4 (KHTML, like Gecko) Chrome/22.0.1229.94 Safari/537.4'
p1019
asbasbasbag57
(g73
g59
NtRp1020
(dp1021
g62
(dp1022
sg71
g661
sg64
(lp1023
g57
(g78
g59
NtRp1024
(dp1025
g62
(dp1026
g82
g83
ssg71
g1020
sg64
(lp1027
S'is_jython'
p1028
asbag57
(g78
g59
NtRp1029
(dp1030
g62
(dp1031
g89
g90
ssg71
g1020
sg64
(lp1032
S':'
asbag57
(g78
g59
NtRp1033
(dp1034
g62
(dp1035
sg71
g1020
sg64
(lp1036
g57
(g58
g59
NtRp1037
(dp1038
g62
(dp1039
g70
I4
ssg71
g1033
sg64
(lp1040
g100
asbasbasbag57
(g73
g59
NtRp1041
(dp1042
g62
(dp1043
sg71
g661
sg64
(lp1044
g57
(g78
g59
NtRp1045
(dp1046
g62
(dp1047
g82
g83
ssg71
g1041
sg64
(lp1048
S'is_pypy'
p1049
asbag57
(g78
g59
NtRp1050
(dp1051
g62
(dp1052
g89
g90
ssg71
g1041
sg64
(lp1053
S':'
asbag57
(g78
g59
NtRp1054
(dp1055
g62
(dp1056
sg71
g1041
sg64
(lp1057
g57
(g58
g59
NtRp1058
(dp1059
g62
(dp1060
g70
I4
ssg71
g1054
sg64
(lp1061
g100
asbasbasbag57
(g73
g59
NtRp1062
(dp1063
g62
(dp1064
sg71
g661
sg64
(lp1065
g57
(g78
g59
NtRp1066
(dp1067
g62
(dp1068
g82
g83
ssg71
g1062
sg64
(lp1069
S'local_hosts'
p1070
asbag57
(g78
g59
NtRp1071
(dp1072
g62
(dp1073
g89
g90
ssg71
g1062
sg64
(lp1074
S':'
asbag57
(g78
g59
NtRp1075
(dp1076
g62
(dp1077
sg71
g1062
sg64
(lp1078
g57
(g58
g59
NtRp1079
(dp1080
g62
(dp1081
g70
I4
ssg71
g1075
sg64
(lp1082
g57
(g66
g59
NtRp1083
(dp1084
g62
(dp1085
g70
I3
ssg71
Nsg64
(lp1086
g57
(g73
g59
NtRp1087
(dp1088
g62
(dp1089
sg71
g1083
sg64
(lp1090
g57
(g78
g59
NtRp1091
(dp1092
g62
(dp1093
sg71
g1087
sg64
(lp1094
g57
(g58
g59
NtRp1095
(dp1096
g62
(dp1097
g70
I3
ssg71
g1091
sg64
(lp1098
S'127.0.0.1'
p1099
asbasbasbag57
(g73
g59
NtRp1100
(dp1101
g62
(dp1102
sg71
g1083
sg64
(lp1103
g57
(g78
g59
NtRp1104
(dp1105
g62
(dp1106
sg71
g1100
sg64
(lp1107
g57
(g58
g59
NtRp1108
(dp1109
g62
(dp1110
g70
I3
ssg71
g1104
sg64
(lp1111
S'::ffff:127.0.0.1'
p1112
asbasbasbag57
(g73
g59
NtRp1113
(dp1114
g62
(dp1115
sg71
g1083
sg64
(lp1116
g57
(g78
g59
NtRp1117
(dp1118
g62
(dp1119
sg71
g1113
sg64
(lp1120
g57
(g58
g59
NtRp1121
(dp1122
g62
(dp1123
g70
I3
ssg71
g1117
sg64
(lp1124
S'GLKLAG235327'
p1125
asbasbasbag57
(g73
g59
NtRp1126
(dp1127
g62
(dp1128
sg71
g1083
sg64
(lp1129
g57
(g78
g59
NtRp1130
(dp1131
g62
(dp1132
sg71
g1126
sg64
(lp1133
g57
(g58
g59
NtRp1134
(dp1135
g62
(dp1136
g70
I3
ssg71
g1130
sg64
(lp1137
S'GLKLAG235327'
p1138
asbasbasbag57
(g73
g59
NtRp1139
(dp1140
g62
(dp1141
sg71
g1083
sg64
(lp1142
g57
(g78
g59
NtRp1143
(dp1144
g62
(dp1145
sg71
g1139
sg64
(lp1146
g57
(g58
g59
NtRp1147
(dp1148
g62
(dp1149
g70
I3
ssg71
g1143
sg64
(lp1150
S'127.0.0.1'
p1151
asbasbasbasbasbasbasbag57
(g73
g59
NtRp1152
(dp1153
g62
(dp1154
sg71
g661
sg64
(lp1155
g57
(g78
g59
NtRp1156
(dp1157
g62
(dp1158
g82
g83
ssg71
g1152
sg64
(lp1159
S'path_info'
p1160
asbag57
(g78
g59
NtRp1161
(dp1162
g62
(dp1163
g89
g90
ssg71
g1152
sg64
(lp1164
S':'
asbag57
(g78
g59
NtRp1165
(dp1166
g62
(dp1167
sg71
g1152
sg64
(lp1168
g57
(g58
g59
NtRp1169
(dp1170
g62
(dp1171
g70
I4
ssg71
g1165
sg64
(lp1172
S'/web2py_xlchart_dashboard/charts/user_charts'
p1173
asbasbasbag57
(g73
g59
NtRp1174
(dp1175
g62
(dp1176
sg71
g661
sg64
(lp1177
g57
(g78
g59
NtRp1178
(dp1179
g62
(dp1180
g82
g83
ssg71
g1174
sg64
(lp1181
S'query_string'
p1182
asbag57
(g78
g59
NtRp1183
(dp1184
g62
(dp1185
g89
g90
ssg71
g1174
sg64
(lp1186
S':'
asbag57
(g78
g59
NtRp1187
(dp1188
g62
(dp1189
sg71
g1174
sg64
(lp1190
g57
(g58
g59
NtRp1191
(dp1192
g62
(dp1193
g70
I4
ssg71
g1187
sg64
(lp1194
S''
asbasbasbag57
(g73
g59
NtRp1195
(dp1196
g62
(dp1197
sg71
g661
sg64
(lp1198
g57
(g78
g59
NtRp1199
(dp1200
g62
(dp1201
g82
g83
ssg71
g1195
sg64
(lp1202
S'remote_addr'
p1203
asbag57
(g78
g59
NtRp1204
(dp1205
g62
(dp1206
g89
g90
ssg71
g1195
sg64
(lp1207
S':'
asbag57
(g78
g59
NtRp1208
(dp1209
g62
(dp1210
sg71
g1195
sg64
(lp1211
g57
(g58
g59
NtRp1212
(dp1213
g62
(dp1214
g70
I4
ssg71
g1208
sg64
(lp1215
g212
asbasbasbag57
(g73
g59
NtRp1216
(dp1217
g62
(dp1218
sg71
g661
sg64
(lp1219
g57
(g78
g59
NtRp1220
(dp1221
g62
(dp1222
g82
g83
ssg71
g1216
sg64
(lp1223
S'remote_port'
p1224
asbag57
(g78
g59
NtRp1225
(dp1226
g62
(dp1227
g89
g90
ssg71
g1216
sg64
(lp1228
S':'
asbag57
(g78
g59
NtRp1229
(dp1230
g62
(dp1231
sg71
g1216
sg64
(lp1232
g57
(g58
g59
NtRp1233
(dp1234
g62
(dp1235
g70
I4
ssg71
g1229
sg64
(lp1236
S'2065'
p1237
asbasbasbag57
(g73
g59
NtRp1238
(dp1239
g62
(dp1240
sg71
g661
sg64
(lp1241
g57
(g78
g59
NtRp1242
(dp1243
g62
(dp1244
g82
g83
ssg71
g1238
sg64
(lp1245
S'request_method'
p1246
asbag57
(g78
g59
NtRp1247
(dp1248
g62
(dp1249
g89
g90
ssg71
g1238
sg64
(lp1250
S':'
asbag57
(g78
g59
NtRp1251
(dp1252
g62
(dp1253
sg71
g1238
sg64
(lp1254
g57
(g58
g59
NtRp1255
(dp1256
g62
(dp1257
g70
I4
ssg71
g1251
sg64
(lp1258
S'GET'
p1259
asbasbasbag57
(g73
g59
NtRp1260
(dp1261
g62
(dp1262
sg71
g661
sg64
(lp1263
g57
(g78
g59
NtRp1264
(dp1265
g62
(dp1266
g82
g83
ssg71
g1260
sg64
(lp1267
S'request_uri'
p1268
asbag57
(g78
g59
NtRp1269
(dp1270
g62
(dp1271
g89
g90
ssg71
g1260
sg64
(lp1272
S':'
asbag57
(g78
g59
NtRp1273
(dp1274
g62
(dp1275
sg71
g1260
sg64
(lp1276
g57
(g58
g59
NtRp1277
(dp1278
g62
(dp1279
g70
I4
ssg71
g1273
sg64
(lp1280
g1173
asbasbasbag57
(g73
g59
NtRp1281
(dp1282
g62
(dp1283
sg71
g661
sg64
(lp1284
g57
(g78
g59
NtRp1285
(dp1286
g62
(dp1287
g82
g83
ssg71
g1281
sg64
(lp1288
S'script_name'
p1289
asbag57
(g78
g59
NtRp1290
(dp1291
g62
(dp1292
g89
g90
ssg71
g1281
sg64
(lp1293
S':'
asbag57
(g78
g59
NtRp1294
(dp1295
g62
(dp1296
sg71
g1281
sg64
(lp1297
g57
(g58
g59
NtRp1298
(dp1299
g62
(dp1300
g70
I4
ssg71
g1294
sg64
(lp1301
S''
asbasbasbag57
(g73
g59
NtRp1302
(dp1303
g62
(dp1304
sg71
g661
sg64
(lp1305
g57
(g78
g59
NtRp1306
(dp1307
g62
(dp1308
g82
g83
ssg71
g1302
sg64
(lp1309
S'server_name'
p1310
asbag57
(g78
g59
NtRp1311
(dp1312
g62
(dp1313
g89
g90
ssg71
g1302
sg64
(lp1314
S':'
asbag57
(g78
g59
NtRp1315
(dp1316
g62
(dp1317
sg71
g1302
sg64
(lp1318
g57
(g58
g59
NtRp1319
(dp1320
g62
(dp1321
g70
I4
ssg71
g1315
sg64
(lp1322
g1138
asbasbasbag57
(g73
g59
NtRp1323
(dp1324
g62
(dp1325
sg71
g661
sg64
(lp1326
g57
(g78
g59
NtRp1327
(dp1328
g62
(dp1329
g82
g83
ssg71
g1323
sg64
(lp1330
S'server_port'
p1331
asbag57
(g78
g59
NtRp1332
(dp1333
g62
(dp1334
g89
g90
ssg71
g1323
sg64
(lp1335
S':'
asbag57
(g78
g59
NtRp1336
(dp1337
g62
(dp1338
sg71
g1323
sg64
(lp1339
g57
(g58
g59
NtRp1340
(dp1341
g62
(dp1342
g70
I4
ssg71
g1336
sg64
(lp1343
S'8000'
p1344
asbasbasbag57
(g73
g59
NtRp1345
(dp1346
g62
(dp1347
sg71
g661
sg64
(lp1348
g57
(g78
g59
NtRp1349
(dp1350
g62
(dp1351
g82
g83
ssg71
g1345
sg64
(lp1352
S'server_protocol'
p1353
asbag57
(g78
g59
NtRp1354
(dp1355
g62
(dp1356
g89
g90
ssg71
g1345
sg64
(lp1357
S':'
asbag57
(g78
g59
NtRp1358
(dp1359
g62
(dp1360
sg71
g1345
sg64
(lp1361
g57
(g58
g59
NtRp1362
(dp1363
g62
(dp1364
g70
I4
ssg71
g1358
sg64
(lp1365
S'HTTP/1.1'
p1366
asbasbasbag57
(g73
g59
NtRp1367
(dp1368
g62
(dp1369
sg71
g661
sg64
(lp1370
g57
(g78
g59
NtRp1371
(dp1372
g62
(dp1373
g82
g83
ssg71
g1367
sg64
(lp1374
S'server_software'
p1375
asbag57
(g78
g59
NtRp1376
(dp1377
g62
(dp1378
g89
g90
ssg71
g1367
sg64
(lp1379
S':'
asbag57
(g78
g59
NtRp1380
(dp1381
g62
(dp1382
sg71
g1367
sg64
(lp1383
g57
(g58
g59
NtRp1384
(dp1385
g62
(dp1386
g70
I4
ssg71
g1380
sg64
(lp1387
S'Rocket 1.2.5'
p1388
asbasbasbag57
(g73
g59
NtRp1389
(dp1390
g62
(dp1391
sg71
g661
sg64
(lp1392
g57
(g78
g59
NtRp1393
(dp1394
g62
(dp1395
g82
g83
ssg71
g1389
sg64
(lp1396
S'web2py_path'
p1397
asbag57
(g78
g59
NtRp1398
(dp1399
g62
(dp1400
g89
g90
ssg71
g1389
sg64
(lp1401
S':'
asbag57
(g78
g59
NtRp1402
(dp1403
g62
(dp1404
sg71
g1389
sg64
(lp1405
g57
(g58
g59
NtRp1406
(dp1407
g62
(dp1408
g70
I4
ssg71
g1402
sg64
(lp1409
g708
asbasbasbag57
(g73
g59
NtRp1410
(dp1411
g62
(dp1412
sg71
g661
sg64
(lp1413
g57
(g78
g59
NtRp1414
(dp1415
g62
(dp1416
g82
g83
ssg71
g1410
sg64
(lp1417
S'web2py_version'
p1418
asbag57
(g78
g59
NtRp1419
(dp1420
g62
(dp1421
g89
g90
ssg71
g1410
sg64
(lp1422
S':'
asbag57
(g78
g59
NtRp1423
(dp1424
g62
(dp1425
sg71
g1410
sg64
(lp1426
g57
(g58
g59
NtRp1427
(dp1428
g62
(dp1429
g70
I4
ssg71
g1423
sg64
(lp1430
g57
(g66
g59
NtRp1431
(dp1432
g62
(dp1433
g70
I3
ssg71
Nsg64
(lp1434
g57
(g73
g59
NtRp1435
(dp1436
g62
(dp1437
sg71
g1431
sg64
(lp1438
g57
(g78
g59
NtRp1439
(dp1440
g62
(dp1441
sg71
g1435
sg64
(lp1442
g57
(g58
g59
NtRp1443
(dp1444
g62
(dp1445
g70
I3
ssg71
g1439
sg64
(lp1446
S'2'
asbasbasbag57
(g73
g59
NtRp1447
(dp1448
g62
(dp1449
sg71
g1431
sg64
(lp1450
g57
(g78
g59
NtRp1451
(dp1452
g62
(dp1453
sg71
g1447
sg64
(lp1454
g57
(g58
g59
NtRp1455
(dp1456
g62
(dp1457
g70
I3
ssg71
g1451
sg64
(lp1458
S'2'
asbasbasbag57
(g73
g59
NtRp1459
(dp1460
g62
(dp1461
sg71
g1431
sg64
(lp1462
g57
(g78
g59
NtRp1463
(dp1464
g62
(dp1465
sg71
g1459
sg64
(lp1466
g57
(g58
g59
NtRp1467
(dp1468
g62
(dp1469
g70
I3
ssg71
g1463
sg64
(lp1470
S'1'
asbasbasbag57
(g73
g59
NtRp1471
(dp1472
g62
(dp1473
sg71
g1431
sg64
(lp1474
g57
(g78
g59
NtRp1475
(dp1476
g62
(dp1477
sg71
g1471
sg64
(lp1478
g57
(g58
g59
NtRp1479
(dp1480
g62
(dp1481
g70
I3
ssg71
g1475
sg64
(lp1482
S'datetime.datetime(2012, 10, 21, 16, 57, 4)'
p1483
asbasbasbag57
(g73
g59
NtRp1484
(dp1485
g62
(dp1486
sg71
g1431
sg64
(lp1487
g57
(g78
g59
NtRp1488
(dp1489
g62
(dp1490
sg71
g1484
sg64
(lp1491
g57
(g58
g59
NtRp1492
(dp1493
g62
(dp1494
g70
I3
ssg71
g1488
sg64
(lp1495
S'stable'
p1496
asbasbasbasbasbasbasbag57
(g73
g59
NtRp1497
(dp1498
g62
(dp1499
sg71
g661
sg64
(lp1500
g57
(g78
g59
NtRp1501
(dp1502
g62
(dp1503
g82
g83
ssg71
g1497
sg64
(lp1504
S'wsgi_errors'
p1505
asbag57
(g78
g59
NtRp1506
(dp1507
g62
(dp1508
g89
g90
ssg71
g1497
sg64
(lp1509
S':'
asbag57
(g78
g59
NtRp1510
(dp1511
g62
(dp1512
sg71
g1497
sg64
(lp1513
g57
(g58
g59
NtRp1514
(dp1515
g62
(dp1516
g70
I4
ssg71
g1510
sg64
(lp1517
S"<open file '<stderr>', mode 'w' at 0x00A850D0>"
p1518
asbasbasbag57
(g73
g59
NtRp1519
(dp1520
g62
(dp1521
sg71
g661
sg64
(lp1522
g57
(g78
g59
NtRp1523
(dp1524
g62
(dp1525
g82
g83
ssg71
g1519
sg64
(lp1526
S'wsgi_file_wrapper'
p1527
asbag57
(g78
g59
NtRp1528
(dp1529
g62
(dp1530
g89
g90
ssg71
g1519
sg64
(lp1531
S':'
asbag57
(g78
g59
NtRp1532
(dp1533
g62
(dp1534
sg71
g1519
sg64
(lp1535
g57
(g58
g59
NtRp1536
(dp1537
g62
(dp1538
g70
I4
ssg71
g1532
sg64
(lp1539
S'<class wsgiref.util.FileWrapper at 0x0172EE68>'
p1540
asbasbasbag57
(g73
g59
NtRp1541
(dp1542
g62
(dp1543
sg71
g661
sg64
(lp1544
g57
(g78
g59
NtRp1545
(dp1546
g62
(dp1547
g82
g83
ssg71
g1541
sg64
(lp1548
S'wsgi_input'
p1549
asbag57
(g78
g59
NtRp1550
(dp1551
g62
(dp1552
g89
g90
ssg71
g1541
sg64
(lp1553
S':'
asbag57
(g78
g59
NtRp1554
(dp1555
g62
(dp1556
sg71
g1541
sg64
(lp1557
g57
(g58
g59
NtRp1558
(dp1559
g62
(dp1560
g70
I4
ssg71
g1554
sg64
(lp1561
S'<socket._fileobject object at 0x01CD2470>'
p1562
asbasbasbag57
(g73
g59
NtRp1563
(dp1564
g62
(dp1565
sg71
g661
sg64
(lp1566
g57
(g78
g59
NtRp1567
(dp1568
g62
(dp1569
g82
g83
ssg71
g1563
sg64
(lp1570
S'wsgi_multiprocess'
p1571
asbag57
(g78
g59
NtRp1572
(dp1573
g62
(dp1574
g89
g90
ssg71
g1563
sg64
(lp1575
S':'
asbag57
(g78
g59
NtRp1576
(dp1577
g62
(dp1578
sg71
g1563
sg64
(lp1579
g57
(g58
g59
NtRp1580
(dp1581
g62
(dp1582
g70
I4
ssg71
g1576
sg64
(lp1583
g100
asbasbasbag57
(g73
g59
NtRp1584
(dp1585
g62
(dp1586
sg71
g661
sg64
(lp1587
g57
(g78
g59
NtRp1588
(dp1589
g62
(dp1590
g82
g83
ssg71
g1584
sg64
(lp1591
S'wsgi_multithread'
p1592
asbag57
(g78
g59
NtRp1593
(dp1594
g62
(dp1595
g89
g90
ssg71
g1584
sg64
(lp1596
S':'
asbag57
(g78
g59
NtRp1597
(dp1598
g62
(dp1599
sg71
g1584
sg64
(lp1600
g57
(g58
g59
NtRp1601
(dp1602
g62
(dp1603
g70
I4
ssg71
g1597
sg64
(lp1604
g799
asbasbasbag57
(g73
g59
NtRp1605
(dp1606
g62
(dp1607
sg71
g661
sg64
(lp1608
g57
(g78
g59
NtRp1609
(dp1610
g62
(dp1611
g82
g83
ssg71
g1605
sg64
(lp1612
S'wsgi_run_once'
p1613
asbag57
(g78
g59
NtRp1614
(dp1615
g62
(dp1616
g89
g90
ssg71
g1605
sg64
(lp1617
S':'
asbag57
(g78
g59
NtRp1618
(dp1619
g62
(dp1620
sg71
g1605
sg64
(lp1621
g57
(g58
g59
NtRp1622
(dp1623
g62
(dp1624
g70
I4
ssg71
g1618
sg64
(lp1625
g100
asbasbasbag57
(g73
g59
NtRp1626
(dp1627
g62
(dp1628
sg71
g661
sg64
(lp1629
g57
(g78
g59
NtRp1630
(dp1631
g62
(dp1632
g82
g83
ssg71
g1626
sg64
(lp1633
S'wsgi_url_scheme'
p1634
asbag57
(g78
g59
NtRp1635
(dp1636
g62
(dp1637
g89
g90
ssg71
g1626
sg64
(lp1638
S':'
asbag57
(g78
g59
NtRp1639
(dp1640
g62
(dp1641
sg71
g1626
sg64
(lp1642
g57
(g58
g59
NtRp1643
(dp1644
g62
(dp1645
g70
I4
ssg71
g1639
sg64
(lp1646
S'http'
p1647
asbasbasbag57
(g73
g59
NtRp1648
(dp1649
g62
(dp1650
sg71
g661
sg64
(lp1651
g57
(g78
g59
NtRp1652
(dp1653
g62
(dp1654
g82
g83
ssg71
g1648
sg64
(lp1655
S'wsgi_version'
p1656
asbag57
(g78
g59
NtRp1657
(dp1658
g62
(dp1659
g89
g90
ssg71
g1648
sg64
(lp1660
S':'
asbag57
(g78
g59
NtRp1661
(dp1662
g62
(dp1663
sg71
g1648
sg64
(lp1664
g57
(g58
g59
NtRp1665
(dp1666
g62
(dp1667
g70
I4
ssg71
g1661
sg64
(lp1668
g57
(g66
g59
NtRp1669
(dp1670
g62
(dp1671
g70
I3
ssg71
Nsg64
(lp1672
g57
(g73
g59
NtRp1673
(dp1674
g62
(dp1675
sg71
g1669
sg64
(lp1676
g57
(g78
g59
NtRp1677
(dp1678
g62
(dp1679
sg71
g1673
sg64
(lp1680
g57
(g58
g59
NtRp1681
(dp1682
g62
(dp1683
g70
I3
ssg71
g1677
sg64
(lp1684
S'1'
asbasbasbag57
(g73
g59
NtRp1685
(dp1686
g62
(dp1687
sg71
g1669
sg64
(lp1688
g57
(g78
g59
NtRp1689
(dp1690
g62
(dp1691
sg71
g1685
sg64
(lp1692
g57
(g58
g59
NtRp1693
(dp1694
g62
(dp1695
g70
I3
ssg71
g1689
sg64
(lp1696
S'0'
asbasbasbasbasbasbasbasbasbasbasbag57
(g73
g59
NtRp1697
(dp1698
g62
(dp1699
sg71
g67
sg64
(lp1700
g57
(g78
g59
NtRp1701
(dp1702
g62
(dp1703
g82
g83
ssg71
g1697
sg64
(lp1704
S'extension'
p1705
asbag57
(g78
g59
NtRp1706
(dp1707
g62
(dp1708
g89
g90
ssg71
g1697
sg64
(lp1709
S':'
asbag57
(g78
g59
NtRp1710
(dp1711
g62
(dp1712
sg71
g1697
sg64
(lp1713
g57
(g58
g59
NtRp1714
(dp1715
g62
(dp1716
g70
I5
ssg71
g1710
sg64
(lp1717
S'html'
p1718
asbasbasbag57
(g73
g59
NtRp1719
(dp1720
g62
(dp1721
sg71
g67
sg64
(lp1722
g57
(g78
g59
NtRp1723
(dp1724
g62
(dp1725
g82
g83
ssg71
g1719
sg64
(lp1726
S'folder'
p1727
asbag57
(g78
g59
NtRp1728
(dp1729
g62
(dp1730
g89
g90
ssg71
g1719
sg64
(lp1731
S':'
asbag57
(g78
g59
NtRp1732
(dp1733
g62
(dp1734
sg71
g1719
sg64
(lp1735
g57
(g58
g59
NtRp1736
(dp1737
g62
(dp1738
g70
I5
ssg71
g1732
sg64
(lp1739
S'D:\\web2py\\source\\web2py\\applications\\web2py_xlchart_dashboard\\'
p1740
asbasbasbag57
(g73
g59
NtRp1741
(dp1742
g62
(dp1743
sg71
g67
sg64
(lp1744
g57
(g78
g59
NtRp1745
(dp1746
g62
(dp1747
g82
g83
ssg71
g1741
sg64
(lp1748
S'function'
p1749
asbag57
(g78
g59
NtRp1750
(dp1751
g62
(dp1752
g89
g90
ssg71
g1741
sg64
(lp1753
S':'
asbag57
(g78
g59
NtRp1754
(dp1755
g62
(dp1756
sg71
g1741
sg64
(lp1757
g57
(g58
g59
NtRp1758
(dp1759
g62
(dp1760
g70
I5
ssg71
g1754
sg64
(lp1761
S'user_charts'
p1762
asbasbasbag57
(g73
g59
NtRp1763
(dp1764
g62
(dp1765
sg71
g67
sg64
(lp1766
g57
(g78
g59
NtRp1767
(dp1768
g62
(dp1769
g82
g83
ssg71
g1763
sg64
(lp1770
S'get_vars'
p1771
asbag57
(g78
g59
NtRp1772
(dp1773
g62
(dp1774
g89
g90
ssg71
g1763
sg64
(lp1775
S':'
asbag57
(g78
g59
NtRp1776
(dp1777
g62
(dp1778
sg71
g1763
sg64
(lp1779
g57
(g58
g59
NtRp1780
(dp1781
g62
(dp1782
g70
I5
ssg71
g1776
sg64
(lp1783
g57
(g66
g59
NtRp1784
(dp1785
g62
(dp1786
g70
I4
ssg71
Nsg64
(lp1787
sbasbasbasbag57
(g73
g59
NtRp1788
(dp1789
g62
(dp1790
sg71
g67
sg64
(lp1791
g57
(g78
g59
NtRp1792
(dp1793
g62
(dp1794
g82
g83
ssg71
g1788
sg64
(lp1795
S'global_settings'
p1796
asbag57
(g78
g59
NtRp1797
(dp1798
g62
(dp1799
g89
g90
ssg71
g1788
sg64
(lp1800
S':'
asbag57
(g78
g59
NtRp1801
(dp1802
g62
(dp1803
sg71
g1788
sg64
(lp1804
g57
(g58
g59
NtRp1805
(dp1806
g62
(dp1807
g70
I5
ssg71
g1801
sg64
(lp1808
g57
(g66
g59
NtRp1809
(dp1810
g62
(dp1811
g70
I4
ssg71
Nsg64
(lp1812
g57
(g73
g59
NtRp1813
(dp1814
g62
(dp1815
sg71
g1809
sg64
(lp1816
g57
(g78
g59
NtRp1817
(dp1818
g62
(dp1819
g82
g83
ssg71
g1813
sg64
(lp1820
g673
asbag57
(g78
g59
NtRp1821
(dp1822
g62
(dp1823
g89
g90
ssg71
g1813
sg64
(lp1824
S':'
asbag57
(g78
g59
NtRp1825
(dp1826
g62
(dp1827
sg71
g1813
sg64
(lp1828
g57
(g58
g59
NtRp1829
(dp1830
g62
(dp1831
g70
I4
ssg71
g1825
sg64
(lp1832
S"set(['D:\\\\web2py\\\\source\\\\web2py\\\\applications\\\\admin\\\\', 'D:\\\\web2py\\\\source\\\\web2py\\\\applications\\\\welcome\\\\', 'D:\\\\web2py\\\\source\\\\web2py\\\\applications\\\\web2py_xlchart_dashboard\\\\'])"
p1833
asbasbasbag57
(g73
g59
NtRp1834
(dp1835
g62
(dp1836
sg71
g1809
sg64
(lp1837
g57
(g78
g59
NtRp1838
(dp1839
g62
(dp1840
g82
g83
ssg71
g1834
sg64
(lp1841
g695
asbag57
(g78
g59
NtRp1842
(dp1843
g62
(dp1844
g89
g90
ssg71
g1834
sg64
(lp1845
S':'
asbag57
(g78
g59
NtRp1846
(dp1847
g62
(dp1848
sg71
g1834
sg64
(lp1849
g57
(g58
g59
NtRp1850
(dp1851
g62
(dp1852
g70
I4
ssg71
g1846
sg64
(lp1853
g708
asbasbasbag57
(g73
g59
NtRp1854
(dp1855
g62
(dp1856
sg71
g1809
sg64
(lp1857
g57
(g78
g59
NtRp1858
(dp1859
g62
(dp1860
g82
g83
ssg71
g1854
sg64
(lp1861
g717
asbag57
(g78
g59
NtRp1862
(dp1863
g62
(dp1864
g89
g90
ssg71
g1854
sg64
(lp1865
S':'
asbag57
(g78
g59
NtRp1866
(dp1867
g62
(dp1868
sg71
g1854
sg64
(lp1869
g57
(g58
g59
NtRp1870
(dp1871
g62
(dp1872
g70
I4
ssg71
g1866
sg64
(lp1873
g57
(g66
g59
NtRp1874
(dp1875
g62
(dp1876
g70
I3
ssg71
Nsg64
(lp1877
sbasbasbasbag57
(g73
g59
NtRp1878
(dp1879
g62
(dp1880
sg71
g1809
sg64
(lp1881
g57
(g78
g59
NtRp1882
(dp1883
g62
(dp1884
g82
g83
ssg71
g1878
sg64
(lp1885
g742
asbag57
(g78
g59
NtRp1886
(dp1887
g62
(dp1888
g89
g90
ssg71
g1878
sg64
(lp1889
S':'
asbag57
(g78
g59
NtRp1890
(dp1891
g62
(dp1892
sg71
g1878
sg64
(lp1893
g57
(g58
g59
NtRp1894
(dp1895
g62
(dp1896
g70
I4
ssg71
g1890
sg64
(lp1897
S"<Values at 0xc77f58: {'verbose': False, 'ip': '127.0.0.1', 'with_scheduler': False, 'ips': [], 'shutdown_timeout': 5, 'taskbar': False, 'port': 8000, 'maxthreads': None, 'softcron': False, 'server_name': 'GLKLAG235327', 'bpython': False, 'nogui': False, 'pid_filename': 'httpserver.pid', 'extcron': False, 'runcron': False, 'run_system_tests': False, 'test': None, 'folder': 'D:\\\\web2py\\\\source\\\\web2py', 'config': '', 'import_models': False, 'winservice': '', 'shell': None, 'run': '', 'log_filename': 'httpserver.log', 'debuglevel': 30, 'args': [''], 'socket_timeout': 5, 'ssl_ca_certificate': None, 'scheduler': None, 'profiler_filename': None, 'ssl_private_key': '', 'scheduler_groups': None, 'password': '<ask>', 'request_queue_size': 5, 'ssl_certificate': '', 'cronjob': False, 'numthreads': None, 'quiet': False, 'interfaces': None, 'minthreads': None, 'timeout': 10, 'plain': False, 'nobanner': False}>"
p1898
asbasbasbag57
(g73
g59
NtRp1899
(dp1900
g62
(dp1901
sg71
g1809
sg64
(lp1902
g57
(g78
g59
NtRp1903
(dp1904
g62
(dp1905
g82
g83
ssg71
g1899
sg64
(lp1906
g764
asbag57
(g78
g59
NtRp1907
(dp1908
g62
(dp1909
g89
g90
ssg71
g1899
sg64
(lp1910
S':'
asbag57
(g78
g59
NtRp1911
(dp1912
g62
(dp1913
sg71
g1899
sg64
(lp1914
g57
(g58
g59
NtRp1915
(dp1916
g62
(dp1917
g70
I4
ssg71
g1911
sg64
(lp1918
S'set([])'
p1919
asbasbasbag57
(g73
g59
NtRp1920
(dp1921
g62
(dp1922
sg71
g1809
sg64
(lp1923
g57
(g78
g59
NtRp1924
(dp1925
g62
(dp1926
g82
g83
ssg71
g1920
sg64
(lp1927
g786
asbag57
(g78
g59
NtRp1928
(dp1929
g62
(dp1930
g89
g90
ssg71
g1920
sg64
(lp1931
S':'
asbag57
(g78
g59
NtRp1932
(dp1933
g62
(dp1934
sg71
g1920
sg64
(lp1935
g57
(g58
g59
NtRp1936
(dp1937
g62
(dp1938
g70
I4
ssg71
g1932
sg64
(lp1939
g799
asbasbasbag57
(g73
g59
NtRp1940
(dp1941
g62
(dp1942
sg71
g1809
sg64
(lp1943
g57
(g78
g59
NtRp1944
(dp1945
g62
(dp1946
g82
g83
ssg71
g1940
sg64
(lp1947
g808
asbag57
(g78
g59
NtRp1948
(dp1949
g62
(dp1950
g89
g90
ssg71
g1940
sg64
(lp1951
S':'
asbag57
(g78
g59
NtRp1952
(dp1953
g62
(dp1954
sg71
g1940
sg64
(lp1955
g57
(g58
g59
NtRp1956
(dp1957
g62
(dp1958
g70
I4
ssg71
g1952
sg64
(lp1959
g821
asbasbasbag57
(g73
g59
NtRp1960
(dp1961
g62
(dp1962
sg71
g1809
sg64
(lp1963
g57
(g78
g59
NtRp1964
(dp1965
g62
(dp1966
g82
g83
ssg71
g1960
sg64
(lp1967
g1028
asbag57
(g78
g59
NtRp1968
(dp1969
g62
(dp1970
g89
g90
ssg71
g1960
sg64
(lp1971
S':'
asbag57
(g78
g59
NtRp1972
(dp1973
g62
(dp1974
sg71
g1960
sg64
(lp1975
g57
(g58
g59
NtRp1976
(dp1977
g62
(dp1978
g70
I4
ssg71
g1972
sg64
(lp1979
g100
asbasbasbag57
(g73
g59
NtRp1980
(dp1981
g62
(dp1982
sg71
g1809
sg64
(lp1983
g57
(g78
g59
NtRp1984
(dp1985
g62
(dp1986
g82
g83
ssg71
g1980
sg64
(lp1987
g1049
asbag57
(g78
g59
NtRp1988
(dp1989
g62
(dp1990
g89
g90
ssg71
g1980
sg64
(lp1991
S':'
asbag57
(g78
g59
NtRp1992
(dp1993
g62
(dp1994
sg71
g1980
sg64
(lp1995
g57
(g58
g59
NtRp1996
(dp1997
g62
(dp1998
g70
I4
ssg71
g1992
sg64
(lp1999
g100
asbasbasbag57
(g73
g59
NtRp2000
(dp2001
g62
(dp2002
sg71
g1809
sg64
(lp2003
g57
(g78
g59
NtRp2004
(dp2005
g62
(dp2006
g82
g83
ssg71
g2000
sg64
(lp2007
g1070
asbag57
(g78
g59
NtRp2008
(dp2009
g62
(dp2010
g89
g90
ssg71
g2000
sg64
(lp2011
S':'
asbag57
(g78
g59
NtRp2012
(dp2013
g62
(dp2014
sg71
g2000
sg64
(lp2015
g57
(g58
g59
NtRp2016
(dp2017
g62
(dp2018
g70
I4
ssg71
g2012
sg64
(lp2019
g57
(g66
g59
NtRp2020
(dp2021
g62
(dp2022
g70
I3
ssg71
Nsg64
(lp2023
g57
(g73
g59
NtRp2024
(dp2025
g62
(dp2026
sg71
g2020
sg64
(lp2027
g57
(g78
g59
NtRp2028
(dp2029
g62
(dp2030
sg71
g2024
sg64
(lp2031
g57
(g58
g59
NtRp2032
(dp2033
g62
(dp2034
g70
I3
ssg71
g2028
sg64
(lp2035
g1099
asbasbasbag57
(g73
g59
NtRp2036
(dp2037
g62
(dp2038
sg71
g2020
sg64
(lp2039
g57
(g78
g59
NtRp2040
(dp2041
g62
(dp2042
sg71
g2036
sg64
(lp2043
g57
(g58
g59
NtRp2044
(dp2045
g62
(dp2046
g70
I3
ssg71
g2040
sg64
(lp2047
g1112
asbasbasbag57
(g73
g59
NtRp2048
(dp2049
g62
(dp2050
sg71
g2020
sg64
(lp2051
g57
(g78
g59
NtRp2052
(dp2053
g62
(dp2054
sg71
g2048
sg64
(lp2055
g57
(g58
g59
NtRp2056
(dp2057
g62
(dp2058
g70
I3
ssg71
g2052
sg64
(lp2059
g1125
asbasbasbag57
(g73
g59
NtRp2060
(dp2061
g62
(dp2062
sg71
g2020
sg64
(lp2063
g57
(g78
g59
NtRp2064
(dp2065
g62
(dp2066
sg71
g2060
sg64
(lp2067
g57
(g58
g59
NtRp2068
(dp2069
g62
(dp2070
g70
I3
ssg71
g2064
sg64
(lp2071
g1138
asbasbasbag57
(g73
g59
NtRp2072
(dp2073
g62
(dp2074
sg71
g2020
sg64
(lp2075
g57
(g78
g59
NtRp2076
(dp2077
g62
(dp2078
sg71
g2072
sg64
(lp2079
g57
(g58
g59
NtRp2080
(dp2081
g62
(dp2082
g70
I3
ssg71
g2076
sg64
(lp2083
g1151
asbasbasbasbasbasbasbag57
(g73
g59
NtRp2084
(dp2085
g62
(dp2086
sg71
g1809
sg64
(lp2087
g57
(g78
g59
NtRp2088
(dp2089
g62
(dp2090
g82
g83
ssg71
g2084
sg64
(lp2091
g1418
asbag57
(g78
g59
NtRp2092
(dp2093
g62
(dp2094
g89
g90
ssg71
g2084
sg64
(lp2095
S':'
asbag57
(g78
g59
NtRp2096
(dp2097
g62
(dp2098
sg71
g2084
sg64
(lp2099
g57
(g58
g59
NtRp2100
(dp2101
g62
(dp2102
g70
I4
ssg71
g2096
sg64
(lp2103
g57
(g66
g59
NtRp2104
(dp2105
g62
(dp2106
g70
I3
ssg71
Nsg64
(lp2107
g57
(g73
g59
NtRp2108
(dp2109
g62
(dp2110
sg71
g2104
sg64
(lp2111
g57
(g78
g59
NtRp2112
(dp2113
g62
(dp2114
sg71
g2108
sg64
(lp2115
g57
(g58
g59
NtRp2116
(dp2117
g62
(dp2118
g70
I3
ssg71
g2112
sg64
(lp2119
S'2'
asbasbasbag57
(g73
g59
NtRp2120
(dp2121
g62
(dp2122
sg71
g2104
sg64
(lp2123
g57
(g78
g59
NtRp2124
(dp2125
g62
(dp2126
sg71
g2120
sg64
(lp2127
g57
(g58
g59
NtRp2128
(dp2129
g62
(dp2130
g70
I3
ssg71
g2124
sg64
(lp2131
S'2'
asbasbasbag57
(g73
g59
NtRp2132
(dp2133
g62
(dp2134
sg71
g2104
sg64
(lp2135
g57
(g78
g59
NtRp2136
(dp2137
g62
(dp2138
sg71
g2132
sg64
(lp2139
g57
(g58
g59
NtRp2140
(dp2141
g62
(dp2142
g70
I3
ssg71
g2136
sg64
(lp2143
S'1'
asbasbasbag57
(g73
g59
NtRp2144
(dp2145
g62
(dp2146
sg71
g2104
sg64
(lp2147
g57
(g78
g59
NtRp2148
(dp2149
g62
(dp2150
sg71
g2144
sg64
(lp2151
g57
(g58
g59
NtRp2152
(dp2153
g62
(dp2154
g70
I3
ssg71
g2148
sg64
(lp2155
S'datetime.datetime(2012, 10, 21, 16, 57, 4)'
p2156
asbasbasbag57
(g73
g59
NtRp2157
(dp2158
g62
(dp2159
sg71
g2104
sg64
(lp2160
g57
(g78
g59
NtRp2161
(dp2162
g62
(dp2163
sg71
g2157
sg64
(lp2164
g57
(g58
g59
NtRp2165
(dp2166
g62
(dp2167
g70
I3
ssg71
g2161
sg64
(lp2168
g1496
asbasbasbasbasbasbasbasbasbasbasbag57
(g73
g59
NtRp2169
(dp2170
g62
(dp2171
sg71
g67
sg64
(lp2172
g57
(g78
g59
NtRp2173
(dp2174
g62
(dp2175
g82
g83
ssg71
g2169
sg64
(lp2176
S'is_https'
p2177
asbag57
(g78
g59
NtRp2178
(dp2179
g62
(dp2180
g89
g90
ssg71
g2169
sg64
(lp2181
S':'
asbag57
(g78
g59
NtRp2182
(dp2183
g62
(dp2184
sg71
g2169
sg64
(lp2185
g57
(g58
g59
NtRp2186
(dp2187
g62
(dp2188
g70
I5
ssg71
g2182
sg64
(lp2189
g100
asbasbasbag57
(g73
g59
NtRp2190
(dp2191
g62
(dp2192
sg71
g67
sg64
(lp2193
g57
(g78
g59
NtRp2194
(dp2195
g62
(dp2196
g82
g83
ssg71
g2190
sg64
(lp2197
S'is_local'
p2198
asbag57
(g78
g59
NtRp2199
(dp2200
g62
(dp2201
g89
g90
ssg71
g2190
sg64
(lp2202
S':'
asbag57
(g78
g59
NtRp2203
(dp2204
g62
(dp2205
sg71
g2190
sg64
(lp2206
g57
(g58
g59
NtRp2207
(dp2208
g62
(dp2209
g70
I5
ssg71
g2203
sg64
(lp2210
g799
asbasbasbag57
(g73
g59
NtRp2211
(dp2212
g62
(dp2213
sg71
g67
sg64
(lp2214
g57
(g78
g59
NtRp2215
(dp2216
g62
(dp2217
g82
g83
ssg71
g2211
sg64
(lp2218
S'is_restful'
p2219
asbag57
(g78
g59
NtRp2220
(dp2221
g62
(dp2222
g89
g90
ssg71
g2211
sg64
(lp2223
S':'
asbag57
(g78
g59
NtRp2224
(dp2225
g62
(dp2226
sg71
g2211
sg64
(lp2227
g57
(g58
g59
NtRp2228
(dp2229
g62
(dp2230
g70
I5
ssg71
g2224
sg64
(lp2231
g100
asbasbasbag57
(g73
g59
NtRp2232
(dp2233
g62
(dp2234
sg71
g67
sg64
(lp2235
g57
(g78
g59
NtRp2236
(dp2237
g62
(dp2238
g82
g83
ssg71
g2232
sg64
(lp2239
S'now'
p2240
asbag57
(g78
g59
NtRp2241
(dp2242
g62
(dp2243
g89
g90
ssg71
g2232
sg64
(lp2244
S':'
asbag57
(g78
g59
NtRp2245
(dp2246
g62
(dp2247
sg71
g2232
sg64
(lp2248
g57
(g58
g59
NtRp2249
(dp2250
g62
(dp2251
g70
I5
ssg71
g2245
sg64
(lp2252
S'datetime.datetime(2012, 11, 8, 11, 9, 51, 625000)'
p2253
asbasbasbag57
(g73
g59
NtRp2254
(dp2255
g62
(dp2256
sg71
g67
sg64
(lp2257
g57
(g78
g59
NtRp2258
(dp2259
g62
(dp2260
g82
g83
ssg71
g2254
sg64
(lp2261
S'post_vars'
p2262
asbag57
(g78
g59
NtRp2263
(dp2264
g62
(dp2265
g89
g90
ssg71
g2254
sg64
(lp2266
S':'
asbag57
(g78
g59
NtRp2267
(dp2268
g62
(dp2269
sg71
g2254
sg64
(lp2270
g57
(g58
g59
NtRp2271
(dp2272
g62
(dp2273
g70
I5
ssg71
g2267
sg64
(lp2274
g57
(g66
g59
NtRp2275
(dp2276
g62
(dp2277
g70
I4
ssg71
Nsg64
(lp2278
sbasbasbasbag57
(g73
g59
NtRp2279
(dp2280
g62
(dp2281
sg71
g67
sg64
(lp2282
g57
(g78
g59
NtRp2283
(dp2284
g62
(dp2285
g82
g83
ssg71
g2279
sg64
(lp2286
S'raw_args'
p2287
asbag57
(g78
g59
NtRp2288
(dp2289
g62
(dp2290
g89
g90
ssg71
g2279
sg64
(lp2291
S':'
asbag57
(g78
g59
NtRp2292
(dp2293
g62
(dp2294
sg71
g2279
sg64
(lp2295
g57
(g58
g59
NtRp2296
(dp2297
g62
(dp2298
g70
I5
ssg71
g2292
sg64
(lp2299
S''
asbasbasbag57
(g73
g59
NtRp2300
(dp2301
g62
(dp2302
sg71
g67
sg64
(lp2303
g57
(g78
g59
NtRp2304
(dp2305
g62
(dp2306
g82
g83
ssg71
g2300
sg64
(lp2307
S'raw_extension'
p2308
asbag57
(g78
g59
NtRp2309
(dp2310
g62
(dp2311
g89
g90
ssg71
g2300
sg64
(lp2312
S':'
asbag57
(g78
g59
NtRp2313
(dp2314
g62
(dp2315
sg71
g2300
sg64
(lp2316
g57
(g58
g59
NtRp2317
(dp2318
g62
(dp2319
g70
I5
ssg71
g2313
sg64
(lp2320
S'None'
p2321
asbasbasbag57
(g73
g59
NtRp2322
(dp2323
g62
(dp2324
sg71
g67
sg64
(lp2325
g57
(g78
g59
NtRp2326
(dp2327
g62
(dp2328
g82
g83
ssg71
g2322
sg64
(lp2329
S'url'
p2330
asbag57
(g78
g59
NtRp2331
(dp2332
g62
(dp2333
g89
g90
ssg71
g2322
sg64
(lp2334
S':'
asbag57
(g78
g59
NtRp2335
(dp2336
g62
(dp2337
sg71
g2322
sg64
(lp2338
g57
(g58
g59
NtRp2339
(dp2340
g62
(dp2341
g70
I5
ssg71
g2335
sg64
(lp2342
g1173
asbasbasbag57
(g73
g59
NtRp2343
(dp2344
g62
(dp2345
sg71
g67
sg64
(lp2346
g57
(g78
g59
NtRp2347
(dp2348
g62
(dp2349
g82
g83
ssg71
g2343
sg64
(lp2350
S'utcnow'
p2351
asbag57
(g78
g59
NtRp2352
(dp2353
g62
(dp2354
g89
g90
ssg71
g2343
sg64
(lp2355
S':'
asbag57
(g78
g59
NtRp2356
(dp2357
g62
(dp2358
sg71
g2343
sg64
(lp2359
g57
(g58
g59
NtRp2360
(dp2361
g62
(dp2362
g70
I5
ssg71
g2356
sg64
(lp2363
S'datetime.datetime(2012, 11, 8, 11, 9, 51, 625000)'
p2364
asbasbasbag57
(g73
g59
NtRp2365
(dp2366
g62
(dp2367
sg71
g67
sg64
(lp2368
g57
(g78
g59
NtRp2369
(dp2370
g62
(dp2371
g82
g83
ssg71
g2365
sg64
(lp2372
S'uuid'
p2373
asbag57
(g78
g59
NtRp2374
(dp2375
g62
(dp2376
g89
g90
ssg71
g2365
sg64
(lp2377
S':'
asbag57
(g78
g59
NtRp2378
(dp2379
g62
(dp2380
sg71
g2365
sg64
(lp2381
g57
(g58
g59
NtRp2382
(dp2383
g62
(dp2384
g70
I5
ssg71
g2378
sg64
(lp2385
S'web2py_xlchart_dashboard/127.0.0.1.2012-11-08.11-09-51.fc38039a-0cfe-4f97-b628-cc4080b8e7ca'
p2386
asbasbasbag57
(g73
g59
NtRp2387
(dp2388
g62
(dp2389
sg71
g67
sg64
(lp2390
g57
(g78
g59
NtRp2391
(dp2392
g62
(dp2393
g82
g83
ssg71
g2387
sg64
(lp2394
S'vars'
p2395
asbag57
(g78
g59
NtRp2396
(dp2397
g62
(dp2398
g89
g90
ssg71
g2387
sg64
(lp2399
S':'
asbag57
(g78
g59
NtRp2400
(dp2401
g62
(dp2402
sg71
g2387
sg64
(lp2403
g57
(g58
g59
NtRp2404
(dp2405
g62
(dp2406
g70
I5
ssg71
g2400
sg64
(lp2407
g57
(g66
g59
NtRp2408
(dp2409
g62
(dp2410
g70
I4
ssg71
Nsg64
(lp2411
sbasbasbasbag57
(g73
g59
NtRp2412
(dp2413
g62
(dp2414
sg71
g67
sg64
(lp2415
g57
(g78
g59
NtRp2416
(dp2417
g62
(dp2418
g82
g83
ssg71
g2412
sg64
(lp2419
S'wsgi'
p2420
asbag57
(g78
g59
NtRp2421
(dp2422
g62
(dp2423
g89
g90
ssg71
g2412
sg64
(lp2424
S':'
asbag57
(g78
g59
NtRp2425
(dp2426
g62
(dp2427
sg71
g2412
sg64
(lp2428
g57
(g58
g59
NtRp2429
(dp2430
g62
(dp2431
g70
I5
ssg71
g2425
sg64
(lp2432
g57
(g66
g59
NtRp2433
(dp2434
g62
(dp2435
g70
I4
ssg71
Nsg64
(lp2436
g57
(g73
g59
NtRp2437
(dp2438
g62
(dp2439
sg71
g2433
sg64
(lp2440
g57
(g78
g59
NtRp2441
(dp2442
g62
(dp2443
g82
g83
ssg71
g2437
sg64
(lp2444
S'environ'
p2445
asbag57
(g78
g59
NtRp2446
(dp2447
g62
(dp2448
g89
g90
ssg71
g2437
sg64
(lp2449
S':'
asbag57
(g78
g59
NtRp2450
(dp2451
g62
(dp2452
sg71
g2437
sg64
(lp2453
g57
(g58
g59
NtRp2454
(dp2455
g62
(dp2456
g70
I4
ssg71
g2450
sg64
(lp2457
g57
(g66
g59
NtRp2458
(dp2459
g62
(dp2460
g70
I3
ssg71
Nsg64
(lp2461
g57
(g73
g59
NtRp2462
(dp2463
g62
(dp2464
sg71
g2458
sg64
(lp2465
g57
(g78
g59
NtRp2466
(dp2467
g62
(dp2468
g82
g83
ssg71
g2462
sg64
(lp2469
S'HTTP_ACCEPT'
p2470
asbag57
(g78
g59
NtRp2471
(dp2472
g62
(dp2473
g89
g90
ssg71
g2462
sg64
(lp2474
S':'
asbag57
(g78
g59
NtRp2475
(dp2476
g62
(dp2477
sg71
g2462
sg64
(lp2478
g57
(g58
g59
NtRp2479
(dp2480
g62
(dp2481
g70
I3
ssg71
g2475
sg64
(lp2482
g843
asbasbasbag57
(g73
g59
NtRp2483
(dp2484
g62
(dp2485
sg71
g2458
sg64
(lp2486
g57
(g78
g59
NtRp2487
(dp2488
g62
(dp2489
g82
g83
ssg71
g2483
sg64
(lp2490
S'HTTP_ACCEPT_CHARSET'
p2491
asbag57
(g78
g59
NtRp2492
(dp2493
g62
(dp2494
g89
g90
ssg71
g2483
sg64
(lp2495
S':'
asbag57
(g78
g59
NtRp2496
(dp2497
g62
(dp2498
sg71
g2483
sg64
(lp2499
g57
(g58
g59
NtRp2500
(dp2501
g62
(dp2502
g70
I3
ssg71
g2496
sg64
(lp2503
g865
asbasbasbag57
(g73
g59
NtRp2504
(dp2505
g62
(dp2506
sg71
g2458
sg64
(lp2507
g57
(g78
g59
NtRp2508
(dp2509
g62
(dp2510
g82
g83
ssg71
g2504
sg64
(lp2511
S'HTTP_ACCEPT_ENCODING'
p2512
asbag57
(g78
g59
NtRp2513
(dp2514
g62
(dp2515
g89
g90
ssg71
g2504
sg64
(lp2516
S':'
asbag57
(g78
g59
NtRp2517
(dp2518
g62
(dp2519
sg71
g2504
sg64
(lp2520
g57
(g58
g59
NtRp2521
(dp2522
g62
(dp2523
g70
I3
ssg71
g2517
sg64
(lp2524
g887
asbasbasbag57
(g73
g59
NtRp2525
(dp2526
g62
(dp2527
sg71
g2458
sg64
(lp2528
g57
(g78
g59
NtRp2529
(dp2530
g62
(dp2531
g82
g83
ssg71
g2525
sg64
(lp2532
S'HTTP_ACCEPT_LANGUAGE'
p2533
asbag57
(g78
g59
NtRp2534
(dp2535
g62
(dp2536
g89
g90
ssg71
g2525
sg64
(lp2537
S':'
asbag57
(g78
g59
NtRp2538
(dp2539
g62
(dp2540
sg71
g2525
sg64
(lp2541
g57
(g58
g59
NtRp2542
(dp2543
g62
(dp2544
g70
I3
ssg71
g2538
sg64
(lp2545
g909
asbasbasbag57
(g73
g59
NtRp2546
(dp2547
g62
(dp2548
sg71
g2458
sg64
(lp2549
g57
(g78
g59
NtRp2550
(dp2551
g62
(dp2552
g82
g83
ssg71
g2546
sg64
(lp2553
S'HTTP_CONNECTION'
p2554
asbag57
(g78
g59
NtRp2555
(dp2556
g62
(dp2557
g89
g90
ssg71
g2546
sg64
(lp2558
S':'
asbag57
(g78
g59
NtRp2559
(dp2560
g62
(dp2561
sg71
g2546
sg64
(lp2562
g57
(g58
g59
NtRp2563
(dp2564
g62
(dp2565
g70
I3
ssg71
g2559
sg64
(lp2566
g931
asbasbasbag57
(g73
g59
NtRp2567
(dp2568
g62
(dp2569
sg71
g2458
sg64
(lp2570
g57
(g78
g59
NtRp2571
(dp2572
g62
(dp2573
g82
g83
ssg71
g2567
sg64
(lp2574
S'HTTP_COOKIE'
p2575
asbag57
(g78
g59
NtRp2576
(dp2577
g62
(dp2578
g89
g90
ssg71
g2567
sg64
(lp2579
S':'
asbag57
(g78
g59
NtRp2580
(dp2581
g62
(dp2582
sg71
g2567
sg64
(lp2583
g57
(g58
g59
NtRp2584
(dp2585
g62
(dp2586
g70
I3
ssg71
g2580
sg64
(lp2587
g953
asbasbasbag57
(g73
g59
NtRp2588
(dp2589
g62
(dp2590
sg71
g2458
sg64
(lp2591
g57
(g78
g59
NtRp2592
(dp2593
g62
(dp2594
g82
g83
ssg71
g2588
sg64
(lp2595
S'HTTP_HOST'
p2596
asbag57
(g78
g59
NtRp2597
(dp2598
g62
(dp2599
g89
g90
ssg71
g2588
sg64
(lp2600
S':'
asbag57
(g78
g59
NtRp2601
(dp2602
g62
(dp2603
sg71
g2588
sg64
(lp2604
g57
(g58
g59
NtRp2605
(dp2606
g62
(dp2607
g70
I3
ssg71
g2601
sg64
(lp2608
g975
asbasbasbag57
(g73
g59
NtRp2609
(dp2610
g62
(dp2611
sg71
g2458
sg64
(lp2612
g57
(g78
g59
NtRp2613
(dp2614
g62
(dp2615
g82
g83
ssg71
g2609
sg64
(lp2616
S'HTTP_REFERER'
p2617
asbag57
(g78
g59
NtRp2618
(dp2619
g62
(dp2620
g89
g90
ssg71
g2609
sg64
(lp2621
S':'
asbag57
(g78
g59
NtRp2622
(dp2623
g62
(dp2624
sg71
g2609
sg64
(lp2625
g57
(g58
g59
NtRp2626
(dp2627
g62
(dp2628
g70
I3
ssg71
g2622
sg64
(lp2629
g997
asbasbasbag57
(g73
g59
NtRp2630
(dp2631
g62
(dp2632
sg71
g2458
sg64
(lp2633
g57
(g78
g59
NtRp2634
(dp2635
g62
(dp2636
g82
g83
ssg71
g2630
sg64
(lp2637
S'HTTP_USER_AGENT'
p2638
asbag57
(g78
g59
NtRp2639
(dp2640
g62
(dp2641
g89
g90
ssg71
g2630
sg64
(lp2642
S':'
asbag57
(g78
g59
NtRp2643
(dp2644
g62
(dp2645
sg71
g2630
sg64
(lp2646
g57
(g58
g59
NtRp2647
(dp2648
g62
(dp2649
g70
I3
ssg71
g2643
sg64
(lp2650
g1019
asbasbasbag57
(g73
g59
NtRp2651
(dp2652
g62
(dp2653
sg71
g2458
sg64
(lp2654
g57
(g78
g59
NtRp2655
(dp2656
g62
(dp2657
g82
g83
ssg71
g2651
sg64
(lp2658
S'PATH_INFO'
p2659
asbag57
(g78
g59
NtRp2660
(dp2661
g62
(dp2662
g89
g90
ssg71
g2651
sg64
(lp2663
S':'
asbag57
(g78
g59
NtRp2664
(dp2665
g62
(dp2666
sg71
g2651
sg64
(lp2667
g57
(g58
g59
NtRp2668
(dp2669
g62
(dp2670
g70
I3
ssg71
g2664
sg64
(lp2671
g1173
asbasbasbag57
(g73
g59
NtRp2672
(dp2673
g62
(dp2674
sg71
g2458
sg64
(lp2675
g57
(g78
g59
NtRp2676
(dp2677
g62
(dp2678
g82
g83
ssg71
g2672
sg64
(lp2679
S'QUERY_STRING'
p2680
asbag57
(g78
g59
NtRp2681
(dp2682
g62
(dp2683
g89
g90
ssg71
g2672
sg64
(lp2684
S':'
asbag57
(g78
g59
NtRp2685
(dp2686
g62
(dp2687
sg71
g2672
sg64
(lp2688
g57
(g58
g59
NtRp2689
(dp2690
g62
(dp2691
g70
I3
ssg71
g2685
sg64
(lp2692
S''
asbasbasbag57
(g73
g59
NtRp2693
(dp2694
g62
(dp2695
sg71
g2458
sg64
(lp2696
g57
(g78
g59
NtRp2697
(dp2698
g62
(dp2699
g82
g83
ssg71
g2693
sg64
(lp2700
S'REMOTE_ADDR'
p2701
asbag57
(g78
g59
NtRp2702
(dp2703
g62
(dp2704
g89
g90
ssg71
g2693
sg64
(lp2705
S':'
asbag57
(g78
g59
NtRp2706
(dp2707
g62
(dp2708
sg71
g2693
sg64
(lp2709
g57
(g58
g59
NtRp2710
(dp2711
g62
(dp2712
g70
I3
ssg71
g2706
sg64
(lp2713
g212
asbasbasbag57
(g73
g59
NtRp2714
(dp2715
g62
(dp2716
sg71
g2458
sg64
(lp2717
g57
(g78
g59
NtRp2718
(dp2719
g62
(dp2720
g82
g83
ssg71
g2714
sg64
(lp2721
S'REMOTE_PORT'
p2722
asbag57
(g78
g59
NtRp2723
(dp2724
g62
(dp2725
g89
g90
ssg71
g2714
sg64
(lp2726
S':'
asbag57
(g78
g59
NtRp2727
(dp2728
g62
(dp2729
sg71
g2714
sg64
(lp2730
g57
(g58
g59
NtRp2731
(dp2732
g62
(dp2733
g70
I3
ssg71
g2727
sg64
(lp2734
g1237
asbasbasbag57
(g73
g59
NtRp2735
(dp2736
g62
(dp2737
sg71
g2458
sg64
(lp2738
g57
(g78
g59
NtRp2739
(dp2740
g62
(dp2741
g82
g83
ssg71
g2735
sg64
(lp2742
S'REQUEST_METHOD'
p2743
asbag57
(g78
g59
NtRp2744
(dp2745
g62
(dp2746
g89
g90
ssg71
g2735
sg64
(lp2747
S':'
asbag57
(g78
g59
NtRp2748
(dp2749
g62
(dp2750
sg71
g2735
sg64
(lp2751
g57
(g58
g59
NtRp2752
(dp2753
g62
(dp2754
g70
I3
ssg71
g2748
sg64
(lp2755
g1259
asbasbasbag57
(g73
g59
NtRp2756
(dp2757
g62
(dp2758
sg71
g2458
sg64
(lp2759
g57
(g78
g59
NtRp2760
(dp2761
g62
(dp2762
g82
g83
ssg71
g2756
sg64
(lp2763
S'REQUEST_URI'
p2764
asbag57
(g78
g59
NtRp2765
(dp2766
g62
(dp2767
g89
g90
ssg71
g2756
sg64
(lp2768
S':'
asbag57
(g78
g59
NtRp2769
(dp2770
g62
(dp2771
sg71
g2756
sg64
(lp2772
g57
(g58
g59
NtRp2773
(dp2774
g62
(dp2775
g70
I3
ssg71
g2769
sg64
(lp2776
g1173
asbasbasbag57
(g73
g59
NtRp2777
(dp2778
g62
(dp2779
sg71
g2458
sg64
(lp2780
g57
(g78
g59
NtRp2781
(dp2782
g62
(dp2783
g82
g83
ssg71
g2777
sg64
(lp2784
S'SCRIPT_NAME'
p2785
asbag57
(g78
g59
NtRp2786
(dp2787
g62
(dp2788
g89
g90
ssg71
g2777
sg64
(lp2789
S':'
asbag57
(g78
g59
NtRp2790
(dp2791
g62
(dp2792
sg71
g2777
sg64
(lp2793
g57
(g58
g59
NtRp2794
(dp2795
g62
(dp2796
g70
I3
ssg71
g2790
sg64
(lp2797
S''
asbasbasbag57
(g73
g59
NtRp2798
(dp2799
g62
(dp2800
sg71
g2458
sg64
(lp2801
g57
(g78
g59
NtRp2802
(dp2803
g62
(dp2804
g82
g83
ssg71
g2798
sg64
(lp2805
S'SERVER_NAME'
p2806
asbag57
(g78
g59
NtRp2807
(dp2808
g62
(dp2809
g89
g90
ssg71
g2798
sg64
(lp2810
S':'
asbag57
(g78
g59
NtRp2811
(dp2812
g62
(dp2813
sg71
g2798
sg64
(lp2814
g57
(g58
g59
NtRp2815
(dp2816
g62
(dp2817
g70
I3
ssg71
g2811
sg64
(lp2818
g1138
asbasbasbag57
(g73
g59
NtRp2819
(dp2820
g62
(dp2821
sg71
g2458
sg64
(lp2822
g57
(g78
g59
NtRp2823
(dp2824
g62
(dp2825
g82
g83
ssg71
g2819
sg64
(lp2826
S'SERVER_PORT'
p2827
asbag57
(g78
g59
NtRp2828
(dp2829
g62
(dp2830
g89
g90
ssg71
g2819
sg64
(lp2831
S':'
asbag57
(g78
g59
NtRp2832
(dp2833
g62
(dp2834
sg71
g2819
sg64
(lp2835
g57
(g58
g59
NtRp2836
(dp2837
g62
(dp2838
g70
I3
ssg71
g2832
sg64
(lp2839
g1344
asbasbasbag57
(g73
g59
NtRp2840
(dp2841
g62
(dp2842
sg71
g2458
sg64
(lp2843
g57
(g78
g59
NtRp2844
(dp2845
g62
(dp2846
g82
g83
ssg71
g2840
sg64
(lp2847
S'SERVER_PROTOCOL'
p2848
asbag57
(g78
g59
NtRp2849
(dp2850
g62
(dp2851
g89
g90
ssg71
g2840
sg64
(lp2852
S':'
asbag57
(g78
g59
NtRp2853
(dp2854
g62
(dp2855
sg71
g2840
sg64
(lp2856
g57
(g58
g59
NtRp2857
(dp2858
g62
(dp2859
g70
I3
ssg71
g2853
sg64
(lp2860
g1366
asbasbasbag57
(g73
g59
NtRp2861
(dp2862
g62
(dp2863
sg71
g2458
sg64
(lp2864
g57
(g78
g59
NtRp2865
(dp2866
g62
(dp2867
g82
g83
ssg71
g2861
sg64
(lp2868
S'SERVER_SOFTWARE'
p2869
asbag57
(g78
g59
NtRp2870
(dp2871
g62
(dp2872
g89
g90
ssg71
g2861
sg64
(lp2873
S':'
asbag57
(g78
g59
NtRp2874
(dp2875
g62
(dp2876
sg71
g2861
sg64
(lp2877
g57
(g58
g59
NtRp2878
(dp2879
g62
(dp2880
g70
I3
ssg71
g2874
sg64
(lp2881
g1388
asbasbasbag57
(g73
g59
NtRp2882
(dp2883
g62
(dp2884
sg71
g2458
sg64
(lp2885
g57
(g78
g59
NtRp2886
(dp2887
g62
(dp2888
g82
g83
ssg71
g2882
sg64
(lp2889
S'wsgi.errors'
p2890
asbag57
(g78
g59
NtRp2891
(dp2892
g62
(dp2893
g89
g90
ssg71
g2882
sg64
(lp2894
S':'
asbag57
(g78
g59
NtRp2895
(dp2896
g62
(dp2897
sg71
g2882
sg64
(lp2898
g57
(g58
g59
NtRp2899
(dp2900
g62
(dp2901
g70
I3
ssg71
g2895
sg64
(lp2902
S"<open file '<stderr>', mode 'w' at 0x00A850D0>"
p2903
asbasbasbag57
(g73
g59
NtRp2904
(dp2905
g62
(dp2906
sg71
g2458
sg64
(lp2907
g57
(g78
g59
NtRp2908
(dp2909
g62
(dp2910
g82
g83
ssg71
g2904
sg64
(lp2911
S'wsgi.file_wrapper'
p2912
asbag57
(g78
g59
NtRp2913
(dp2914
g62
(dp2915
g89
g90
ssg71
g2904
sg64
(lp2916
S':'
asbag57
(g78
g59
NtRp2917
(dp2918
g62
(dp2919
sg71
g2904
sg64
(lp2920
g57
(g58
g59
NtRp2921
(dp2922
g62
(dp2923
g70
I3
ssg71
g2917
sg64
(lp2924
S'<class wsgiref.util.FileWrapper at 0x0172EE68>'
p2925
asbasbasbag57
(g73
g59
NtRp2926
(dp2927
g62
(dp2928
sg71
g2458
sg64
(lp2929
g57
(g78
g59
NtRp2930
(dp2931
g62
(dp2932
g82
g83
ssg71
g2926
sg64
(lp2933
S'wsgi.input'
p2934
asbag57
(g78
g59
NtRp2935
(dp2936
g62
(dp2937
g89
g90
ssg71
g2926
sg64
(lp2938
S':'
asbag57
(g78
g59
NtRp2939
(dp2940
g62
(dp2941
sg71
g2926
sg64
(lp2942
g57
(g58
g59
NtRp2943
(dp2944
g62
(dp2945
g70
I3
ssg71
g2939
sg64
(lp2946
S'<cStringIO.StringO object at 0x098D9840>'
p2947
asbasbasbag57
(g73
g59
NtRp2948
(dp2949
g62
(dp2950
sg71
g2458
sg64
(lp2951
g57
(g78
g59
NtRp2952
(dp2953
g62
(dp2954
g82
g83
ssg71
g2948
sg64
(lp2955
S'wsgi.multiprocess'
p2956
asbag57
(g78
g59
NtRp2957
(dp2958
g62
(dp2959
g89
g90
ssg71
g2948
sg64
(lp2960
S':'
asbag57
(g78
g59
NtRp2961
(dp2962
g62
(dp2963
sg71
g2948
sg64
(lp2964
g57
(g58
g59
NtRp2965
(dp2966
g62
(dp2967
g70
I3
ssg71
g2961
sg64
(lp2968
g100
asbasbasbag57
(g73
g59
NtRp2969
(dp2970
g62
(dp2971
sg71
g2458
sg64
(lp2972
g57
(g78
g59
NtRp2973
(dp2974
g62
(dp2975
g82
g83
ssg71
g2969
sg64
(lp2976
S'wsgi.multithread'
p2977
asbag57
(g78
g59
NtRp2978
(dp2979
g62
(dp2980
g89
g90
ssg71
g2969
sg64
(lp2981
S':'
asbag57
(g78
g59
NtRp2982
(dp2983
g62
(dp2984
sg71
g2969
sg64
(lp2985
g57
(g58
g59
NtRp2986
(dp2987
g62
(dp2988
g70
I3
ssg71
g2982
sg64
(lp2989
g799
asbasbasbag57
(g73
g59
NtRp2990
(dp2991
g62
(dp2992
sg71
g2458
sg64
(lp2993
g57
(g78
g59
NtRp2994
(dp2995
g62
(dp2996
g82
g83
ssg71
g2990
sg64
(lp2997
S'wsgi.run_once'
p2998
asbag57
(g78
g59
NtRp2999
(dp3000
g62
(dp3001
g89
g90
ssg71
g2990
sg64
(lp3002
S':'
asbag57
(g78
g59
NtRp3003
(dp3004
g62
(dp3005
sg71
g2990
sg64
(lp3006
g57
(g58
g59
NtRp3007
(dp3008
g62
(dp3009
g70
I3
ssg71
g3003
sg64
(lp3010
g100
asbasbasbag57
(g73
g59
NtRp3011
(dp3012
g62
(dp3013
sg71
g2458
sg64
(lp3014
g57
(g78
g59
NtRp3015
(dp3016
g62
(dp3017
g82
g83
ssg71
g3011
sg64
(lp3018
S'wsgi.url_scheme'
p3019
asbag57
(g78
g59
NtRp3020
(dp3021
g62
(dp3022
g89
g90
ssg71
g3011
sg64
(lp3023
S':'
asbag57
(g78
g59
NtRp3024
(dp3025
g62
(dp3026
sg71
g3011
sg64
(lp3027
g57
(g58
g59
NtRp3028
(dp3029
g62
(dp3030
g70
I3
ssg71
g3024
sg64
(lp3031
g1647
asbasbasbag57
(g73
g59
NtRp3032
(dp3033
g62
(dp3034
sg71
g2458
sg64
(lp3035
g57
(g78
g59
NtRp3036
(dp3037
g62
(dp3038
g82
g83
ssg71
g3032
sg64
(lp3039
S'wsgi.version'
p3040
asbag57
(g78
g59
NtRp3041
(dp3042
g62
(dp3043
g89
g90
ssg71
g3032
sg64
(lp3044
S':'
asbag57
(g78
g59
NtRp3045
(dp3046
g62
(dp3047
sg71
g3032
sg64
(lp3048
g57
(g58
g59
NtRp3049
(dp3050
g62
(dp3051
g70
I3
ssg71
g3045
sg64
(lp3052
S'1'
asbasbasbasbasbasbasbasbasbasbasbasbasbsS'frames'
p3053
(lp3054
(dp3055
S'file'
p3056
S'D:\\web2py\\source\\web2py\\gluon\\restricted.py'
p3057
sS'dump'
p3058
(dp3059
S'environment'
p3060
S"{'A': <class 'gluon.html.A'>, 'Auth': <class 'gluon.tools.Auth'>, 'B': <class 'gluon.html.B'>, 'BEAUTIFY': <class 'gluon.html.BEAUTIFY'>, 'BODY': <class 'gluon.html.BODY'>, 'BR': <class 'gluon.html.BR'>, 'BUTTON': <class 'gluon.html.BUTTON'>, 'CAT': <class 'gluon.html.CAT'>, 'CENTER': <class 'gluon.html.CENTER'>, 'CLEANUP': <class 'gluon.validators.CLEANUP'>, ...}"
p3061
sS'ccode'
p3062
S'<code object <module> at 04B7AD58, file "D:\\web2...dashboard\\views\\charts/user_charts.html", line 1>'
p3063
ssS'lnum'
p3064
I212
sS'lines'
p3065
(dp3066
I207
S'    try:'
p3067
sI208
S'        if isinstance(code, types.CodeType):'
p3068
sI209
S'            ccode = code'
p3069
sI210
S'        else:'
p3070
sI211
S'            ccode = compile2(code, layer)'
p3071
sI212
S'        exec ccode in environment'
p3072
sI213
S'    except HTTP:'
p3073
sI214
S'        raise'
p3074
sI215
S'    except RestrictedError:'
p3075
sI216
S'        # do not encapsulate (obfuscate) the original RestrictedError'
p3076
ssS'call'
p3077
S'(code=\'response.write(\\\'<!DOCTYPE html>\\\\n<!-- paulirish...."></script>\\\\n</body>\\\\n</html>\\\\n\\\\n\\\', escape=False)\', environment={\'A\': <class \'gluon.html.A\'>, \'Auth\': <class \'gluon.tools.Auth\'>, \'B\': <class \'gluon.html.B\'>, \'BEAUTIFY\': <class \'gluon.html.BEAUTIFY\'>, \'BODY\': <class \'gluon.html.BODY\'>, \'BR\': <class \'gluon.html.BR\'>, \'BUTTON\': <class \'gluon.html.BUTTON\'>, \'CAT\': <class \'gluon.html.CAT\'>, \'CENTER\': <class \'gluon.html.CENTER\'>, \'CLEANUP\': <class \'gluon.validators.CLEANUP\'>, ...}, layer=r\'D:\\web2py\\source\\web2py\\applications\\web2py_xlchart_dashboard\\views\\charts/user_charts.html\')'
p3078
sS'func'
p3079
S'restricted'
p3080
sa(dp3081
g3056
S'D:\\web2py\\source\\web2py\\applications\\web2py_xlchart_dashboard\\views\\charts\\user_charts.html'
p3082
sg3058
(dp3083
S'Available'
p3084
S'undefined'
p3085
sS'Charts'
p3086
g3085
sS'h4'
p3087
g3085
ssg3064
I83
sg3065
(dp3088
I74
S'response.write(\'\\n\\n        <div class="\', escape=False)'
p3089
sI75
S'response.write(middle_columns)'
p3090
sI76
S'response.write(\'">\\n            \', escape=False)'
p3091
sI77
S"response.write('\\n            ', escape=False)"
p3092
sI78
S'response.write(\'\\r\\n    <style>\\r\\n        \\r\\n      \\r\\n        \\r\\n    #usercharts{\\r\\n        float: left;\\r\\n        width: 200px;\\r\\n        margin-right: 50px\\r\\n        border-right-size: 1pt;\\r\\n        border-right-style: solid;\\r\\n        border-right-color: #000000;    \\r\\n    }\\r\\n    #allcharts{\\r\\n        margin-left: 50px;\\r\\n        float:left;\\r\\n    }\\r\\n    .chartholder{\\r\\n      clear:both;\\r\\n      vertical-align:middle;  \\r\\n    }\\r\\n    .chartimage{\\r\\n        float:left;\\r\\n        margin: 5px;\\r\\n    }\\r\\n    .userimage{\\r\\n            position:relative;\\r\\n            width:100%;\\r\\n        \\tmargin: 5px;\\r\\n    }\\r\\n    \\r\\n    .userimage .usermsg{\\r\\n            position: absolute; \\r\\n   \\t\\t\\ttop: 1px; \\r\\n   \\t\\t\\tleft: 1px; \\r\\n            font-size: 8pt;\\r\\n            font-color:#000000;\\r\\n            background-color:#ffffff;        \\r\\n    }        \\r\\n    \\r\\n    \\r\\n    .charttext{\\r\\n           \\r\\n        float:left;\\r\\n        vertical-align:middle;\\r\\n        font-size: 8pt;\\r\\n        \\r\\n    }\\r\\n   \\r\\n    .subscribe_form textarea{\\r\\n        width:150px;\\r\\n        height:75px;\\r\\n    }\\r\\n    \\r\\n    #user_chart_title{\\r\\n        width:150px;\\r\\n    }\\r\\n    \\r\\n    .subscribed{\\r\\n        background-color:#00ff00;\\r\\n        font-weight: bold;\\r\\n    }\\r\\n    \\r\\n</style>\\r\\n\\r\\n<h2>Manage my charts</h2>\\r\\n<div id="usercharts">\\r\\n    <h4>My Charts</h4>\\r\\n    \', escape=False)'
p3093
sI79
S'for chart in mycharts:'
p3094
sI80
S'    response.write(\'\\r\\n    <div class="chartholder">\\r\\n    \\t<div class="userimage">\\r\\n    \\t\\t\', escape=False)'
p3095
sI81
S"    response.write(IMG(_src=URL('download',args=chart.id_chart.file),_width='150px'))"
p3096
sI82
S'    response.write(\'<BR>\\r\\n            <span class="usermsg">\', escape=False)'
p3097
sI83
S"    response.write(A('Un-Subscribe',_href=URL('subscribe_form',vars={'id_chart': chart.id}), cid=str(chart.chartName).replace('.','_')))"
p3098
sI84
S'    response.write(\'</span>\\r\\n        </div>\\r\\n        <div class="usertext">\\r\\n            \\r\\n        </div>\\r\\n    </div>\\r\\n\\t\', escape=False)'
p3099
sI85
S'    pass'
p3100
sI86
S'response.write(\'\\r\\n</div>\\r\\n\\r\\n<div id="allcharts">\\r\\n    <h4>Available Charts</h4>\\r\\n    \', escape=False)'
p3101
sI87
S'for chart in allcharts:'
p3102
sI88
S'    response.write(\'\\r\\n    <div class="chartholder">\\r\\n    \\t<div class="chartimage">\\r\\n    \\t\\t\', escape=False)'
p3103
sI89
S"    response.write(IMG(_src=URL('download',args=chart.file),_width='150px'))"
p3104
sI90
S'    response.write(\'<BR>\\r\\n        </div>\\r\\n        <div class="charttext">\\r\\n            Workbook: \', escape=False)'
p3105
sI91
S'    response.write(chart.id_workbook.title)'
p3106
sI92
S"    response.write('<BR>\\r\\n            Sheet: ', escape=False)"
p3107
sI93
S'    response.write(chart.worksheet)'
p3108
ssg3077
S'()'
p3109
sg3079
S'<module>'
p3110
sasS'pyver'
p3111
S'Python 2.7: d:\\python27\\python.exe'
p3112
sS'session'
p3113
g57
(g58
g59
NtRp3114
(dp3115
g62
(dp3116
sg64
(lp3117
g57
(g66
g59
NtRp3118
(dp3119
g62
(dp3120
g70
I5
ssg71
Nsg64
(lp3121
g57
(g73
g59
NtRp3122
(dp3123
g62
(dp3124
sg71
g3118
sg64
(lp3125
g57
(g78
g59
NtRp3126
(dp3127
g62
(dp3128
g82
g83
ssg71
g3122
sg64
(lp3129
S'auth'
p3130
asbag57
(g78
g59
NtRp3131
(dp3132
g62
(dp3133
g89
g90
ssg71
g3122
sg64
(lp3134
S':'
asbag57
(g78
g59
NtRp3135
(dp3136
g62
(dp3137
sg71
g3122
sg64
(lp3138
g57
(g58
g59
NtRp3139
(dp3140
g62
(dp3141
g70
I5
ssg71
g3135
sg64
(lp3142
g57
(g66
g59
NtRp3143
(dp3144
g62
(dp3145
g70
I4
ssg71
Nsg64
(lp3146
g57
(g73
g59
NtRp3147
(dp3148
g62
(dp3149
sg71
g3143
sg64
(lp3150
g57
(g78
g59
NtRp3151
(dp3152
g62
(dp3153
g82
g83
ssg71
g3147
sg64
(lp3154
S'expiration'
p3155
asbag57
(g78
g59
NtRp3156
(dp3157
g62
(dp3158
g89
g90
ssg71
g3147
sg64
(lp3159
S':'
asbag57
(g78
g59
NtRp3160
(dp3161
g62
(dp3162
sg71
g3147
sg64
(lp3163
g57
(g58
g59
NtRp3164
(dp3165
g62
(dp3166
g70
I4
ssg71
g3160
sg64
(lp3167
S'3600'
p3168
asbasbasbag57
(g73
g59
NtRp3169
(dp3170
g62
(dp3171
sg71
g3143
sg64
(lp3172
g57
(g78
g59
NtRp3173
(dp3174
g62
(dp3175
g82
g83
ssg71
g3169
sg64
(lp3176
S'hmac_key'
p3177
asbag57
(g78
g59
NtRp3178
(dp3179
g62
(dp3180
g89
g90
ssg71
g3169
sg64
(lp3181
S':'
asbag57
(g78
g59
NtRp3182
(dp3183
g62
(dp3184
sg71
g3169
sg64
(lp3185
g57
(g58
g59
NtRp3186
(dp3187
g62
(dp3188
g70
I4
ssg71
g3182
sg64
(lp3189
S'90f69819-14fb-4250-bb73-f371432c09f3'
p3190
asbasbasbag57
(g73
g59
NtRp3191
(dp3192
g62
(dp3193
sg71
g3143
sg64
(lp3194
g57
(g78
g59
NtRp3195
(dp3196
g62
(dp3197
g82
g83
ssg71
g3191
sg64
(lp3198
S'last_visit'
p3199
asbag57
(g78
g59
NtRp3200
(dp3201
g62
(dp3202
g89
g90
ssg71
g3191
sg64
(lp3203
S':'
asbag57
(g78
g59
NtRp3204
(dp3205
g62
(dp3206
sg71
g3191
sg64
(lp3207
g57
(g58
g59
NtRp3208
(dp3209
g62
(dp3210
g70
I4
ssg71
g3204
sg64
(lp3211
S'datetime.datetime(2012, 11, 8, 11, 5, 19, 953000)'
p3212
asbasbasbag57
(g73
g59
NtRp3213
(dp3214
g62
(dp3215
sg71
g3143
sg64
(lp3216
g57
(g78
g59
NtRp3217
(dp3218
g62
(dp3219
g82
g83
ssg71
g3213
sg64
(lp3220
S'remember'
p3221
asbag57
(g78
g59
NtRp3222
(dp3223
g62
(dp3224
g89
g90
ssg71
g3213
sg64
(lp3225
S':'
asbag57
(g78
g59
NtRp3226
(dp3227
g62
(dp3228
sg71
g3213
sg64
(lp3229
g57
(g58
g59
NtRp3230
(dp3231
g62
(dp3232
g70
I4
ssg71
g3226
sg64
(lp3233
g100
asbasbasbag57
(g73
g59
NtRp3234
(dp3235
g62
(dp3236
sg71
g3143
sg64
(lp3237
g57
(g78
g59
NtRp3238
(dp3239
g62
(dp3240
g82
g83
ssg71
g3234
sg64
(lp3241
S'user'
p3242
asbag57
(g78
g59
NtRp3243
(dp3244
g62
(dp3245
g89
g90
ssg71
g3234
sg64
(lp3246
S':'
asbag57
(g78
g59
NtRp3247
(dp3248
g62
(dp3249
sg71
g3234
sg64
(lp3250
g57
(g58
g59
NtRp3251
(dp3252
g62
(dp3253
g70
I4
ssg71
g3247
sg64
(lp3254
g57
(g66
g59
NtRp3255
(dp3256
g62
(dp3257
g70
I3
ssg71
Nsg64
(lp3258
g57
(g73
g59
NtRp3259
(dp3260
g62
(dp3261
sg71
g3255
sg64
(lp3262
g57
(g78
g59
NtRp3263
(dp3264
g62
(dp3265
g82
g83
ssg71
g3259
sg64
(lp3266
S'email'
p3267
asbag57
(g78
g59
NtRp3268
(dp3269
g62
(dp3270
g89
g90
ssg71
g3259
sg64
(lp3271
S':'
asbag57
(g78
g59
NtRp3272
(dp3273
g62
(dp3274
sg71
g3259
sg64
(lp3275
g57
(g58
g59
NtRp3276
(dp3277
g62
(dp3278
g70
I3
ssg71
g3272
sg64
(lp3279
S'simon.carr2@baesystems.com'
p3280
asbasbasbag57
(g73
g59
NtRp3281
(dp3282
g62
(dp3283
sg71
g3255
sg64
(lp3284
g57
(g78
g59
NtRp3285
(dp3286
g62
(dp3287
g82
g83
ssg71
g3281
sg64
(lp3288
S'first_name'
p3289
asbag57
(g78
g59
NtRp3290
(dp3291
g62
(dp3292
g89
g90
ssg71
g3281
sg64
(lp3293
S':'
asbag57
(g78
g59
NtRp3294
(dp3295
g62
(dp3296
sg71
g3281
sg64
(lp3297
g57
(g58
g59
NtRp3298
(dp3299
g62
(dp3300
g70
I3
ssg71
g3294
sg64
(lp3301
S'Simon'
p3302
asbasbasbag57
(g73
g59
NtRp3303
(dp3304
g62
(dp3305
sg71
g3255
sg64
(lp3306
g57
(g78
g59
NtRp3307
(dp3308
g62
(dp3309
g82
g83
ssg71
g3303
sg64
(lp3310
S'id'
p3311
asbag57
(g78
g59
NtRp3312
(dp3313
g62
(dp3314
g89
g90
ssg71
g3303
sg64
(lp3315
S':'
asbag57
(g78
g59
NtRp3316
(dp3317
g62
(dp3318
sg71
g3303
sg64
(lp3319
g57
(g58
g59
NtRp3320
(dp3321
g62
(dp3322
g70
I3
ssg71
g3316
sg64
(lp3323
S'1'
asbasbasbag57
(g73
g59
NtRp3324
(dp3325
g62
(dp3326
sg71
g3255
sg64
(lp3327
g57
(g78
g59
NtRp3328
(dp3329
g62
(dp3330
g82
g83
ssg71
g3324
sg64
(lp3331
S'last_name'
p3332
asbag57
(g78
g59
NtRp3333
(dp3334
g62
(dp3335
g89
g90
ssg71
g3324
sg64
(lp3336
S':'
asbag57
(g78
g59
NtRp3337
(dp3338
g62
(dp3339
sg71
g3324
sg64
(lp3340
g57
(g58
g59
NtRp3341
(dp3342
g62
(dp3343
g70
I3
ssg71
g3337
sg64
(lp3344
S'Carr'
p3345
asbasbasbag57
(g73
g59
NtRp3346
(dp3347
g62
(dp3348
sg71
g3255
sg64
(lp3349
g57
(g78
g59
NtRp3350
(dp3351
g62
(dp3352
g82
g83
ssg71
g3346
sg64
(lp3353
S'registration_id'
p3354
asbag57
(g78
g59
NtRp3355
(dp3356
g62
(dp3357
g89
g90
ssg71
g3346
sg64
(lp3358
S':'
asbag57
(g78
g59
NtRp3359
(dp3360
g62
(dp3361
sg71
g3346
sg64
(lp3362
g57
(g58
g59
NtRp3363
(dp3364
g62
(dp3365
g70
I3
ssg71
g3359
sg64
(lp3366
S''
asbasbasbag57
(g73
g59
NtRp3367
(dp3368
g62
(dp3369
sg71
g3255
sg64
(lp3370
g57
(g78
g59
NtRp3371
(dp3372
g62
(dp3373
g82
g83
ssg71
g3367
sg64
(lp3374
S'registration_key'
p3375
asbag57
(g78
g59
NtRp3376
(dp3377
g62
(dp3378
g89
g90
ssg71
g3367
sg64
(lp3379
S':'
asbag57
(g78
g59
NtRp3380
(dp3381
g62
(dp3382
sg71
g3367
sg64
(lp3383
g57
(g58
g59
NtRp3384
(dp3385
g62
(dp3386
g70
I3
ssg71
g3380
sg64
(lp3387
S''
asbasbasbag57
(g73
g59
NtRp3388
(dp3389
g62
(dp3390
sg71
g3255
sg64
(lp3391
g57
(g78
g59
NtRp3392
(dp3393
g62
(dp3394
g82
g83
ssg71
g3388
sg64
(lp3395
S'reset_password_key'
p3396
asbag57
(g78
g59
NtRp3397
(dp3398
g62
(dp3399
g89
g90
ssg71
g3388
sg64
(lp3400
S':'
asbag57
(g78
g59
NtRp3401
(dp3402
g62
(dp3403
sg71
g3388
sg64
(lp3404
g57
(g58
g59
NtRp3405
(dp3406
g62
(dp3407
g70
I3
ssg71
g3401
sg64
(lp3408
S''
asbasbasbasbasbasbasbag57
(g73
g59
NtRp3409
(dp3410
g62
(dp3411
sg71
g3143
sg64
(lp3412
g57
(g78
g59
NtRp3413
(dp3414
g62
(dp3415
g82
g83
ssg71
g3409
sg64
(lp3416
S'user_groups'
p3417
asbag57
(g78
g59
NtRp3418
(dp3419
g62
(dp3420
g89
g90
ssg71
g3409
sg64
(lp3421
S':'
asbag57
(g78
g59
NtRp3422
(dp3423
g62
(dp3424
sg71
g3409
sg64
(lp3425
g57
(g58
g59
NtRp3426
(dp3427
g62
(dp3428
g70
I4
ssg71
g3422
sg64
(lp3429
g57
(g66
g59
NtRp3430
(dp3431
g62
(dp3432
g70
I3
ssg71
Nsg64
(lp3433
g57
(g73
g59
NtRp3434
(dp3435
g62
(dp3436
sg71
g3430
sg64
(lp3437
g57
(g78
g59
NtRp3438
(dp3439
g62
(dp3440
g82
g83
ssg71
g3434
sg64
(lp3441
S'1'
asbag57
(g78
g59
NtRp3442
(dp3443
g62
(dp3444
g89
g90
ssg71
g3434
sg64
(lp3445
S':'
asbag57
(g78
g59
NtRp3446
(dp3447
g62
(dp3448
sg71
g3434
sg64
(lp3449
g57
(g58
g59
NtRp3450
(dp3451
g62
(dp3452
g70
I3
ssg71
g3446
sg64
(lp3453
S'user_1'
p3454
asbasbasbag57
(g73
g59
NtRp3455
(dp3456
g62
(dp3457
sg71
g3430
sg64
(lp3458
g57
(g78
g59
NtRp3459
(dp3460
g62
(dp3461
g82
g83
ssg71
g3455
sg64
(lp3462
S'2'
asbag57
(g78
g59
NtRp3463
(dp3464
g62
(dp3465
g89
g90
ssg71
g3455
sg64
(lp3466
S':'
asbag57
(g78
g59
NtRp3467
(dp3468
g62
(dp3469
sg71
g3455
sg64
(lp3470
g57
(g58
g59
NtRp3471
(dp3472
g62
(dp3473
g70
I3
ssg71
g3467
sg64
(lp3474
S'wiki_editor'
p3475
asbasbasbasbasbasbasbasbasbasbasbag57
(g73
g59
NtRp3476
(dp3477
g62
(dp3478
sg71
g3118
sg64
(lp3479
g57
(g78
g59
NtRp3480
(dp3481
g62
(dp3482
g82
g83
ssg71
g3476
sg64
(lp3483
S'flash'
p3484
asbag57
(g78
g59
NtRp3485
(dp3486
g62
(dp3487
g89
g90
ssg71
g3476
sg64
(lp3488
S':'
asbag57
(g78
g59
NtRp3489
(dp3490
g62
(dp3491
sg71
g3476
sg64
(lp3492
g57
(g58
g59
NtRp3493
(dp3494
g62
(dp3495
g70
I5
ssg71
g3489
sg64
(lp3496
S'None'
p3497
asbasbasbasbasbsS'etype'
p3498
S"<type 'exceptions.AttributeError'>"
p3499
sS'date'
p3500
S'Thu Nov 08 11:09:52 2012'
p3501
sS'response'
p3502
g57
(g58
g59
NtRp3503
(dp3504
g62
(dp3505
sg64
(lp3506
g57
(g66
g59
NtRp3507
(dp3508
g62
(dp3509
g70
I5
ssg71
Nsg64
(lp3510
g57
(g73
g59
NtRp3511
(dp3512
g62
(dp3513
sg71
g3507
sg64
(lp3514
g57
(g78
g59
NtRp3515
(dp3516
g62
(dp3517
g82
g83
ssg71
g3511
sg64
(lp3518
g155
asbag57
(g78
g59
NtRp3519
(dp3520
g62
(dp3521
g89
g90
ssg71
g3511
sg64
(lp3522
S':'
asbag57
(g78
g59
NtRp3523
(dp3524
g62
(dp3525
sg71
g3511
sg64
(lp3526
g57
(g58
g59
NtRp3527
(dp3528
g62
(dp3529
g70
I5
ssg71
g3523
sg64
(lp3530
S'<cStringIO.StringO object at 0x098D9CA0>'
p3531
asbasbasbag57
(g73
g59
NtRp3532
(dp3533
g62
(dp3534
sg71
g3507
sg64
(lp3535
g57
(g78
g59
NtRp3536
(dp3537
g62
(dp3538
g82
g83
ssg71
g3532
sg64
(lp3539
g243
asbag57
(g78
g59
NtRp3540
(dp3541
g62
(dp3542
g89
g90
ssg71
g3532
sg64
(lp3543
S':'
asbag57
(g78
g59
NtRp3544
(dp3545
g62
(dp3546
sg71
g3532
sg64
(lp3547
g57
(g58
g59
NtRp3548
(dp3549
g62
(dp3550
g70
I5
ssg71
g3544
sg64
(lp3551
g57
(g66
g59
NtRp3552
(dp3553
g62
(dp3554
g70
I4
ssg71
Nsg64
(lp3555
g57
(g73
g59
NtRp3556
(dp3557
g62
(dp3558
sg71
g3552
sg64
(lp3559
g57
(g78
g59
NtRp3560
(dp3561
g62
(dp3562
g82
g83
ssg71
g3556
sg64
(lp3563
S'session_id_web2py_xlchart_dashboard'
p3564
asbag57
(g78
g59
NtRp3565
(dp3566
g62
(dp3567
g89
g90
ssg71
g3556
sg64
(lp3568
S':'
asbag57
(g78
g59
NtRp3569
(dp3570
g62
(dp3571
sg71
g3556
sg64
(lp3572
g57
(g58
g59
NtRp3573
(dp3574
g62
(dp3575
g70
I4
ssg71
g3569
sg64
(lp3576
g475
ag57
(g66
g59
NtRp3577
(dp3578
g62
(dp3579
g70
I3
ssg71
Nsg64
(lp3580
g57
(g73
g59
NtRp3581
(dp3582
g62
(dp3583
sg71
g3577
sg64
(lp3584
g57
(g78
g59
NtRp3585
(dp3586
g62
(dp3587
g82
g83
ssg71
g3581
sg64
(lp3588
g294
asbag57
(g78
g59
NtRp3589
(dp3590
g62
(dp3591
g89
g90
ssg71
g3581
sg64
(lp3592
S':'
asbag57
(g78
g59
NtRp3593
(dp3594
g62
(dp3595
sg71
g3581
sg64
(lp3596
g57
(g58
g59
NtRp3597
(dp3598
g62
(dp3599
g70
I3
ssg71
g3593
sg64
(lp3600
S''
asbasbasbag57
(g73
g59
NtRp3601
(dp3602
g62
(dp3603
sg71
g3577
sg64
(lp3604
g57
(g78
g59
NtRp3605
(dp3606
g62
(dp3607
g82
g83
ssg71
g3601
sg64
(lp3608
g315
asbag57
(g78
g59
NtRp3609
(dp3610
g62
(dp3611
g89
g90
ssg71
g3601
sg64
(lp3612
S':'
asbag57
(g78
g59
NtRp3613
(dp3614
g62
(dp3615
sg71
g3601
sg64
(lp3616
g57
(g58
g59
NtRp3617
(dp3618
g62
(dp3619
g70
I3
ssg71
g3613
sg64
(lp3620
S''
asbasbasbag57
(g73
g59
NtRp3621
(dp3622
g62
(dp3623
sg71
g3577
sg64
(lp3624
g57
(g78
g59
NtRp3625
(dp3626
g62
(dp3627
g82
g83
ssg71
g3621
sg64
(lp3628
g336
asbag57
(g78
g59
NtRp3629
(dp3630
g62
(dp3631
g89
g90
ssg71
g3621
sg64
(lp3632
S':'
asbag57
(g78
g59
NtRp3633
(dp3634
g62
(dp3635
sg71
g3621
sg64
(lp3636
g57
(g58
g59
NtRp3637
(dp3638
g62
(dp3639
g70
I3
ssg71
g3633
sg64
(lp3640
S''
asbasbasbag57
(g73
g59
NtRp3641
(dp3642
g62
(dp3643
sg71
g3577
sg64
(lp3644
g57
(g78
g59
NtRp3645
(dp3646
g62
(dp3647
g82
g83
ssg71
g3641
sg64
(lp3648
g357
asbag57
(g78
g59
NtRp3649
(dp3650
g62
(dp3651
g89
g90
ssg71
g3641
sg64
(lp3652
S':'
asbag57
(g78
g59
NtRp3653
(dp3654
g62
(dp3655
sg71
g3641
sg64
(lp3656
g57
(g58
g59
NtRp3657
(dp3658
g62
(dp3659
g70
I3
ssg71
g3653
sg64
(lp3660
S''
asbasbasbag57
(g73
g59
NtRp3661
(dp3662
g62
(dp3663
sg71
g3577
sg64
(lp3664
g57
(g78
g59
NtRp3665
(dp3666
g62
(dp3667
g82
g83
ssg71
g3661
sg64
(lp3668
g378
asbag57
(g78
g59
NtRp3669
(dp3670
g62
(dp3671
g89
g90
ssg71
g3661
sg64
(lp3672
S':'
asbag57
(g78
g59
NtRp3673
(dp3674
g62
(dp3675
sg71
g3661
sg64
(lp3676
g57
(g58
g59
NtRp3677
(dp3678
g62
(dp3679
g70
I3
ssg71
g3673
sg64
(lp3680
S''
asbasbasbag57
(g73
g59
NtRp3681
(dp3682
g62
(dp3683
sg71
g3577
sg64
(lp3684
g57
(g78
g59
NtRp3685
(dp3686
g62
(dp3687
g82
g83
ssg71
g3681
sg64
(lp3688
g399
asbag57
(g78
g59
NtRp3689
(dp3690
g62
(dp3691
g89
g90
ssg71
g3681
sg64
(lp3692
S':'
asbag57
(g78
g59
NtRp3693
(dp3694
g62
(dp3695
sg71
g3681
sg64
(lp3696
g57
(g58
g59
NtRp3697
(dp3698
g62
(dp3699
g70
I3
ssg71
g3693
sg64
(lp3700
S'/'
asbasbasbag57
(g73
g59
NtRp3701
(dp3702
g62
(dp3703
sg71
g3577
sg64
(lp3704
g57
(g78
g59
NtRp3705
(dp3706
g62
(dp3707
g82
g83
ssg71
g3701
sg64
(lp3708
g420
asbag57
(g78
g59
NtRp3709
(dp3710
g62
(dp3711
g89
g90
ssg71
g3701
sg64
(lp3712
S':'
asbag57
(g78
g59
NtRp3713
(dp3714
g62
(dp3715
sg71
g3701
sg64
(lp3716
g57
(g58
g59
NtRp3717
(dp3718
g62
(dp3719
g70
I3
ssg71
g3713
sg64
(lp3720
S''
asbasbasbag57
(g73
g59
NtRp3721
(dp3722
g62
(dp3723
sg71
g3577
sg64
(lp3724
g57
(g78
g59
NtRp3725
(dp3726
g62
(dp3727
g82
g83
ssg71
g3721
sg64
(lp3728
g441
asbag57
(g78
g59
NtRp3729
(dp3730
g62
(dp3731
g89
g90
ssg71
g3721
sg64
(lp3732
S':'
asbag57
(g78
g59
NtRp3733
(dp3734
g62
(dp3735
sg71
g3721
sg64
(lp3736
g57
(g58
g59
NtRp3737
(dp3738
g62
(dp3739
g70
I3
ssg71
g3733
sg64
(lp3740
S''
asbasbasbasbasbasbasbasbasbasbasbag57
(g73
g59
NtRp3741
(dp3742
g62
(dp3743
sg71
g3507
sg64
(lp3744
g57
(g78
g59
NtRp3745
(dp3746
g62
(dp3747
g82
g83
ssg71
g3741
sg64
(lp3748
S'delimiters'
p3749
asbag57
(g78
g59
NtRp3750
(dp3751
g62
(dp3752
g89
g90
ssg71
g3741
sg64
(lp3753
S':'
asbag57
(g78
g59
NtRp3754
(dp3755
g62
(dp3756
sg71
g3741
sg64
(lp3757
g57
(g58
g59
NtRp3758
(dp3759
g62
(dp3760
g70
I5
ssg71
g3754
sg64
(lp3761
g57
(g66
g59
NtRp3762
(dp3763
g62
(dp3764
g70
I4
ssg71
Nsg64
(lp3765
g57
(g73
g59
NtRp3766
(dp3767
g62
(dp3768
sg71
g3762
sg64
(lp3769
g57
(g78
g59
NtRp3770
(dp3771
g62
(dp3772
sg71
g3766
sg64
(lp3773
g57
(g58
g59
NtRp3774
(dp3775
g62
(dp3776
g70
I4
ssg71
g3770
sg64
(lp3777
S'{{'
p3778
asbasbasbag57
(g73
g59
NtRp3779
(dp3780
g62
(dp3781
sg71
g3762
sg64
(lp3782
g57
(g78
g59
NtRp3783
(dp3784
g62
(dp3785
sg71
g3779
sg64
(lp3786
g57
(g58
g59
NtRp3787
(dp3788
g62
(dp3789
g70
I4
ssg71
g3783
sg64
(lp3790
S'}}'
p3791
asbasbasbasbasbasbasbag57
(g73
g59
NtRp3792
(dp3793
g62
(dp3794
sg71
g3507
sg64
(lp3795
g57
(g78
g59
NtRp3796
(dp3797
g62
(dp3798
g82
g83
ssg71
g3792
sg64
(lp3799
S'files'
p3800
asbag57
(g78
g59
NtRp3801
(dp3802
g62
(dp3803
g89
g90
ssg71
g3792
sg64
(lp3804
S':'
asbag57
(g78
g59
NtRp3805
(dp3806
g62
(dp3807
sg71
g3792
sg64
(lp3808
g57
(g58
g59
NtRp3809
(dp3810
g62
(dp3811
g70
I5
ssg71
g3805
sg64
(lp3812
g57
(g66
g59
NtRp3813
(dp3814
g62
(dp3815
g70
I4
ssg71
Nsg64
(lp3816
g57
(g73
g59
NtRp3817
(dp3818
g62
(dp3819
sg71
g3813
sg64
(lp3820
g57
(g78
g59
NtRp3821
(dp3822
g62
(dp3823
sg71
g3817
sg64
(lp3824
g57
(g58
g59
NtRp3825
(dp3826
g62
(dp3827
g70
I4
ssg71
g3821
sg64
(lp3828
S'/web2py_xlchart_dashboard/static/js/jquery.js'
p3829
asbasbasbag57
(g73
g59
NtRp3830
(dp3831
g62
(dp3832
sg71
g3813
sg64
(lp3833
g57
(g78
g59
NtRp3834
(dp3835
g62
(dp3836
sg71
g3830
sg64
(lp3837
g57
(g58
g59
NtRp3838
(dp3839
g62
(dp3840
g70
I4
ssg71
g3834
sg64
(lp3841
S'/web2py_xlchart_dashboard/static/css/calendar.css'
p3842
asbasbasbag57
(g73
g59
NtRp3843
(dp3844
g62
(dp3845
sg71
g3813
sg64
(lp3846
g57
(g78
g59
NtRp3847
(dp3848
g62
(dp3849
sg71
g3843
sg64
(lp3850
g57
(g58
g59
NtRp3851
(dp3852
g62
(dp3853
g70
I4
ssg71
g3847
sg64
(lp3854
S'/web2py_xlchart_dashboard/static/js/calendar.js'
p3855
asbasbasbag57
(g73
g59
NtRp3856
(dp3857
g62
(dp3858
sg71
g3813
sg64
(lp3859
g57
(g78
g59
NtRp3860
(dp3861
g62
(dp3862
sg71
g3856
sg64
(lp3863
g57
(g58
g59
NtRp3864
(dp3865
g62
(dp3866
g70
I4
ssg71
g3860
sg64
(lp3867
S'/web2py_xlchart_dashboard/static/js/web2py.js'
p3868
asbasbasbag57
(g73
g59
NtRp3869
(dp3870
g62
(dp3871
sg71
g3813
sg64
(lp3872
g57
(g78
g59
NtRp3873
(dp3874
g62
(dp3875
sg71
g3869
sg64
(lp3876
g57
(g58
g59
NtRp3877
(dp3878
g62
(dp3879
g70
I4
ssg71
g3873
sg64
(lp3880
S'/web2py_xlchart_dashboard/static/css/web2py.css'
p3881
asbasbasbag57
(g73
g59
NtRp3882
(dp3883
g62
(dp3884
sg71
g3813
sg64
(lp3885
g57
(g78
g59
NtRp3886
(dp3887
g62
(dp3888
sg71
g3882
sg64
(lp3889
g57
(g58
g59
NtRp3890
(dp3891
g62
(dp3892
g70
I4
ssg71
g3886
sg64
(lp3893
S'/web2py_xlchart_dashboard/static/css/bootstrap.min.css'
p3894
asbasbasbag57
(g73
g59
NtRp3895
(dp3896
g62
(dp3897
sg71
g3813
sg64
(lp3898
g57
(g78
g59
NtRp3899
(dp3900
g62
(dp3901
sg71
g3895
sg64
(lp3902
g57
(g58
g59
NtRp3903
(dp3904
g62
(dp3905
g70
I4
ssg71
g3899
sg64
(lp3906
S'/web2py_xlchart_dashboard/static/css/bootstrap-responsive.min.css'
p3907
asbasbasbag57
(g73
g59
NtRp3908
(dp3909
g62
(dp3910
sg71
g3813
sg64
(lp3911
g57
(g78
g59
NtRp3912
(dp3913
g62
(dp3914
sg71
g3908
sg64
(lp3915
g57
(g58
g59
NtRp3916
(dp3917
g62
(dp3918
g70
I4
ssg71
g3912
sg64
(lp3919
S'/web2py_xlchart_dashboard/static/css/web2py_bootstrap.css'
p3920
asbasbasbasbasbasbasbag57
(g73
g59
NtRp3921
(dp3922
g62
(dp3923
sg71
g3507
sg64
(lp3924
g57
(g78
g59
NtRp3925
(dp3926
g62
(dp3927
g82
g83
ssg71
g3921
sg64
(lp3928
S'flash'
p3929
asbag57
(g78
g59
NtRp3930
(dp3931
g62
(dp3932
g89
g90
ssg71
g3921
sg64
(lp3933
S':'
asbag57
(g78
g59
NtRp3934
(dp3935
g62
(dp3936
sg71
g3921
sg64
(lp3937
g57
(g58
g59
NtRp3938
(dp3939
g62
(dp3940
g70
I5
ssg71
g3934
sg64
(lp3941
S''
asbasbasbag57
(g73
g59
NtRp3942
(dp3943
g62
(dp3944
sg71
g3507
sg64
(lp3945
g57
(g78
g59
NtRp3946
(dp3947
g62
(dp3948
g82
g83
ssg71
g3942
sg64
(lp3949
S'generic_patterns'
p3950
asbag57
(g78
g59
NtRp3951
(dp3952
g62
(dp3953
g89
g90
ssg71
g3942
sg64
(lp3954
S':'
asbag57
(g78
g59
NtRp3955
(dp3956
g62
(dp3957
sg71
g3942
sg64
(lp3958
g57
(g58
g59
NtRp3959
(dp3960
g62
(dp3961
g70
I5
ssg71
g3955
sg64
(lp3962
g57
(g66
g59
NtRp3963
(dp3964
g62
(dp3965
g70
I4
ssg71
Nsg64
(lp3966
g57
(g73
g59
NtRp3967
(dp3968
g62
(dp3969
sg71
g3963
sg64
(lp3970
g57
(g78
g59
NtRp3971
(dp3972
g62
(dp3973
sg71
g3967
sg64
(lp3974
g57
(g58
g59
NtRp3975
(dp3976
g62
(dp3977
g70
I4
ssg71
g3971
sg64
(lp3978
S'*'
asbasbasbasbasbasbasbag57
(g73
g59
NtRp3979
(dp3980
g62
(dp3981
sg71
g3507
sg64
(lp3982
g57
(g78
g59
NtRp3983
(dp3984
g62
(dp3985
g82
g83
ssg71
g3979
sg64
(lp3986
S'google_analytics_id'
p3987
asbag57
(g78
g59
NtRp3988
(dp3989
g62
(dp3990
g89
g90
ssg71
g3979
sg64
(lp3991
S':'
asbag57
(g78
g59
NtRp3992
(dp3993
g62
(dp3994
sg71
g3979
sg64
(lp3995
g57
(g58
g59
NtRp3996
(dp3997
g62
(dp3998
g70
I5
ssg71
g3992
sg64
(lp3999
S'None'
p4000
asbasbasbag57
(g73
g59
NtRp4001
(dp4002
g62
(dp4003
sg71
g3507
sg64
(lp4004
g57
(g78
g59
NtRp4005
(dp4006
g62
(dp4007
g82
g83
ssg71
g4001
sg64
(lp4008
S'headers'
p4009
asbag57
(g78
g59
NtRp4010
(dp4011
g62
(dp4012
g89
g90
ssg71
g4001
sg64
(lp4013
S':'
asbag57
(g78
g59
NtRp4014
(dp4015
g62
(dp4016
sg71
g4001
sg64
(lp4017
g57
(g58
g59
NtRp4018
(dp4019
g62
(dp4020
g70
I5
ssg71
g4014
sg64
(lp4021
g57
(g66
g59
NtRp4022
(dp4023
g62
(dp4024
g70
I4
ssg71
Nsg64
(lp4025
g57
(g73
g59
NtRp4026
(dp4027
g62
(dp4028
sg71
g4022
sg64
(lp4029
g57
(g78
g59
NtRp4030
(dp4031
g62
(dp4032
g82
g83
ssg71
g4026
sg64
(lp4033
S'X-Powered-By'
p4034
asbag57
(g78
g59
NtRp4035
(dp4036
g62
(dp4037
g89
g90
ssg71
g4026
sg64
(lp4038
S':'
asbag57
(g78
g59
NtRp4039
(dp4040
g62
(dp4041
sg71
g4026
sg64
(lp4042
g57
(g58
g59
NtRp4043
(dp4044
g62
(dp4045
g70
I4
ssg71
g4039
sg64
(lp4046
S'web2py'
p4047
asbasbasbasbasbasbasbag57
(g73
g59
NtRp4048
(dp4049
g62
(dp4050
sg71
g3507
sg64
(lp4051
g57
(g78
g59
NtRp4052
(dp4053
g62
(dp4054
g82
g83
ssg71
g4048
sg64
(lp4055
S'menu'
p4056
asbag57
(g78
g59
NtRp4057
(dp4058
g62
(dp4059
g89
g90
ssg71
g4048
sg64
(lp4060
S':'
asbag57
(g78
g59
NtRp4061
(dp4062
g62
(dp4063
sg71
g4048
sg64
(lp4064
g57
(g58
g59
NtRp4065
(dp4066
g62
(dp4067
g70
I5
ssg71
g4061
sg64
(lp4068
g57
(g66
g59
NtRp4069
(dp4070
g62
(dp4071
g70
I4
ssg71
Nsg64
(lp4072
g57
(g73
g59
NtRp4073
(dp4074
g62
(dp4075
sg71
g4069
sg64
(lp4076
g57
(g78
g59
NtRp4077
(dp4078
g62
(dp4079
sg71
g4073
sg64
(lp4080
g57
(g58
g59
NtRp4081
(dp4082
g62
(dp4083
g70
I4
ssg71
g4077
sg64
(lp4084
g57
(g66
g59
NtRp4085
(dp4086
g62
(dp4087
g70
I3
ssg71
Nsg64
(lp4088
g57
(g73
g59
NtRp4089
(dp4090
g62
(dp4091
sg71
g4085
sg64
(lp4092
g57
(g78
g59
NtRp4093
(dp4094
g62
(dp4095
sg71
g4089
sg64
(lp4096
g57
(g58
g59
NtRp4097
(dp4098
g62
(dp4099
g70
I3
ssg71
g4093
sg64
(lp4100
cgluon.languages
lazyT_unpickle
p4101
(S't\t\x00\x00\x00Dashboard'
tRp4102
asbasbasbag57
(g73
g59
NtRp4103
(dp4104
g62
(dp4105
sg71
g4085
sg64
(lp4106
g57
(g78
g59
NtRp4107
(dp4108
g62
(dp4109
sg71
g4103
sg64
(lp4110
g57
(g58
g59
NtRp4111
(dp4112
g62
(dp4113
g70
I3
ssg71
g4107
sg64
(lp4114
g100
asbasbasbag57
(g73
g59
NtRp4115
(dp4116
g62
(dp4117
sg71
g4085
sg64
(lp4118
g57
(g78
g59
NtRp4119
(dp4120
g62
(dp4121
sg71
g4115
sg64
(lp4122
g57
(g58
g59
NtRp4123
(dp4124
g62
(dp4125
g70
I3
ssg71
g4119
sg64
(lp4126
S'/web2py_xlchart_dashboard/default/index'
p4127
asbasbasbag57
(g73
g59
NtRp4128
(dp4129
g62
(dp4130
sg71
g4085
sg64
(lp4131
g57
(g78
g59
NtRp4132
(dp4133
g62
(dp4134
sg71
g4128
sg64
(lp4135
g57
(g58
g59
NtRp4136
(dp4137
g62
(dp4138
g70
I3
ssg71
g4132
sg64
(lp4139
g57
(g66
g59
NtRp4140
(dp4141
g62
(dp4142
g70
I2
ssg71
Nsg64
(lp4143
g57
(g73
g59
NtRp4144
(dp4145
g62
(dp4146
sg71
g4140
sg64
(lp4147
g57
(g78
g59
NtRp4148
(dp4149
g62
(dp4150
sg71
g4144
sg64
(lp4151
g57
(g58
g59
NtRp4152
(dp4153
g62
(dp4154
g70
I2
ssg71
g4148
sg64
(lp4155
g57
(g66
g59
NtRp4156
(dp4157
g62
(dp4158
g70
I1
ssg71
Nsg64
(lp4159
g57
(g73
g59
NtRp4160
(dp4161
g62
(dp4162
sg71
g4156
sg64
(lp4163
g57
(g78
g59
NtRp4164
(dp4165
g62
(dp4166
sg71
g4160
sg64
(lp4167
g57
(g58
g59
NtRp4168
(dp4169
g62
(dp4170
g70
I1
ssg71
g4164
sg64
(lp4171
g4101
(S's\x0c\x00\x00\x00My Dashboard'
tRp4172
asbasbasbag57
(g73
g59
NtRp4173
(dp4174
g62
(dp4175
sg71
g4156
sg64
(lp4176
g57
(g78
g59
NtRp4177
(dp4178
g62
(dp4179
sg71
g4173
sg64
(lp4180
g57
(g58
g59
NtRp4181
(dp4182
g62
(dp4183
g70
I1
ssg71
g4177
sg64
(lp4184
I00
asbasbasbag57
(g73
g59
NtRp4185
(dp4186
g62
(dp4187
sg71
g4156
sg64
(lp4188
g57
(g78
g59
NtRp4189
(dp4190
g62
(dp4191
sg71
g4185
sg64
(lp4192
g57
(g58
g59
NtRp4193
(dp4194
g62
(dp4195
g70
I1
ssg71
g4189
sg64
(lp4196
S'/web2py_xlchart_dashboard/default/index'
p4197
asbasbasbag57
(g73
g59
NtRp4198
(dp4199
g62
(dp4200
sg71
g4156
sg64
(lp4201
g57
(g78
g59
NtRp4202
(dp4203
g62
(dp4204
sg71
g4198
sg64
(lp4205
g57
(g58
g59
NtRp4206
(dp4207
g62
(dp4208
g70
I1
ssg71
g4202
sg64
(lp4209
(lp4210
(g4101
(S's\x11\x00\x00\x00Manage Dashboards'
tRp4211
I00
S'/web2py_xlchart_dashboard/dashboard/manage_dashboard'
p4212
tp4213
a(g4101
(S's\r\x00\x00\x00Add Dashboard'
tRp4214
I00
S'/web2py_xlchart_dashboard/default/add_workbook'
p4215
tp4216
a(g4101
(S's\x0f\x00\x00\x00Manage Projects'
tRp4217
I00
S'/web2py_xlchart_dashboard/default/add_workbook'
p4218
tp4219
a(g4101
(S's\x0b\x00\x00\x00Add Project'
tRp4220
I00
S'/web2py_xlchart_dashboard/default/add_workbook'
p4221
tp4222
aasbasbasbasbasbasbasbag57
(g73
g59
NtRp4223
(dp4224
g62
(dp4225
sg71
g4140
sg64
(lp4226
g57
(g78
g59
NtRp4227
(dp4228
g62
(dp4229
sg71
g4223
sg64
(lp4230
g57
(g58
g59
NtRp4231
(dp4232
g62
(dp4233
g70
I2
ssg71
g4227
sg64
(lp4234
g57
(g66
g59
NtRp4235
(dp4236
g62
(dp4237
g70
I1
ssg71
Nsg64
(lp4238
g57
(g73
g59
NtRp4239
(dp4240
g62
(dp4241
sg71
g4235
sg64
(lp4242
g57
(g78
g59
NtRp4243
(dp4244
g62
(dp4245
sg71
g4239
sg64
(lp4246
g57
(g58
g59
NtRp4247
(dp4248
g62
(dp4249
g70
I1
ssg71
g4243
sg64
(lp4250
g4101
(S't\t\x00\x00\x00Workbooks'
tRp4251
asbasbasbag57
(g73
g59
NtRp4252
(dp4253
g62
(dp4254
sg71
g4235
sg64
(lp4255
g57
(g78
g59
NtRp4256
(dp4257
g62
(dp4258
sg71
g4252
sg64
(lp4259
g57
(g58
g59
NtRp4260
(dp4261
g62
(dp4262
g70
I1
ssg71
g4256
sg64
(lp4263
I00
asbasbasbag57
(g73
g59
NtRp4264
(dp4265
g62
(dp4266
sg71
g4235
sg64
(lp4267
g57
(g78
g59
NtRp4268
(dp4269
g62
(dp4270
sg71
g4264
sg64
(lp4271
g57
(g58
g59
NtRp4272
(dp4273
g62
(dp4274
g70
I1
ssg71
g4268
sg64
(lp4275
S'/web2py_xlchart_dashboard/default/index'
p4276
asbasbasbag57
(g73
g59
NtRp4277
(dp4278
g62
(dp4279
sg71
g4235
sg64
(lp4280
g57
(g78
g59
NtRp4281
(dp4282
g62
(dp4283
sg71
g4277
sg64
(lp4284
g57
(g58
g59
NtRp4285
(dp4286
g62
(dp4287
g70
I1
ssg71
g4281
sg64
(lp4288
(lp4289
(g4101
(S's\x0c\x00\x00\x00Add Workbook'
tRp4290
I00
S'/web2py_xlchart_dashboard/default/add_workbook'
p4291
tp4292
aasbasbasbasbasbasbasbasbasbasbasbasbasbasbasbag57
(g73
g59
NtRp4293
(dp4294
g62
(dp4295
sg71
g4069
sg64
(lp4296
g57
(g78
g59
NtRp4297
(dp4298
g62
(dp4299
sg71
g4293
sg64
(lp4300
g57
(g58
g59
NtRp4301
(dp4302
g62
(dp4303
g70
I4
ssg71
g4297
sg64
(lp4304
g57
(g66
g59
NtRp4305
(dp4306
g62
(dp4307
g70
I3
ssg71
Nsg64
(lp4308
g57
(g73
g59
NtRp4309
(dp4310
g62
(dp4311
sg71
g4305
sg64
(lp4312
g57
(g78
g59
NtRp4313
(dp4314
g62
(dp4315
sg71
g4309
sg64
(lp4316
g57
(g58
g59
NtRp4317
(dp4318
g62
(dp4319
g70
I3
ssg71
g4313
sg64
(lp4320
g57
(cgluon.html
SPAN
p4321
g59
NtRp4322
(dp4323
g62
(dp4324
S'_class'
p4325
S'highlighted'
p4326
ssg71
g57
(cgluon.html
A
p4327
g59
NtRp4328
(dp4329
g62
(dp4330
S'_href'
p4331
S'http://web2py.com'
p4332
ssg71
g57
(cgluon.html
LI
p4333
g59
NtRp4334
(dp4335
g62
(dp4336
g4325
S'dropdown'
p4337
ssg71
g57
(cgluon.html
UL
p4338
g59
NtRp4339
(dp4340
g62
(dp4341
S'li_class'
p4342
g4337
sS'mobile'
p4343
I00
sg4325
S'nav'
p4344
sS'ul_class'
p4345
S'dropdown-menu'
p4346
sS'li_active'
p4347
S'web2py-menu-active'
p4348
ssg71
Nsg64
(lp4349
g57
(g4333
g59
NtRp4350
(dp4351
g62
(dp4352
g4325
g4337
ssg71
g4339
sg64
(lp4353
g57
(g4327
g59
NtRp4354
(dp4355
g62
(dp4356
g4331
g4127
ssg71
g4350
sg64
(lp4357
g4102
asbag57
(g4338
g59
NtRp4358
(dp4359
g62
(dp4360
g4325
g4346
ssg71
g4350
sg64
(lp4361
g57
(g4333
g59
NtRp4362
(dp4363
g62
(dp4364
g4325
g4337
ssg71
g4358
sg64
(lp4365
g57
(g4327
g59
NtRp4366
(dp4367
g62
(dp4368
g4331
g4197
ssg71
g4362
sg64
(lp4369
g4172
asbag57
(g4338
g59
NtRp4370
(dp4371
g62
(dp4372
g4325
g4346
ssg71
g4362
sg64
(lp4373
g57
(g4333
g59
NtRp4374
(dp4375
g62
(dp4376
sg71
g4370
sg64
(lp4377
g57
(g4327
g59
NtRp4378
(dp4379
g62
(dp4380
g4331
g4212
ssg71
g4374
sg64
(lp4381
g4211
asbasbag57
(g4333
g59
NtRp4382
(dp4383
g62
(dp4384
sg71
g4370
sg64
(lp4385
g57
(g4327
g59
NtRp4386
(dp4387
g62
(dp4388
g4331
g4215
ssg71
g4382
sg64
(lp4389
g4214
asbasbag57
(g4333
g59
NtRp4390
(dp4391
g62
(dp4392
sg71
g4370
sg64
(lp4393
g57
(g4327
g59
NtRp4394
(dp4395
g62
(dp4396
g4331
g4218
ssg71
g4390
sg64
(lp4397
g4217
asbasbag57
(g4333
g59
NtRp4398
(dp4399
g62
(dp4400
sg71
g4370
sg64
(lp4401
g57
(g4327
g59
NtRp4402
(dp4403
g62
(dp4404
g4331
g4221
ssg71
g4398
sg64
(lp4405
g4220
asbasbasbasbag57
(g4333
g59
NtRp4406
(dp4407
g62
(dp4408
g4325
g4337
ssg71
g4358
sg64
(lp4409
g57
(g4327
g59
NtRp4410
(dp4411
g62
(dp4412
g4331
g4276
ssg71
g4406
sg64
(lp4413
g4251
asbag57
(g4338
g59
NtRp4414
(dp4415
g62
(dp4416
g4325
g4346
ssg71
g4406
sg64
(lp4417
g57
(g4333
g59
NtRp4418
(dp4419
g62
(dp4420
sg71
g4414
sg64
(lp4421
g57
(g4327
g59
NtRp4422
(dp4423
g62
(dp4424
g4331
g4291
ssg71
g4418
sg64
(lp4425
g4290
asbasbasbasbasbasbag4334
asbsg64
(lp4426
g4328
ag57
(g4338
g59
NtRp4427
(dp4428
g62
(dp4429
g4325
g4346
ssg71
g4334
sg64
(lp4430
g57
(g4333
g59
NtRp4431
(dp4432
g62
(dp4433
sg71
g4427
sg64
(lp4434
g57
(g4327
g59
NtRp4435
(dp4436
g62
(dp4437
g4331
S'/admin/default/site'
p4438
ssg71
g4431
sg64
(lp4439
g4101
(S's\x08\x00\x00\x00My Sites'
tRp4440
asbasbag57
(g4333
g59
NtRp4441
(dp4442
g62
(dp4443
g4325
g4337
ssg71
g4427
sg64
(lp4444
g57
(g4327
g59
NtRp4445
(dp4446
g62
(dp4447
g4331
S'/admin/default/design/web2py_xlchart_dashboard'
p4448
ssg71
g4441
sg64
(lp4449
g4101
(S's\x08\x00\x00\x00This App'
tRp4450
asbag57
(g4338
g59
NtRp4451
(dp4452
g62
(dp4453
g4325
g4346
ssg71
g4441
sg64
(lp4454
g57
(g4333
g59
NtRp4455
(dp4456
g62
(dp4457
sg71
g4451
sg64
(lp4458
g57
(g4327
g59
NtRp4459
(dp4460
g62
(dp4461
g4331
S'/admin/default/edit/web2py_xlchart_dashboard/controllers/charts.py'
p4462
ssg71
g4455
sg64
(lp4463
g4101
(S's\n\x00\x00\x00Controller'
tRp4464
asbasbag57
(g4333
g59
NtRp4465
(dp4466
g62
(dp4467
sg71
g4451
sg64
(lp4468
g57
(g4327
g59
NtRp4469
(dp4470
g62
(dp4471
g4331
S'/admin/default/edit/web2py_xlchart_dashboard/views/charts/user_charts.html'
p4472
ssg71
g4465
sg64
(lp4473
g4101
(S's\x04\x00\x00\x00View'
tRp4474
asbasbag57
(g4333
g59
NtRp4475
(dp4476
g62
(dp4477
sg71
g4451
sg64
(lp4478
g57
(g4327
g59
NtRp4479
(dp4480
g62
(dp4481
g4331
S'/admin/default/edit/web2py_xlchart_dashboard/views/layout.html'
p4482
ssg71
g4475
sg64
(lp4483
g4101
(S's\x06\x00\x00\x00Layout'
tRp4484
asbasbag57
(g4333
g59
NtRp4485
(dp4486
g62
(dp4487
sg71
g4451
sg64
(lp4488
g57
(g4327
g59
NtRp4489
(dp4490
g62
(dp4491
g4331
S'/admin/default/edit/web2py_xlchart_dashboard/static/css/web2py.css'
p4492
ssg71
g4485
sg64
(lp4493
g4101
(S's\n\x00\x00\x00Stylesheet'
tRp4494
asbasbag57
(g4333
g59
NtRp4495
(dp4496
g62
(dp4497
sg71
g4451
sg64
(lp4498
g57
(g4327
g59
NtRp4499
(dp4500
g62
(dp4501
g4331
S'/admin/default/edit/web2py_xlchart_dashboard/models/db.py'
p4502
ssg71
g4495
sg64
(lp4503
g4101
(S's\x08\x00\x00\x00DB Model'
tRp4504
asbasbag57
(g4333
g59
NtRp4505
(dp4506
g62
(dp4507
sg71
g4451
sg64
(lp4508
g57
(g4327
g59
NtRp4509
(dp4510
g62
(dp4511
g4331
S'/admin/default/edit/web2py_xlchart_dashboard/models/menu.py'
p4512
ssg71
g4505
sg64
(lp4513
g4101
(S's\n\x00\x00\x00Menu Model'
tRp4514
asbasbag57
(g4333
g59
NtRp4515
(dp4516
g62
(dp4517
sg71
g4451
sg64
(lp4518
g57
(g4327
g59
NtRp4519
(dp4520
g62
(dp4521
g4331
S'/web2py_xlchart_dashboard/appadmin/index'
p4522
ssg71
g4515
sg64
(lp4523
g4101
(S's\x08\x00\x00\x00Database'
tRp4524
asbasbag57
(g4333
g59
NtRp4525
(dp4526
g62
(dp4527
sg71
g4451
sg64
(lp4528
g57
(g4327
g59
NtRp4529
(dp4530
g62
(dp4531
g4331
S'/admin/default/errors/web2py_xlchart_dashboard'
p4532
ssg71
g4525
sg64
(lp4533
g4101
(S's\x06\x00\x00\x00Errors'
tRp4534
asbasbag57
(g4333
g59
NtRp4535
(dp4536
g62
(dp4537
sg71
g4451
sg64
(lp4538
g57
(g4327
g59
NtRp4539
(dp4540
g62
(dp4541
g4331
S'/admin/default/about/web2py_xlchart_dashboard'
p4542
ssg71
g4535
sg64
(lp4543
g4101
(S's\x05\x00\x00\x00About'
tRp4544
asbasbasbasbag57
(g4333
g59
NtRp4545
(dp4546
g62
(dp4547
g4325
g4337
ssg71
g4427
sg64
(lp4548
g57
(g4327
g59
NtRp4549
(dp4550
g62
(dp4551
g4331
S'http://www.web2py.com'
p4552
ssg71
g4545
sg64
(lp4553
S'web2py.com'
p4554
asbag57
(g4338
g59
NtRp4555
(dp4556
g62
(dp4557
g4325
g4346
ssg71
g4545
sg64
(lp4558
g57
(g4333
g59
NtRp4559
(dp4560
g62
(dp4561
sg71
g4555
sg64
(lp4562
g57
(g4327
g59
NtRp4563
(dp4564
g62
(dp4565
g4331
S'http://www.web2py.com/examples/default/download'
p4566
ssg71
g4559
sg64
(lp4567
g4101
(S's\x08\x00\x00\x00Download'
tRp4568
asbasbag57
(g4333
g59
NtRp4569
(dp4570
g62
(dp4571
sg71
g4555
sg64
(lp4572
g57
(g4327
g59
NtRp4573
(dp4574
g62
(dp4575
g4331
S'http://www.web2py.com/examples/default/support'
p4576
ssg71
g4569
sg64
(lp4577
g4101
(S's\x07\x00\x00\x00Support'
tRp4578
asbasbag57
(g4333
g59
NtRp4579
(dp4580
g62
(dp4581
sg71
g4555
sg64
(lp4582
g57
(g4327
g59
NtRp4583
(dp4584
g62
(dp4585
g4331
S'http://web2py.com/demo_admin'
p4586
ssg71
g4579
sg64
(lp4587
g4101
(S's\x04\x00\x00\x00Demo'
tRp4588
asbasbag57
(g4333
g59
NtRp4589
(dp4590
g62
(dp4591
sg71
g4555
sg64
(lp4592
g57
(g4327
g59
NtRp4593
(dp4594
g62
(dp4595
g4331
S'http://web2py.com/examples/default/examples'
p4596
ssg71
g4589
sg64
(lp4597
g4101
(S's\x0e\x00\x00\x00Quick Examples'
tRp4598
asbasbag57
(g4333
g59
NtRp4599
(dp4600
g62
(dp4601
sg71
g4555
sg64
(lp4602
g57
(g4327
g59
NtRp4603
(dp4604
g62
(dp4605
g4331
S'http://web2py.com/AlterEgo'
p4606
ssg71
g4599
sg64
(lp4607
g4101
(S's\x03\x00\x00\x00FAQ'
tRp4608
asbasbag57
(g4333
g59
NtRp4609
(dp4610
g62
(dp4611
sg71
g4555
sg64
(lp4612
g57
(g4327
g59
NtRp4613
(dp4614
g62
(dp4615
g4331
S'http://www.web2py.com/examples/default/videos/'
p4616
ssg71
g4609
sg64
(lp4617
g4101
(S's\x06\x00\x00\x00Videos'
tRp4618
asbasbag57
(g4333
g59
NtRp4619
(dp4620
g62
(dp4621
sg71
g4555
sg64
(lp4622
g57
(g4327
g59
NtRp4623
(dp4624
g62
(dp4625
g4331
S'http://web2py.com/appliances'
p4626
ssg71
g4619
sg64
(lp4627
g4101
(S's\x11\x00\x00\x00Free Applications'
tRp4628
asbasbag57
(g4333
g59
NtRp4629
(dp4630
g62
(dp4631
sg71
g4555
sg64
(lp4632
g57
(g4327
g59
NtRp4633
(dp4634
g62
(dp4635
g4331
S'http://web2py.com/plugins'
p4636
ssg71
g4629
sg64
(lp4637
g4101
(S's\x07\x00\x00\x00Plugins'
tRp4638
asbasbag57
(g4333
g59
NtRp4639
(dp4640
g62
(dp4641
sg71
g4555
sg64
(lp4642
g57
(g4327
g59
NtRp4643
(dp4644
g62
(dp4645
g4331
S'http://web2py.com/layouts'
p4646
ssg71
g4639
sg64
(lp4647
g4101
(S's\x07\x00\x00\x00Layouts'
tRp4648
asbasbag57
(g4333
g59
NtRp4649
(dp4650
g62
(dp4651
sg71
g4555
sg64
(lp4652
g57
(g4327
g59
NtRp4653
(dp4654
g62
(dp4655
g4331
S'http://web2pyslices.com/'
p4656
ssg71
g4649
sg64
(lp4657
g4101
(S's\x07\x00\x00\x00Recipes'
tRp4658
asbasbag57
(g4333
g59
NtRp4659
(dp4660
g62
(dp4661
sg71
g4555
sg64
(lp4662
g57
(g4327
g59
NtRp4663
(dp4664
g62
(dp4665
g4331
S'http://web2py.com/semantic'
p4666
ssg71
g4659
sg64
(lp4667
g4101
(S's\x08\x00\x00\x00Semantic'
tRp4668
asbasbasbasbag57
(g4333
g59
NtRp4669
(dp4670
g62
(dp4671
g4325
g4337
ssg71
g4427
sg64
(lp4672
g57
(g4327
g59
NtRp4673
(dp4674
g62
(dp4675
g4331
S'http://www.web2py.com/book'
p4676
ssg71
g4669
sg64
(lp4677
g4101
(S's\r\x00\x00\x00Documentation'
tRp4678
asbag57
(g4338
g59
NtRp4679
(dp4680
g62
(dp4681
g4325
g4346
ssg71
g4669
sg64
(lp4682
g57
(g4333
g59
NtRp4683
(dp4684
g62
(dp4685
sg71
g4679
sg64
(lp4686
g57
(g4327
g59
NtRp4687
(dp4688
g62
(dp4689
g4331
S'http://www.web2py.com/book/default/chapter/00'
p4690
ssg71
g4683
sg64
(lp4691
g4101
(S's\x07\x00\x00\x00Preface'
tRp4692
asbasbag57
(g4333
g59
NtRp4693
(dp4694
g62
(dp4695
sg71
g4679
sg64
(lp4696
g57
(g4327
g59
NtRp4697
(dp4698
g62
(dp4699
g4331
S'http://www.web2py.com/book/default/chapter/01'
p4700
ssg71
g4693
sg64
(lp4701
g4101
(S's\x0c\x00\x00\x00Introduction'
tRp4702
asbasbag57
(g4333
g59
NtRp4703
(dp4704
g62
(dp4705
sg71
g4679
sg64
(lp4706
g57
(g4327
g59
NtRp4707
(dp4708
g62
(dp4709
g4331
S'http://www.web2py.com/book/default/chapter/02'
p4710
ssg71
g4703
sg64
(lp4711
g4101
(S's\x06\x00\x00\x00Python'
tRp4712
asbasbag57
(g4333
g59
NtRp4713
(dp4714
g62
(dp4715
sg71
g4679
sg64
(lp4716
g57
(g4327
g59
NtRp4717
(dp4718
g62
(dp4719
g4331
S'http://www.web2py.com/book/default/chapter/03'
p4720
ssg71
g4713
sg64
(lp4721
g4101
(S's\x08\x00\x00\x00Overview'
tRp4722
asbasbag57
(g4333
g59
NtRp4723
(dp4724
g62
(dp4725
sg71
g4679
sg64
(lp4726
g57
(g4327
g59
NtRp4727
(dp4728
g62
(dp4729
g4331
S'http://www.web2py.com/book/default/chapter/04'
p4730
ssg71
g4723
sg64
(lp4731
g4101
(S's\x08\x00\x00\x00The Core'
tRp4732
asbasbag57
(g4333
g59
NtRp4733
(dp4734
g62
(dp4735
sg71
g4679
sg64
(lp4736
g57
(g4327
g59
NtRp4737
(dp4738
g62
(dp4739
g4331
S'http://www.web2py.com/book/default/chapter/05'
p4740
ssg71
g4733
sg64
(lp4741
g4101
(S's\t\x00\x00\x00The Views'
tRp4742
asbasbag57
(g4333
g59
NtRp4743
(dp4744
g62
(dp4745
sg71
g4679
sg64
(lp4746
g57
(g4327
g59
NtRp4747
(dp4748
g62
(dp4749
g4331
S'http://www.web2py.com/book/default/chapter/06'
p4750
ssg71
g4743
sg64
(lp4751
g4101
(S's\x08\x00\x00\x00Database'
tRp4752
asbasbag57
(g4333
g59
NtRp4753
(dp4754
g62
(dp4755
sg71
g4679
sg64
(lp4756
g57
(g4327
g59
NtRp4757
(dp4758
g62
(dp4759
g4331
S'http://www.web2py.com/book/default/chapter/07'
p4760
ssg71
g4753
sg64
(lp4761
g4101
(S's\x14\x00\x00\x00Forms and Validators'
tRp4762
asbasbag57
(g4333
g59
NtRp4763
(dp4764
g62
(dp4765
sg71
g4679
sg64
(lp4766
g57
(g4327
g59
NtRp4767
(dp4768
g62
(dp4769
g4331
S'http://www.web2py.com/book/default/chapter/08'
p4770
ssg71
g4763
sg64
(lp4771
g4101
(S's\r\x00\x00\x00Email and SMS'
tRp4772
asbasbag57
(g4333
g59
NtRp4773
(dp4774
g62
(dp4775
sg71
g4679
sg64
(lp4776
g57
(g4327
g59
NtRp4777
(dp4778
g62
(dp4779
g4331
S'http://www.web2py.com/book/default/chapter/09'
p4780
ssg71
g4773
sg64
(lp4781
g4101
(S's\x0e\x00\x00\x00Access Control'
tRp4782
asbasbag57
(g4333
g59
NtRp4783
(dp4784
g62
(dp4785
sg71
g4679
sg64
(lp4786
g57
(g4327
g59
NtRp4787
(dp4788
g62
(dp4789
g4331
S'http://www.web2py.com/book/default/chapter/10'
p4790
ssg71
g4783
sg64
(lp4791
g4101
(S's\x08\x00\x00\x00Services'
tRp4792
asbasbag57
(g4333
g59
NtRp4793
(dp4794
g62
(dp4795
sg71
g4679
sg64
(lp4796
g57
(g4327
g59
NtRp4797
(dp4798
g62
(dp4799
g4331
S'http://www.web2py.com/book/default/chapter/11'
p4800
ssg71
g4793
sg64
(lp4801
g4101
(S's\x0c\x00\x00\x00Ajax Recipes'
tRp4802
asbasbag57
(g4333
g59
NtRp4803
(dp4804
g62
(dp4805
sg71
g4679
sg64
(lp4806
g57
(g4327
g59
NtRp4807
(dp4808
g62
(dp4809
g4331
S'http://www.web2py.com/book/default/chapter/12'
p4810
ssg71
g4803
sg64
(lp4811
g4101
(S's\x16\x00\x00\x00Components and Plugins'
tRp4812
asbasbag57
(g4333
g59
NtRp4813
(dp4814
g62
(dp4815
sg71
g4679
sg64
(lp4816
g57
(g4327
g59
NtRp4817
(dp4818
g62
(dp4819
g4331
S'http://www.web2py.com/book/default/chapter/13'
p4820
ssg71
g4813
sg64
(lp4821
g4101
(S's\x12\x00\x00\x00Deployment Recipes'
tRp4822
asbasbag57
(g4333
g59
NtRp4823
(dp4824
g62
(dp4825
sg71
g4679
sg64
(lp4826
g57
(g4327
g59
NtRp4827
(dp4828
g62
(dp4829
g4331
S'http://www.web2py.com/book/default/chapter/14'
p4830
ssg71
g4823
sg64
(lp4831
g4101
(S's\r\x00\x00\x00Other Recipes'
tRp4832
asbasbag57
(g4333
g59
NtRp4833
(dp4834
g62
(dp4835
sg71
g4679
sg64
(lp4836
g57
(g4327
g59
NtRp4837
(dp4838
g62
(dp4839
g4331
S'http://stores.lulu.com/web2py'
p4840
ssg71
g4833
sg64
(lp4841
g4101
(S's\r\x00\x00\x00Buy this book'
tRp4842
asbasbasbasbag57
(g4333
g59
NtRp4843
(dp4844
g62
(dp4845
g4325
g4337
ssg71
g4427
sg64
(lp4846
g57
(g4327
g59
NtRp4847
(dp4848
g62
(dp4849
S'_onclick'
p4850
S'javascript:void(0);return false;'
p4851
sg4331
S'#'
ssg71
g4843
sg64
(lp4852
g4101
(S's\t\x00\x00\x00Community'
tRp4853
asbag57
(g4338
g59
NtRp4854
(dp4855
g62
(dp4856
g4325
g4346
ssg71
g4843
sg64
(lp4857
g57
(g4333
g59
NtRp4858
(dp4859
g62
(dp4860
sg71
g4854
sg64
(lp4861
g57
(g4327
g59
NtRp4862
(dp4863
g62
(dp4864
g4331
S'http://www.web2py.com/examples/default/usergroups'
p4865
ssg71
g4858
sg64
(lp4866
g4101
(S's\x06\x00\x00\x00Groups'
tRp4867
asbasbag57
(g4333
g59
NtRp4868
(dp4869
g62
(dp4870
sg71
g4854
sg64
(lp4871
g57
(g4327
g59
NtRp4872
(dp4873
g62
(dp4874
g4331
S'http://twitter.com/web2py'
p4875
ssg71
g4868
sg64
(lp4876
g4101
(S's\x07\x00\x00\x00Twitter'
tRp4877
asbasbag57
(g4333
g59
NtRp4878
(dp4879
g62
(dp4880
sg71
g4854
sg64
(lp4881
g57
(g4327
g59
NtRp4882
(dp4883
g62
(dp4884
g4331
S'http://webchat.freenode.net/?channels=web2py'
p4885
ssg71
g4878
sg64
(lp4886
g4101
(S's\t\x00\x00\x00Live Chat'
tRp4887
asbasbasbasbag57
(g4333
g59
NtRp4888
(dp4889
g62
(dp4890
g4325
g4337
ssg71
g4427
sg64
(lp4891
g57
(g4327
g59
NtRp4892
(dp4893
g62
(dp4894
g4850
g4851
sg4331
S'#'
ssg71
g4888
sg64
(lp4895
g4101
(S's\x07\x00\x00\x00Plugins'
tRp4896
asbag57
(g4338
g59
NtRp4897
(dp4898
g62
(dp4899
g4325
g4346
ssg71
g4888
sg64
(lp4900
g57
(g4333
g59
NtRp4901
(dp4902
g62
(dp4903
sg71
g4897
sg64
(lp4904
g57
(g4327
g59
NtRp4905
(dp4906
g62
(dp4907
g4331
S'http://web2py.com/examples/default/download'
p4908
ssg71
g4901
sg64
(lp4909
S'plugin_wiki'
p4910
asbasbag57
(g4333
g59
NtRp4911
(dp4912
g62
(dp4913
sg71
g4897
sg64
(lp4914
g57
(g4327
g59
NtRp4915
(dp4916
g62
(dp4917
g4331
g4636
ssg71
g4911
sg64
(lp4918
g4101
(S's\r\x00\x00\x00Other Plugins'
tRp4919
asbasbag57
(g4333
g59
NtRp4920
(dp4921
g62
(dp4922
sg71
g4897
sg64
(lp4923
g57
(g4327
g59
NtRp4924
(dp4925
g62
(dp4926
g4331
g4646
ssg71
g4920
sg64
(lp4927
g4101
(S's\x0e\x00\x00\x00Layout Plugins'
tRp4928
asbasbasbasbasbasbsg64
(lp4929
g4322
asbsg64
(lp4930
g4047
asbasbasbasbag57
(g73
g59
NtRp4931
(dp4932
g62
(dp4933
sg71
g4305
sg64
(lp4934
g57
(g78
g59
NtRp4935
(dp4936
g62
(dp4937
sg71
g4931
sg64
(lp4938
g57
(g58
g59
NtRp4939
(dp4940
g62
(dp4941
g70
I3
ssg71
g4935
sg64
(lp4942
g100
asbasbasbag57
(g73
g59
NtRp4943
(dp4944
g62
(dp4945
sg71
g4305
sg64
(lp4946
g57
(g78
g59
NtRp4947
(dp4948
g62
(dp4949
sg71
g4943
sg64
(lp4950
g57
(g58
g59
NtRp4951
(dp4952
g62
(dp4953
g70
I3
ssg71
g4947
sg64
(lp4954
g4332
asbasbasbag57
(g73
g59
NtRp4955
(dp4956
g62
(dp4957
sg71
g4305
sg64
(lp4958
g57
(g78
g59
NtRp4959
(dp4960
g62
(dp4961
sg71
g4955
sg64
(lp4962
g57
(g58
g59
NtRp4963
(dp4964
g62
(dp4965
g70
I3
ssg71
g4959
sg64
(lp4966
g57
(g66
g59
NtRp4967
(dp4968
g62
(dp4969
g70
I2
ssg71
Nsg64
(lp4970
g57
(g73
g59
NtRp4971
(dp4972
g62
(dp4973
sg71
g4967
sg64
(lp4974
g57
(g78
g59
NtRp4975
(dp4976
g62
(dp4977
sg71
g4971
sg64
(lp4978
g57
(g58
g59
NtRp4979
(dp4980
g62
(dp4981
g70
I2
ssg71
g4975
sg64
(lp4982
g57
(g66
g59
NtRp4983
(dp4984
g62
(dp4985
g70
I1
ssg71
Nsg64
(lp4986
g57
(g73
g59
NtRp4987
(dp4988
g62
(dp4989
sg71
g4983
sg64
(lp4990
g57
(g78
g59
NtRp4991
(dp4992
g62
(dp4993
sg71
g4987
sg64
(lp4994
g57
(g58
g59
NtRp4995
(dp4996
g62
(dp4997
g70
I1
ssg71
g4991
sg64
(lp4998
g4440
asbasbasbag57
(g73
g59
NtRp4999
(dp5000
g62
(dp5001
sg71
g4983
sg64
(lp5002
g57
(g78
g59
NtRp5003
(dp5004
g62
(dp5005
sg71
g4999
sg64
(lp5006
g57
(g58
g59
NtRp5007
(dp5008
g62
(dp5009
g70
I1
ssg71
g5003
sg64
(lp5010
I00
asbasbasbag57
(g73
g59
NtRp5011
(dp5012
g62
(dp5013
sg71
g4983
sg64
(lp5014
g57
(g78
g59
NtRp5015
(dp5016
g62
(dp5017
sg71
g5011
sg64
(lp5018
g57
(g58
g59
NtRp5019
(dp5020
g62
(dp5021
g70
I1
ssg71
g5015
sg64
(lp5022
g4438
asbasbasbasbasbasbasbag57
(g73
g59
NtRp5023
(dp5024
g62
(dp5025
sg71
g4967
sg64
(lp5026
g57
(g78
g59
NtRp5027
(dp5028
g62
(dp5029
sg71
g5023
sg64
(lp5030
g57
(g58
g59
NtRp5031
(dp5032
g62
(dp5033
g70
I2
ssg71
g5027
sg64
(lp5034
g57
(g66
g59
NtRp5035
(dp5036
g62
(dp5037
g70
I1
ssg71
Nsg64
(lp5038
g57
(g73
g59
NtRp5039
(dp5040
g62
(dp5041
sg71
g5035
sg64
(lp5042
g57
(g78
g59
NtRp5043
(dp5044
g62
(dp5045
sg71
g5039
sg64
(lp5046
g57
(g58
g59
NtRp5047
(dp5048
g62
(dp5049
g70
I1
ssg71
g5043
sg64
(lp5050
g4450
asbasbasbag57
(g73
g59
NtRp5051
(dp5052
g62
(dp5053
sg71
g5035
sg64
(lp5054
g57
(g78
g59
NtRp5055
(dp5056
g62
(dp5057
sg71
g5051
sg64
(lp5058
g57
(g58
g59
NtRp5059
(dp5060
g62
(dp5061
g70
I1
ssg71
g5055
sg64
(lp5062
I00
asbasbasbag57
(g73
g59
NtRp5063
(dp5064
g62
(dp5065
sg71
g5035
sg64
(lp5066
g57
(g78
g59
NtRp5067
(dp5068
g62
(dp5069
sg71
g5063
sg64
(lp5070
g57
(g58
g59
NtRp5071
(dp5072
g62
(dp5073
g70
I1
ssg71
g5067
sg64
(lp5074
g4448
asbasbasbag57
(g73
g59
NtRp5075
(dp5076
g62
(dp5077
sg71
g5035
sg64
(lp5078
g57
(g78
g59
NtRp5079
(dp5080
g62
(dp5081
sg71
g5075
sg64
(lp5082
g57
(g58
g59
NtRp5083
(dp5084
g62
(dp5085
g70
I1
ssg71
g5079
sg64
(lp5086
(lp5087
(g4464
I00
g4462
tp5088
a(g4474
I00
g4472
tp5089
a(g4484
I00
g4482
tp5090
a(g4494
I00
g4492
tp5091
a(g4504
I00
g4502
tp5092
a(g4514
I00
g4512
tp5093
a(g4524
I00
g4522
tp5094
a(g4534
I00
g4532
tp5095
a(g4544
I00
g4542
tp5096
aasbasbasbasbasbasbasbag57
(g73
g59
NtRp5097
(dp5098
g62
(dp5099
sg71
g4967
sg64
(lp5100
g57
(g78
g59
NtRp5101
(dp5102
g62
(dp5103
sg71
g5097
sg64
(lp5104
g57
(g58
g59
NtRp5105
(dp5106
g62
(dp5107
g70
I2
ssg71
g5101
sg64
(lp5108
g57
(g66
g59
NtRp5109
(dp5110
g62
(dp5111
g70
I1
ssg71
Nsg64
(lp5112
g57
(g73
g59
NtRp5113
(dp5114
g62
(dp5115
sg71
g5109
sg64
(lp5116
g57
(g78
g59
NtRp5117
(dp5118
g62
(dp5119
sg71
g5113
sg64
(lp5120
g57
(g58
g59
NtRp5121
(dp5122
g62
(dp5123
g70
I1
ssg71
g5117
sg64
(lp5124
g4554
asbasbasbag57
(g73
g59
NtRp5125
(dp5126
g62
(dp5127
sg71
g5109
sg64
(lp5128
g57
(g78
g59
NtRp5129
(dp5130
g62
(dp5131
sg71
g5125
sg64
(lp5132
g57
(g58
g59
NtRp5133
(dp5134
g62
(dp5135
g70
I1
ssg71
g5129
sg64
(lp5136
I00
asbasbasbag57
(g73
g59
NtRp5137
(dp5138
g62
(dp5139
sg71
g5109
sg64
(lp5140
g57
(g78
g59
NtRp5141
(dp5142
g62
(dp5143
sg71
g5137
sg64
(lp5144
g57
(g58
g59
NtRp5145
(dp5146
g62
(dp5147
g70
I1
ssg71
g5141
sg64
(lp5148
g4552
asbasbasbag57
(g73
g59
NtRp5149
(dp5150
g62
(dp5151
sg71
g5109
sg64
(lp5152
g57
(g78
g59
NtRp5153
(dp5154
g62
(dp5155
sg71
g5149
sg64
(lp5156
g57
(g58
g59
NtRp5157
(dp5158
g62
(dp5159
g70
I1
ssg71
g5153
sg64
(lp5160
(lp5161
(g4568
I00
g4566
tp5162
a(g4578
I00
g4576
tp5163
a(g4588
I00
g4586
tp5164
a(g4598
I00
g4596
tp5165
a(g4608
I00
g4606
tp5166
a(g4618
I00
g4616
tp5167
a(g4628
I00
g4626
tp5168
a(g4638
I00
g4636
tp5169
a(g4648
I00
g4646
tp5170
a(g4658
I00
g4656
tp5171
a(g4668
I00
g4666
tp5172
aasbasbasbasbasbasbasbag57
(g73
g59
NtRp5173
(dp5174
g62
(dp5175
sg71
g4967
sg64
(lp5176
g57
(g78
g59
NtRp5177
(dp5178
g62
(dp5179
sg71
g5173
sg64
(lp5180
g57
(g58
g59
NtRp5181
(dp5182
g62
(dp5183
g70
I2
ssg71
g5177
sg64
(lp5184
g57
(g66
g59
NtRp5185
(dp5186
g62
(dp5187
g70
I1
ssg71
Nsg64
(lp5188
g57
(g73
g59
NtRp5189
(dp5190
g62
(dp5191
sg71
g5185
sg64
(lp5192
g57
(g78
g59
NtRp5193
(dp5194
g62
(dp5195
sg71
g5189
sg64
(lp5196
g57
(g58
g59
NtRp5197
(dp5198
g62
(dp5199
g70
I1
ssg71
g5193
sg64
(lp5200
g4678
asbasbasbag57
(g73
g59
NtRp5201
(dp5202
g62
(dp5203
sg71
g5185
sg64
(lp5204
g57
(g78
g59
NtRp5205
(dp5206
g62
(dp5207
sg71
g5201
sg64
(lp5208
g57
(g58
g59
NtRp5209
(dp5210
g62
(dp5211
g70
I1
ssg71
g5205
sg64
(lp5212
I00
asbasbasbag57
(g73
g59
NtRp5213
(dp5214
g62
(dp5215
sg71
g5185
sg64
(lp5216
g57
(g78
g59
NtRp5217
(dp5218
g62
(dp5219
sg71
g5213
sg64
(lp5220
g57
(g58
g59
NtRp5221
(dp5222
g62
(dp5223
g70
I1
ssg71
g5217
sg64
(lp5224
g4676
asbasbasbag57
(g73
g59
NtRp5225
(dp5226
g62
(dp5227
sg71
g5185
sg64
(lp5228
g57
(g78
g59
NtRp5229
(dp5230
g62
(dp5231
sg71
g5225
sg64
(lp5232
g57
(g58
g59
NtRp5233
(dp5234
g62
(dp5235
g70
I1
ssg71
g5229
sg64
(lp5236
(lp5237
(g4692
I00
g4690
tp5238
a(g4702
I00
g4700
tp5239
a(g4712
I00
g4710
tp5240
a(g4722
I00
g4720
tp5241
a(g4732
I00
g4730
tp5242
a(g4742
I00
g4740
tp5243
a(g4752
I00
g4750
tp5244
a(g4762
I00
g4760
tp5245
a(g4772
I00
g4770
tp5246
a(g4782
I00
g4780
tp5247
a(g4792
I00
g4790
tp5248
a(g4802
I00
g4800
tp5249
a(g4812
I00
g4810
tp5250
a(g4822
I00
g4820
tp5251
a(g4832
I00
g4830
tp5252
a(g4842
I00
g4840
tp5253
aasbasbasbasbasbasbasbag57
(g73
g59
NtRp5254
(dp5255
g62
(dp5256
sg71
g4967
sg64
(lp5257
g57
(g78
g59
NtRp5258
(dp5259
g62
(dp5260
sg71
g5254
sg64
(lp5261
g57
(g58
g59
NtRp5262
(dp5263
g62
(dp5264
g70
I2
ssg71
g5258
sg64
(lp5265
g57
(g66
g59
NtRp5266
(dp5267
g62
(dp5268
g70
I1
ssg71
Nsg64
(lp5269
g57
(g73
g59
NtRp5270
(dp5271
g62
(dp5272
sg71
g5266
sg64
(lp5273
g57
(g78
g59
NtRp5274
(dp5275
g62
(dp5276
sg71
g5270
sg64
(lp5277
g57
(g58
g59
NtRp5278
(dp5279
g62
(dp5280
g70
I1
ssg71
g5274
sg64
(lp5281
g4853
asbasbasbag57
(g73
g59
NtRp5282
(dp5283
g62
(dp5284
sg71
g5266
sg64
(lp5285
g57
(g78
g59
NtRp5286
(dp5287
g62
(dp5288
sg71
g5282
sg64
(lp5289
g57
(g58
g59
NtRp5290
(dp5291
g62
(dp5292
g70
I1
ssg71
g5286
sg64
(lp5293
I00
asbasbasbag57
(g73
g59
NtRp5294
(dp5295
g62
(dp5296
sg71
g5266
sg64
(lp5297
g57
(g78
g59
NtRp5298
(dp5299
g62
(dp5300
sg71
g5294
sg64
(lp5301
g57
(g58
g59
NtRp5302
(dp5303
g62
(dp5304
g70
I1
ssg71
g5298
sg64
(lp5305
Nasbasbasbag57
(g73
g59
NtRp5306
(dp5307
g62
(dp5308
sg71
g5266
sg64
(lp5309
g57
(g78
g59
NtRp5310
(dp5311
g62
(dp5312
sg71
g5306
sg64
(lp5313
g57
(g58
g59
NtRp5314
(dp5315
g62
(dp5316
g70
I1
ssg71
g5310
sg64
(lp5317
(lp5318
(g4867
I00
g4865
tp5319
a(g4877
I00
g4875
tp5320
a(g4887
I00
g4885
tp5321
aasbasbasbasbasbasbasbag57
(g73
g59
NtRp5322
(dp5323
g62
(dp5324
sg71
g4967
sg64
(lp5325
g57
(g78
g59
NtRp5326
(dp5327
g62
(dp5328
sg71
g5322
sg64
(lp5329
g57
(g58
g59
NtRp5330
(dp5331
g62
(dp5332
g70
I2
ssg71
g5326
sg64
(lp5333
g57
(g66
g59
NtRp5334
(dp5335
g62
(dp5336
g70
I1
ssg71
Nsg64
(lp5337
g57
(g73
g59
NtRp5338
(dp5339
g62
(dp5340
sg71
g5334
sg64
(lp5341
g57
(g78
g59
NtRp5342
(dp5343
g62
(dp5344
sg71
g5338
sg64
(lp5345
g57
(g58
g59
NtRp5346
(dp5347
g62
(dp5348
g70
I1
ssg71
g5342
sg64
(lp5349
g4896
asbasbasbag57
(g73
g59
NtRp5350
(dp5351
g62
(dp5352
sg71
g5334
sg64
(lp5353
g57
(g78
g59
NtRp5354
(dp5355
g62
(dp5356
sg71
g5350
sg64
(lp5357
g57
(g58
g59
NtRp5358
(dp5359
g62
(dp5360
g70
I1
ssg71
g5354
sg64
(lp5361
I00
asbasbasbag57
(g73
g59
NtRp5362
(dp5363
g62
(dp5364
sg71
g5334
sg64
(lp5365
g57
(g78
g59
NtRp5366
(dp5367
g62
(dp5368
sg71
g5362
sg64
(lp5369
g57
(g58
g59
NtRp5370
(dp5371
g62
(dp5372
g70
I1
ssg71
g5366
sg64
(lp5373
Nasbasbasbag57
(g73
g59
NtRp5374
(dp5375
g62
(dp5376
sg71
g5334
sg64
(lp5377
g57
(g78
g59
NtRp5378
(dp5379
g62
(dp5380
sg71
g5374
sg64
(lp5381
g57
(g58
g59
NtRp5382
(dp5383
g62
(dp5384
g70
I1
ssg71
g5378
sg64
(lp5385
(lp5386
(g4910
I00
g4908
tp5387
a(g4919
I00
g4636
tp5388
a(g4928
I00
g4646
tp5389
aasbasbasbasbasbasbasbasbasbasbasbasbasbasbasbasbasbasbasbag57
(g73
g59
NtRp5390
(dp5391
g62
(dp5392
sg71
g3507
sg64
(lp5393
g57
(g78
g59
NtRp5394
(dp5395
g62
(dp5396
g82
g83
ssg71
g5390
sg64
(lp5397
S'meta'
p5398
asbag57
(g78
g59
NtRp5399
(dp5400
g62
(dp5401
g89
g90
ssg71
g5390
sg64
(lp5402
S':'
asbag57
(g78
g59
NtRp5403
(dp5404
g62
(dp5405
sg71
g5390
sg64
(lp5406
g57
(g58
g59
NtRp5407
(dp5408
g62
(dp5409
g70
I5
ssg71
g5403
sg64
(lp5410
g57
(g66
g59
NtRp5411
(dp5412
g62
(dp5413
g70
I4
ssg71
Nsg64
(lp5414
g57
(g73
g59
NtRp5415
(dp5416
g62
(dp5417
sg71
g5411
sg64
(lp5418
g57
(g78
g59
NtRp5419
(dp5420
g62
(dp5421
g82
g83
ssg71
g5415
sg64
(lp5422
S'author'
p5423
asbag57
(g78
g59
NtRp5424
(dp5425
g62
(dp5426
g89
g90
ssg71
g5415
sg64
(lp5427
S':'
asbag57
(g78
g59
NtRp5428
(dp5429
g62
(dp5430
sg71
g5415
sg64
(lp5431
g57
(g58
g59
NtRp5432
(dp5433
g62
(dp5434
g70
I4
ssg71
g5428
sg64
(lp5435
S'Your Name <you@example.com>'
p5436
asbasbasbag57
(g73
g59
NtRp5437
(dp5438
g62
(dp5439
sg71
g5411
sg64
(lp5440
g57
(g78
g59
NtRp5441
(dp5442
g62
(dp5443
g82
g83
ssg71
g5437
sg64
(lp5444
S'description'
p5445
asbag57
(g78
g59
NtRp5446
(dp5447
g62
(dp5448
g89
g90
ssg71
g5437
sg64
(lp5449
S':'
asbag57
(g78
g59
NtRp5450
(dp5451
g62
(dp5452
sg71
g5437
sg64
(lp5453
g57
(g58
g59
NtRp5454
(dp5455
g62
(dp5456
g70
I4
ssg71
g5450
sg64
(lp5457
S'a cool new app'
p5458
asbasbasbag57
(g73
g59
NtRp5459
(dp5460
g62
(dp5461
sg71
g5411
sg64
(lp5462
g57
(g78
g59
NtRp5463
(dp5464
g62
(dp5465
g82
g83
ssg71
g5459
sg64
(lp5466
S'generator'
p5467
asbag57
(g78
g59
NtRp5468
(dp5469
g62
(dp5470
g89
g90
ssg71
g5459
sg64
(lp5471
S':'
asbag57
(g78
g59
NtRp5472
(dp5473
g62
(dp5474
sg71
g5459
sg64
(lp5475
g57
(g58
g59
NtRp5476
(dp5477
g62
(dp5478
g70
I4
ssg71
g5472
sg64
(lp5479
S'Web2py Web Framework'
p5480
asbasbasbag57
(g73
g59
NtRp5481
(dp5482
g62
(dp5483
sg71
g5411
sg64
(lp5484
g57
(g78
g59
NtRp5485
(dp5486
g62
(dp5487
g82
g83
ssg71
g5481
sg64
(lp5488
S'keywords'
p5489
asbag57
(g78
g59
NtRp5490
(dp5491
g62
(dp5492
g89
g90
ssg71
g5481
sg64
(lp5493
S':'
asbag57
(g78
g59
NtRp5494
(dp5495
g62
(dp5496
sg71
g5481
sg64
(lp5497
g57
(g58
g59
NtRp5498
(dp5499
g62
(dp5500
g70
I4
ssg71
g5494
sg64
(lp5501
S'web2py, python, framework'
p5502
asbasbasbasbasbasbasbag57
(g73
g59
NtRp5503
(dp5504
g62
(dp5505
sg71
g3507
sg64
(lp5506
g57
(g78
g59
NtRp5507
(dp5508
g62
(dp5509
g82
g83
ssg71
g5503
sg64
(lp5510
S'models_to_run'
p5511
asbag57
(g78
g59
NtRp5512
(dp5513
g62
(dp5514
g89
g90
ssg71
g5503
sg64
(lp5515
S':'
asbag57
(g78
g59
NtRp5516
(dp5517
g62
(dp5518
sg71
g5503
sg64
(lp5519
g57
(g58
g59
NtRp5520
(dp5521
g62
(dp5522
g70
I5
ssg71
g5516
sg64
(lp5523
g57
(g66
g59
NtRp5524
(dp5525
g62
(dp5526
g70
I4
ssg71
Nsg64
(lp5527
g57
(g73
g59
NtRp5528
(dp5529
g62
(dp5530
sg71
g5524
sg64
(lp5531
g57
(g78
g59
NtRp5532
(dp5533
g62
(dp5534
sg71
g5528
sg64
(lp5535
g57
(g58
g59
NtRp5536
(dp5537
g62
(dp5538
g70
I4
ssg71
g5532
sg64
(lp5539
S'^\\w+\\.py$'
p5540
asbasbasbag57
(g73
g59
NtRp5541
(dp5542
g62
(dp5543
sg71
g5524
sg64
(lp5544
g57
(g78
g59
NtRp5545
(dp5546
g62
(dp5547
sg71
g5541
sg64
(lp5548
g57
(g58
g59
NtRp5549
(dp5550
g62
(dp5551
g70
I4
ssg71
g5545
sg64
(lp5552
S'^charts/\\w+\\.py$'
p5553
asbasbasbag57
(g73
g59
NtRp5554
(dp5555
g62
(dp5556
sg71
g5524
sg64
(lp5557
g57
(g78
g59
NtRp5558
(dp5559
g62
(dp5560
sg71
g5554
sg64
(lp5561
g57
(g58
g59
NtRp5562
(dp5563
g62
(dp5564
g70
I4
ssg71
g5558
sg64
(lp5565
S'^charts/user_charts/\\w+\\.py$'
p5566
asbasbasbasbasbasbasbag57
(g73
g59
NtRp5567
(dp5568
g62
(dp5569
sg71
g3507
sg64
(lp5570
g57
(g78
g59
NtRp5571
(dp5572
g62
(dp5573
g82
g83
ssg71
g5567
sg64
(lp5574
S'postprocessing'
p5575
asbag57
(g78
g59
NtRp5576
(dp5577
g62
(dp5578
g89
g90
ssg71
g5567
sg64
(lp5579
S':'
asbag57
(g78
g59
NtRp5580
(dp5581
g62
(dp5582
sg71
g5567
sg64
(lp5583
g57
(g58
g59
NtRp5584
(dp5585
g62
(dp5586
g70
I5
ssg71
g5580
sg64
(lp5587
g57
(g66
g59
NtRp5588
(dp5589
g62
(dp5590
g70
I4
ssg71
Nsg64
(lp5591
sbasbasbasbag57
(g73
g59
NtRp5592
(dp5593
g62
(dp5594
sg71
g3507
sg64
(lp5595
g57
(g78
g59
NtRp5596
(dp5597
g62
(dp5598
g82
g83
ssg71
g5592
sg64
(lp5599
S'session_cookie_expires'
p5600
asbag57
(g78
g59
NtRp5601
(dp5602
g62
(dp5603
g89
g90
ssg71
g5592
sg64
(lp5604
S':'
asbag57
(g78
g59
NtRp5605
(dp5606
g62
(dp5607
sg71
g5592
sg64
(lp5608
g57
(g58
g59
NtRp5609
(dp5610
g62
(dp5611
g70
I5
ssg71
g5605
sg64
(lp5612
S'None'
p5613
asbasbasbag57
(g73
g59
NtRp5614
(dp5615
g62
(dp5616
sg71
g3507
sg64
(lp5617
g57
(g78
g59
NtRp5618
(dp5619
g62
(dp5620
g82
g83
ssg71
g5614
sg64
(lp5621
S'session_data_name'
p5622
asbag57
(g78
g59
NtRp5623
(dp5624
g62
(dp5625
g89
g90
ssg71
g5614
sg64
(lp5626
S':'
asbag57
(g78
g59
NtRp5627
(dp5628
g62
(dp5629
sg71
g5614
sg64
(lp5630
g57
(g58
g59
NtRp5631
(dp5632
g62
(dp5633
g70
I5
ssg71
g5627
sg64
(lp5634
S'session_data_web2py_xlchart_dashboard'
p5635
asbasbasbag57
(g73
g59
NtRp5636
(dp5637
g62
(dp5638
sg71
g3507
sg64
(lp5639
g57
(g78
g59
NtRp5640
(dp5641
g62
(dp5642
g82
g83
ssg71
g5636
sg64
(lp5643
S'session_file'
p5644
asbag57
(g78
g59
NtRp5645
(dp5646
g62
(dp5647
g89
g90
ssg71
g5636
sg64
(lp5648
S':'
asbag57
(g78
g59
NtRp5649
(dp5650
g62
(dp5651
sg71
g5636
sg64
(lp5652
g57
(g58
g59
NtRp5653
(dp5654
g62
(dp5655
g70
I5
ssg71
g5649
sg64
(lp5656
S"<open file 'D:\\web2py\\source\\web2py\\applications\\web2py_xlchart_dashboard\\sessions\\127.0.0.1-7a74a73d-368d-4877-8817-36158f804b74', mode 'rb+' at 0x04B74BD0>"
p5657
asbasbasbag57
(g73
g59
NtRp5658
(dp5659
g62
(dp5660
sg71
g3507
sg64
(lp5661
g57
(g78
g59
NtRp5662
(dp5663
g62
(dp5664
g82
g83
ssg71
g5658
sg64
(lp5665
S'session_filename'
p5666
asbag57
(g78
g59
NtRp5667
(dp5668
g62
(dp5669
g89
g90
ssg71
g5658
sg64
(lp5670
S':'
asbag57
(g78
g59
NtRp5671
(dp5672
g62
(dp5673
sg71
g5658
sg64
(lp5674
g57
(g58
g59
NtRp5675
(dp5676
g62
(dp5677
g70
I5
ssg71
g5671
sg64
(lp5678
S'D:\\web2py\\source\\web2py\\applications\\web2py_xlchart_dashboard\\sessions\\127.0.0.1-7a74a73d-368d-4877-8817-36158f804b74'
p5679
asbasbasbag57
(g73
g59
NtRp5680
(dp5681
g62
(dp5682
sg71
g3507
sg64
(lp5683
g57
(g78
g59
NtRp5684
(dp5685
g62
(dp5686
g82
g83
ssg71
g5680
sg64
(lp5687
S'session_id'
p5688
asbag57
(g78
g59
NtRp5689
(dp5690
g62
(dp5691
g89
g90
ssg71
g5680
sg64
(lp5692
S':'
asbag57
(g78
g59
NtRp5693
(dp5694
g62
(dp5695
sg71
g5680
sg64
(lp5696
g57
(g58
g59
NtRp5697
(dp5698
g62
(dp5699
g70
I5
ssg71
g5693
sg64
(lp5700
g475
asbasbasbag57
(g73
g59
NtRp5701
(dp5702
g62
(dp5703
sg71
g3507
sg64
(lp5704
g57
(g78
g59
NtRp5705
(dp5706
g62
(dp5707
g82
g83
ssg71
g5701
sg64
(lp5708
S'session_id_name'
p5709
asbag57
(g78
g59
NtRp5710
(dp5711
g62
(dp5712
g89
g90
ssg71
g5701
sg64
(lp5713
S':'
asbag57
(g78
g59
NtRp5714
(dp5715
g62
(dp5716
sg71
g5701
sg64
(lp5717
g57
(g58
g59
NtRp5718
(dp5719
g62
(dp5720
g70
I5
ssg71
g5714
sg64
(lp5721
g3564
asbasbasbag57
(g73
g59
NtRp5722
(dp5723
g62
(dp5724
sg71
g3507
sg64
(lp5725
g57
(g78
g59
NtRp5726
(dp5727
g62
(dp5728
g82
g83
ssg71
g5722
sg64
(lp5729
S'session_locked'
p5730
asbag57
(g78
g59
NtRp5731
(dp5732
g62
(dp5733
g89
g90
ssg71
g5722
sg64
(lp5734
S':'
asbag57
(g78
g59
NtRp5735
(dp5736
g62
(dp5737
sg71
g5722
sg64
(lp5738
g57
(g58
g59
NtRp5739
(dp5740
g62
(dp5741
g70
I5
ssg71
g5735
sg64
(lp5742
g799
asbasbasbag57
(g73
g59
NtRp5743
(dp5744
g62
(dp5745
sg71
g3507
sg64
(lp5746
g57
(g78
g59
NtRp5747
(dp5748
g62
(dp5749
g82
g83
ssg71
g5743
sg64
(lp5750
S'session_new'
p5751
asbag57
(g78
g59
NtRp5752
(dp5753
g62
(dp5754
g89
g90
ssg71
g5743
sg64
(lp5755
S':'
asbag57
(g78
g59
NtRp5756
(dp5757
g62
(dp5758
sg71
g5743
sg64
(lp5759
g57
(g58
g59
NtRp5760
(dp5761
g62
(dp5762
g70
I5
ssg71
g5756
sg64
(lp5763
g100
asbasbasbag57
(g73
g59
NtRp5764
(dp5765
g62
(dp5766
sg71
g3507
sg64
(lp5767
g57
(g78
g59
NtRp5768
(dp5769
g62
(dp5770
g82
g83
ssg71
g5764
sg64
(lp5771
S'session_storage_type'
p5772
asbag57
(g78
g59
NtRp5773
(dp5774
g62
(dp5775
g89
g90
ssg71
g5764
sg64
(lp5776
S':'
asbag57
(g78
g59
NtRp5777
(dp5778
g62
(dp5779
sg71
g5764
sg64
(lp5780
g57
(g58
g59
NtRp5781
(dp5782
g62
(dp5783
g70
I5
ssg71
g5777
sg64
(lp5784
g3056
asbasbasbag57
(g73
g59
NtRp5785
(dp5786
g62
(dp5787
sg71
g3507
sg64
(lp5788
g57
(g78
g59
NtRp5789
(dp5790
g62
(dp5791
g82
g83
ssg71
g5785
sg64
(lp5792
S'status'
p5793
asbag57
(g78
g59
NtRp5794
(dp5795
g62
(dp5796
g89
g90
ssg71
g5785
sg64
(lp5797
S':'
asbag57
(g78
g59
NtRp5798
(dp5799
g62
(dp5800
sg71
g5785
sg64
(lp5801
g57
(g58
g59
NtRp5802
(dp5803
g62
(dp5804
g70
I5
ssg71
g5798
sg64
(lp5805
S'200'
p5806
asbasbasbag57
(g73
g59
NtRp5807
(dp5808
g62
(dp5809
sg71
g3507
sg64
(lp5810
g57
(g78
g59
NtRp5811
(dp5812
g62
(dp5813
g82
g83
ssg71
g5807
sg64
(lp5814
S'subtitle'
p5815
asbag57
(g78
g59
NtRp5816
(dp5817
g62
(dp5818
g89
g90
ssg71
g5807
sg64
(lp5819
S':'
asbag57
(g78
g59
NtRp5820
(dp5821
g62
(dp5822
sg71
g5807
sg64
(lp5823
g57
(g58
g59
NtRp5824
(dp5825
g62
(dp5826
g70
I5
ssg71
g5820
sg64
(lp5827
g4101
(S's\r\x00\x00\x00customize me!'
tRp5828
asbasbasbag57
(g73
g59
NtRp5829
(dp5830
g62
(dp5831
sg71
g3507
sg64
(lp5832
g57
(g78
g59
NtRp5833
(dp5834
g62
(dp5835
g82
g83
ssg71
g5829
sg64
(lp5836
S'title'
p5837
asbag57
(g78
g59
NtRp5838
(dp5839
g62
(dp5840
g89
g90
ssg71
g5829
sg64
(lp5841
S':'
asbag57
(g78
g59
NtRp5842
(dp5843
g62
(dp5844
sg71
g5829
sg64
(lp5845
g57
(g58
g59
NtRp5846
(dp5847
g62
(dp5848
g70
I5
ssg71
g5842
sg64
(lp5849
S'Web2py Xlchart Dashboard'
p5850
asbasbasbag57
(g73
g59
NtRp5851
(dp5852
g62
(dp5853
sg71
g3507
sg64
(lp5854
g57
(g78
g59
NtRp5855
(dp5856
g62
(dp5857
g82
g83
ssg71
g5851
sg64
(lp5858
S'view'
p5859
asbag57
(g78
g59
NtRp5860
(dp5861
g62
(dp5862
g89
g90
ssg71
g5851
sg64
(lp5863
S':'
asbag57
(g78
g59
NtRp5864
(dp5865
g62
(dp5866
sg71
g5851
sg64
(lp5867
g57
(g58
g59
NtRp5868
(dp5869
g62
(dp5870
g70
I5
ssg71
g5864
sg64
(lp5871
S'charts/user_charts.html'
p5872
asbasbasbasbasbsS'locals'
p5873
(dp5874
S'Service'
p5875
S"<class 'gluon.tools.Service'>"
p5876
sS'OBJECT'
p5877
S"<class 'gluon.html.OBJECT'>"
p5878
sS'SQLDB'
p5879
S"<class 'gluon.dal.DAL'>"
p5880
sg3113
S"<Storage {'_formkey[login]': 'b79e2f36-7ce4-4953...user_groups': {1: 'user_1', 2: 'wiki_editor'}}>}>"
p5881
sS'LINK'
p5882
S"<class 'gluon.html.LINK'>"
p5883
sS'BR'
p5884
S"<class 'gluon.html.BR'>"
p5885
sS'local_import'
p5886
S'<function <lambda>>'
p5887
sS'OPTGROUP'
p5888
S"<class 'gluon.html.OPTGROUP'>"
p5889
sS'__package__'
p5890
S'None'
p5891
sS'PRE'
p5892
S"<class 'gluon.html.PRE'>"
p5893
sS'IS_INT_IN_RANGE'
p5894
S"<class 'gluon.validators.IS_INT_IN_RANGE'>"
p5895
sS'left_sidebar_enabled'
p5896
g100
sS'IS_LOWER'
p5897
S"<class 'gluon.validators.IS_LOWER'>"
p5898
sS'IS_STRONG'
p5899
S"<class 'gluon.validators.IS_STRONG'>"
p5900
sS'cache'
p5901
S'<gluon.cache.Cache object>'
p5902
sS'IS_IN_DB'
p5903
S"<class 'gluon.validators.IS_IN_DB'>"
p5904
sS'TAG'
p5905
S'<gluon.html.__TAG__ object>'
p5906
sS'SQLField'
p5907
S"<class 'gluon.dal.Field'>"
p5908
sS'mail'
p5909
S'<gluon.tools.Mail object>'
p5910
sS'BODY'
p5911
S"<class 'gluon.html.BODY'>"
p5912
sS'IS_DATE_IN_RANGE'
p5913
S"<class 'gluon.validators.IS_DATE_IN_RANGE'>"
p5914
sS'IFRAME'
p5915
S"<class 'gluon.html.IFRAME'>"
p5916
sS'URL'
p5917
S'<function URL>'
p5918
sS'__file__'
p5919
S"r'D:\\web2py\\source\\web2py\\applications\\web2py_xlchart_dashboard\\views\\charts/user_charts.html'"
p5920
sS'db'
p5921
S'<DAL uri="sqlite://storage.sqlite">'
p5922
sS'auth'
p5923
S'<gluon.tools.Auth object>'
p5924
sS'P'
S"<class 'gluon.html.P'>"
p5925
sS'TFOOT'
p5926
S"<class 'gluon.html.TFOOT'>"
p5927
sS'XHTML'
p5928
S"<class 'gluon.html.XHTML'>"
p5929
sS'ON'
p5930
g799
sS'OL'
p5931
S"<class 'gluon.html.OL'>"
p5932
sS'TEXTAREA'
p5933
S"<class 'gluon.html.TEXTAREA'>"
p5934
sS'MENU'
p5935
S"<class 'gluon.html.MENU'>"
p5936
sS'IS_IMAGE'
p5937
S"<class 'gluon.validators.IS_IMAGE'>"
p5938
sS'EM'
p5939
S"<class 'gluon.html.EM'>"
p5940
sS'CODE'
p5941
S"<class 'gluon.html.CODE'>"
p5942
sS'HTTP'
p5943
S"<class 'gluon.http.HTTP'>"
p5944
sS'allcharts'
p5945
S'<Rows (2)>'
p5946
sS'HR'
p5947
S"<class 'gluon.html.HR'>"
p5948
sS'IS_DATETIME'
p5949
S"<class 'gluon.validators.IS_DATETIME'>"
p5950
sS'STYLE'
p5951
S"<class 'gluon.html.STYLE'>"
p5952
sS'LABEL'
p5953
S"<class 'gluon.html.LABEL'>"
p5954
sS'CLEANUP'
p5955
S"<class 'gluon.validators.CLEANUP'>"
p5956
sS'plugins'
p5957
S'<gluon.tools.PluginManager object>'
p5958
sS'SELECT'
p5959
S"<class 'gluon.html.SELECT'>"
p5960
sS'use_janrain'
p5961
S'<function use_janrain>'
p5962
sS'CENTER'
p5963
S"<class 'gluon.html.CENTER'>"
p5964
sS'prettydate'
p5965
S'<function prettydate>'
p5966
sS'Crud'
p5967
S"<class 'gluon.tools.Crud'>"
p5968
sS'Auth'
p5969
S"<class 'gluon.tools.Auth'>"
p5970
sS'__builtins__'
p5971
S"{'ArithmeticError': <type 'exceptions.ArithmeticError'>, 'AssertionError': <type 'exceptions.AssertionError'>, 'AttributeError': <type 'exceptions.AttributeError'>, 'BaseException': <type 'exceptions.BaseException'>, 'BufferError': <type 'exceptions.BufferError'>, 'BytesWarning': <type 'exceptions.BytesWarning'>, 'DeprecationWarning': <type 'exceptions.DeprecationWarning'>, 'EOFError': <type 'exceptions.EOFError'>, 'Ellipsis': Ellipsis, 'EnvironmentError': <type 'exceptions.EnvironmentError'>, ...}"
p5972
sS'HTML'
p5973
S"<class 'gluon.html.HTML'>"
p5974
sS'SQLFORM'
p5975
S"<class 'gluon.sqlhtml.SQLFORM'>"
p5976
sS'LOAD'
p5977
S'<function LOAD>'
p5978
sS'redirect'
p5979
S'<function redirect>'
p5980
sS'FIELDSET'
p5981
S"<class 'gluon.html.FIELDSET'>"
p5982
sS'IS_EQUAL_TO'
p5983
S"<class 'gluon.validators.IS_EQUAL_TO'>"
p5984
sS'embed64'
p5985
S'<function embed64>'
p5986
sS'IS_LIST_OF'
p5987
S"<class 'gluon.validators.IS_LIST_OF'>"
p5988
sS'INPUT'
p5989
S"<class 'gluon.html.INPUT'>"
p5990
sS'EMBED'
p5991
S"<class 'gluon.html.EMBED'>"
p5992
sS'_'
S'<function _>'
p5993
sS'H2'
p5994
S"<class 'gluon.html.H2'>"
p5995
sS'H3'
p5996
S"<class 'gluon.html.H3'>"
p5997
sS'BUTTON'
p5998
S"<class 'gluon.html.BUTTON'>"
p5999
sS'H1'
p6000
S"<class 'gluon.html.H1'>"
p6001
sS'H6'
p6002
S"<class 'gluon.html.H6'>"
p6003
sS'H4'
p6004
S"<class 'gluon.html.H4'>"
p6005
sS'H5'
p6006
S"<class 'gluon.html.H5'>"
p6007
sS'UL'
p6008
S"<class 'gluon.html.UL'>"
p6009
sS'IS_UPPER'
p6010
S"<class 'gluon.validators.IS_UPPER'>"
p6011
sS'xmlescape'
p6012
S'<function xmlescape>'
p6013
sS'IS_TIME'
p6014
S"<class 'gluon.validators.IS_TIME'>"
p6015
sS'OPTION'
p6016
S"<class 'gluon.html.OPTION'>"
p6017
sS'TITLE'
p6018
S"<class 'gluon.html.TITLE'>"
p6019
sS'CRYPT'
p6020
S"<class 'gluon.validators.CRYPT'>"
p6021
sS'IS_EMPTY_OR'
p6022
S"<class 'gluon.validators.IS_EMPTY_OR'>"
p6023
sS'MARKMIN'
p6024
S"<class 'gluon.html.MARKMIN'>"
p6025
sS'__name__'
p6026
S"'__restricted__'"
p6027
sS'STRONG'
p6028
S"<class 'gluon.html.STRONG'>"
p6029
sS'COL'
p6030
S"<class 'gluon.html.COL'>"
p6031
sS'mycharts'
p6032
S'<Rows (2)>'
p6033
sS'service'
p6034
S'<gluon.tools.Service object>'
p6035
sS'SCRIPT'
p6036
S"<class 'gluon.html.SCRIPT'>"
p6037
sS'is_mobile'
p6038
g100
sS'TABLE'
p6039
S"<class 'gluon.html.TABLE'>"
p6040
sS'IS_IPV4'
p6041
S"<class 'gluon.validators.IS_IPV4'>"
p6042
sS'IS_LENGTH'
p6043
S"<class 'gluon.validators.IS_LENGTH'>"
p6044
sS'XML'
p6045
S"<class 'gluon.html.XML'>"
p6046
sS'B'
S"<class 'gluon.html.B'>"
p6047
sS'IMG'
p6048
S"<class 'gluon.html.IMG'>"
p6049
sS'SQLTABLE'
p6050
S"<class 'gluon.sqlhtml.SQLTABLE'>"
p6051
sS'IS_MATCH'
p6052
S"<class 'gluon.validators.IS_MATCH'>"
p6053
sS'IS_ALPHANUMERIC'
p6054
S"<class 'gluon.validators.IS_ALPHANUMERIC'>"
p6055
sS'is_my_chart'
p6056
S'<function is_my_chart>'
p6057
sS'SPAN'
p6058
S"<class 'gluon.html.SPAN'>"
p6059
sS'IS_SLUG'
p6060
S"<class 'gluon.validators.IS_SLUG'>"
p6061
sS'BEAUTIFY'
p6062
S"<class 'gluon.html.BEAUTIFY'>"
p6063
sS'META'
p6064
S"<class 'gluon.html.META'>"
p6065
sS'IS_DATE'
p6066
S"<class 'gluon.validators.IS_DATE'>"
p6067
sS'IS_EMAIL'
p6068
S"<class 'gluon.validators.IS_EMAIL'>"
p6069
sS'IS_NOT_EMPTY'
p6070
S"<class 'gluon.validators.IS_NOT_EMPTY'>"
p6071
sS'IS_FLOAT_IN_RANGE'
p6072
S"<class 'gluon.validators.IS_FLOAT_IN_RANGE'>"
p6073
sS'TBODY'
p6074
S"<class 'gluon.html.TBODY'>"
p6075
sS'CAT'
p6076
S"<class 'gluon.html.CAT'>"
p6077
sS'Field'
p6078
S"<class 'gluon.dal.Field'>"
p6079
sS'middle_columns'
p6080
S"'span12'"
p6081
sS'DIV'
p6082
S"<class 'gluon.html.DIV'>"
p6083
sS'LEGEND'
p6084
S"<class 'gluon.html.LEGEND'>"
p6085
sS'COLGROUP'
p6086
S"<class 'gluon.html.COLGROUP'>"
p6087
sS'DAL'
p6088
S"<class 'gluon.dal.DAL'>"
p6089
sS'TT'
p6090
S"<class 'gluon.html.TT'>"
p6091
sS'TR'
p6092
S"<class 'gluon.html.TR'>"
p6093
sS'LI'
p6094
S"<class 'gluon.html.LI'>"
p6095
sS'right_sidebar_enabled'
p6096
g100
sS'TH'
p6097
S"<class 'gluon.html.TH'>"
p6098
sS'TD'
p6099
S"<class 'gluon.html.TD'>"
p6100
sS'PluginManager'
p6101
S"<class 'gluon.tools.PluginManager'>"
p6102
sS'IS_URL'
p6103
S"<class 'gluon.validators.IS_URL'>"
p6104
sS'A'
S"<class 'gluon.html.A'>"
p6105
sS'HEAD'
p6106
S"<class 'gluon.html.HEAD'>"
p6107
sS'IS_DATETIME_IN_RANGE'
p6108
S"<class 'gluon.validators.IS_DATETIME_IN_RANGE'>"
p6109
sS'FORM'
p6110
S"<class 'gluon.html.FORM'>"
p6111
sS'I'
S"<class 'gluon.html.I'>"
p6112
sS'crud'
p6113
S'<gluon.tools.Crud object>'
p6114
sS'chart'
p6115
S"<Row {'id_user': 1, 'description': 'Test', 'title': 'Test', 'id_chart': 12, 'id': 19}>"
p6116
sS'IS_NOT_IN_DB'
p6117
S"<class 'gluon.validators.IS_NOT_IN_DB'>"
p6118
sg3502
S"<Storage {'body': <cStringIO.StringO object at 0... 0x04B7B230>, 'view': 'charts/user_charts.html'}>"
p6119
sS'THEAD'
p6120
S"<class 'gluon.html.THEAD'>"
p6121
sS'IS_NULL_OR'
p6122
S"<class 'gluon.validators.IS_EMPTY_OR'>"
p6123
sg56
S"<Storage {'function': 'user_charts', 'body': <cS...xlchart_dashboard\\\\', 'post_vars': <Storage {}>}>"
p6124
sS'IS_EXPR'
p6125
S"<class 'gluon.validators.IS_EXPR'>"
p6126
sS'T'
S'<gluon.languages.translator object>'
p6127
sS'IS_IN_SET'
p6128
S"<class 'gluon.validators.IS_IN_SET'>"
p6129
sS'IS_UPLOAD_FILENAME'
p6130
S"<class 'gluon.validators.IS_UPLOAD_FILENAME'>"
p6131
sS'checkchartindb'
p6132
S'<function checkchartindb>'
p6133
sS'IS_DECIMAL_IN_RANGE'
p6134
S"<class 'gluon.validators.IS_DECIMAL_IN_RANGE'>"
p6135
sssS'traceback'
p6136
S'Traceback (most recent call last):\n  File "D:\\web2py\\source\\web2py\\gluon\\restricted.py", line 212, in restricted\n    exec ccode in environment\n  File "D:\\web2py\\source\\web2py\\applications\\web2py_xlchart_dashboard\\views\\charts/user_charts.html", line 83, in <module>\n    <h4>Available Charts</h4>\nAttributeError: \'Row\' object has no attribute \'chartName\'\n'
p6137
s.