(dp1
S'output'
p2
S"<type 'exceptions.AttributeError'> 'DAL' object has no attribute 'auth'"
p3
sS'layer'
p4
S'X:\\procurement\\MATERIEL\\Raw Material\\Data Management\\Custom Applications\\Development\\web2py\\applications\\welcome\\models\\db.py'
p5
sS'code'
p6
S"# -*- coding: utf-8 -*-\n\n\n    \n\n#########################################################################\n## This scaffolding model makes your app work on Google App Engine too\n## File is released under public domain and you can use without limitations\n#########################################################################\n\n## if SSL/HTTPS is properly configured and you want all HTTP requests to\n## be redirected to HTTPS, uncomment the line below:\n# request.requires_https()\n\nif not request.env.web2py_runtime_gae:\n    ## if NOT running on Google App Engine use SQLite or other DB\n    db = DAL('sqlite://storage.sqlite')\nelse:\n    ## connect to Google BigTable (optional 'google:datastore://namespace')\n    db = DAL('google:datastore')\n    ## store sessions and tickets there\n    session.connect(request, response, db=db)\n    ## or store session in Memcache, Redis, etc.\n    ## from gluon.contrib.memdb import MEMDB\n    ## from google.appengine.api.memcache import Client\n    ## session.connect(request, response, db = MEMDB(Client()))\n\n## by default give a view/generic.extension to all actions from localhost\n## none otherwise. a pattern can be 'controller/function.extension'\nresponse.generic_patterns = ['*'] if request.is_local else []\n## (optional) optimize handling of static files\n# response.optimize_css = 'concat,minify,inline'\n# response.optimize_js = 'concat,minify,inline'\n\n#########################################################################\n## Here is sample code if you need for\n## - email capabilities\n## - authentication (registration, login, logout, ... )\n## - authorization (role based authorization)\n## - services (xml, csv, json, xmlrpc, jsonrpc, amf, rss)\n## - old style crud actions\n## (more options discussed in gluon/tools.py)\n#########################################################################\n\nfrom gluon.tools import Auth, Crud, Service, PluginManager, prettydate\nauth = Auth(db)\ncrud, service, plugins = Crud(db), Service(), PluginManager()\n\n## create all tables needed by auth if not custom tables\nauth.define_tables(username=False, signature=False)\n\n## configure email\nmail = auth.settings.mailer\nmail.settings.server = 'logging' or 'smtp.gmail.com:587'\nmail.settings.sender = 'you@gmail.com'\nmail.settings.login = 'username:password'\n\n## configure auth policy\nauth.settings.registration_requires_verification = False\nauth.settings.registration_requires_approval = False\nauth.settings.reset_password_requires_verification = True\n\n## if you need to use OpenID, Facebook, MySpace, Twitter, Linkedin, etc.\n## register with janrain.com, write your domain:api_key in private/janrain.key\nfrom gluon.contrib.login_methods.rpx_account import use_janrain\nuse_janrain(auth, filename='private/janrain.key')\n\n#########################################################################\n## Define your tables below (or better in another model file) for example\n##\n## >>> db.define_table('mytable',Field('myfield','string'))\n##\n## Fields can be 'string','text','password','integer','double','boolean'\n##       'date','time','datetime','blob','upload', 'reference TABLENAME'\n## There is an implicit 'id integer autoincrement' field\n## Consult manual for more options, validators, etc.\n##\n## More API examples for controllers:\n##\n## >>> db.mytable.insert(myfield='value')\n## >>> rows=db(db.mytable.myfield=='value').select(db.mytable.ALL)\n## >>> for row in rows: print row.id, row.myfield\n#########################################################################\n\n## after defining tables, uncomment below to enable auditing\n# auth.enable_record_versioning(db)\ndb.define_table('workbooks',\nField('path',requires=[IS_NOT_EMPTY(),IS_NOT_IN_DB(db,'workbooks.path')]),\nField('title',requires=IS_NOT_EMPTY()),\n)\n\n\ndb.define_table('charts',\nField('chartName'),\nField('workbooks',db.workbooks),\nField('worksheet'),\n)\n\ndb.define_table('user_charts',\nField('user',db.auth),\nField('chart',db.charts,requires=IS_NOT_EMPTY()),\nField('title'),\nField('description','text'),\n)\n\ndb.define_table('dashboards',\nField('user',db.auth),\nField('name', requries=IS_NOT_EMPTY()),\nField('title'),\nField('description','text'),\n)\n\ndb.define_table('dashboard_section',\nField('dashboard',db.dashboards),\nField('title',requires=IS_NOT_EMPTY),\nField('bgcolor'),\nField('row','integer',requires=IS_NOT_EMPTY()),\nField('col','integer',requires=IS_NOT_EMPTY()),\nField('colspan','integer'),\n)\n\ndb.define_table('chart_position',\nField('id_section',db.dashboard_section),\nField('width','integer'),\nField('height','integer'),\n)\n"
p7
sS'snapshot'
p8
(dp9
S'exception'
p10
(dp11
S'__hash__'
p12
S"<method-wrapper '__hash__' of exceptions.AttributeError object>"
p13
sS'__setattr__'
p14
S"<method-wrapper '__setattr__' of exceptions.AttributeError object>"
p15
sS'__reduce_ex__'
p16
S'<built-in method __reduce_ex__ of exceptions.AttributeError object>'
p17
sS'__getslice__'
p18
S"<method-wrapper '__getslice__' of exceptions.AttributeError object>"
p19
sS'__getitem__'
p20
S"<method-wrapper '__getitem__' of exceptions.AttributeError object>"
p21
sS'__setstate__'
p22
S'<built-in method __setstate__ of exceptions.AttributeError object>'
p23
sS'__reduce__'
p24
S'<built-in method __reduce__ of exceptions.AttributeError object>'
p25
sS'__str__'
p26
S"<method-wrapper '__str__' of exceptions.AttributeError object>"
p27
sS'__format__'
p28
S'<built-in method __format__ of exceptions.AttributeError object>'
p29
sS'__getattribute__'
p30
S"<method-wrapper '__getattribute__' of exceptions.AttributeError object>"
p31
sS'__class__'
p32
S"<type 'exceptions.AttributeError'>"
p33
sS'__unicode__'
p34
S'<built-in method __unicode__ of exceptions.AttributeError object>'
p35
sS'__delattr__'
p36
S"<method-wrapper '__delattr__' of exceptions.AttributeError object>"
p37
sS'__subclasshook__'
p38
S'<built-in method __subclasshook__ of type object>'
p39
sS'__repr__'
p40
S"<method-wrapper '__repr__' of exceptions.AttributeError object>"
p41
sS'args'
p42
S'("\'DAL\' object has no attribute \'auth\'",)'
p43
sS'__dict__'
p44
S'{}'
p45
sS'__sizeof__'
p46
S'<built-in method __sizeof__ of exceptions.AttributeError object>'
p47
sS'__doc__'
p48
S"'Attribute not found.'"
p49
sS'__init__'
p50
S"<method-wrapper '__init__' of exceptions.AttributeError object>"
p51
sS'__new__'
p52
S'<built-in method __new__ of type object>'
p53
ssS'evalue'
p54
S"'DAL' object has no attribute 'auth'"
p55
sS'request'
p56
ccopy_reg
_reconstructor
p57
(cgluon.html
BEAUTIFY
p58
c__builtin__
object
p59
NtRp60
(dp61
S'attributes'
p62
(dp63
sS'components'
p64
(lp65
g57
(cgluon.html
TABLE
p66
g59
NtRp67
(dp68
g62
(dp69
S'level'
p70
I5
ssS'parent'
p71
Nsg64
(lp72
g57
(cgluon.html
TR
p73
g59
NtRp74
(dp75
g62
(dp76
sg71
g67
sg64
(lp77
g57
(cgluon.html
TD
p78
g59
NtRp79
(dp80
g62
(dp81
S'_style'
p82
S'font-weight:bold;vertical-align:top'
p83
ssg71
g74
sg64
(lp84
S'ajax'
p85
asbag57
(g78
g59
NtRp86
(dp87
g62
(dp88
S'_valign'
p89
S'top'
p90
ssg71
g74
sg64
(lp91
S':'
asbag57
(g78
g59
NtRp92
(dp93
g62
(dp94
sg71
g74
sg64
(lp95
g57
(g58
g59
NtRp96
(dp97
g62
(dp98
g70
I5
ssg71
g92
sg64
(lp99
S'False'
p100
asbasbasbag57
(g73
g59
NtRp101
(dp102
g62
(dp103
sg71
g67
sg64
(lp104
g57
(g78
g59
NtRp105
(dp106
g62
(dp107
g82
g83
ssg71
g101
sg64
(lp108
S'application'
p109
asbag57
(g78
g59
NtRp110
(dp111
g62
(dp112
g89
g90
ssg71
g101
sg64
(lp113
S':'
asbag57
(g78
g59
NtRp114
(dp115
g62
(dp116
sg71
g101
sg64
(lp117
g57
(g58
g59
NtRp118
(dp119
g62
(dp120
g70
I5
ssg71
g114
sg64
(lp121
S'welcome'
p122
asbasbasbag57
(g73
g59
NtRp123
(dp124
g62
(dp125
sg71
g67
sg64
(lp126
g57
(g78
g59
NtRp127
(dp128
g62
(dp129
g82
g83
ssg71
g123
sg64
(lp130
g42
asbag57
(g78
g59
NtRp131
(dp132
g62
(dp133
g89
g90
ssg71
g123
sg64
(lp134
S':'
asbag57
(g78
g59
NtRp135
(dp136
g62
(dp137
sg71
g123
sg64
(lp138
g57
(g58
g59
NtRp139
(dp140
g62
(dp141
g70
I5
ssg71
g135
sg64
(lp142
g57
(g66
g59
NtRp143
(dp144
g62
(dp145
g70
I4
ssg71
Nsg64
(lp146
sbasbasbasbag57
(g73
g59
NtRp147
(dp148
g62
(dp149
sg71
g67
sg64
(lp150
g57
(g78
g59
NtRp151
(dp152
g62
(dp153
g82
g83
ssg71
g147
sg64
(lp154
S'body'
p155
asbag57
(g78
g59
NtRp156
(dp157
g62
(dp158
g89
g90
ssg71
g147
sg64
(lp159
S':'
asbag57
(g78
g59
NtRp160
(dp161
g62
(dp162
sg71
g147
sg64
(lp163
g57
(g58
g59
NtRp164
(dp165
g62
(dp166
g70
I5
ssg71
g160
sg64
(lp167
S'<cStringIO.StringO object at 0x0534CF20>'
p168
asbasbasbag57
(g73
g59
NtRp169
(dp170
g62
(dp171
sg71
g67
sg64
(lp172
g57
(g78
g59
NtRp173
(dp174
g62
(dp175
g82
g83
ssg71
g169
sg64
(lp176
S'cid'
p177
asbag57
(g78
g59
NtRp178
(dp179
g62
(dp180
g89
g90
ssg71
g169
sg64
(lp181
S':'
asbag57
(g78
g59
NtRp182
(dp183
g62
(dp184
sg71
g169
sg64
(lp185
g57
(g58
g59
NtRp186
(dp187
g62
(dp188
g70
I5
ssg71
g182
sg64
(lp189
S'None'
p190
asbasbasbag57
(g73
g59
NtRp191
(dp192
g62
(dp193
sg71
g67
sg64
(lp194
g57
(g78
g59
NtRp195
(dp196
g62
(dp197
g82
g83
ssg71
g191
sg64
(lp198
S'client'
p199
asbag57
(g78
g59
NtRp200
(dp201
g62
(dp202
g89
g90
ssg71
g191
sg64
(lp203
S':'
asbag57
(g78
g59
NtRp204
(dp205
g62
(dp206
sg71
g191
sg64
(lp207
g57
(g58
g59
NtRp208
(dp209
g62
(dp210
g70
I5
ssg71
g204
sg64
(lp211
S'127.0.0.1'
p212
asbasbasbag57
(g73
g59
NtRp213
(dp214
g62
(dp215
sg71
g67
sg64
(lp216
g57
(g78
g59
NtRp217
(dp218
g62
(dp219
g82
g83
ssg71
g213
sg64
(lp220
S'controller'
p221
asbag57
(g78
g59
NtRp222
(dp223
g62
(dp224
g89
g90
ssg71
g213
sg64
(lp225
S':'
asbag57
(g78
g59
NtRp226
(dp227
g62
(dp228
sg71
g213
sg64
(lp229
g57
(g58
g59
NtRp230
(dp231
g62
(dp232
g70
I5
ssg71
g226
sg64
(lp233
S'default'
p234
asbasbasbag57
(g73
g59
NtRp235
(dp236
g62
(dp237
sg71
g67
sg64
(lp238
g57
(g78
g59
NtRp239
(dp240
g62
(dp241
g82
g83
ssg71
g235
sg64
(lp242
S'cookies'
p243
asbag57
(g78
g59
NtRp244
(dp245
g62
(dp246
g89
g90
ssg71
g235
sg64
(lp247
S':'
asbag57
(g78
g59
NtRp248
(dp249
g62
(dp250
sg71
g235
sg64
(lp251
g57
(g58
g59
NtRp252
(dp253
g62
(dp254
g70
I5
ssg71
g248
sg64
(lp255
g57
(g66
g59
NtRp256
(dp257
g62
(dp258
g70
I4
ssg71
Nsg64
(lp259
g57
(g73
g59
NtRp260
(dp261
g62
(dp262
sg71
g256
sg64
(lp263
g57
(g78
g59
NtRp264
(dp265
g62
(dp266
g82
g83
ssg71
g260
sg64
(lp267
S'session_id_admin'
p268
asbag57
(g78
g59
NtRp269
(dp270
g62
(dp271
g89
g90
ssg71
g260
sg64
(lp272
S':'
asbag57
(g78
g59
NtRp273
(dp274
g62
(dp275
sg71
g260
sg64
(lp276
g57
(g58
g59
NtRp277
(dp278
g62
(dp279
g70
I4
ssg71
g273
sg64
(lp280
S'127.0.0.1-9d33c088-62de-4bf0-96ef-2153effcb5fa'
p281
ag57
(g66
g59
NtRp282
(dp283
g62
(dp284
g70
I3
ssg71
Nsg64
(lp285
g57
(g73
g59
NtRp286
(dp287
g62
(dp288
sg71
g282
sg64
(lp289
g57
(g78
g59
NtRp290
(dp291
g62
(dp292
g82
g83
ssg71
g286
sg64
(lp293
S'comment'
p294
asbag57
(g78
g59
NtRp295
(dp296
g62
(dp297
g89
g90
ssg71
g286
sg64
(lp298
S':'
asbag57
(g78
g59
NtRp299
(dp300
g62
(dp301
sg71
g286
sg64
(lp302
g57
(g58
g59
NtRp303
(dp304
g62
(dp305
g70
I3
ssg71
g299
sg64
(lp306
S''
asbasbasbag57
(g73
g59
NtRp307
(dp308
g62
(dp309
sg71
g282
sg64
(lp310
g57
(g78
g59
NtRp311
(dp312
g62
(dp313
g82
g83
ssg71
g307
sg64
(lp314
S'domain'
p315
asbag57
(g78
g59
NtRp316
(dp317
g62
(dp318
g89
g90
ssg71
g307
sg64
(lp319
S':'
asbag57
(g78
g59
NtRp320
(dp321
g62
(dp322
sg71
g307
sg64
(lp323
g57
(g58
g59
NtRp324
(dp325
g62
(dp326
g70
I3
ssg71
g320
sg64
(lp327
S''
asbasbasbag57
(g73
g59
NtRp328
(dp329
g62
(dp330
sg71
g282
sg64
(lp331
g57
(g78
g59
NtRp332
(dp333
g62
(dp334
g82
g83
ssg71
g328
sg64
(lp335
S'expires'
p336
asbag57
(g78
g59
NtRp337
(dp338
g62
(dp339
g89
g90
ssg71
g328
sg64
(lp340
S':'
asbag57
(g78
g59
NtRp341
(dp342
g62
(dp343
sg71
g328
sg64
(lp344
g57
(g58
g59
NtRp345
(dp346
g62
(dp347
g70
I3
ssg71
g341
sg64
(lp348
S''
asbasbasbag57
(g73
g59
NtRp349
(dp350
g62
(dp351
sg71
g282
sg64
(lp352
g57
(g78
g59
NtRp353
(dp354
g62
(dp355
g82
g83
ssg71
g349
sg64
(lp356
S'httponly'
p357
asbag57
(g78
g59
NtRp358
(dp359
g62
(dp360
g89
g90
ssg71
g349
sg64
(lp361
S':'
asbag57
(g78
g59
NtRp362
(dp363
g62
(dp364
sg71
g349
sg64
(lp365
g57
(g58
g59
NtRp366
(dp367
g62
(dp368
g70
I3
ssg71
g362
sg64
(lp369
S''
asbasbasbag57
(g73
g59
NtRp370
(dp371
g62
(dp372
sg71
g282
sg64
(lp373
g57
(g78
g59
NtRp374
(dp375
g62
(dp376
g82
g83
ssg71
g370
sg64
(lp377
S'max-age'
p378
asbag57
(g78
g59
NtRp379
(dp380
g62
(dp381
g89
g90
ssg71
g370
sg64
(lp382
S':'
asbag57
(g78
g59
NtRp383
(dp384
g62
(dp385
sg71
g370
sg64
(lp386
g57
(g58
g59
NtRp387
(dp388
g62
(dp389
g70
I3
ssg71
g383
sg64
(lp390
S''
asbasbasbag57
(g73
g59
NtRp391
(dp392
g62
(dp393
sg71
g282
sg64
(lp394
g57
(g78
g59
NtRp395
(dp396
g62
(dp397
g82
g83
ssg71
g391
sg64
(lp398
S'path'
p399
asbag57
(g78
g59
NtRp400
(dp401
g62
(dp402
g89
g90
ssg71
g391
sg64
(lp403
S':'
asbag57
(g78
g59
NtRp404
(dp405
g62
(dp406
sg71
g391
sg64
(lp407
g57
(g58
g59
NtRp408
(dp409
g62
(dp410
g70
I3
ssg71
g404
sg64
(lp411
S''
asbasbasbag57
(g73
g59
NtRp412
(dp413
g62
(dp414
sg71
g282
sg64
(lp415
g57
(g78
g59
NtRp416
(dp417
g62
(dp418
g82
g83
ssg71
g412
sg64
(lp419
S'secure'
p420
asbag57
(g78
g59
NtRp421
(dp422
g62
(dp423
g89
g90
ssg71
g412
sg64
(lp424
S':'
asbag57
(g78
g59
NtRp425
(dp426
g62
(dp427
sg71
g412
sg64
(lp428
g57
(g58
g59
NtRp429
(dp430
g62
(dp431
g70
I3
ssg71
g425
sg64
(lp432
S''
asbasbasbag57
(g73
g59
NtRp433
(dp434
g62
(dp435
sg71
g282
sg64
(lp436
g57
(g78
g59
NtRp437
(dp438
g62
(dp439
g82
g83
ssg71
g433
sg64
(lp440
S'version'
p441
asbag57
(g78
g59
NtRp442
(dp443
g62
(dp444
g89
g90
ssg71
g433
sg64
(lp445
S':'
asbag57
(g78
g59
NtRp446
(dp447
g62
(dp448
sg71
g433
sg64
(lp449
g57
(g58
g59
NtRp450
(dp451
g62
(dp452
g70
I3
ssg71
g446
sg64
(lp453
S''
asbasbasbasbasbasbasbag57
(g73
g59
NtRp454
(dp455
g62
(dp456
sg71
g256
sg64
(lp457
g57
(g78
g59
NtRp458
(dp459
g62
(dp460
g82
g83
ssg71
g454
sg64
(lp461
S'session_id_welcome'
p462
asbag57
(g78
g59
NtRp463
(dp464
g62
(dp465
g89
g90
ssg71
g454
sg64
(lp466
S':'
asbag57
(g78
g59
NtRp467
(dp468
g62
(dp469
sg71
g454
sg64
(lp470
g57
(g58
g59
NtRp471
(dp472
g62
(dp473
g70
I4
ssg71
g467
sg64
(lp474
S'127.0.0.1-1f4dd0c2-b753-42e9-9729-d64f85857f07'
p475
ag57
(g66
g59
NtRp476
(dp477
g62
(dp478
g70
I3
ssg71
Nsg64
(lp479
g57
(g73
g59
NtRp480
(dp481
g62
(dp482
sg71
g476
sg64
(lp483
g57
(g78
g59
NtRp484
(dp485
g62
(dp486
g82
g83
ssg71
g480
sg64
(lp487
g294
asbag57
(g78
g59
NtRp488
(dp489
g62
(dp490
g89
g90
ssg71
g480
sg64
(lp491
S':'
asbag57
(g78
g59
NtRp492
(dp493
g62
(dp494
sg71
g480
sg64
(lp495
g57
(g58
g59
NtRp496
(dp497
g62
(dp498
g70
I3
ssg71
g492
sg64
(lp499
S''
asbasbasbag57
(g73
g59
NtRp500
(dp501
g62
(dp502
sg71
g476
sg64
(lp503
g57
(g78
g59
NtRp504
(dp505
g62
(dp506
g82
g83
ssg71
g500
sg64
(lp507
g315
asbag57
(g78
g59
NtRp508
(dp509
g62
(dp510
g89
g90
ssg71
g500
sg64
(lp511
S':'
asbag57
(g78
g59
NtRp512
(dp513
g62
(dp514
sg71
g500
sg64
(lp515
g57
(g58
g59
NtRp516
(dp517
g62
(dp518
g70
I3
ssg71
g512
sg64
(lp519
S''
asbasbasbag57
(g73
g59
NtRp520
(dp521
g62
(dp522
sg71
g476
sg64
(lp523
g57
(g78
g59
NtRp524
(dp525
g62
(dp526
g82
g83
ssg71
g520
sg64
(lp527
g336
asbag57
(g78
g59
NtRp528
(dp529
g62
(dp530
g89
g90
ssg71
g520
sg64
(lp531
S':'
asbag57
(g78
g59
NtRp532
(dp533
g62
(dp534
sg71
g520
sg64
(lp535
g57
(g58
g59
NtRp536
(dp537
g62
(dp538
g70
I3
ssg71
g532
sg64
(lp539
S''
asbasbasbag57
(g73
g59
NtRp540
(dp541
g62
(dp542
sg71
g476
sg64
(lp543
g57
(g78
g59
NtRp544
(dp545
g62
(dp546
g82
g83
ssg71
g540
sg64
(lp547
g357
asbag57
(g78
g59
NtRp548
(dp549
g62
(dp550
g89
g90
ssg71
g540
sg64
(lp551
S':'
asbag57
(g78
g59
NtRp552
(dp553
g62
(dp554
sg71
g540
sg64
(lp555
g57
(g58
g59
NtRp556
(dp557
g62
(dp558
g70
I3
ssg71
g552
sg64
(lp559
S''
asbasbasbag57
(g73
g59
NtRp560
(dp561
g62
(dp562
sg71
g476
sg64
(lp563
g57
(g78
g59
NtRp564
(dp565
g62
(dp566
g82
g83
ssg71
g560
sg64
(lp567
g378
asbag57
(g78
g59
NtRp568
(dp569
g62
(dp570
g89
g90
ssg71
g560
sg64
(lp571
S':'
asbag57
(g78
g59
NtRp572
(dp573
g62
(dp574
sg71
g560
sg64
(lp575
g57
(g58
g59
NtRp576
(dp577
g62
(dp578
g70
I3
ssg71
g572
sg64
(lp579
S''
asbasbasbag57
(g73
g59
NtRp580
(dp581
g62
(dp582
sg71
g476
sg64
(lp583
g57
(g78
g59
NtRp584
(dp585
g62
(dp586
g82
g83
ssg71
g580
sg64
(lp587
g399
asbag57
(g78
g59
NtRp588
(dp589
g62
(dp590
g89
g90
ssg71
g580
sg64
(lp591
S':'
asbag57
(g78
g59
NtRp592
(dp593
g62
(dp594
sg71
g580
sg64
(lp595
g57
(g58
g59
NtRp596
(dp597
g62
(dp598
g70
I3
ssg71
g592
sg64
(lp599
S''
asbasbasbag57
(g73
g59
NtRp600
(dp601
g62
(dp602
sg71
g476
sg64
(lp603
g57
(g78
g59
NtRp604
(dp605
g62
(dp606
g82
g83
ssg71
g600
sg64
(lp607
g420
asbag57
(g78
g59
NtRp608
(dp609
g62
(dp610
g89
g90
ssg71
g600
sg64
(lp611
S':'
asbag57
(g78
g59
NtRp612
(dp613
g62
(dp614
sg71
g600
sg64
(lp615
g57
(g58
g59
NtRp616
(dp617
g62
(dp618
g70
I3
ssg71
g612
sg64
(lp619
S''
asbasbasbag57
(g73
g59
NtRp620
(dp621
g62
(dp622
sg71
g476
sg64
(lp623
g57
(g78
g59
NtRp624
(dp625
g62
(dp626
g82
g83
ssg71
g620
sg64
(lp627
g441
asbag57
(g78
g59
NtRp628
(dp629
g62
(dp630
g89
g90
ssg71
g620
sg64
(lp631
S':'
asbag57
(g78
g59
NtRp632
(dp633
g62
(dp634
sg71
g620
sg64
(lp635
g57
(g58
g59
NtRp636
(dp637
g62
(dp638
g70
I3
ssg71
g632
sg64
(lp639
S''
asbasbasbasbasbasbasbasbasbasbasbag57
(g73
g59
NtRp640
(dp641
g62
(dp642
sg71
g67
sg64
(lp643
g57
(g78
g59
NtRp644
(dp645
g62
(dp646
g82
g83
ssg71
g640
sg64
(lp647
S'env'
p648
asbag57
(g78
g59
NtRp649
(dp650
g62
(dp651
g89
g90
ssg71
g640
sg64
(lp652
S':'
asbag57
(g78
g59
NtRp653
(dp654
g62
(dp655
sg71
g640
sg64
(lp656
g57
(g58
g59
NtRp657
(dp658
g62
(dp659
g70
I5
ssg71
g653
sg64
(lp660
g57
(g66
g59
NtRp661
(dp662
g62
(dp663
g70
I4
ssg71
Nsg64
(lp664
g57
(g73
g59
NtRp665
(dp666
g62
(dp667
sg71
g661
sg64
(lp668
g57
(g78
g59
NtRp669
(dp670
g62
(dp671
g82
g83
ssg71
g665
sg64
(lp672
S'app_folders'
p673
asbag57
(g78
g59
NtRp674
(dp675
g62
(dp676
g89
g90
ssg71
g665
sg64
(lp677
S':'
asbag57
(g78
g59
NtRp678
(dp679
g62
(dp680
sg71
g665
sg64
(lp681
g57
(g58
g59
NtRp682
(dp683
g62
(dp684
g70
I4
ssg71
g678
sg64
(lp685
S"set(['X:\\\\procurement\\\\MATERIEL\\\\Raw Material\\\\Data Management\\\\Custom Applications\\\\Development\\\\web2py\\\\applications\\\\admin\\\\', 'X:\\\\procurement\\\\MATERIEL\\\\Raw Material\\\\Data Management\\\\Custom Applications\\\\Development\\\\web2py\\\\applications\\\\welcome\\\\'])"
p686
asbasbasbag57
(g73
g59
NtRp687
(dp688
g62
(dp689
sg71
g661
sg64
(lp690
g57
(g78
g59
NtRp691
(dp692
g62
(dp693
g82
g83
ssg71
g687
sg64
(lp694
S'applications_parent'
p695
asbag57
(g78
g59
NtRp696
(dp697
g62
(dp698
g89
g90
ssg71
g687
sg64
(lp699
S':'
asbag57
(g78
g59
NtRp700
(dp701
g62
(dp702
sg71
g687
sg64
(lp703
g57
(g58
g59
NtRp704
(dp705
g62
(dp706
g70
I4
ssg71
g700
sg64
(lp707
S'X:\\procurement\\MATERIEL\\Raw Material\\Data Management\\Custom Applications\\Development\\web2py'
p708
asbasbasbag57
(g73
g59
NtRp709
(dp710
g62
(dp711
sg71
g661
sg64
(lp712
g57
(g78
g59
NtRp713
(dp714
g62
(dp715
g82
g83
ssg71
g709
sg64
(lp716
S'cmd_args'
p717
asbag57
(g78
g59
NtRp718
(dp719
g62
(dp720
g89
g90
ssg71
g709
sg64
(lp721
S':'
asbag57
(g78
g59
NtRp722
(dp723
g62
(dp724
sg71
g709
sg64
(lp725
g57
(g58
g59
NtRp726
(dp727
g62
(dp728
g70
I4
ssg71
g722
sg64
(lp729
g57
(g66
g59
NtRp730
(dp731
g62
(dp732
g70
I3
ssg71
Nsg64
(lp733
sbasbasbasbag57
(g73
g59
NtRp734
(dp735
g62
(dp736
sg71
g661
sg64
(lp737
g57
(g78
g59
NtRp738
(dp739
g62
(dp740
g82
g83
ssg71
g734
sg64
(lp741
S'cmd_options'
p742
asbag57
(g78
g59
NtRp743
(dp744
g62
(dp745
g89
g90
ssg71
g734
sg64
(lp746
S':'
asbag57
(g78
g59
NtRp747
(dp748
g62
(dp749
sg71
g734
sg64
(lp750
g57
(g58
g59
NtRp751
(dp752
g62
(dp753
g70
I4
ssg71
g747
sg64
(lp754
S"<Values at 0xc7cda0: {'verbose': False, 'ip': '127.0.0.1', 'with_scheduler': False, 'ips': ['172.31.249.32'], 'shutdown_timeout': 5, 'taskbar': False, 'port': 8000, 'maxthreads': None, 'softcron': False, 'server_name': 'GLKLAG235327', 'bpython': False, 'nogui': False, 'pid_filename': 'httpserver.pid', 'extcron': False, 'runcron': False, 'run_system_tests': False, 'test': None, 'folder': 'X:\\\\procurement\\\\MATERIEL\\\\Raw Material\\\\Data Management\\\\Custom Applications\\\\Development\\\\web2py', 'config': '', 'import_models': False, 'winservice': '', 'shell': None, 'run': '', 'log_filename': 'httpserver.log', 'debuglevel': 30, 'args': [''], 'socket_timeout': 5, 'ssl_ca_certificate': None, 'scheduler': None, 'profiler_filename': None, 'ssl_private_key': '', 'scheduler_groups': None, 'password': '<ask>', 'request_queue_size': 5, 'ssl_certificate': '', 'cronjob': False, 'numthreads': None, 'quiet': False, 'interfaces': None, 'minthreads': None, 'timeout': 10, 'plain': False, 'nobanner': False}>"
p755
asbasbasbag57
(g73
g59
NtRp756
(dp757
g62
(dp758
sg71
g661
sg64
(lp759
g57
(g78
g59
NtRp760
(dp761
g62
(dp762
g82
g83
ssg71
g756
sg64
(lp763
S'db_sessions'
p764
asbag57
(g78
g59
NtRp765
(dp766
g62
(dp767
g89
g90
ssg71
g756
sg64
(lp768
S':'
asbag57
(g78
g59
NtRp769
(dp770
g62
(dp771
sg71
g756
sg64
(lp772
g57
(g58
g59
NtRp773
(dp774
g62
(dp775
g70
I4
ssg71
g769
sg64
(lp776
S'set([])'
p777
asbasbasbag57
(g73
g59
NtRp778
(dp779
g62
(dp780
sg71
g661
sg64
(lp781
g57
(g78
g59
NtRp782
(dp783
g62
(dp784
g82
g83
ssg71
g778
sg64
(lp785
S'debugging'
p786
asbag57
(g78
g59
NtRp787
(dp788
g62
(dp789
g89
g90
ssg71
g778
sg64
(lp790
S':'
asbag57
(g78
g59
NtRp791
(dp792
g62
(dp793
sg71
g778
sg64
(lp794
g57
(g58
g59
NtRp795
(dp796
g62
(dp797
g70
I4
ssg71
g791
sg64
(lp798
g100
asbasbasbag57
(g73
g59
NtRp799
(dp800
g62
(dp801
sg71
g661
sg64
(lp802
g57
(g78
g59
NtRp803
(dp804
g62
(dp805
g82
g83
ssg71
g799
sg64
(lp806
S'gluon_parent'
p807
asbag57
(g78
g59
NtRp808
(dp809
g62
(dp810
g89
g90
ssg71
g799
sg64
(lp811
S':'
asbag57
(g78
g59
NtRp812
(dp813
g62
(dp814
sg71
g799
sg64
(lp815
g57
(g58
g59
NtRp816
(dp817
g62
(dp818
g70
I4
ssg71
g812
sg64
(lp819
S'X:\\procurement\\MATERIEL\\Raw Material\\Data Management\\Custom Applications\\Development\\web2py'
p820
asbasbasbag57
(g73
g59
NtRp821
(dp822
g62
(dp823
sg71
g661
sg64
(lp824
g57
(g78
g59
NtRp825
(dp826
g62
(dp827
g82
g83
ssg71
g821
sg64
(lp828
S'http_accept'
p829
asbag57
(g78
g59
NtRp830
(dp831
g62
(dp832
g89
g90
ssg71
g821
sg64
(lp833
S':'
asbag57
(g78
g59
NtRp834
(dp835
g62
(dp836
sg71
g821
sg64
(lp837
g57
(g58
g59
NtRp838
(dp839
g62
(dp840
g70
I4
ssg71
g834
sg64
(lp841
S'image/gif, image/jpeg, image/pjpeg, image/pjpeg, application/x-shockwave-flash, application/x-ms-application, application/x-ms-xbap, application/vnd.ms-xpsdocument, application/xaml+xml, application/vnd.ms-excel, application/vnd.ms-powerpoint, application/msword, */*'
p842
asbasbasbag57
(g73
g59
NtRp843
(dp844
g62
(dp845
sg71
g661
sg64
(lp846
g57
(g78
g59
NtRp847
(dp848
g62
(dp849
g82
g83
ssg71
g843
sg64
(lp850
S'http_accept_encoding'
p851
asbag57
(g78
g59
NtRp852
(dp853
g62
(dp854
g89
g90
ssg71
g843
sg64
(lp855
S':'
asbag57
(g78
g59
NtRp856
(dp857
g62
(dp858
sg71
g843
sg64
(lp859
g57
(g58
g59
NtRp860
(dp861
g62
(dp862
g70
I4
ssg71
g856
sg64
(lp863
S'gzip, deflate'
p864
asbasbasbag57
(g73
g59
NtRp865
(dp866
g62
(dp867
sg71
g661
sg64
(lp868
g57
(g78
g59
NtRp869
(dp870
g62
(dp871
g82
g83
ssg71
g865
sg64
(lp872
S'http_accept_language'
p873
asbag57
(g78
g59
NtRp874
(dp875
g62
(dp876
g89
g90
ssg71
g865
sg64
(lp877
S':'
asbag57
(g78
g59
NtRp878
(dp879
g62
(dp880
sg71
g865
sg64
(lp881
g57
(g58
g59
NtRp882
(dp883
g62
(dp884
g70
I4
ssg71
g878
sg64
(lp885
S'en-gb'
p886
asbasbasbag57
(g73
g59
NtRp887
(dp888
g62
(dp889
sg71
g661
sg64
(lp890
g57
(g78
g59
NtRp891
(dp892
g62
(dp893
g82
g83
ssg71
g887
sg64
(lp894
S'http_connection'
p895
asbag57
(g78
g59
NtRp896
(dp897
g62
(dp898
g89
g90
ssg71
g887
sg64
(lp899
S':'
asbag57
(g78
g59
NtRp900
(dp901
g62
(dp902
sg71
g887
sg64
(lp903
g57
(g58
g59
NtRp904
(dp905
g62
(dp906
g70
I4
ssg71
g900
sg64
(lp907
S'Keep-Alive'
p908
asbasbasbag57
(g73
g59
NtRp909
(dp910
g62
(dp911
sg71
g661
sg64
(lp912
g57
(g78
g59
NtRp913
(dp914
g62
(dp915
g82
g83
ssg71
g909
sg64
(lp916
S'http_cookie'
p917
asbag57
(g78
g59
NtRp918
(dp919
g62
(dp920
g89
g90
ssg71
g909
sg64
(lp921
S':'
asbag57
(g78
g59
NtRp922
(dp923
g62
(dp924
sg71
g909
sg64
(lp925
g57
(g58
g59
NtRp926
(dp927
g62
(dp928
g70
I4
ssg71
g922
sg64
(lp929
S'session_id_welcome=127.0.0.1-1f4dd0c2-b753-42e9-9729-d64f85857f07; session_id_admin=127.0.0.1-9d33c088-62de-4bf0-96ef-2153effcb5fa'
p930
asbasbasbag57
(g73
g59
NtRp931
(dp932
g62
(dp933
sg71
g661
sg64
(lp934
g57
(g78
g59
NtRp935
(dp936
g62
(dp937
g82
g83
ssg71
g931
sg64
(lp938
S'http_host'
p939
asbag57
(g78
g59
NtRp940
(dp941
g62
(dp942
g89
g90
ssg71
g931
sg64
(lp943
S':'
asbag57
(g78
g59
NtRp944
(dp945
g62
(dp946
sg71
g931
sg64
(lp947
g57
(g58
g59
NtRp948
(dp949
g62
(dp950
g70
I4
ssg71
g944
sg64
(lp951
S'127.0.0.1:8000'
p952
asbasbasbag57
(g73
g59
NtRp953
(dp954
g62
(dp955
sg71
g661
sg64
(lp956
g57
(g78
g59
NtRp957
(dp958
g62
(dp959
g82
g83
ssg71
g953
sg64
(lp960
S'http_referer'
p961
asbag57
(g78
g59
NtRp962
(dp963
g62
(dp964
g89
g90
ssg71
g953
sg64
(lp965
S':'
asbag57
(g78
g59
NtRp966
(dp967
g62
(dp968
sg71
g953
sg64
(lp969
g57
(g58
g59
NtRp970
(dp971
g62
(dp972
g70
I4
ssg71
g966
sg64
(lp973
S'http://127.0.0.1:8000/admin/default/design/welcome'
p974
asbasbasbag57
(g73
g59
NtRp975
(dp976
g62
(dp977
sg71
g661
sg64
(lp978
g57
(g78
g59
NtRp979
(dp980
g62
(dp981
g82
g83
ssg71
g975
sg64
(lp982
S'http_user_agent'
p983
asbag57
(g78
g59
NtRp984
(dp985
g62
(dp986
g89
g90
ssg71
g975
sg64
(lp987
S':'
asbag57
(g78
g59
NtRp988
(dp989
g62
(dp990
sg71
g975
sg64
(lp991
g57
(g58
g59
NtRp992
(dp993
g62
(dp994
g70
I4
ssg71
g988
sg64
(lp995
S'Mozilla/4.0 (compatible; MSIE 8.0; Windows NT 5.1; Trident/4.0; .NET CLR 1.1.4322; .NET CLR 2.0.50727; .NET CLR 3.0.4506.2152; .NET CLR 3.5.30729; .NET4.0C; .NET4.0E; InfoPath.3)'
p996
asbasbasbag57
(g73
g59
NtRp997
(dp998
g62
(dp999
sg71
g661
sg64
(lp1000
g57
(g78
g59
NtRp1001
(dp1002
g62
(dp1003
g82
g83
ssg71
g997
sg64
(lp1004
S'is_jython'
p1005
asbag57
(g78
g59
NtRp1006
(dp1007
g62
(dp1008
g89
g90
ssg71
g997
sg64
(lp1009
S':'
asbag57
(g78
g59
NtRp1010
(dp1011
g62
(dp1012
sg71
g997
sg64
(lp1013
g57
(g58
g59
NtRp1014
(dp1015
g62
(dp1016
g70
I4
ssg71
g1010
sg64
(lp1017
g100
asbasbasbag57
(g73
g59
NtRp1018
(dp1019
g62
(dp1020
sg71
g661
sg64
(lp1021
g57
(g78
g59
NtRp1022
(dp1023
g62
(dp1024
g82
g83
ssg71
g1018
sg64
(lp1025
S'is_pypy'
p1026
asbag57
(g78
g59
NtRp1027
(dp1028
g62
(dp1029
g89
g90
ssg71
g1018
sg64
(lp1030
S':'
asbag57
(g78
g59
NtRp1031
(dp1032
g62
(dp1033
sg71
g1018
sg64
(lp1034
g57
(g58
g59
NtRp1035
(dp1036
g62
(dp1037
g70
I4
ssg71
g1031
sg64
(lp1038
g100
asbasbasbag57
(g73
g59
NtRp1039
(dp1040
g62
(dp1041
sg71
g661
sg64
(lp1042
g57
(g78
g59
NtRp1043
(dp1044
g62
(dp1045
g82
g83
ssg71
g1039
sg64
(lp1046
S'local_hosts'
p1047
asbag57
(g78
g59
NtRp1048
(dp1049
g62
(dp1050
g89
g90
ssg71
g1039
sg64
(lp1051
S':'
asbag57
(g78
g59
NtRp1052
(dp1053
g62
(dp1054
sg71
g1039
sg64
(lp1055
g57
(g58
g59
NtRp1056
(dp1057
g62
(dp1058
g70
I4
ssg71
g1052
sg64
(lp1059
g57
(g66
g59
NtRp1060
(dp1061
g62
(dp1062
g70
I3
ssg71
Nsg64
(lp1063
g57
(g73
g59
NtRp1064
(dp1065
g62
(dp1066
sg71
g1060
sg64
(lp1067
g57
(g78
g59
NtRp1068
(dp1069
g62
(dp1070
sg71
g1064
sg64
(lp1071
g57
(g58
g59
NtRp1072
(dp1073
g62
(dp1074
g70
I3
ssg71
g1068
sg64
(lp1075
S'127.0.0.1'
p1076
asbasbasbag57
(g73
g59
NtRp1077
(dp1078
g62
(dp1079
sg71
g1060
sg64
(lp1080
g57
(g78
g59
NtRp1081
(dp1082
g62
(dp1083
sg71
g1077
sg64
(lp1084
g57
(g58
g59
NtRp1085
(dp1086
g62
(dp1087
g70
I3
ssg71
g1081
sg64
(lp1088
S'::ffff:127.0.0.1'
p1089
asbasbasbag57
(g73
g59
NtRp1090
(dp1091
g62
(dp1092
sg71
g1060
sg64
(lp1093
g57
(g78
g59
NtRp1094
(dp1095
g62
(dp1096
sg71
g1090
sg64
(lp1097
g57
(g58
g59
NtRp1098
(dp1099
g62
(dp1100
g70
I3
ssg71
g1094
sg64
(lp1101
S'GLKLAG235327'
p1102
asbasbasbag57
(g73
g59
NtRp1103
(dp1104
g62
(dp1105
sg71
g1060
sg64
(lp1106
g57
(g78
g59
NtRp1107
(dp1108
g62
(dp1109
sg71
g1103
sg64
(lp1110
g57
(g58
g59
NtRp1111
(dp1112
g62
(dp1113
g70
I3
ssg71
g1107
sg64
(lp1114
S'GLKLAG235327'
p1115
asbasbasbag57
(g73
g59
NtRp1116
(dp1117
g62
(dp1118
sg71
g1060
sg64
(lp1119
g57
(g78
g59
NtRp1120
(dp1121
g62
(dp1122
sg71
g1116
sg64
(lp1123
g57
(g58
g59
NtRp1124
(dp1125
g62
(dp1126
g70
I3
ssg71
g1120
sg64
(lp1127
S'172.31.249.32'
p1128
asbasbasbasbasbasbasbag57
(g73
g59
NtRp1129
(dp1130
g62
(dp1131
sg71
g661
sg64
(lp1132
g57
(g78
g59
NtRp1133
(dp1134
g62
(dp1135
g82
g83
ssg71
g1129
sg64
(lp1136
S'path_info'
p1137
asbag57
(g78
g59
NtRp1138
(dp1139
g62
(dp1140
g89
g90
ssg71
g1129
sg64
(lp1141
S':'
asbag57
(g78
g59
NtRp1142
(dp1143
g62
(dp1144
sg71
g1129
sg64
(lp1145
g57
(g58
g59
NtRp1146
(dp1147
g62
(dp1148
g70
I4
ssg71
g1142
sg64
(lp1149
S'/welcome/default/index'
p1150
asbasbasbag57
(g73
g59
NtRp1151
(dp1152
g62
(dp1153
sg71
g661
sg64
(lp1154
g57
(g78
g59
NtRp1155
(dp1156
g62
(dp1157
g82
g83
ssg71
g1151
sg64
(lp1158
S'query_string'
p1159
asbag57
(g78
g59
NtRp1160
(dp1161
g62
(dp1162
g89
g90
ssg71
g1151
sg64
(lp1163
S':'
asbag57
(g78
g59
NtRp1164
(dp1165
g62
(dp1166
sg71
g1151
sg64
(lp1167
g57
(g58
g59
NtRp1168
(dp1169
g62
(dp1170
g70
I4
ssg71
g1164
sg64
(lp1171
S''
asbasbasbag57
(g73
g59
NtRp1172
(dp1173
g62
(dp1174
sg71
g661
sg64
(lp1175
g57
(g78
g59
NtRp1176
(dp1177
g62
(dp1178
g82
g83
ssg71
g1172
sg64
(lp1179
S'remote_addr'
p1180
asbag57
(g78
g59
NtRp1181
(dp1182
g62
(dp1183
g89
g90
ssg71
g1172
sg64
(lp1184
S':'
asbag57
(g78
g59
NtRp1185
(dp1186
g62
(dp1187
sg71
g1172
sg64
(lp1188
g57
(g58
g59
NtRp1189
(dp1190
g62
(dp1191
g70
I4
ssg71
g1185
sg64
(lp1192
g212
asbasbasbag57
(g73
g59
NtRp1193
(dp1194
g62
(dp1195
sg71
g661
sg64
(lp1196
g57
(g78
g59
NtRp1197
(dp1198
g62
(dp1199
g82
g83
ssg71
g1193
sg64
(lp1200
S'remote_port'
p1201
asbag57
(g78
g59
NtRp1202
(dp1203
g62
(dp1204
g89
g90
ssg71
g1193
sg64
(lp1205
S':'
asbag57
(g78
g59
NtRp1206
(dp1207
g62
(dp1208
sg71
g1193
sg64
(lp1209
g57
(g58
g59
NtRp1210
(dp1211
g62
(dp1212
g70
I4
ssg71
g1206
sg64
(lp1213
S'2588'
p1214
asbasbasbag57
(g73
g59
NtRp1215
(dp1216
g62
(dp1217
sg71
g661
sg64
(lp1218
g57
(g78
g59
NtRp1219
(dp1220
g62
(dp1221
g82
g83
ssg71
g1215
sg64
(lp1222
S'request_method'
p1223
asbag57
(g78
g59
NtRp1224
(dp1225
g62
(dp1226
g89
g90
ssg71
g1215
sg64
(lp1227
S':'
asbag57
(g78
g59
NtRp1228
(dp1229
g62
(dp1230
sg71
g1215
sg64
(lp1231
g57
(g58
g59
NtRp1232
(dp1233
g62
(dp1234
g70
I4
ssg71
g1228
sg64
(lp1235
S'GET'
p1236
asbasbasbag57
(g73
g59
NtRp1237
(dp1238
g62
(dp1239
sg71
g661
sg64
(lp1240
g57
(g78
g59
NtRp1241
(dp1242
g62
(dp1243
g82
g83
ssg71
g1237
sg64
(lp1244
S'request_uri'
p1245
asbag57
(g78
g59
NtRp1246
(dp1247
g62
(dp1248
g89
g90
ssg71
g1237
sg64
(lp1249
S':'
asbag57
(g78
g59
NtRp1250
(dp1251
g62
(dp1252
sg71
g1237
sg64
(lp1253
g57
(g58
g59
NtRp1254
(dp1255
g62
(dp1256
g70
I4
ssg71
g1250
sg64
(lp1257
g1150
asbasbasbag57
(g73
g59
NtRp1258
(dp1259
g62
(dp1260
sg71
g661
sg64
(lp1261
g57
(g78
g59
NtRp1262
(dp1263
g62
(dp1264
g82
g83
ssg71
g1258
sg64
(lp1265
S'script_name'
p1266
asbag57
(g78
g59
NtRp1267
(dp1268
g62
(dp1269
g89
g90
ssg71
g1258
sg64
(lp1270
S':'
asbag57
(g78
g59
NtRp1271
(dp1272
g62
(dp1273
sg71
g1258
sg64
(lp1274
g57
(g58
g59
NtRp1275
(dp1276
g62
(dp1277
g70
I4
ssg71
g1271
sg64
(lp1278
S''
asbasbasbag57
(g73
g59
NtRp1279
(dp1280
g62
(dp1281
sg71
g661
sg64
(lp1282
g57
(g78
g59
NtRp1283
(dp1284
g62
(dp1285
g82
g83
ssg71
g1279
sg64
(lp1286
S'server_name'
p1287
asbag57
(g78
g59
NtRp1288
(dp1289
g62
(dp1290
g89
g90
ssg71
g1279
sg64
(lp1291
S':'
asbag57
(g78
g59
NtRp1292
(dp1293
g62
(dp1294
sg71
g1279
sg64
(lp1295
g57
(g58
g59
NtRp1296
(dp1297
g62
(dp1298
g70
I4
ssg71
g1292
sg64
(lp1299
g1115
asbasbasbag57
(g73
g59
NtRp1300
(dp1301
g62
(dp1302
sg71
g661
sg64
(lp1303
g57
(g78
g59
NtRp1304
(dp1305
g62
(dp1306
g82
g83
ssg71
g1300
sg64
(lp1307
S'server_port'
p1308
asbag57
(g78
g59
NtRp1309
(dp1310
g62
(dp1311
g89
g90
ssg71
g1300
sg64
(lp1312
S':'
asbag57
(g78
g59
NtRp1313
(dp1314
g62
(dp1315
sg71
g1300
sg64
(lp1316
g57
(g58
g59
NtRp1317
(dp1318
g62
(dp1319
g70
I4
ssg71
g1313
sg64
(lp1320
S'8000'
p1321
asbasbasbag57
(g73
g59
NtRp1322
(dp1323
g62
(dp1324
sg71
g661
sg64
(lp1325
g57
(g78
g59
NtRp1326
(dp1327
g62
(dp1328
g82
g83
ssg71
g1322
sg64
(lp1329
S'server_protocol'
p1330
asbag57
(g78
g59
NtRp1331
(dp1332
g62
(dp1333
g89
g90
ssg71
g1322
sg64
(lp1334
S':'
asbag57
(g78
g59
NtRp1335
(dp1336
g62
(dp1337
sg71
g1322
sg64
(lp1338
g57
(g58
g59
NtRp1339
(dp1340
g62
(dp1341
g70
I4
ssg71
g1335
sg64
(lp1342
S'HTTP/1.1'
p1343
asbasbasbag57
(g73
g59
NtRp1344
(dp1345
g62
(dp1346
sg71
g661
sg64
(lp1347
g57
(g78
g59
NtRp1348
(dp1349
g62
(dp1350
g82
g83
ssg71
g1344
sg64
(lp1351
S'server_software'
p1352
asbag57
(g78
g59
NtRp1353
(dp1354
g62
(dp1355
g89
g90
ssg71
g1344
sg64
(lp1356
S':'
asbag57
(g78
g59
NtRp1357
(dp1358
g62
(dp1359
sg71
g1344
sg64
(lp1360
g57
(g58
g59
NtRp1361
(dp1362
g62
(dp1363
g70
I4
ssg71
g1357
sg64
(lp1364
S'Rocket 1.2.5'
p1365
asbasbasbag57
(g73
g59
NtRp1366
(dp1367
g62
(dp1368
sg71
g661
sg64
(lp1369
g57
(g78
g59
NtRp1370
(dp1371
g62
(dp1372
g82
g83
ssg71
g1366
sg64
(lp1373
S'web2py_path'
p1374
asbag57
(g78
g59
NtRp1375
(dp1376
g62
(dp1377
g89
g90
ssg71
g1366
sg64
(lp1378
S':'
asbag57
(g78
g59
NtRp1379
(dp1380
g62
(dp1381
sg71
g1366
sg64
(lp1382
g57
(g58
g59
NtRp1383
(dp1384
g62
(dp1385
g70
I4
ssg71
g1379
sg64
(lp1386
g708
asbasbasbag57
(g73
g59
NtRp1387
(dp1388
g62
(dp1389
sg71
g661
sg64
(lp1390
g57
(g78
g59
NtRp1391
(dp1392
g62
(dp1393
g82
g83
ssg71
g1387
sg64
(lp1394
S'web2py_version'
p1395
asbag57
(g78
g59
NtRp1396
(dp1397
g62
(dp1398
g89
g90
ssg71
g1387
sg64
(lp1399
S':'
asbag57
(g78
g59
NtRp1400
(dp1401
g62
(dp1402
sg71
g1387
sg64
(lp1403
g57
(g58
g59
NtRp1404
(dp1405
g62
(dp1406
g70
I4
ssg71
g1400
sg64
(lp1407
g57
(g66
g59
NtRp1408
(dp1409
g62
(dp1410
g70
I3
ssg71
Nsg64
(lp1411
g57
(g73
g59
NtRp1412
(dp1413
g62
(dp1414
sg71
g1408
sg64
(lp1415
g57
(g78
g59
NtRp1416
(dp1417
g62
(dp1418
sg71
g1412
sg64
(lp1419
g57
(g58
g59
NtRp1420
(dp1421
g62
(dp1422
g70
I3
ssg71
g1416
sg64
(lp1423
S'2'
asbasbasbag57
(g73
g59
NtRp1424
(dp1425
g62
(dp1426
sg71
g1408
sg64
(lp1427
g57
(g78
g59
NtRp1428
(dp1429
g62
(dp1430
sg71
g1424
sg64
(lp1431
g57
(g58
g59
NtRp1432
(dp1433
g62
(dp1434
g70
I3
ssg71
g1428
sg64
(lp1435
S'2'
asbasbasbag57
(g73
g59
NtRp1436
(dp1437
g62
(dp1438
sg71
g1408
sg64
(lp1439
g57
(g78
g59
NtRp1440
(dp1441
g62
(dp1442
sg71
g1436
sg64
(lp1443
g57
(g58
g59
NtRp1444
(dp1445
g62
(dp1446
g70
I3
ssg71
g1440
sg64
(lp1447
S'1'
asbasbasbag57
(g73
g59
NtRp1448
(dp1449
g62
(dp1450
sg71
g1408
sg64
(lp1451
g57
(g78
g59
NtRp1452
(dp1453
g62
(dp1454
sg71
g1448
sg64
(lp1455
g57
(g58
g59
NtRp1456
(dp1457
g62
(dp1458
g70
I3
ssg71
g1452
sg64
(lp1459
S'datetime.datetime(2012, 10, 21, 16, 57, 4)'
p1460
asbasbasbag57
(g73
g59
NtRp1461
(dp1462
g62
(dp1463
sg71
g1408
sg64
(lp1464
g57
(g78
g59
NtRp1465
(dp1466
g62
(dp1467
sg71
g1461
sg64
(lp1468
g57
(g58
g59
NtRp1469
(dp1470
g62
(dp1471
g70
I3
ssg71
g1465
sg64
(lp1472
S'stable'
p1473
asbasbasbasbasbasbasbag57
(g73
g59
NtRp1474
(dp1475
g62
(dp1476
sg71
g661
sg64
(lp1477
g57
(g78
g59
NtRp1478
(dp1479
g62
(dp1480
g82
g83
ssg71
g1474
sg64
(lp1481
S'wsgi_errors'
p1482
asbag57
(g78
g59
NtRp1483
(dp1484
g62
(dp1485
g89
g90
ssg71
g1474
sg64
(lp1486
S':'
asbag57
(g78
g59
NtRp1487
(dp1488
g62
(dp1489
sg71
g1474
sg64
(lp1490
g57
(g58
g59
NtRp1491
(dp1492
g62
(dp1493
g70
I4
ssg71
g1487
sg64
(lp1494
S"<open file '<stderr>', mode 'w' at 0x00A850D0>"
p1495
asbasbasbag57
(g73
g59
NtRp1496
(dp1497
g62
(dp1498
sg71
g661
sg64
(lp1499
g57
(g78
g59
NtRp1500
(dp1501
g62
(dp1502
g82
g83
ssg71
g1496
sg64
(lp1503
S'wsgi_file_wrapper'
p1504
asbag57
(g78
g59
NtRp1505
(dp1506
g62
(dp1507
g89
g90
ssg71
g1496
sg64
(lp1508
S':'
asbag57
(g78
g59
NtRp1509
(dp1510
g62
(dp1511
sg71
g1496
sg64
(lp1512
g57
(g58
g59
NtRp1513
(dp1514
g62
(dp1515
g70
I4
ssg71
g1509
sg64
(lp1516
S'<class wsgiref.util.FileWrapper at 0x016B30A0>'
p1517
asbasbasbag57
(g73
g59
NtRp1518
(dp1519
g62
(dp1520
sg71
g661
sg64
(lp1521
g57
(g78
g59
NtRp1522
(dp1523
g62
(dp1524
g82
g83
ssg71
g1518
sg64
(lp1525
S'wsgi_input'
p1526
asbag57
(g78
g59
NtRp1527
(dp1528
g62
(dp1529
g89
g90
ssg71
g1518
sg64
(lp1530
S':'
asbag57
(g78
g59
NtRp1531
(dp1532
g62
(dp1533
sg71
g1518
sg64
(lp1534
g57
(g58
g59
NtRp1535
(dp1536
g62
(dp1537
g70
I4
ssg71
g1531
sg64
(lp1538
S'<socket._fileobject object at 0x05367070>'
p1539
asbasbasbag57
(g73
g59
NtRp1540
(dp1541
g62
(dp1542
sg71
g661
sg64
(lp1543
g57
(g78
g59
NtRp1544
(dp1545
g62
(dp1546
g82
g83
ssg71
g1540
sg64
(lp1547
S'wsgi_multiprocess'
p1548
asbag57
(g78
g59
NtRp1549
(dp1550
g62
(dp1551
g89
g90
ssg71
g1540
sg64
(lp1552
S':'
asbag57
(g78
g59
NtRp1553
(dp1554
g62
(dp1555
sg71
g1540
sg64
(lp1556
g57
(g58
g59
NtRp1557
(dp1558
g62
(dp1559
g70
I4
ssg71
g1553
sg64
(lp1560
g100
asbasbasbag57
(g73
g59
NtRp1561
(dp1562
g62
(dp1563
sg71
g661
sg64
(lp1564
g57
(g78
g59
NtRp1565
(dp1566
g62
(dp1567
g82
g83
ssg71
g1561
sg64
(lp1568
S'wsgi_multithread'
p1569
asbag57
(g78
g59
NtRp1570
(dp1571
g62
(dp1572
g89
g90
ssg71
g1561
sg64
(lp1573
S':'
asbag57
(g78
g59
NtRp1574
(dp1575
g62
(dp1576
sg71
g1561
sg64
(lp1577
g57
(g58
g59
NtRp1578
(dp1579
g62
(dp1580
g70
I4
ssg71
g1574
sg64
(lp1581
S'True'
p1582
asbasbasbag57
(g73
g59
NtRp1583
(dp1584
g62
(dp1585
sg71
g661
sg64
(lp1586
g57
(g78
g59
NtRp1587
(dp1588
g62
(dp1589
g82
g83
ssg71
g1583
sg64
(lp1590
S'wsgi_run_once'
p1591
asbag57
(g78
g59
NtRp1592
(dp1593
g62
(dp1594
g89
g90
ssg71
g1583
sg64
(lp1595
S':'
asbag57
(g78
g59
NtRp1596
(dp1597
g62
(dp1598
sg71
g1583
sg64
(lp1599
g57
(g58
g59
NtRp1600
(dp1601
g62
(dp1602
g70
I4
ssg71
g1596
sg64
(lp1603
g100
asbasbasbag57
(g73
g59
NtRp1604
(dp1605
g62
(dp1606
sg71
g661
sg64
(lp1607
g57
(g78
g59
NtRp1608
(dp1609
g62
(dp1610
g82
g83
ssg71
g1604
sg64
(lp1611
S'wsgi_url_scheme'
p1612
asbag57
(g78
g59
NtRp1613
(dp1614
g62
(dp1615
g89
g90
ssg71
g1604
sg64
(lp1616
S':'
asbag57
(g78
g59
NtRp1617
(dp1618
g62
(dp1619
sg71
g1604
sg64
(lp1620
g57
(g58
g59
NtRp1621
(dp1622
g62
(dp1623
g70
I4
ssg71
g1617
sg64
(lp1624
S'http'
p1625
asbasbasbag57
(g73
g59
NtRp1626
(dp1627
g62
(dp1628
sg71
g661
sg64
(lp1629
g57
(g78
g59
NtRp1630
(dp1631
g62
(dp1632
g82
g83
ssg71
g1626
sg64
(lp1633
S'wsgi_version'
p1634
asbag57
(g78
g59
NtRp1635
(dp1636
g62
(dp1637
g89
g90
ssg71
g1626
sg64
(lp1638
S':'
asbag57
(g78
g59
NtRp1639
(dp1640
g62
(dp1641
sg71
g1626
sg64
(lp1642
g57
(g58
g59
NtRp1643
(dp1644
g62
(dp1645
g70
I4
ssg71
g1639
sg64
(lp1646
g57
(g66
g59
NtRp1647
(dp1648
g62
(dp1649
g70
I3
ssg71
Nsg64
(lp1650
g57
(g73
g59
NtRp1651
(dp1652
g62
(dp1653
sg71
g1647
sg64
(lp1654
g57
(g78
g59
NtRp1655
(dp1656
g62
(dp1657
sg71
g1651
sg64
(lp1658
g57
(g58
g59
NtRp1659
(dp1660
g62
(dp1661
g70
I3
ssg71
g1655
sg64
(lp1662
S'1'
asbasbasbag57
(g73
g59
NtRp1663
(dp1664
g62
(dp1665
sg71
g1647
sg64
(lp1666
g57
(g78
g59
NtRp1667
(dp1668
g62
(dp1669
sg71
g1663
sg64
(lp1670
g57
(g58
g59
NtRp1671
(dp1672
g62
(dp1673
g70
I3
ssg71
g1667
sg64
(lp1674
S'0'
asbasbasbasbasbasbasbasbasbasbasbag57
(g73
g59
NtRp1675
(dp1676
g62
(dp1677
sg71
g67
sg64
(lp1678
g57
(g78
g59
NtRp1679
(dp1680
g62
(dp1681
g82
g83
ssg71
g1675
sg64
(lp1682
S'extension'
p1683
asbag57
(g78
g59
NtRp1684
(dp1685
g62
(dp1686
g89
g90
ssg71
g1675
sg64
(lp1687
S':'
asbag57
(g78
g59
NtRp1688
(dp1689
g62
(dp1690
sg71
g1675
sg64
(lp1691
g57
(g58
g59
NtRp1692
(dp1693
g62
(dp1694
g70
I5
ssg71
g1688
sg64
(lp1695
S'html'
p1696
asbasbasbag57
(g73
g59
NtRp1697
(dp1698
g62
(dp1699
sg71
g67
sg64
(lp1700
g57
(g78
g59
NtRp1701
(dp1702
g62
(dp1703
g82
g83
ssg71
g1697
sg64
(lp1704
S'folder'
p1705
asbag57
(g78
g59
NtRp1706
(dp1707
g62
(dp1708
g89
g90
ssg71
g1697
sg64
(lp1709
S':'
asbag57
(g78
g59
NtRp1710
(dp1711
g62
(dp1712
sg71
g1697
sg64
(lp1713
g57
(g58
g59
NtRp1714
(dp1715
g62
(dp1716
g70
I5
ssg71
g1710
sg64
(lp1717
S'X:\\procurement\\MATERIEL\\Raw Material\\Data Management\\Custom Applications\\Development\\web2py\\applications\\welcome\\'
p1718
asbasbasbag57
(g73
g59
NtRp1719
(dp1720
g62
(dp1721
sg71
g67
sg64
(lp1722
g57
(g78
g59
NtRp1723
(dp1724
g62
(dp1725
g82
g83
ssg71
g1719
sg64
(lp1726
S'function'
p1727
asbag57
(g78
g59
NtRp1728
(dp1729
g62
(dp1730
g89
g90
ssg71
g1719
sg64
(lp1731
S':'
asbag57
(g78
g59
NtRp1732
(dp1733
g62
(dp1734
sg71
g1719
sg64
(lp1735
g57
(g58
g59
NtRp1736
(dp1737
g62
(dp1738
g70
I5
ssg71
g1732
sg64
(lp1739
S'index'
p1740
asbasbasbag57
(g73
g59
NtRp1741
(dp1742
g62
(dp1743
sg71
g67
sg64
(lp1744
g57
(g78
g59
NtRp1745
(dp1746
g62
(dp1747
g82
g83
ssg71
g1741
sg64
(lp1748
S'get_vars'
p1749
asbag57
(g78
g59
NtRp1750
(dp1751
g62
(dp1752
g89
g90
ssg71
g1741
sg64
(lp1753
S':'
asbag57
(g78
g59
NtRp1754
(dp1755
g62
(dp1756
sg71
g1741
sg64
(lp1757
g57
(g58
g59
NtRp1758
(dp1759
g62
(dp1760
g70
I5
ssg71
g1754
sg64
(lp1761
g57
(g66
g59
NtRp1762
(dp1763
g62
(dp1764
g70
I4
ssg71
Nsg64
(lp1765
sbasbasbasbag57
(g73
g59
NtRp1766
(dp1767
g62
(dp1768
sg71
g67
sg64
(lp1769
g57
(g78
g59
NtRp1770
(dp1771
g62
(dp1772
g82
g83
ssg71
g1766
sg64
(lp1773
S'global_settings'
p1774
asbag57
(g78
g59
NtRp1775
(dp1776
g62
(dp1777
g89
g90
ssg71
g1766
sg64
(lp1778
S':'
asbag57
(g78
g59
NtRp1779
(dp1780
g62
(dp1781
sg71
g1766
sg64
(lp1782
g57
(g58
g59
NtRp1783
(dp1784
g62
(dp1785
g70
I5
ssg71
g1779
sg64
(lp1786
g57
(g66
g59
NtRp1787
(dp1788
g62
(dp1789
g70
I4
ssg71
Nsg64
(lp1790
g57
(g73
g59
NtRp1791
(dp1792
g62
(dp1793
sg71
g1787
sg64
(lp1794
g57
(g78
g59
NtRp1795
(dp1796
g62
(dp1797
g82
g83
ssg71
g1791
sg64
(lp1798
g673
asbag57
(g78
g59
NtRp1799
(dp1800
g62
(dp1801
g89
g90
ssg71
g1791
sg64
(lp1802
S':'
asbag57
(g78
g59
NtRp1803
(dp1804
g62
(dp1805
sg71
g1791
sg64
(lp1806
g57
(g58
g59
NtRp1807
(dp1808
g62
(dp1809
g70
I4
ssg71
g1803
sg64
(lp1810
S"set(['X:\\\\procurement\\\\MATERIEL\\\\Raw Material\\\\Data Management\\\\Custom Applications\\\\Development\\\\web2py\\\\applications\\\\admin\\\\', 'X:\\\\procurement\\\\MATERIEL\\\\Raw Material\\\\Data Management\\\\Custom Applications\\\\Development\\\\web2py\\\\applications\\\\welcome\\\\'])"
p1811
asbasbasbag57
(g73
g59
NtRp1812
(dp1813
g62
(dp1814
sg71
g1787
sg64
(lp1815
g57
(g78
g59
NtRp1816
(dp1817
g62
(dp1818
g82
g83
ssg71
g1812
sg64
(lp1819
g695
asbag57
(g78
g59
NtRp1820
(dp1821
g62
(dp1822
g89
g90
ssg71
g1812
sg64
(lp1823
S':'
asbag57
(g78
g59
NtRp1824
(dp1825
g62
(dp1826
sg71
g1812
sg64
(lp1827
g57
(g58
g59
NtRp1828
(dp1829
g62
(dp1830
g70
I4
ssg71
g1824
sg64
(lp1831
g708
asbasbasbag57
(g73
g59
NtRp1832
(dp1833
g62
(dp1834
sg71
g1787
sg64
(lp1835
g57
(g78
g59
NtRp1836
(dp1837
g62
(dp1838
g82
g83
ssg71
g1832
sg64
(lp1839
g717
asbag57
(g78
g59
NtRp1840
(dp1841
g62
(dp1842
g89
g90
ssg71
g1832
sg64
(lp1843
S':'
asbag57
(g78
g59
NtRp1844
(dp1845
g62
(dp1846
sg71
g1832
sg64
(lp1847
g57
(g58
g59
NtRp1848
(dp1849
g62
(dp1850
g70
I4
ssg71
g1844
sg64
(lp1851
g57
(g66
g59
NtRp1852
(dp1853
g62
(dp1854
g70
I3
ssg71
Nsg64
(lp1855
sbasbasbasbag57
(g73
g59
NtRp1856
(dp1857
g62
(dp1858
sg71
g1787
sg64
(lp1859
g57
(g78
g59
NtRp1860
(dp1861
g62
(dp1862
g82
g83
ssg71
g1856
sg64
(lp1863
g742
asbag57
(g78
g59
NtRp1864
(dp1865
g62
(dp1866
g89
g90
ssg71
g1856
sg64
(lp1867
S':'
asbag57
(g78
g59
NtRp1868
(dp1869
g62
(dp1870
sg71
g1856
sg64
(lp1871
g57
(g58
g59
NtRp1872
(dp1873
g62
(dp1874
g70
I4
ssg71
g1868
sg64
(lp1875
S"<Values at 0xc7cda0: {'verbose': False, 'ip': '127.0.0.1', 'with_scheduler': False, 'ips': ['172.31.249.32'], 'shutdown_timeout': 5, 'taskbar': False, 'port': 8000, 'maxthreads': None, 'softcron': False, 'server_name': 'GLKLAG235327', 'bpython': False, 'nogui': False, 'pid_filename': 'httpserver.pid', 'extcron': False, 'runcron': False, 'run_system_tests': False, 'test': None, 'folder': 'X:\\\\procurement\\\\MATERIEL\\\\Raw Material\\\\Data Management\\\\Custom Applications\\\\Development\\\\web2py', 'config': '', 'import_models': False, 'winservice': '', 'shell': None, 'run': '', 'log_filename': 'httpserver.log', 'debuglevel': 30, 'args': [''], 'socket_timeout': 5, 'ssl_ca_certificate': None, 'scheduler': None, 'profiler_filename': None, 'ssl_private_key': '', 'scheduler_groups': None, 'password': '<ask>', 'request_queue_size': 5, 'ssl_certificate': '', 'cronjob': False, 'numthreads': None, 'quiet': False, 'interfaces': None, 'minthreads': None, 'timeout': 10, 'plain': False, 'nobanner': False}>"
p1876
asbasbasbag57
(g73
g59
NtRp1877
(dp1878
g62
(dp1879
sg71
g1787
sg64
(lp1880
g57
(g78
g59
NtRp1881
(dp1882
g62
(dp1883
g82
g83
ssg71
g1877
sg64
(lp1884
g764
asbag57
(g78
g59
NtRp1885
(dp1886
g62
(dp1887
g89
g90
ssg71
g1877
sg64
(lp1888
S':'
asbag57
(g78
g59
NtRp1889
(dp1890
g62
(dp1891
sg71
g1877
sg64
(lp1892
g57
(g58
g59
NtRp1893
(dp1894
g62
(dp1895
g70
I4
ssg71
g1889
sg64
(lp1896
S'set([])'
p1897
asbasbasbag57
(g73
g59
NtRp1898
(dp1899
g62
(dp1900
sg71
g1787
sg64
(lp1901
g57
(g78
g59
NtRp1902
(dp1903
g62
(dp1904
g82
g83
ssg71
g1898
sg64
(lp1905
g786
asbag57
(g78
g59
NtRp1906
(dp1907
g62
(dp1908
g89
g90
ssg71
g1898
sg64
(lp1909
S':'
asbag57
(g78
g59
NtRp1910
(dp1911
g62
(dp1912
sg71
g1898
sg64
(lp1913
g57
(g58
g59
NtRp1914
(dp1915
g62
(dp1916
g70
I4
ssg71
g1910
sg64
(lp1917
g100
asbasbasbag57
(g73
g59
NtRp1918
(dp1919
g62
(dp1920
sg71
g1787
sg64
(lp1921
g57
(g78
g59
NtRp1922
(dp1923
g62
(dp1924
g82
g83
ssg71
g1918
sg64
(lp1925
g807
asbag57
(g78
g59
NtRp1926
(dp1927
g62
(dp1928
g89
g90
ssg71
g1918
sg64
(lp1929
S':'
asbag57
(g78
g59
NtRp1930
(dp1931
g62
(dp1932
sg71
g1918
sg64
(lp1933
g57
(g58
g59
NtRp1934
(dp1935
g62
(dp1936
g70
I4
ssg71
g1930
sg64
(lp1937
g820
asbasbasbag57
(g73
g59
NtRp1938
(dp1939
g62
(dp1940
sg71
g1787
sg64
(lp1941
g57
(g78
g59
NtRp1942
(dp1943
g62
(dp1944
g82
g83
ssg71
g1938
sg64
(lp1945
g1005
asbag57
(g78
g59
NtRp1946
(dp1947
g62
(dp1948
g89
g90
ssg71
g1938
sg64
(lp1949
S':'
asbag57
(g78
g59
NtRp1950
(dp1951
g62
(dp1952
sg71
g1938
sg64
(lp1953
g57
(g58
g59
NtRp1954
(dp1955
g62
(dp1956
g70
I4
ssg71
g1950
sg64
(lp1957
g100
asbasbasbag57
(g73
g59
NtRp1958
(dp1959
g62
(dp1960
sg71
g1787
sg64
(lp1961
g57
(g78
g59
NtRp1962
(dp1963
g62
(dp1964
g82
g83
ssg71
g1958
sg64
(lp1965
g1026
asbag57
(g78
g59
NtRp1966
(dp1967
g62
(dp1968
g89
g90
ssg71
g1958
sg64
(lp1969
S':'
asbag57
(g78
g59
NtRp1970
(dp1971
g62
(dp1972
sg71
g1958
sg64
(lp1973
g57
(g58
g59
NtRp1974
(dp1975
g62
(dp1976
g70
I4
ssg71
g1970
sg64
(lp1977
g100
asbasbasbag57
(g73
g59
NtRp1978
(dp1979
g62
(dp1980
sg71
g1787
sg64
(lp1981
g57
(g78
g59
NtRp1982
(dp1983
g62
(dp1984
g82
g83
ssg71
g1978
sg64
(lp1985
g1047
asbag57
(g78
g59
NtRp1986
(dp1987
g62
(dp1988
g89
g90
ssg71
g1978
sg64
(lp1989
S':'
asbag57
(g78
g59
NtRp1990
(dp1991
g62
(dp1992
sg71
g1978
sg64
(lp1993
g57
(g58
g59
NtRp1994
(dp1995
g62
(dp1996
g70
I4
ssg71
g1990
sg64
(lp1997
g57
(g66
g59
NtRp1998
(dp1999
g62
(dp2000
g70
I3
ssg71
Nsg64
(lp2001
g57
(g73
g59
NtRp2002
(dp2003
g62
(dp2004
sg71
g1998
sg64
(lp2005
g57
(g78
g59
NtRp2006
(dp2007
g62
(dp2008
sg71
g2002
sg64
(lp2009
g57
(g58
g59
NtRp2010
(dp2011
g62
(dp2012
g70
I3
ssg71
g2006
sg64
(lp2013
g1076
asbasbasbag57
(g73
g59
NtRp2014
(dp2015
g62
(dp2016
sg71
g1998
sg64
(lp2017
g57
(g78
g59
NtRp2018
(dp2019
g62
(dp2020
sg71
g2014
sg64
(lp2021
g57
(g58
g59
NtRp2022
(dp2023
g62
(dp2024
g70
I3
ssg71
g2018
sg64
(lp2025
g1089
asbasbasbag57
(g73
g59
NtRp2026
(dp2027
g62
(dp2028
sg71
g1998
sg64
(lp2029
g57
(g78
g59
NtRp2030
(dp2031
g62
(dp2032
sg71
g2026
sg64
(lp2033
g57
(g58
g59
NtRp2034
(dp2035
g62
(dp2036
g70
I3
ssg71
g2030
sg64
(lp2037
g1102
asbasbasbag57
(g73
g59
NtRp2038
(dp2039
g62
(dp2040
sg71
g1998
sg64
(lp2041
g57
(g78
g59
NtRp2042
(dp2043
g62
(dp2044
sg71
g2038
sg64
(lp2045
g57
(g58
g59
NtRp2046
(dp2047
g62
(dp2048
g70
I3
ssg71
g2042
sg64
(lp2049
g1115
asbasbasbag57
(g73
g59
NtRp2050
(dp2051
g62
(dp2052
sg71
g1998
sg64
(lp2053
g57
(g78
g59
NtRp2054
(dp2055
g62
(dp2056
sg71
g2050
sg64
(lp2057
g57
(g58
g59
NtRp2058
(dp2059
g62
(dp2060
g70
I3
ssg71
g2054
sg64
(lp2061
g1128
asbasbasbasbasbasbasbag57
(g73
g59
NtRp2062
(dp2063
g62
(dp2064
sg71
g1787
sg64
(lp2065
g57
(g78
g59
NtRp2066
(dp2067
g62
(dp2068
g82
g83
ssg71
g2062
sg64
(lp2069
g1395
asbag57
(g78
g59
NtRp2070
(dp2071
g62
(dp2072
g89
g90
ssg71
g2062
sg64
(lp2073
S':'
asbag57
(g78
g59
NtRp2074
(dp2075
g62
(dp2076
sg71
g2062
sg64
(lp2077
g57
(g58
g59
NtRp2078
(dp2079
g62
(dp2080
g70
I4
ssg71
g2074
sg64
(lp2081
g57
(g66
g59
NtRp2082
(dp2083
g62
(dp2084
g70
I3
ssg71
Nsg64
(lp2085
g57
(g73
g59
NtRp2086
(dp2087
g62
(dp2088
sg71
g2082
sg64
(lp2089
g57
(g78
g59
NtRp2090
(dp2091
g62
(dp2092
sg71
g2086
sg64
(lp2093
g57
(g58
g59
NtRp2094
(dp2095
g62
(dp2096
g70
I3
ssg71
g2090
sg64
(lp2097
S'2'
asbasbasbag57
(g73
g59
NtRp2098
(dp2099
g62
(dp2100
sg71
g2082
sg64
(lp2101
g57
(g78
g59
NtRp2102
(dp2103
g62
(dp2104
sg71
g2098
sg64
(lp2105
g57
(g58
g59
NtRp2106
(dp2107
g62
(dp2108
g70
I3
ssg71
g2102
sg64
(lp2109
S'2'
asbasbasbag57
(g73
g59
NtRp2110
(dp2111
g62
(dp2112
sg71
g2082
sg64
(lp2113
g57
(g78
g59
NtRp2114
(dp2115
g62
(dp2116
sg71
g2110
sg64
(lp2117
g57
(g58
g59
NtRp2118
(dp2119
g62
(dp2120
g70
I3
ssg71
g2114
sg64
(lp2121
S'1'
asbasbasbag57
(g73
g59
NtRp2122
(dp2123
g62
(dp2124
sg71
g2082
sg64
(lp2125
g57
(g78
g59
NtRp2126
(dp2127
g62
(dp2128
sg71
g2122
sg64
(lp2129
g57
(g58
g59
NtRp2130
(dp2131
g62
(dp2132
g70
I3
ssg71
g2126
sg64
(lp2133
S'datetime.datetime(2012, 10, 21, 16, 57, 4)'
p2134
asbasbasbag57
(g73
g59
NtRp2135
(dp2136
g62
(dp2137
sg71
g2082
sg64
(lp2138
g57
(g78
g59
NtRp2139
(dp2140
g62
(dp2141
sg71
g2135
sg64
(lp2142
g57
(g58
g59
NtRp2143
(dp2144
g62
(dp2145
g70
I3
ssg71
g2139
sg64
(lp2146
g1473
asbasbasbasbasbasbasbasbasbasbasbag57
(g73
g59
NtRp2147
(dp2148
g62
(dp2149
sg71
g67
sg64
(lp2150
g57
(g78
g59
NtRp2151
(dp2152
g62
(dp2153
g82
g83
ssg71
g2147
sg64
(lp2154
S'is_https'
p2155
asbag57
(g78
g59
NtRp2156
(dp2157
g62
(dp2158
g89
g90
ssg71
g2147
sg64
(lp2159
S':'
asbag57
(g78
g59
NtRp2160
(dp2161
g62
(dp2162
sg71
g2147
sg64
(lp2163
g57
(g58
g59
NtRp2164
(dp2165
g62
(dp2166
g70
I5
ssg71
g2160
sg64
(lp2167
g100
asbasbasbag57
(g73
g59
NtRp2168
(dp2169
g62
(dp2170
sg71
g67
sg64
(lp2171
g57
(g78
g59
NtRp2172
(dp2173
g62
(dp2174
g82
g83
ssg71
g2168
sg64
(lp2175
S'is_local'
p2176
asbag57
(g78
g59
NtRp2177
(dp2178
g62
(dp2179
g89
g90
ssg71
g2168
sg64
(lp2180
S':'
asbag57
(g78
g59
NtRp2181
(dp2182
g62
(dp2183
sg71
g2168
sg64
(lp2184
g57
(g58
g59
NtRp2185
(dp2186
g62
(dp2187
g70
I5
ssg71
g2181
sg64
(lp2188
g1582
asbasbasbag57
(g73
g59
NtRp2189
(dp2190
g62
(dp2191
sg71
g67
sg64
(lp2192
g57
(g78
g59
NtRp2193
(dp2194
g62
(dp2195
g82
g83
ssg71
g2189
sg64
(lp2196
S'is_restful'
p2197
asbag57
(g78
g59
NtRp2198
(dp2199
g62
(dp2200
g89
g90
ssg71
g2189
sg64
(lp2201
S':'
asbag57
(g78
g59
NtRp2202
(dp2203
g62
(dp2204
sg71
g2189
sg64
(lp2205
g57
(g58
g59
NtRp2206
(dp2207
g62
(dp2208
g70
I5
ssg71
g2202
sg64
(lp2209
g100
asbasbasbag57
(g73
g59
NtRp2210
(dp2211
g62
(dp2212
sg71
g67
sg64
(lp2213
g57
(g78
g59
NtRp2214
(dp2215
g62
(dp2216
g82
g83
ssg71
g2210
sg64
(lp2217
S'now'
p2218
asbag57
(g78
g59
NtRp2219
(dp2220
g62
(dp2221
g89
g90
ssg71
g2210
sg64
(lp2222
S':'
asbag57
(g78
g59
NtRp2223
(dp2224
g62
(dp2225
sg71
g2210
sg64
(lp2226
g57
(g58
g59
NtRp2227
(dp2228
g62
(dp2229
g70
I5
ssg71
g2223
sg64
(lp2230
S'datetime.datetime(2012, 11, 2, 10, 2, 52, 526000)'
p2231
asbasbasbag57
(g73
g59
NtRp2232
(dp2233
g62
(dp2234
sg71
g67
sg64
(lp2235
g57
(g78
g59
NtRp2236
(dp2237
g62
(dp2238
g82
g83
ssg71
g2232
sg64
(lp2239
S'post_vars'
p2240
asbag57
(g78
g59
NtRp2241
(dp2242
g62
(dp2243
g89
g90
ssg71
g2232
sg64
(lp2244
S':'
asbag57
(g78
g59
NtRp2245
(dp2246
g62
(dp2247
sg71
g2232
sg64
(lp2248
g57
(g58
g59
NtRp2249
(dp2250
g62
(dp2251
g70
I5
ssg71
g2245
sg64
(lp2252
g57
(g66
g59
NtRp2253
(dp2254
g62
(dp2255
g70
I4
ssg71
Nsg64
(lp2256
sbasbasbasbag57
(g73
g59
NtRp2257
(dp2258
g62
(dp2259
sg71
g67
sg64
(lp2260
g57
(g78
g59
NtRp2261
(dp2262
g62
(dp2263
g82
g83
ssg71
g2257
sg64
(lp2264
S'raw_args'
p2265
asbag57
(g78
g59
NtRp2266
(dp2267
g62
(dp2268
g89
g90
ssg71
g2257
sg64
(lp2269
S':'
asbag57
(g78
g59
NtRp2270
(dp2271
g62
(dp2272
sg71
g2257
sg64
(lp2273
g57
(g58
g59
NtRp2274
(dp2275
g62
(dp2276
g70
I5
ssg71
g2270
sg64
(lp2277
S''
asbasbasbag57
(g73
g59
NtRp2278
(dp2279
g62
(dp2280
sg71
g67
sg64
(lp2281
g57
(g78
g59
NtRp2282
(dp2283
g62
(dp2284
g82
g83
ssg71
g2278
sg64
(lp2285
S'raw_extension'
p2286
asbag57
(g78
g59
NtRp2287
(dp2288
g62
(dp2289
g89
g90
ssg71
g2278
sg64
(lp2290
S':'
asbag57
(g78
g59
NtRp2291
(dp2292
g62
(dp2293
sg71
g2278
sg64
(lp2294
g57
(g58
g59
NtRp2295
(dp2296
g62
(dp2297
g70
I5
ssg71
g2291
sg64
(lp2298
S'None'
p2299
asbasbasbag57
(g73
g59
NtRp2300
(dp2301
g62
(dp2302
sg71
g67
sg64
(lp2303
g57
(g78
g59
NtRp2304
(dp2305
g62
(dp2306
g82
g83
ssg71
g2300
sg64
(lp2307
S'url'
p2308
asbag57
(g78
g59
NtRp2309
(dp2310
g62
(dp2311
g89
g90
ssg71
g2300
sg64
(lp2312
S':'
asbag57
(g78
g59
NtRp2313
(dp2314
g62
(dp2315
sg71
g2300
sg64
(lp2316
g57
(g58
g59
NtRp2317
(dp2318
g62
(dp2319
g70
I5
ssg71
g2313
sg64
(lp2320
g1150
asbasbasbag57
(g73
g59
NtRp2321
(dp2322
g62
(dp2323
sg71
g67
sg64
(lp2324
g57
(g78
g59
NtRp2325
(dp2326
g62
(dp2327
g82
g83
ssg71
g2321
sg64
(lp2328
S'utcnow'
p2329
asbag57
(g78
g59
NtRp2330
(dp2331
g62
(dp2332
g89
g90
ssg71
g2321
sg64
(lp2333
S':'
asbag57
(g78
g59
NtRp2334
(dp2335
g62
(dp2336
sg71
g2321
sg64
(lp2337
g57
(g58
g59
NtRp2338
(dp2339
g62
(dp2340
g70
I5
ssg71
g2334
sg64
(lp2341
S'datetime.datetime(2012, 11, 2, 10, 2, 52, 526000)'
p2342
asbasbasbag57
(g73
g59
NtRp2343
(dp2344
g62
(dp2345
sg71
g67
sg64
(lp2346
g57
(g78
g59
NtRp2347
(dp2348
g62
(dp2349
g82
g83
ssg71
g2343
sg64
(lp2350
S'uuid'
p2351
asbag57
(g78
g59
NtRp2352
(dp2353
g62
(dp2354
g89
g90
ssg71
g2343
sg64
(lp2355
S':'
asbag57
(g78
g59
NtRp2356
(dp2357
g62
(dp2358
sg71
g2343
sg64
(lp2359
g57
(g58
g59
NtRp2360
(dp2361
g62
(dp2362
g70
I5
ssg71
g2356
sg64
(lp2363
S'welcome/127.0.0.1.2012-11-02.10-02-52.62dfdaae-4fb9-45c2-a0e5-d7333fb7df9a'
p2364
asbasbasbag57
(g73
g59
NtRp2365
(dp2366
g62
(dp2367
sg71
g67
sg64
(lp2368
g57
(g78
g59
NtRp2369
(dp2370
g62
(dp2371
g82
g83
ssg71
g2365
sg64
(lp2372
S'vars'
p2373
asbag57
(g78
g59
NtRp2374
(dp2375
g62
(dp2376
g89
g90
ssg71
g2365
sg64
(lp2377
S':'
asbag57
(g78
g59
NtRp2378
(dp2379
g62
(dp2380
sg71
g2365
sg64
(lp2381
g57
(g58
g59
NtRp2382
(dp2383
g62
(dp2384
g70
I5
ssg71
g2378
sg64
(lp2385
g57
(g66
g59
NtRp2386
(dp2387
g62
(dp2388
g70
I4
ssg71
Nsg64
(lp2389
sbasbasbasbag57
(g73
g59
NtRp2390
(dp2391
g62
(dp2392
sg71
g67
sg64
(lp2393
g57
(g78
g59
NtRp2394
(dp2395
g62
(dp2396
g82
g83
ssg71
g2390
sg64
(lp2397
S'wsgi'
p2398
asbag57
(g78
g59
NtRp2399
(dp2400
g62
(dp2401
g89
g90
ssg71
g2390
sg64
(lp2402
S':'
asbag57
(g78
g59
NtRp2403
(dp2404
g62
(dp2405
sg71
g2390
sg64
(lp2406
g57
(g58
g59
NtRp2407
(dp2408
g62
(dp2409
g70
I5
ssg71
g2403
sg64
(lp2410
g57
(g66
g59
NtRp2411
(dp2412
g62
(dp2413
g70
I4
ssg71
Nsg64
(lp2414
g57
(g73
g59
NtRp2415
(dp2416
g62
(dp2417
sg71
g2411
sg64
(lp2418
g57
(g78
g59
NtRp2419
(dp2420
g62
(dp2421
g82
g83
ssg71
g2415
sg64
(lp2422
S'environ'
p2423
asbag57
(g78
g59
NtRp2424
(dp2425
g62
(dp2426
g89
g90
ssg71
g2415
sg64
(lp2427
S':'
asbag57
(g78
g59
NtRp2428
(dp2429
g62
(dp2430
sg71
g2415
sg64
(lp2431
g57
(g58
g59
NtRp2432
(dp2433
g62
(dp2434
g70
I4
ssg71
g2428
sg64
(lp2435
g57
(g66
g59
NtRp2436
(dp2437
g62
(dp2438
g70
I3
ssg71
Nsg64
(lp2439
g57
(g73
g59
NtRp2440
(dp2441
g62
(dp2442
sg71
g2436
sg64
(lp2443
g57
(g78
g59
NtRp2444
(dp2445
g62
(dp2446
g82
g83
ssg71
g2440
sg64
(lp2447
S'HTTP_ACCEPT'
p2448
asbag57
(g78
g59
NtRp2449
(dp2450
g62
(dp2451
g89
g90
ssg71
g2440
sg64
(lp2452
S':'
asbag57
(g78
g59
NtRp2453
(dp2454
g62
(dp2455
sg71
g2440
sg64
(lp2456
g57
(g58
g59
NtRp2457
(dp2458
g62
(dp2459
g70
I3
ssg71
g2453
sg64
(lp2460
g842
asbasbasbag57
(g73
g59
NtRp2461
(dp2462
g62
(dp2463
sg71
g2436
sg64
(lp2464
g57
(g78
g59
NtRp2465
(dp2466
g62
(dp2467
g82
g83
ssg71
g2461
sg64
(lp2468
S'HTTP_ACCEPT_ENCODING'
p2469
asbag57
(g78
g59
NtRp2470
(dp2471
g62
(dp2472
g89
g90
ssg71
g2461
sg64
(lp2473
S':'
asbag57
(g78
g59
NtRp2474
(dp2475
g62
(dp2476
sg71
g2461
sg64
(lp2477
g57
(g58
g59
NtRp2478
(dp2479
g62
(dp2480
g70
I3
ssg71
g2474
sg64
(lp2481
g864
asbasbasbag57
(g73
g59
NtRp2482
(dp2483
g62
(dp2484
sg71
g2436
sg64
(lp2485
g57
(g78
g59
NtRp2486
(dp2487
g62
(dp2488
g82
g83
ssg71
g2482
sg64
(lp2489
S'HTTP_ACCEPT_LANGUAGE'
p2490
asbag57
(g78
g59
NtRp2491
(dp2492
g62
(dp2493
g89
g90
ssg71
g2482
sg64
(lp2494
S':'
asbag57
(g78
g59
NtRp2495
(dp2496
g62
(dp2497
sg71
g2482
sg64
(lp2498
g57
(g58
g59
NtRp2499
(dp2500
g62
(dp2501
g70
I3
ssg71
g2495
sg64
(lp2502
g886
asbasbasbag57
(g73
g59
NtRp2503
(dp2504
g62
(dp2505
sg71
g2436
sg64
(lp2506
g57
(g78
g59
NtRp2507
(dp2508
g62
(dp2509
g82
g83
ssg71
g2503
sg64
(lp2510
S'HTTP_CONNECTION'
p2511
asbag57
(g78
g59
NtRp2512
(dp2513
g62
(dp2514
g89
g90
ssg71
g2503
sg64
(lp2515
S':'
asbag57
(g78
g59
NtRp2516
(dp2517
g62
(dp2518
sg71
g2503
sg64
(lp2519
g57
(g58
g59
NtRp2520
(dp2521
g62
(dp2522
g70
I3
ssg71
g2516
sg64
(lp2523
g908
asbasbasbag57
(g73
g59
NtRp2524
(dp2525
g62
(dp2526
sg71
g2436
sg64
(lp2527
g57
(g78
g59
NtRp2528
(dp2529
g62
(dp2530
g82
g83
ssg71
g2524
sg64
(lp2531
S'HTTP_COOKIE'
p2532
asbag57
(g78
g59
NtRp2533
(dp2534
g62
(dp2535
g89
g90
ssg71
g2524
sg64
(lp2536
S':'
asbag57
(g78
g59
NtRp2537
(dp2538
g62
(dp2539
sg71
g2524
sg64
(lp2540
g57
(g58
g59
NtRp2541
(dp2542
g62
(dp2543
g70
I3
ssg71
g2537
sg64
(lp2544
g930
asbasbasbag57
(g73
g59
NtRp2545
(dp2546
g62
(dp2547
sg71
g2436
sg64
(lp2548
g57
(g78
g59
NtRp2549
(dp2550
g62
(dp2551
g82
g83
ssg71
g2545
sg64
(lp2552
S'HTTP_HOST'
p2553
asbag57
(g78
g59
NtRp2554
(dp2555
g62
(dp2556
g89
g90
ssg71
g2545
sg64
(lp2557
S':'
asbag57
(g78
g59
NtRp2558
(dp2559
g62
(dp2560
sg71
g2545
sg64
(lp2561
g57
(g58
g59
NtRp2562
(dp2563
g62
(dp2564
g70
I3
ssg71
g2558
sg64
(lp2565
g952
asbasbasbag57
(g73
g59
NtRp2566
(dp2567
g62
(dp2568
sg71
g2436
sg64
(lp2569
g57
(g78
g59
NtRp2570
(dp2571
g62
(dp2572
g82
g83
ssg71
g2566
sg64
(lp2573
S'HTTP_REFERER'
p2574
asbag57
(g78
g59
NtRp2575
(dp2576
g62
(dp2577
g89
g90
ssg71
g2566
sg64
(lp2578
S':'
asbag57
(g78
g59
NtRp2579
(dp2580
g62
(dp2581
sg71
g2566
sg64
(lp2582
g57
(g58
g59
NtRp2583
(dp2584
g62
(dp2585
g70
I3
ssg71
g2579
sg64
(lp2586
g974
asbasbasbag57
(g73
g59
NtRp2587
(dp2588
g62
(dp2589
sg71
g2436
sg64
(lp2590
g57
(g78
g59
NtRp2591
(dp2592
g62
(dp2593
g82
g83
ssg71
g2587
sg64
(lp2594
S'HTTP_USER_AGENT'
p2595
asbag57
(g78
g59
NtRp2596
(dp2597
g62
(dp2598
g89
g90
ssg71
g2587
sg64
(lp2599
S':'
asbag57
(g78
g59
NtRp2600
(dp2601
g62
(dp2602
sg71
g2587
sg64
(lp2603
g57
(g58
g59
NtRp2604
(dp2605
g62
(dp2606
g70
I3
ssg71
g2600
sg64
(lp2607
g996
asbasbasbag57
(g73
g59
NtRp2608
(dp2609
g62
(dp2610
sg71
g2436
sg64
(lp2611
g57
(g78
g59
NtRp2612
(dp2613
g62
(dp2614
g82
g83
ssg71
g2608
sg64
(lp2615
S'PATH_INFO'
p2616
asbag57
(g78
g59
NtRp2617
(dp2618
g62
(dp2619
g89
g90
ssg71
g2608
sg64
(lp2620
S':'
asbag57
(g78
g59
NtRp2621
(dp2622
g62
(dp2623
sg71
g2608
sg64
(lp2624
g57
(g58
g59
NtRp2625
(dp2626
g62
(dp2627
g70
I3
ssg71
g2621
sg64
(lp2628
g1150
asbasbasbag57
(g73
g59
NtRp2629
(dp2630
g62
(dp2631
sg71
g2436
sg64
(lp2632
g57
(g78
g59
NtRp2633
(dp2634
g62
(dp2635
g82
g83
ssg71
g2629
sg64
(lp2636
S'QUERY_STRING'
p2637
asbag57
(g78
g59
NtRp2638
(dp2639
g62
(dp2640
g89
g90
ssg71
g2629
sg64
(lp2641
S':'
asbag57
(g78
g59
NtRp2642
(dp2643
g62
(dp2644
sg71
g2629
sg64
(lp2645
g57
(g58
g59
NtRp2646
(dp2647
g62
(dp2648
g70
I3
ssg71
g2642
sg64
(lp2649
S''
asbasbasbag57
(g73
g59
NtRp2650
(dp2651
g62
(dp2652
sg71
g2436
sg64
(lp2653
g57
(g78
g59
NtRp2654
(dp2655
g62
(dp2656
g82
g83
ssg71
g2650
sg64
(lp2657
S'REMOTE_ADDR'
p2658
asbag57
(g78
g59
NtRp2659
(dp2660
g62
(dp2661
g89
g90
ssg71
g2650
sg64
(lp2662
S':'
asbag57
(g78
g59
NtRp2663
(dp2664
g62
(dp2665
sg71
g2650
sg64
(lp2666
g57
(g58
g59
NtRp2667
(dp2668
g62
(dp2669
g70
I3
ssg71
g2663
sg64
(lp2670
g212
asbasbasbag57
(g73
g59
NtRp2671
(dp2672
g62
(dp2673
sg71
g2436
sg64
(lp2674
g57
(g78
g59
NtRp2675
(dp2676
g62
(dp2677
g82
g83
ssg71
g2671
sg64
(lp2678
S'REMOTE_PORT'
p2679
asbag57
(g78
g59
NtRp2680
(dp2681
g62
(dp2682
g89
g90
ssg71
g2671
sg64
(lp2683
S':'
asbag57
(g78
g59
NtRp2684
(dp2685
g62
(dp2686
sg71
g2671
sg64
(lp2687
g57
(g58
g59
NtRp2688
(dp2689
g62
(dp2690
g70
I3
ssg71
g2684
sg64
(lp2691
g1214
asbasbasbag57
(g73
g59
NtRp2692
(dp2693
g62
(dp2694
sg71
g2436
sg64
(lp2695
g57
(g78
g59
NtRp2696
(dp2697
g62
(dp2698
g82
g83
ssg71
g2692
sg64
(lp2699
S'REQUEST_METHOD'
p2700
asbag57
(g78
g59
NtRp2701
(dp2702
g62
(dp2703
g89
g90
ssg71
g2692
sg64
(lp2704
S':'
asbag57
(g78
g59
NtRp2705
(dp2706
g62
(dp2707
sg71
g2692
sg64
(lp2708
g57
(g58
g59
NtRp2709
(dp2710
g62
(dp2711
g70
I3
ssg71
g2705
sg64
(lp2712
g1236
asbasbasbag57
(g73
g59
NtRp2713
(dp2714
g62
(dp2715
sg71
g2436
sg64
(lp2716
g57
(g78
g59
NtRp2717
(dp2718
g62
(dp2719
g82
g83
ssg71
g2713
sg64
(lp2720
S'REQUEST_URI'
p2721
asbag57
(g78
g59
NtRp2722
(dp2723
g62
(dp2724
g89
g90
ssg71
g2713
sg64
(lp2725
S':'
asbag57
(g78
g59
NtRp2726
(dp2727
g62
(dp2728
sg71
g2713
sg64
(lp2729
g57
(g58
g59
NtRp2730
(dp2731
g62
(dp2732
g70
I3
ssg71
g2726
sg64
(lp2733
g1150
asbasbasbag57
(g73
g59
NtRp2734
(dp2735
g62
(dp2736
sg71
g2436
sg64
(lp2737
g57
(g78
g59
NtRp2738
(dp2739
g62
(dp2740
g82
g83
ssg71
g2734
sg64
(lp2741
S'SCRIPT_NAME'
p2742
asbag57
(g78
g59
NtRp2743
(dp2744
g62
(dp2745
g89
g90
ssg71
g2734
sg64
(lp2746
S':'
asbag57
(g78
g59
NtRp2747
(dp2748
g62
(dp2749
sg71
g2734
sg64
(lp2750
g57
(g58
g59
NtRp2751
(dp2752
g62
(dp2753
g70
I3
ssg71
g2747
sg64
(lp2754
S''
asbasbasbag57
(g73
g59
NtRp2755
(dp2756
g62
(dp2757
sg71
g2436
sg64
(lp2758
g57
(g78
g59
NtRp2759
(dp2760
g62
(dp2761
g82
g83
ssg71
g2755
sg64
(lp2762
S'SERVER_NAME'
p2763
asbag57
(g78
g59
NtRp2764
(dp2765
g62
(dp2766
g89
g90
ssg71
g2755
sg64
(lp2767
S':'
asbag57
(g78
g59
NtRp2768
(dp2769
g62
(dp2770
sg71
g2755
sg64
(lp2771
g57
(g58
g59
NtRp2772
(dp2773
g62
(dp2774
g70
I3
ssg71
g2768
sg64
(lp2775
g1115
asbasbasbag57
(g73
g59
NtRp2776
(dp2777
g62
(dp2778
sg71
g2436
sg64
(lp2779
g57
(g78
g59
NtRp2780
(dp2781
g62
(dp2782
g82
g83
ssg71
g2776
sg64
(lp2783
S'SERVER_PORT'
p2784
asbag57
(g78
g59
NtRp2785
(dp2786
g62
(dp2787
g89
g90
ssg71
g2776
sg64
(lp2788
S':'
asbag57
(g78
g59
NtRp2789
(dp2790
g62
(dp2791
sg71
g2776
sg64
(lp2792
g57
(g58
g59
NtRp2793
(dp2794
g62
(dp2795
g70
I3
ssg71
g2789
sg64
(lp2796
g1321
asbasbasbag57
(g73
g59
NtRp2797
(dp2798
g62
(dp2799
sg71
g2436
sg64
(lp2800
g57
(g78
g59
NtRp2801
(dp2802
g62
(dp2803
g82
g83
ssg71
g2797
sg64
(lp2804
S'SERVER_PROTOCOL'
p2805
asbag57
(g78
g59
NtRp2806
(dp2807
g62
(dp2808
g89
g90
ssg71
g2797
sg64
(lp2809
S':'
asbag57
(g78
g59
NtRp2810
(dp2811
g62
(dp2812
sg71
g2797
sg64
(lp2813
g57
(g58
g59
NtRp2814
(dp2815
g62
(dp2816
g70
I3
ssg71
g2810
sg64
(lp2817
g1343
asbasbasbag57
(g73
g59
NtRp2818
(dp2819
g62
(dp2820
sg71
g2436
sg64
(lp2821
g57
(g78
g59
NtRp2822
(dp2823
g62
(dp2824
g82
g83
ssg71
g2818
sg64
(lp2825
S'SERVER_SOFTWARE'
p2826
asbag57
(g78
g59
NtRp2827
(dp2828
g62
(dp2829
g89
g90
ssg71
g2818
sg64
(lp2830
S':'
asbag57
(g78
g59
NtRp2831
(dp2832
g62
(dp2833
sg71
g2818
sg64
(lp2834
g57
(g58
g59
NtRp2835
(dp2836
g62
(dp2837
g70
I3
ssg71
g2831
sg64
(lp2838
g1365
asbasbasbag57
(g73
g59
NtRp2839
(dp2840
g62
(dp2841
sg71
g2436
sg64
(lp2842
g57
(g78
g59
NtRp2843
(dp2844
g62
(dp2845
g82
g83
ssg71
g2839
sg64
(lp2846
S'wsgi.errors'
p2847
asbag57
(g78
g59
NtRp2848
(dp2849
g62
(dp2850
g89
g90
ssg71
g2839
sg64
(lp2851
S':'
asbag57
(g78
g59
NtRp2852
(dp2853
g62
(dp2854
sg71
g2839
sg64
(lp2855
g57
(g58
g59
NtRp2856
(dp2857
g62
(dp2858
g70
I3
ssg71
g2852
sg64
(lp2859
S"<open file '<stderr>', mode 'w' at 0x00A850D0>"
p2860
asbasbasbag57
(g73
g59
NtRp2861
(dp2862
g62
(dp2863
sg71
g2436
sg64
(lp2864
g57
(g78
g59
NtRp2865
(dp2866
g62
(dp2867
g82
g83
ssg71
g2861
sg64
(lp2868
S'wsgi.file_wrapper'
p2869
asbag57
(g78
g59
NtRp2870
(dp2871
g62
(dp2872
g89
g90
ssg71
g2861
sg64
(lp2873
S':'
asbag57
(g78
g59
NtRp2874
(dp2875
g62
(dp2876
sg71
g2861
sg64
(lp2877
g57
(g58
g59
NtRp2878
(dp2879
g62
(dp2880
g70
I3
ssg71
g2874
sg64
(lp2881
S'<class wsgiref.util.FileWrapper at 0x016B30A0>'
p2882
asbasbasbag57
(g73
g59
NtRp2883
(dp2884
g62
(dp2885
sg71
g2436
sg64
(lp2886
g57
(g78
g59
NtRp2887
(dp2888
g62
(dp2889
g82
g83
ssg71
g2883
sg64
(lp2890
S'wsgi.input'
p2891
asbag57
(g78
g59
NtRp2892
(dp2893
g62
(dp2894
g89
g90
ssg71
g2883
sg64
(lp2895
S':'
asbag57
(g78
g59
NtRp2896
(dp2897
g62
(dp2898
sg71
g2883
sg64
(lp2899
g57
(g58
g59
NtRp2900
(dp2901
g62
(dp2902
g70
I3
ssg71
g2896
sg64
(lp2903
S'<cStringIO.StringO object at 0x0534CF20>'
p2904
asbasbasbag57
(g73
g59
NtRp2905
(dp2906
g62
(dp2907
sg71
g2436
sg64
(lp2908
g57
(g78
g59
NtRp2909
(dp2910
g62
(dp2911
g82
g83
ssg71
g2905
sg64
(lp2912
S'wsgi.multiprocess'
p2913
asbag57
(g78
g59
NtRp2914
(dp2915
g62
(dp2916
g89
g90
ssg71
g2905
sg64
(lp2917
S':'
asbag57
(g78
g59
NtRp2918
(dp2919
g62
(dp2920
sg71
g2905
sg64
(lp2921
g57
(g58
g59
NtRp2922
(dp2923
g62
(dp2924
g70
I3
ssg71
g2918
sg64
(lp2925
g100
asbasbasbag57
(g73
g59
NtRp2926
(dp2927
g62
(dp2928
sg71
g2436
sg64
(lp2929
g57
(g78
g59
NtRp2930
(dp2931
g62
(dp2932
g82
g83
ssg71
g2926
sg64
(lp2933
S'wsgi.multithread'
p2934
asbag57
(g78
g59
NtRp2935
(dp2936
g62
(dp2937
g89
g90
ssg71
g2926
sg64
(lp2938
S':'
asbag57
(g78
g59
NtRp2939
(dp2940
g62
(dp2941
sg71
g2926
sg64
(lp2942
g57
(g58
g59
NtRp2943
(dp2944
g62
(dp2945
g70
I3
ssg71
g2939
sg64
(lp2946
g1582
asbasbasbag57
(g73
g59
NtRp2947
(dp2948
g62
(dp2949
sg71
g2436
sg64
(lp2950
g57
(g78
g59
NtRp2951
(dp2952
g62
(dp2953
g82
g83
ssg71
g2947
sg64
(lp2954
S'wsgi.run_once'
p2955
asbag57
(g78
g59
NtRp2956
(dp2957
g62
(dp2958
g89
g90
ssg71
g2947
sg64
(lp2959
S':'
asbag57
(g78
g59
NtRp2960
(dp2961
g62
(dp2962
sg71
g2947
sg64
(lp2963
g57
(g58
g59
NtRp2964
(dp2965
g62
(dp2966
g70
I3
ssg71
g2960
sg64
(lp2967
g100
asbasbasbag57
(g73
g59
NtRp2968
(dp2969
g62
(dp2970
sg71
g2436
sg64
(lp2971
g57
(g78
g59
NtRp2972
(dp2973
g62
(dp2974
g82
g83
ssg71
g2968
sg64
(lp2975
S'wsgi.url_scheme'
p2976
asbag57
(g78
g59
NtRp2977
(dp2978
g62
(dp2979
g89
g90
ssg71
g2968
sg64
(lp2980
S':'
asbag57
(g78
g59
NtRp2981
(dp2982
g62
(dp2983
sg71
g2968
sg64
(lp2984
g57
(g58
g59
NtRp2985
(dp2986
g62
(dp2987
g70
I3
ssg71
g2981
sg64
(lp2988
g1625
asbasbasbag57
(g73
g59
NtRp2989
(dp2990
g62
(dp2991
sg71
g2436
sg64
(lp2992
g57
(g78
g59
NtRp2993
(dp2994
g62
(dp2995
g82
g83
ssg71
g2989
sg64
(lp2996
S'wsgi.version'
p2997
asbag57
(g78
g59
NtRp2998
(dp2999
g62
(dp3000
g89
g90
ssg71
g2989
sg64
(lp3001
S':'
asbag57
(g78
g59
NtRp3002
(dp3003
g62
(dp3004
sg71
g2989
sg64
(lp3005
g57
(g58
g59
NtRp3006
(dp3007
g62
(dp3008
g70
I3
ssg71
g3002
sg64
(lp3009
S'1'
asbasbasbasbasbasbasbasbasbasbasbasbasbsS'frames'
p3010
(lp3011
(dp3012
S'file'
p3013
S'X:\\procurement\\MATERIEL\\Raw Material\\Data Management\\Custom Applications\\Development\\web2py\\gluon\\restricted.py'
p3014
sS'dump'
p3015
(dp3016
S'environment'
p3017
S"{'A': <class 'gluon.html.A'>, 'Auth': <class 'gluon.tools.Auth'>, 'B': <class 'gluon.html.B'>, 'BEAUTIFY': <class 'gluon.html.BEAUTIFY'>, 'BODY': <class 'gluon.html.BODY'>, 'BR': <class 'gluon.html.BR'>, 'BUTTON': <class 'gluon.html.BUTTON'>, 'CAT': <class 'gluon.html.CAT'>, 'CENTER': <class 'gluon.html.CENTER'>, 'CLEANUP': <class 'gluon.validators.CLEANUP'>, ...}"
p3018
sS'ccode'
p3019
S'<code object <module> at 0536AEC0, file "X:\\proc...b2py\\applications\\welcome\\models\\db.py", line 15>'
p3020
ssS'lnum'
p3021
I212
sS'lines'
p3022
(dp3023
I207
S'    try:'
p3024
sI208
S'        if isinstance(code, types.CodeType):'
p3025
sI209
S'            ccode = code'
p3026
sI210
S'        else:'
p3027
sI211
S'            ccode = compile2(code, layer)'
p3028
sI212
S'        exec ccode in environment'
p3029
sI213
S'    except HTTP:'
p3030
sI214
S'        raise'
p3031
sI215
S'    except RestrictedError:'
p3032
sI216
S'        # do not encapsulate (obfuscate) the original RestrictedError'
p3033
ssS'call'
p3034
S'(code="# -*- coding: utf-8 -*-\\n\\n\\n    \\n\\n################...\'width\',\'integer\'),\\nField(\'height\',\'integer\'),\\n)\\n", environment={\'A\': <class \'gluon.html.A\'>, \'Auth\': <class \'gluon.tools.Auth\'>, \'B\': <class \'gluon.html.B\'>, \'BEAUTIFY\': <class \'gluon.html.BEAUTIFY\'>, \'BODY\': <class \'gluon.html.BODY\'>, \'BR\': <class \'gluon.html.BR\'>, \'BUTTON\': <class \'gluon.html.BUTTON\'>, \'CAT\': <class \'gluon.html.CAT\'>, \'CENTER\': <class \'gluon.html.CENTER\'>, \'CLEANUP\': <class \'gluon.validators.CLEANUP\'>, ...}, layer=r\'X:\\procurement\\MATERIEL\\Raw Material\\Data Manage...elopment\\web2py\\applications\\welcome\\models\\db.py\')'
p3035
sS'func'
p3036
S'restricted'
p3037
sa(dp3038
g3013
S'X:\\procurement\\MATERIEL\\Raw Material\\Data Management\\Custom Applications\\Development\\web2py\\applications\\welcome\\models\\db.py'
p3039
sg3015
(dp3040
S'Field'
p3041
S"<class 'gluon.dal.Field'>"
p3042
sS'db'
p3043
S'<DAL uri="sqlite://storage.sqlite">'
p3044
sS'db.auth'
p3045
S'undefined'
p3046
ssg3021
I100
sg3022
(dp3047
I96
S"Field('worksheet'),"
p3048
sI97
S')'
sI98
S''
sI99
S"db.define_table('user_charts',"
p3049
sI100
S"Field('user',db.auth),"
p3050
sI101
S"Field('chart',db.charts,requires=IS_NOT_EMPTY()),"
p3051
sI102
S"Field('title'),"
p3052
sI103
S"Field('description','text'),"
p3053
sI104
S')'
sI95
S"Field('workbooks',db.workbooks),"
p3054
ssg3034
S'()'
p3055
sg3036
S'<module>'
p3056
sa(dp3057
g3013
S'X:\\procurement\\MATERIEL\\Raw Material\\Data Management\\Custom Applications\\Development\\web2py\\gluon\\dal.py'
p3058
sg3015
(dp3059
S'self'
p3060
S'<DAL uri="sqlite://storage.sqlite">'
p3061
sS'global ogetattr'
p3062
S"<slot wrapper '__getattribute__' of 'object' objects>"
p3063
sS'key'
p3064
S"'auth'"
p3065
ssg3021
I7151
sg3022
(dp3066
I7146
S'    def __getattr__(self, key):'
p3067
sI7147
S"        if ogetattr(self,'_lazy_tables') and \\"
p3068
sI7148
S"                key in ogetattr(self,'_LAZY_TABLES'):"
p3069
sI7149
S'            tablename, fields, args = self._LAZY_TABLES.pop(key)'
p3070
sI7150
S'            return self.lazy_define_table(tablename,*fields,**args)'
p3071
sI7151
S'        return ogetattr(self, key)'
p3072
sI7152
S''
sI7153
S'    def __setitem__(self, key, value):'
p3073
sI7154
S'        osetattr(self, str(key), value)'
p3074
sI7155
S''
ssg3034
S'(self=<DAL uri="sqlite://storage.sqlite">, key=\'auth\')'
p3075
sg3036
S'__getattr__'
p3076
sasS'pyver'
p3077
S'Python 2.7: X:\\procurement\\MATERIEL\\Raw Material\\Data Management\\Custom Applications\\Development\\Python27\\python.exe'
p3078
sS'session'
p3079
g57
(g58
g59
NtRp3080
(dp3081
g62
(dp3082
sg64
(lp3083
g57
(g66
g59
NtRp3084
(dp3085
g62
(dp3086
g70
I5
ssg71
Nsg64
(lp3087
sbasbsS'etype'
p3088
S"<type 'exceptions.AttributeError'>"
p3089
sS'date'
p3090
S'Fri Nov 02 10:02:53 2012'
p3091
sS'response'
p3092
g57
(g58
g59
NtRp3093
(dp3094
g62
(dp3095
sg64
(lp3096
g57
(g66
g59
NtRp3097
(dp3098
g62
(dp3099
g70
I5
ssg71
Nsg64
(lp3100
g57
(g73
g59
NtRp3101
(dp3102
g62
(dp3103
sg71
g3097
sg64
(lp3104
g57
(g78
g59
NtRp3105
(dp3106
g62
(dp3107
g82
g83
ssg71
g3101
sg64
(lp3108
g155
asbag57
(g78
g59
NtRp3109
(dp3110
g62
(dp3111
g89
g90
ssg71
g3101
sg64
(lp3112
S':'
asbag57
(g78
g59
NtRp3113
(dp3114
g62
(dp3115
sg71
g3101
sg64
(lp3116
g57
(g58
g59
NtRp3117
(dp3118
g62
(dp3119
g70
I5
ssg71
g3113
sg64
(lp3120
S'<cStringIO.StringO object at 0x0534CD40>'
p3121
asbasbasbag57
(g73
g59
NtRp3122
(dp3123
g62
(dp3124
sg71
g3097
sg64
(lp3125
g57
(g78
g59
NtRp3126
(dp3127
g62
(dp3128
g82
g83
ssg71
g3122
sg64
(lp3129
g243
asbag57
(g78
g59
NtRp3130
(dp3131
g62
(dp3132
g89
g90
ssg71
g3122
sg64
(lp3133
S':'
asbag57
(g78
g59
NtRp3134
(dp3135
g62
(dp3136
sg71
g3122
sg64
(lp3137
g57
(g58
g59
NtRp3138
(dp3139
g62
(dp3140
g70
I5
ssg71
g3134
sg64
(lp3141
g57
(g66
g59
NtRp3142
(dp3143
g62
(dp3144
g70
I4
ssg71
Nsg64
(lp3145
g57
(g73
g59
NtRp3146
(dp3147
g62
(dp3148
sg71
g3142
sg64
(lp3149
g57
(g78
g59
NtRp3150
(dp3151
g62
(dp3152
g82
g83
ssg71
g3146
sg64
(lp3153
S'session_id_welcome'
p3154
asbag57
(g78
g59
NtRp3155
(dp3156
g62
(dp3157
g89
g90
ssg71
g3146
sg64
(lp3158
S':'
asbag57
(g78
g59
NtRp3159
(dp3160
g62
(dp3161
sg71
g3146
sg64
(lp3162
g57
(g58
g59
NtRp3163
(dp3164
g62
(dp3165
g70
I4
ssg71
g3159
sg64
(lp3166
S'127.0.0.1-751b44a7-ecd6-4816-97c5-b683074377cf'
p3167
ag57
(g66
g59
NtRp3168
(dp3169
g62
(dp3170
g70
I3
ssg71
Nsg64
(lp3171
g57
(g73
g59
NtRp3172
(dp3173
g62
(dp3174
sg71
g3168
sg64
(lp3175
g57
(g78
g59
NtRp3176
(dp3177
g62
(dp3178
g82
g83
ssg71
g3172
sg64
(lp3179
g294
asbag57
(g78
g59
NtRp3180
(dp3181
g62
(dp3182
g89
g90
ssg71
g3172
sg64
(lp3183
S':'
asbag57
(g78
g59
NtRp3184
(dp3185
g62
(dp3186
sg71
g3172
sg64
(lp3187
g57
(g58
g59
NtRp3188
(dp3189
g62
(dp3190
g70
I3
ssg71
g3184
sg64
(lp3191
S''
asbasbasbag57
(g73
g59
NtRp3192
(dp3193
g62
(dp3194
sg71
g3168
sg64
(lp3195
g57
(g78
g59
NtRp3196
(dp3197
g62
(dp3198
g82
g83
ssg71
g3192
sg64
(lp3199
g315
asbag57
(g78
g59
NtRp3200
(dp3201
g62
(dp3202
g89
g90
ssg71
g3192
sg64
(lp3203
S':'
asbag57
(g78
g59
NtRp3204
(dp3205
g62
(dp3206
sg71
g3192
sg64
(lp3207
g57
(g58
g59
NtRp3208
(dp3209
g62
(dp3210
g70
I3
ssg71
g3204
sg64
(lp3211
S''
asbasbasbag57
(g73
g59
NtRp3212
(dp3213
g62
(dp3214
sg71
g3168
sg64
(lp3215
g57
(g78
g59
NtRp3216
(dp3217
g62
(dp3218
g82
g83
ssg71
g3212
sg64
(lp3219
g336
asbag57
(g78
g59
NtRp3220
(dp3221
g62
(dp3222
g89
g90
ssg71
g3212
sg64
(lp3223
S':'
asbag57
(g78
g59
NtRp3224
(dp3225
g62
(dp3226
sg71
g3212
sg64
(lp3227
g57
(g58
g59
NtRp3228
(dp3229
g62
(dp3230
g70
I3
ssg71
g3224
sg64
(lp3231
S''
asbasbasbag57
(g73
g59
NtRp3232
(dp3233
g62
(dp3234
sg71
g3168
sg64
(lp3235
g57
(g78
g59
NtRp3236
(dp3237
g62
(dp3238
g82
g83
ssg71
g3232
sg64
(lp3239
g357
asbag57
(g78
g59
NtRp3240
(dp3241
g62
(dp3242
g89
g90
ssg71
g3232
sg64
(lp3243
S':'
asbag57
(g78
g59
NtRp3244
(dp3245
g62
(dp3246
sg71
g3232
sg64
(lp3247
g57
(g58
g59
NtRp3248
(dp3249
g62
(dp3250
g70
I3
ssg71
g3244
sg64
(lp3251
S''
asbasbasbag57
(g73
g59
NtRp3252
(dp3253
g62
(dp3254
sg71
g3168
sg64
(lp3255
g57
(g78
g59
NtRp3256
(dp3257
g62
(dp3258
g82
g83
ssg71
g3252
sg64
(lp3259
g378
asbag57
(g78
g59
NtRp3260
(dp3261
g62
(dp3262
g89
g90
ssg71
g3252
sg64
(lp3263
S':'
asbag57
(g78
g59
NtRp3264
(dp3265
g62
(dp3266
sg71
g3252
sg64
(lp3267
g57
(g58
g59
NtRp3268
(dp3269
g62
(dp3270
g70
I3
ssg71
g3264
sg64
(lp3271
S''
asbasbasbag57
(g73
g59
NtRp3272
(dp3273
g62
(dp3274
sg71
g3168
sg64
(lp3275
g57
(g78
g59
NtRp3276
(dp3277
g62
(dp3278
g82
g83
ssg71
g3272
sg64
(lp3279
g399
asbag57
(g78
g59
NtRp3280
(dp3281
g62
(dp3282
g89
g90
ssg71
g3272
sg64
(lp3283
S':'
asbag57
(g78
g59
NtRp3284
(dp3285
g62
(dp3286
sg71
g3272
sg64
(lp3287
g57
(g58
g59
NtRp3288
(dp3289
g62
(dp3290
g70
I3
ssg71
g3284
sg64
(lp3291
S'/'
asbasbasbag57
(g73
g59
NtRp3292
(dp3293
g62
(dp3294
sg71
g3168
sg64
(lp3295
g57
(g78
g59
NtRp3296
(dp3297
g62
(dp3298
g82
g83
ssg71
g3292
sg64
(lp3299
g420
asbag57
(g78
g59
NtRp3300
(dp3301
g62
(dp3302
g89
g90
ssg71
g3292
sg64
(lp3303
S':'
asbag57
(g78
g59
NtRp3304
(dp3305
g62
(dp3306
sg71
g3292
sg64
(lp3307
g57
(g58
g59
NtRp3308
(dp3309
g62
(dp3310
g70
I3
ssg71
g3304
sg64
(lp3311
S''
asbasbasbag57
(g73
g59
NtRp3312
(dp3313
g62
(dp3314
sg71
g3168
sg64
(lp3315
g57
(g78
g59
NtRp3316
(dp3317
g62
(dp3318
g82
g83
ssg71
g3312
sg64
(lp3319
g441
asbag57
(g78
g59
NtRp3320
(dp3321
g62
(dp3322
g89
g90
ssg71
g3312
sg64
(lp3323
S':'
asbag57
(g78
g59
NtRp3324
(dp3325
g62
(dp3326
sg71
g3312
sg64
(lp3327
g57
(g58
g59
NtRp3328
(dp3329
g62
(dp3330
g70
I3
ssg71
g3324
sg64
(lp3331
S''
asbasbasbasbasbasbasbasbasbasbasbag57
(g73
g59
NtRp3332
(dp3333
g62
(dp3334
sg71
g3097
sg64
(lp3335
g57
(g78
g59
NtRp3336
(dp3337
g62
(dp3338
g82
g83
ssg71
g3332
sg64
(lp3339
S'delimiters'
p3340
asbag57
(g78
g59
NtRp3341
(dp3342
g62
(dp3343
g89
g90
ssg71
g3332
sg64
(lp3344
S':'
asbag57
(g78
g59
NtRp3345
(dp3346
g62
(dp3347
sg71
g3332
sg64
(lp3348
g57
(g58
g59
NtRp3349
(dp3350
g62
(dp3351
g70
I5
ssg71
g3345
sg64
(lp3352
g57
(g66
g59
NtRp3353
(dp3354
g62
(dp3355
g70
I4
ssg71
Nsg64
(lp3356
g57
(g73
g59
NtRp3357
(dp3358
g62
(dp3359
sg71
g3353
sg64
(lp3360
g57
(g78
g59
NtRp3361
(dp3362
g62
(dp3363
sg71
g3357
sg64
(lp3364
g57
(g58
g59
NtRp3365
(dp3366
g62
(dp3367
g70
I4
ssg71
g3361
sg64
(lp3368
S'{{'
p3369
asbasbasbag57
(g73
g59
NtRp3370
(dp3371
g62
(dp3372
sg71
g3353
sg64
(lp3373
g57
(g78
g59
NtRp3374
(dp3375
g62
(dp3376
sg71
g3370
sg64
(lp3377
g57
(g58
g59
NtRp3378
(dp3379
g62
(dp3380
g70
I4
ssg71
g3374
sg64
(lp3381
S'}}'
p3382
asbasbasbasbasbasbasbag57
(g73
g59
NtRp3383
(dp3384
g62
(dp3385
sg71
g3097
sg64
(lp3386
g57
(g78
g59
NtRp3387
(dp3388
g62
(dp3389
g82
g83
ssg71
g3383
sg64
(lp3390
S'files'
p3391
asbag57
(g78
g59
NtRp3392
(dp3393
g62
(dp3394
g89
g90
ssg71
g3383
sg64
(lp3395
S':'
asbag57
(g78
g59
NtRp3396
(dp3397
g62
(dp3398
sg71
g3383
sg64
(lp3399
g57
(g58
g59
NtRp3400
(dp3401
g62
(dp3402
g70
I5
ssg71
g3396
sg64
(lp3403
g57
(g66
g59
NtRp3404
(dp3405
g62
(dp3406
g70
I4
ssg71
Nsg64
(lp3407
sbasbasbasbag57
(g73
g59
NtRp3408
(dp3409
g62
(dp3410
sg71
g3097
sg64
(lp3411
g57
(g78
g59
NtRp3412
(dp3413
g62
(dp3414
g82
g83
ssg71
g3408
sg64
(lp3415
S'flash'
p3416
asbag57
(g78
g59
NtRp3417
(dp3418
g62
(dp3419
g89
g90
ssg71
g3408
sg64
(lp3420
S':'
asbag57
(g78
g59
NtRp3421
(dp3422
g62
(dp3423
sg71
g3408
sg64
(lp3424
g57
(g58
g59
NtRp3425
(dp3426
g62
(dp3427
g70
I5
ssg71
g3421
sg64
(lp3428
S''
asbasbasbag57
(g73
g59
NtRp3429
(dp3430
g62
(dp3431
sg71
g3097
sg64
(lp3432
g57
(g78
g59
NtRp3433
(dp3434
g62
(dp3435
g82
g83
ssg71
g3429
sg64
(lp3436
S'generic_patterns'
p3437
asbag57
(g78
g59
NtRp3438
(dp3439
g62
(dp3440
g89
g90
ssg71
g3429
sg64
(lp3441
S':'
asbag57
(g78
g59
NtRp3442
(dp3443
g62
(dp3444
sg71
g3429
sg64
(lp3445
g57
(g58
g59
NtRp3446
(dp3447
g62
(dp3448
g70
I5
ssg71
g3442
sg64
(lp3449
g57
(g66
g59
NtRp3450
(dp3451
g62
(dp3452
g70
I4
ssg71
Nsg64
(lp3453
g57
(g73
g59
NtRp3454
(dp3455
g62
(dp3456
sg71
g3450
sg64
(lp3457
g57
(g78
g59
NtRp3458
(dp3459
g62
(dp3460
sg71
g3454
sg64
(lp3461
g57
(g58
g59
NtRp3462
(dp3463
g62
(dp3464
g70
I4
ssg71
g3458
sg64
(lp3465
S'*'
asbasbasbasbasbasbasbag57
(g73
g59
NtRp3466
(dp3467
g62
(dp3468
sg71
g3097
sg64
(lp3469
g57
(g78
g59
NtRp3470
(dp3471
g62
(dp3472
g82
g83
ssg71
g3466
sg64
(lp3473
S'headers'
p3474
asbag57
(g78
g59
NtRp3475
(dp3476
g62
(dp3477
g89
g90
ssg71
g3466
sg64
(lp3478
S':'
asbag57
(g78
g59
NtRp3479
(dp3480
g62
(dp3481
sg71
g3466
sg64
(lp3482
g57
(g58
g59
NtRp3483
(dp3484
g62
(dp3485
g70
I5
ssg71
g3479
sg64
(lp3486
g57
(g66
g59
NtRp3487
(dp3488
g62
(dp3489
g70
I4
ssg71
Nsg64
(lp3490
g57
(g73
g59
NtRp3491
(dp3492
g62
(dp3493
sg71
g3487
sg64
(lp3494
g57
(g78
g59
NtRp3495
(dp3496
g62
(dp3497
g82
g83
ssg71
g3491
sg64
(lp3498
S'X-Powered-By'
p3499
asbag57
(g78
g59
NtRp3500
(dp3501
g62
(dp3502
g89
g90
ssg71
g3491
sg64
(lp3503
S':'
asbag57
(g78
g59
NtRp3504
(dp3505
g62
(dp3506
sg71
g3491
sg64
(lp3507
g57
(g58
g59
NtRp3508
(dp3509
g62
(dp3510
g70
I4
ssg71
g3504
sg64
(lp3511
S'web2py'
p3512
asbasbasbasbasbasbasbag57
(g73
g59
NtRp3513
(dp3514
g62
(dp3515
sg71
g3097
sg64
(lp3516
g57
(g78
g59
NtRp3517
(dp3518
g62
(dp3519
g82
g83
ssg71
g3513
sg64
(lp3520
S'menu'
p3521
asbag57
(g78
g59
NtRp3522
(dp3523
g62
(dp3524
g89
g90
ssg71
g3513
sg64
(lp3525
S':'
asbag57
(g78
g59
NtRp3526
(dp3527
g62
(dp3528
sg71
g3513
sg64
(lp3529
g57
(g58
g59
NtRp3530
(dp3531
g62
(dp3532
g70
I5
ssg71
g3526
sg64
(lp3533
g57
(g66
g59
NtRp3534
(dp3535
g62
(dp3536
g70
I4
ssg71
Nsg64
(lp3537
sbasbasbasbag57
(g73
g59
NtRp3538
(dp3539
g62
(dp3540
sg71
g3097
sg64
(lp3541
g57
(g78
g59
NtRp3542
(dp3543
g62
(dp3544
g82
g83
ssg71
g3538
sg64
(lp3545
S'meta'
p3546
asbag57
(g78
g59
NtRp3547
(dp3548
g62
(dp3549
g89
g90
ssg71
g3538
sg64
(lp3550
S':'
asbag57
(g78
g59
NtRp3551
(dp3552
g62
(dp3553
sg71
g3538
sg64
(lp3554
g57
(g58
g59
NtRp3555
(dp3556
g62
(dp3557
g70
I5
ssg71
g3551
sg64
(lp3558
g57
(g66
g59
NtRp3559
(dp3560
g62
(dp3561
g70
I4
ssg71
Nsg64
(lp3562
sbasbasbasbag57
(g73
g59
NtRp3563
(dp3564
g62
(dp3565
sg71
g3097
sg64
(lp3566
g57
(g78
g59
NtRp3567
(dp3568
g62
(dp3569
g82
g83
ssg71
g3563
sg64
(lp3570
S'models_to_run'
p3571
asbag57
(g78
g59
NtRp3572
(dp3573
g62
(dp3574
g89
g90
ssg71
g3563
sg64
(lp3575
S':'
asbag57
(g78
g59
NtRp3576
(dp3577
g62
(dp3578
sg71
g3563
sg64
(lp3579
g57
(g58
g59
NtRp3580
(dp3581
g62
(dp3582
g70
I5
ssg71
g3576
sg64
(lp3583
g57
(g66
g59
NtRp3584
(dp3585
g62
(dp3586
g70
I4
ssg71
Nsg64
(lp3587
g57
(g73
g59
NtRp3588
(dp3589
g62
(dp3590
sg71
g3584
sg64
(lp3591
g57
(g78
g59
NtRp3592
(dp3593
g62
(dp3594
sg71
g3588
sg64
(lp3595
g57
(g58
g59
NtRp3596
(dp3597
g62
(dp3598
g70
I4
ssg71
g3592
sg64
(lp3599
S'^\\w+\\.py$'
p3600
asbasbasbag57
(g73
g59
NtRp3601
(dp3602
g62
(dp3603
sg71
g3584
sg64
(lp3604
g57
(g78
g59
NtRp3605
(dp3606
g62
(dp3607
sg71
g3601
sg64
(lp3608
g57
(g58
g59
NtRp3609
(dp3610
g62
(dp3611
g70
I4
ssg71
g3605
sg64
(lp3612
S'^default/\\w+\\.py$'
p3613
asbasbasbag57
(g73
g59
NtRp3614
(dp3615
g62
(dp3616
sg71
g3584
sg64
(lp3617
g57
(g78
g59
NtRp3618
(dp3619
g62
(dp3620
sg71
g3614
sg64
(lp3621
g57
(g58
g59
NtRp3622
(dp3623
g62
(dp3624
g70
I4
ssg71
g3618
sg64
(lp3625
S'^default/index/\\w+\\.py$'
p3626
asbasbasbasbasbasbasbag57
(g73
g59
NtRp3627
(dp3628
g62
(dp3629
sg71
g3097
sg64
(lp3630
g57
(g78
g59
NtRp3631
(dp3632
g62
(dp3633
g82
g83
ssg71
g3627
sg64
(lp3634
S'postprocessing'
p3635
asbag57
(g78
g59
NtRp3636
(dp3637
g62
(dp3638
g89
g90
ssg71
g3627
sg64
(lp3639
S':'
asbag57
(g78
g59
NtRp3640
(dp3641
g62
(dp3642
sg71
g3627
sg64
(lp3643
g57
(g58
g59
NtRp3644
(dp3645
g62
(dp3646
g70
I5
ssg71
g3640
sg64
(lp3647
g57
(g66
g59
NtRp3648
(dp3649
g62
(dp3650
g70
I4
ssg71
Nsg64
(lp3651
sbasbasbasbag57
(g73
g59
NtRp3652
(dp3653
g62
(dp3654
sg71
g3097
sg64
(lp3655
g57
(g78
g59
NtRp3656
(dp3657
g62
(dp3658
g82
g83
ssg71
g3652
sg64
(lp3659
S'session_cookie_expires'
p3660
asbag57
(g78
g59
NtRp3661
(dp3662
g62
(dp3663
g89
g90
ssg71
g3652
sg64
(lp3664
S':'
asbag57
(g78
g59
NtRp3665
(dp3666
g62
(dp3667
sg71
g3652
sg64
(lp3668
g57
(g58
g59
NtRp3669
(dp3670
g62
(dp3671
g70
I5
ssg71
g3665
sg64
(lp3672
S'None'
p3673
asbasbasbag57
(g73
g59
NtRp3674
(dp3675
g62
(dp3676
sg71
g3097
sg64
(lp3677
g57
(g78
g59
NtRp3678
(dp3679
g62
(dp3680
g82
g83
ssg71
g3674
sg64
(lp3681
S'session_data_name'
p3682
asbag57
(g78
g59
NtRp3683
(dp3684
g62
(dp3685
g89
g90
ssg71
g3674
sg64
(lp3686
S':'
asbag57
(g78
g59
NtRp3687
(dp3688
g62
(dp3689
sg71
g3674
sg64
(lp3690
g57
(g58
g59
NtRp3691
(dp3692
g62
(dp3693
g70
I5
ssg71
g3687
sg64
(lp3694
S'session_data_welcome'
p3695
asbasbasbag57
(g73
g59
NtRp3696
(dp3697
g62
(dp3698
sg71
g3097
sg64
(lp3699
g57
(g78
g59
NtRp3700
(dp3701
g62
(dp3702
g82
g83
ssg71
g3696
sg64
(lp3703
S'session_filename'
p3704
asbag57
(g78
g59
NtRp3705
(dp3706
g62
(dp3707
g89
g90
ssg71
g3696
sg64
(lp3708
S':'
asbag57
(g78
g59
NtRp3709
(dp3710
g62
(dp3711
sg71
g3696
sg64
(lp3712
g57
(g58
g59
NtRp3713
(dp3714
g62
(dp3715
g70
I5
ssg71
g3709
sg64
(lp3716
S'X:\\procurement\\MATERIEL\\Raw Material\\Data Management\\Custom Applications\\Development\\web2py\\applications\\welcome\\sessions\\127.0.0.1-751b44a7-ecd6-4816-97c5-b683074377cf'
p3717
asbasbasbag57
(g73
g59
NtRp3718
(dp3719
g62
(dp3720
sg71
g3097
sg64
(lp3721
g57
(g78
g59
NtRp3722
(dp3723
g62
(dp3724
g82
g83
ssg71
g3718
sg64
(lp3725
S'session_id'
p3726
asbag57
(g78
g59
NtRp3727
(dp3728
g62
(dp3729
g89
g90
ssg71
g3718
sg64
(lp3730
S':'
asbag57
(g78
g59
NtRp3731
(dp3732
g62
(dp3733
sg71
g3718
sg64
(lp3734
g57
(g58
g59
NtRp3735
(dp3736
g62
(dp3737
g70
I5
ssg71
g3731
sg64
(lp3738
g3167
asbasbasbag57
(g73
g59
NtRp3739
(dp3740
g62
(dp3741
sg71
g3097
sg64
(lp3742
g57
(g78
g59
NtRp3743
(dp3744
g62
(dp3745
g82
g83
ssg71
g3739
sg64
(lp3746
S'session_id_name'
p3747
asbag57
(g78
g59
NtRp3748
(dp3749
g62
(dp3750
g89
g90
ssg71
g3739
sg64
(lp3751
S':'
asbag57
(g78
g59
NtRp3752
(dp3753
g62
(dp3754
sg71
g3739
sg64
(lp3755
g57
(g58
g59
NtRp3756
(dp3757
g62
(dp3758
g70
I5
ssg71
g3752
sg64
(lp3759
g3154
asbasbasbag57
(g73
g59
NtRp3760
(dp3761
g62
(dp3762
sg71
g3097
sg64
(lp3763
g57
(g78
g59
NtRp3764
(dp3765
g62
(dp3766
g82
g83
ssg71
g3760
sg64
(lp3767
S'session_new'
p3768
asbag57
(g78
g59
NtRp3769
(dp3770
g62
(dp3771
g89
g90
ssg71
g3760
sg64
(lp3772
S':'
asbag57
(g78
g59
NtRp3773
(dp3774
g62
(dp3775
sg71
g3760
sg64
(lp3776
g57
(g58
g59
NtRp3777
(dp3778
g62
(dp3779
g70
I5
ssg71
g3773
sg64
(lp3780
g1582
asbasbasbag57
(g73
g59
NtRp3781
(dp3782
g62
(dp3783
sg71
g3097
sg64
(lp3784
g57
(g78
g59
NtRp3785
(dp3786
g62
(dp3787
g82
g83
ssg71
g3781
sg64
(lp3788
S'session_storage_type'
p3789
asbag57
(g78
g59
NtRp3790
(dp3791
g62
(dp3792
g89
g90
ssg71
g3781
sg64
(lp3793
S':'
asbag57
(g78
g59
NtRp3794
(dp3795
g62
(dp3796
sg71
g3781
sg64
(lp3797
g57
(g58
g59
NtRp3798
(dp3799
g62
(dp3800
g70
I5
ssg71
g3794
sg64
(lp3801
g3013
asbasbasbag57
(g73
g59
NtRp3802
(dp3803
g62
(dp3804
sg71
g3097
sg64
(lp3805
g57
(g78
g59
NtRp3806
(dp3807
g62
(dp3808
g82
g83
ssg71
g3802
sg64
(lp3809
S'status'
p3810
asbag57
(g78
g59
NtRp3811
(dp3812
g62
(dp3813
g89
g90
ssg71
g3802
sg64
(lp3814
S':'
asbag57
(g78
g59
NtRp3815
(dp3816
g62
(dp3817
sg71
g3802
sg64
(lp3818
g57
(g58
g59
NtRp3819
(dp3820
g62
(dp3821
g70
I5
ssg71
g3815
sg64
(lp3822
S'200'
p3823
asbasbasbag57
(g73
g59
NtRp3824
(dp3825
g62
(dp3826
sg71
g3097
sg64
(lp3827
g57
(g78
g59
NtRp3828
(dp3829
g62
(dp3830
g82
g83
ssg71
g3824
sg64
(lp3831
S'view'
p3832
asbag57
(g78
g59
NtRp3833
(dp3834
g62
(dp3835
g89
g90
ssg71
g3824
sg64
(lp3836
S':'
asbag57
(g78
g59
NtRp3837
(dp3838
g62
(dp3839
sg71
g3824
sg64
(lp3840
g57
(g58
g59
NtRp3841
(dp3842
g62
(dp3843
g70
I5
ssg71
g3837
sg64
(lp3844
S'default/index.html'
p3845
asbasbasbasbasbsS'locals'
p3846
(dp3847
S'self'
p3848
S'<DAL uri="sqlite://storage.sqlite">'
p3849
sS'key'
p3850
S"'auth'"
p3851
sssS'traceback'
p3852
S'Traceback (most recent call last):\n  File "X:\\procurement\\MATERIEL\\Raw Material\\Data Management\\Custom Applications\\Development\\web2py\\gluon\\restricted.py", line 212, in restricted\n    exec ccode in environment\n  File "X:\\procurement\\MATERIEL\\Raw Material\\Data Management\\Custom Applications\\Development\\web2py\\applications\\welcome\\models\\db.py", line 100, in <module>\n    Field(\'user\',db.auth),\n  File "X:\\procurement\\MATERIEL\\Raw Material\\Data Management\\Custom Applications\\Development\\web2py\\gluon\\dal.py", line 7151, in __getattr__\n    return ogetattr(self, key)\nAttributeError: \'DAL\' object has no attribute \'auth\'\n'
p3853
s.